   1              		.file	"hand.c"
   2              		.text
   3              	.Ltext0:
   4              		.cfi_sections	.debug_frame
   5              		.file 0 "C:/Users/victim/Desktop/dangerous/yuziakicin/UEFI/UEFI/Backend" "C:/Users/victim/Desktop/
   6              		.globl	LibLocateHandle
   8              		.seh_proc	LibLocateHandle
   9              	LibLocateHandle:
  10              	.LVL0:
  11              	.LFB3:
  12              		.file 1 "C:/Users/victim/Desktop/dangerous/yuziakicin/UEFI/UEFI/Backend/gnu-efi-3.0.18/lib/hand.c"
   1:C:/Users/victim/Desktop/dangerous/yuziakicin/UEFI/UEFI/Backend/gnu-efi-3.0.18/lib\hand.c **** /*++
   2:C:/Users/victim/Desktop/dangerous/yuziakicin/UEFI/UEFI/Backend/gnu-efi-3.0.18/lib\hand.c **** 
   3:C:/Users/victim/Desktop/dangerous/yuziakicin/UEFI/UEFI/Backend/gnu-efi-3.0.18/lib\hand.c **** Copyright (c) 1998  Intel Corporation
   4:C:/Users/victim/Desktop/dangerous/yuziakicin/UEFI/UEFI/Backend/gnu-efi-3.0.18/lib\hand.c **** 
   5:C:/Users/victim/Desktop/dangerous/yuziakicin/UEFI/UEFI/Backend/gnu-efi-3.0.18/lib\hand.c **** Module Name:
   6:C:/Users/victim/Desktop/dangerous/yuziakicin/UEFI/UEFI/Backend/gnu-efi-3.0.18/lib\hand.c **** 
   7:C:/Users/victim/Desktop/dangerous/yuziakicin/UEFI/UEFI/Backend/gnu-efi-3.0.18/lib\hand.c ****     hand.c
   8:C:/Users/victim/Desktop/dangerous/yuziakicin/UEFI/UEFI/Backend/gnu-efi-3.0.18/lib\hand.c **** 
   9:C:/Users/victim/Desktop/dangerous/yuziakicin/UEFI/UEFI/Backend/gnu-efi-3.0.18/lib\hand.c **** Abstract:
  10:C:/Users/victim/Desktop/dangerous/yuziakicin/UEFI/UEFI/Backend/gnu-efi-3.0.18/lib\hand.c **** 
  11:C:/Users/victim/Desktop/dangerous/yuziakicin/UEFI/UEFI/Backend/gnu-efi-3.0.18/lib\hand.c **** 
  12:C:/Users/victim/Desktop/dangerous/yuziakicin/UEFI/UEFI/Backend/gnu-efi-3.0.18/lib\hand.c **** 
  13:C:/Users/victim/Desktop/dangerous/yuziakicin/UEFI/UEFI/Backend/gnu-efi-3.0.18/lib\hand.c **** 
  14:C:/Users/victim/Desktop/dangerous/yuziakicin/UEFI/UEFI/Backend/gnu-efi-3.0.18/lib\hand.c **** Revision History
  15:C:/Users/victim/Desktop/dangerous/yuziakicin/UEFI/UEFI/Backend/gnu-efi-3.0.18/lib\hand.c **** 
  16:C:/Users/victim/Desktop/dangerous/yuziakicin/UEFI/UEFI/Backend/gnu-efi-3.0.18/lib\hand.c **** --*/
  17:C:/Users/victim/Desktop/dangerous/yuziakicin/UEFI/UEFI/Backend/gnu-efi-3.0.18/lib\hand.c **** 
  18:C:/Users/victim/Desktop/dangerous/yuziakicin/UEFI/UEFI/Backend/gnu-efi-3.0.18/lib\hand.c **** #include "lib.h"
  19:C:/Users/victim/Desktop/dangerous/yuziakicin/UEFI/UEFI/Backend/gnu-efi-3.0.18/lib\hand.c **** #include "efistdarg.h"                        // !!!
  20:C:/Users/victim/Desktop/dangerous/yuziakicin/UEFI/UEFI/Backend/gnu-efi-3.0.18/lib\hand.c **** 
  21:C:/Users/victim/Desktop/dangerous/yuziakicin/UEFI/UEFI/Backend/gnu-efi-3.0.18/lib\hand.c **** 
  22:C:/Users/victim/Desktop/dangerous/yuziakicin/UEFI/UEFI/Backend/gnu-efi-3.0.18/lib\hand.c **** EFI_STATUS
  23:C:/Users/victim/Desktop/dangerous/yuziakicin/UEFI/UEFI/Backend/gnu-efi-3.0.18/lib\hand.c **** LibLocateProtocol (
  24:C:/Users/victim/Desktop/dangerous/yuziakicin/UEFI/UEFI/Backend/gnu-efi-3.0.18/lib\hand.c ****     IN  EFI_GUID    *ProtocolGuid,
  25:C:/Users/victim/Desktop/dangerous/yuziakicin/UEFI/UEFI/Backend/gnu-efi-3.0.18/lib\hand.c ****     OUT VOID        **Interface
  26:C:/Users/victim/Desktop/dangerous/yuziakicin/UEFI/UEFI/Backend/gnu-efi-3.0.18/lib\hand.c ****     )
  27:C:/Users/victim/Desktop/dangerous/yuziakicin/UEFI/UEFI/Backend/gnu-efi-3.0.18/lib\hand.c **** //
  28:C:/Users/victim/Desktop/dangerous/yuziakicin/UEFI/UEFI/Backend/gnu-efi-3.0.18/lib\hand.c **** // Find the first instance of this Protocol in the system and return it's interface
  29:C:/Users/victim/Desktop/dangerous/yuziakicin/UEFI/UEFI/Backend/gnu-efi-3.0.18/lib\hand.c **** //
  30:C:/Users/victim/Desktop/dangerous/yuziakicin/UEFI/UEFI/Backend/gnu-efi-3.0.18/lib\hand.c **** {
  31:C:/Users/victim/Desktop/dangerous/yuziakicin/UEFI/UEFI/Backend/gnu-efi-3.0.18/lib\hand.c ****     EFI_STATUS      Status;
  32:C:/Users/victim/Desktop/dangerous/yuziakicin/UEFI/UEFI/Backend/gnu-efi-3.0.18/lib\hand.c ****     UINTN           NumberHandles, Index;
  33:C:/Users/victim/Desktop/dangerous/yuziakicin/UEFI/UEFI/Backend/gnu-efi-3.0.18/lib\hand.c ****     EFI_HANDLE      *Handles;
  34:C:/Users/victim/Desktop/dangerous/yuziakicin/UEFI/UEFI/Backend/gnu-efi-3.0.18/lib\hand.c **** 
  35:C:/Users/victim/Desktop/dangerous/yuziakicin/UEFI/UEFI/Backend/gnu-efi-3.0.18/lib\hand.c ****     
  36:C:/Users/victim/Desktop/dangerous/yuziakicin/UEFI/UEFI/Backend/gnu-efi-3.0.18/lib\hand.c ****     *Interface = NULL;
  37:C:/Users/victim/Desktop/dangerous/yuziakicin/UEFI/UEFI/Backend/gnu-efi-3.0.18/lib\hand.c ****     Status = LibLocateHandle (ByProtocol, ProtocolGuid, NULL, &NumberHandles, &Handles);
  38:C:/Users/victim/Desktop/dangerous/yuziakicin/UEFI/UEFI/Backend/gnu-efi-3.0.18/lib\hand.c ****     if (EFI_ERROR(Status)) {
  39:C:/Users/victim/Desktop/dangerous/yuziakicin/UEFI/UEFI/Backend/gnu-efi-3.0.18/lib\hand.c ****         DEBUG((D_INFO, "LibLocateProtocol: Handle not found\n"));
  40:C:/Users/victim/Desktop/dangerous/yuziakicin/UEFI/UEFI/Backend/gnu-efi-3.0.18/lib\hand.c ****         return Status;
  41:C:/Users/victim/Desktop/dangerous/yuziakicin/UEFI/UEFI/Backend/gnu-efi-3.0.18/lib\hand.c ****     }
  42:C:/Users/victim/Desktop/dangerous/yuziakicin/UEFI/UEFI/Backend/gnu-efi-3.0.18/lib\hand.c **** 
  43:C:/Users/victim/Desktop/dangerous/yuziakicin/UEFI/UEFI/Backend/gnu-efi-3.0.18/lib\hand.c ****     for (Index=0; Index < NumberHandles; Index++) {
  44:C:/Users/victim/Desktop/dangerous/yuziakicin/UEFI/UEFI/Backend/gnu-efi-3.0.18/lib\hand.c ****         Status = uefi_call_wrapper(BS->HandleProtocol, 3, Handles[Index], ProtocolGuid, Interface);
  45:C:/Users/victim/Desktop/dangerous/yuziakicin/UEFI/UEFI/Backend/gnu-efi-3.0.18/lib\hand.c ****         if (!EFI_ERROR(Status)) {
  46:C:/Users/victim/Desktop/dangerous/yuziakicin/UEFI/UEFI/Backend/gnu-efi-3.0.18/lib\hand.c ****             break;
  47:C:/Users/victim/Desktop/dangerous/yuziakicin/UEFI/UEFI/Backend/gnu-efi-3.0.18/lib\hand.c ****         }
  48:C:/Users/victim/Desktop/dangerous/yuziakicin/UEFI/UEFI/Backend/gnu-efi-3.0.18/lib\hand.c ****     }
  49:C:/Users/victim/Desktop/dangerous/yuziakicin/UEFI/UEFI/Backend/gnu-efi-3.0.18/lib\hand.c **** 
  50:C:/Users/victim/Desktop/dangerous/yuziakicin/UEFI/UEFI/Backend/gnu-efi-3.0.18/lib\hand.c ****     if (Handles) {
  51:C:/Users/victim/Desktop/dangerous/yuziakicin/UEFI/UEFI/Backend/gnu-efi-3.0.18/lib\hand.c ****         FreePool (Handles);
  52:C:/Users/victim/Desktop/dangerous/yuziakicin/UEFI/UEFI/Backend/gnu-efi-3.0.18/lib\hand.c ****     }
  53:C:/Users/victim/Desktop/dangerous/yuziakicin/UEFI/UEFI/Backend/gnu-efi-3.0.18/lib\hand.c **** 
  54:C:/Users/victim/Desktop/dangerous/yuziakicin/UEFI/UEFI/Backend/gnu-efi-3.0.18/lib\hand.c ****     return Status;
  55:C:/Users/victim/Desktop/dangerous/yuziakicin/UEFI/UEFI/Backend/gnu-efi-3.0.18/lib\hand.c **** }
  56:C:/Users/victim/Desktop/dangerous/yuziakicin/UEFI/UEFI/Backend/gnu-efi-3.0.18/lib\hand.c **** 
  57:C:/Users/victim/Desktop/dangerous/yuziakicin/UEFI/UEFI/Backend/gnu-efi-3.0.18/lib\hand.c **** EFI_STATUS
  58:C:/Users/victim/Desktop/dangerous/yuziakicin/UEFI/UEFI/Backend/gnu-efi-3.0.18/lib\hand.c **** LibLocateHandle (
  59:C:/Users/victim/Desktop/dangerous/yuziakicin/UEFI/UEFI/Backend/gnu-efi-3.0.18/lib\hand.c ****     IN EFI_LOCATE_SEARCH_TYPE       SearchType,
  60:C:/Users/victim/Desktop/dangerous/yuziakicin/UEFI/UEFI/Backend/gnu-efi-3.0.18/lib\hand.c ****     IN EFI_GUID                     *Protocol OPTIONAL,
  61:C:/Users/victim/Desktop/dangerous/yuziakicin/UEFI/UEFI/Backend/gnu-efi-3.0.18/lib\hand.c ****     IN VOID                         *SearchKey OPTIONAL,
  62:C:/Users/victim/Desktop/dangerous/yuziakicin/UEFI/UEFI/Backend/gnu-efi-3.0.18/lib\hand.c ****     IN OUT UINTN                    *NoHandles,
  63:C:/Users/victim/Desktop/dangerous/yuziakicin/UEFI/UEFI/Backend/gnu-efi-3.0.18/lib\hand.c ****     OUT EFI_HANDLE                  **Buffer
  64:C:/Users/victim/Desktop/dangerous/yuziakicin/UEFI/UEFI/Backend/gnu-efi-3.0.18/lib\hand.c ****     )
  65:C:/Users/victim/Desktop/dangerous/yuziakicin/UEFI/UEFI/Backend/gnu-efi-3.0.18/lib\hand.c **** 
  66:C:/Users/victim/Desktop/dangerous/yuziakicin/UEFI/UEFI/Backend/gnu-efi-3.0.18/lib\hand.c **** {
  13              		.loc 1 66 1 view -0
  14              		.cfi_startproc
  15              		.loc 1 66 1 is_stmt 0 view .LVU1
  16 0000 4154     		pushq	%r12
  17              		.seh_pushreg	%r12
  18              		.cfi_def_cfa_offset 16
  19              		.cfi_offset 12, -16
  20 0002 55       		pushq	%rbp
  21              		.seh_pushreg	%rbp
  22              		.cfi_def_cfa_offset 24
  23              		.cfi_offset 6, -24
  24 0003 57       		pushq	%rdi
  25              		.seh_pushreg	%rdi
  26              		.cfi_def_cfa_offset 32
  27              		.cfi_offset 5, -32
  28 0004 56       		pushq	%rsi
  29              		.seh_pushreg	%rsi
  30              		.cfi_def_cfa_offset 40
  31              		.cfi_offset 4, -40
  32 0005 53       		pushq	%rbx
  33              		.seh_pushreg	%rbx
  34              		.cfi_def_cfa_offset 48
  35              		.cfi_offset 3, -48
  36 0006 4883EC40 		subq	$64, %rsp
  37              		.seh_stackalloc	64
  38              		.cfi_def_cfa_offset 112
  39              		.seh_endprologue
  40 000a 89CD     		movl	%ecx, %ebp
  41 000c 4889D7   		movq	%rdx, %rdi
  42 000f 4C89C6   		movq	%r8, %rsi
  43 0012 4D89CC   		movq	%r9, %r12
  44 0015 488B9C24 		movq	144(%rsp), %rbx
  44      90000000 
  67:C:/Users/victim/Desktop/dangerous/yuziakicin/UEFI/UEFI/Backend/gnu-efi-3.0.18/lib\hand.c ****     EFI_STATUS          Status;
  45              		.loc 1 67 5 is_stmt 1 view .LVU2
  68:C:/Users/victim/Desktop/dangerous/yuziakicin/UEFI/UEFI/Backend/gnu-efi-3.0.18/lib\hand.c ****     UINTN               BufferSize;
  46              		.loc 1 68 5 view .LVU3
  69:C:/Users/victim/Desktop/dangerous/yuziakicin/UEFI/UEFI/Backend/gnu-efi-3.0.18/lib\hand.c **** 
  70:C:/Users/victim/Desktop/dangerous/yuziakicin/UEFI/UEFI/Backend/gnu-efi-3.0.18/lib\hand.c ****     //
  71:C:/Users/victim/Desktop/dangerous/yuziakicin/UEFI/UEFI/Backend/gnu-efi-3.0.18/lib\hand.c ****     // Initialize for GrowBuffer loop
  72:C:/Users/victim/Desktop/dangerous/yuziakicin/UEFI/UEFI/Backend/gnu-efi-3.0.18/lib\hand.c ****     //
  73:C:/Users/victim/Desktop/dangerous/yuziakicin/UEFI/UEFI/Backend/gnu-efi-3.0.18/lib\hand.c **** 
  74:C:/Users/victim/Desktop/dangerous/yuziakicin/UEFI/UEFI/Backend/gnu-efi-3.0.18/lib\hand.c ****     Status = EFI_SUCCESS;
  47              		.loc 1 74 5 view .LVU4
  48              		.loc 1 74 12 is_stmt 0 view .LVU5
  49 001d 48C74424 		movq	$0, 56(%rsp)
  49      38000000 
  49      00
  75:C:/Users/victim/Desktop/dangerous/yuziakicin/UEFI/UEFI/Backend/gnu-efi-3.0.18/lib\hand.c ****     *Buffer = NULL;
  50              		.loc 1 75 5 is_stmt 1 view .LVU6
  51              		.loc 1 75 13 is_stmt 0 view .LVU7
  52 0026 48C70300 		movq	$0, (%rbx)
  52      000000
  76:C:/Users/victim/Desktop/dangerous/yuziakicin/UEFI/UEFI/Backend/gnu-efi-3.0.18/lib\hand.c ****     BufferSize = 50 * sizeof(EFI_HANDLE);
  53              		.loc 1 76 5 is_stmt 1 view .LVU8
  54              		.loc 1 76 16 is_stmt 0 view .LVU9
  55 002d 48C74424 		movq	$400, 48(%rsp)
  55      30900100 
  55      00
  77:C:/Users/victim/Desktop/dangerous/yuziakicin/UEFI/UEFI/Backend/gnu-efi-3.0.18/lib\hand.c **** 
  78:C:/Users/victim/Desktop/dangerous/yuziakicin/UEFI/UEFI/Backend/gnu-efi-3.0.18/lib\hand.c ****     //
  79:C:/Users/victim/Desktop/dangerous/yuziakicin/UEFI/UEFI/Backend/gnu-efi-3.0.18/lib\hand.c ****     // Call the real function
  80:C:/Users/victim/Desktop/dangerous/yuziakicin/UEFI/UEFI/Backend/gnu-efi-3.0.18/lib\hand.c ****     //
  81:C:/Users/victim/Desktop/dangerous/yuziakicin/UEFI/UEFI/Backend/gnu-efi-3.0.18/lib\hand.c **** 
  82:C:/Users/victim/Desktop/dangerous/yuziakicin/UEFI/UEFI/Backend/gnu-efi-3.0.18/lib\hand.c ****     while (GrowBuffer (&Status, (VOID **) Buffer, BufferSize)) {
  56              		.loc 1 82 5 is_stmt 1 view .LVU10
  57              		.loc 1 82 11 is_stmt 0 view .LVU11
  58 0036 EB2D     		jmp	.L2
  59              	.LVL1:
  60              	.L3:
  83:C:/Users/victim/Desktop/dangerous/yuziakicin/UEFI/UEFI/Backend/gnu-efi-3.0.18/lib\hand.c **** 
  84:C:/Users/victim/Desktop/dangerous/yuziakicin/UEFI/UEFI/Backend/gnu-efi-3.0.18/lib\hand.c ****         Status = uefi_call_wrapper(
  61              		.loc 1 84 9 is_stmt 1 view .LVU12
  62              		.loc 1 84 18 is_stmt 0 view .LVU13
  63 0038 488B0500 		movq	.refptr.BS(%rip), %rax
  63      000000
  64 003f 488B00   		movq	(%rax), %rax
  65 0042 488B80B0 		movq	176(%rax), %rax
  65      000000
  66 0049 488B13   		movq	(%rbx), %rdx
  67 004c 48895424 		movq	%rdx, 32(%rsp)
  67      20
  68 0051 4C8D4C24 		leaq	48(%rsp), %r9
  68      30
  69 0056 4989F0   		movq	%rsi, %r8
  70 0059 4889FA   		movq	%rdi, %rdx
  71 005c 89E9     		movl	%ebp, %ecx
  72 005e FFD0     		call	*%rax
  73              	.LVL2:
  74              		.loc 1 84 16 discriminator 1 view .LVU14
  75 0060 48894424 		movq	%rax, 56(%rsp)
  75      38
  76              	.L2:
  82:C:/Users/victim/Desktop/dangerous/yuziakicin/UEFI/UEFI/Backend/gnu-efi-3.0.18/lib\hand.c **** 
  77              		.loc 1 82 12 is_stmt 1 view .LVU15
  78 0065 488D4C24 		leaq	56(%rsp), %rcx
  78      38
  79 006a 4C8B4424 		movq	48(%rsp), %r8
  79      30
  80 006f 4889DA   		movq	%rbx, %rdx
  81 0072 E8000000 		call	GrowBuffer
  81      00
  82              	.LVL3:
  82:C:/Users/victim/Desktop/dangerous/yuziakicin/UEFI/UEFI/Backend/gnu-efi-3.0.18/lib\hand.c **** 
  83              		.loc 1 82 12 is_stmt 0 discriminator 1 view .LVU16
  84 0077 84C0     		testb	%al, %al
  85 0079 75BD     		jne	.L3
  85:C:/Users/victim/Desktop/dangerous/yuziakicin/UEFI/UEFI/Backend/gnu-efi-3.0.18/lib\hand.c **** 			BS->LocateHandle,
  86:C:/Users/victim/Desktop/dangerous/yuziakicin/UEFI/UEFI/Backend/gnu-efi-3.0.18/lib\hand.c **** 			5,
  87:C:/Users/victim/Desktop/dangerous/yuziakicin/UEFI/UEFI/Backend/gnu-efi-3.0.18/lib\hand.c ****                         SearchType,
  88:C:/Users/victim/Desktop/dangerous/yuziakicin/UEFI/UEFI/Backend/gnu-efi-3.0.18/lib\hand.c ****                         Protocol,
  89:C:/Users/victim/Desktop/dangerous/yuziakicin/UEFI/UEFI/Backend/gnu-efi-3.0.18/lib\hand.c ****                         SearchKey,
  90:C:/Users/victim/Desktop/dangerous/yuziakicin/UEFI/UEFI/Backend/gnu-efi-3.0.18/lib\hand.c ****                         &BufferSize,
  91:C:/Users/victim/Desktop/dangerous/yuziakicin/UEFI/UEFI/Backend/gnu-efi-3.0.18/lib\hand.c ****                         *Buffer
  92:C:/Users/victim/Desktop/dangerous/yuziakicin/UEFI/UEFI/Backend/gnu-efi-3.0.18/lib\hand.c ****                         );
  93:C:/Users/victim/Desktop/dangerous/yuziakicin/UEFI/UEFI/Backend/gnu-efi-3.0.18/lib\hand.c **** 
  94:C:/Users/victim/Desktop/dangerous/yuziakicin/UEFI/UEFI/Backend/gnu-efi-3.0.18/lib\hand.c ****     }
  95:C:/Users/victim/Desktop/dangerous/yuziakicin/UEFI/UEFI/Backend/gnu-efi-3.0.18/lib\hand.c **** 
  96:C:/Users/victim/Desktop/dangerous/yuziakicin/UEFI/UEFI/Backend/gnu-efi-3.0.18/lib\hand.c ****     *NoHandles = BufferSize / sizeof (EFI_HANDLE);
  86              		.loc 1 96 5 is_stmt 1 view .LVU17
  87              		.loc 1 96 29 is_stmt 0 view .LVU18
  88 007b 488B4424 		movq	48(%rsp), %rax
  88      30
  89 0080 48C1E803 		shrq	$3, %rax
  90              		.loc 1 96 16 view .LVU19
  91 0084 49890424 		movq	%rax, (%r12)
  97:C:/Users/victim/Desktop/dangerous/yuziakicin/UEFI/UEFI/Backend/gnu-efi-3.0.18/lib\hand.c ****     if (EFI_ERROR(Status)) {
  92              		.loc 1 97 5 is_stmt 1 view .LVU20
  93              		.loc 1 97 8 is_stmt 0 view .LVU21
  94 0088 48837C24 		cmpq	$0, 56(%rsp)
  94      3800
  95 008e 7810     		js	.L5
  96              	.L4:
  98:C:/Users/victim/Desktop/dangerous/yuziakicin/UEFI/UEFI/Backend/gnu-efi-3.0.18/lib\hand.c ****         *NoHandles = 0;
  99:C:/Users/victim/Desktop/dangerous/yuziakicin/UEFI/UEFI/Backend/gnu-efi-3.0.18/lib\hand.c ****     }
 100:C:/Users/victim/Desktop/dangerous/yuziakicin/UEFI/UEFI/Backend/gnu-efi-3.0.18/lib\hand.c **** 
 101:C:/Users/victim/Desktop/dangerous/yuziakicin/UEFI/UEFI/Backend/gnu-efi-3.0.18/lib\hand.c ****     return Status;
  97              		.loc 1 101 5 is_stmt 1 view .LVU22
 102:C:/Users/victim/Desktop/dangerous/yuziakicin/UEFI/UEFI/Backend/gnu-efi-3.0.18/lib\hand.c **** }
  98              		.loc 1 102 1 is_stmt 0 view .LVU23
  99 0090 488B4424 		movq	56(%rsp), %rax
  99      38
 100 0095 4883C440 		addq	$64, %rsp
 101              		.cfi_remember_state
 102              		.cfi_def_cfa_offset 48
 103 0099 5B       		popq	%rbx
 104              		.cfi_restore 3
 105              		.cfi_def_cfa_offset 40
 106 009a 5E       		popq	%rsi
 107              		.cfi_restore 4
 108              		.cfi_def_cfa_offset 32
 109              	.LVL4:
 110              		.loc 1 102 1 view .LVU24
 111 009b 5F       		popq	%rdi
 112              		.cfi_restore 5
 113              		.cfi_def_cfa_offset 24
 114              	.LVL5:
 115              		.loc 1 102 1 view .LVU25
 116 009c 5D       		popq	%rbp
 117              		.cfi_restore 6
 118              		.cfi_def_cfa_offset 16
 119              	.LVL6:
 120              		.loc 1 102 1 view .LVU26
 121 009d 415C     		popq	%r12
 122              		.cfi_restore 12
 123              		.cfi_def_cfa_offset 8
 124              	.LVL7:
 125              		.loc 1 102 1 view .LVU27
 126 009f C3       		ret
 127              	.LVL8:
 128              	.L5:
 129              		.cfi_restore_state
  98:C:/Users/victim/Desktop/dangerous/yuziakicin/UEFI/UEFI/Backend/gnu-efi-3.0.18/lib\hand.c ****         *NoHandles = 0;
 130              		.loc 1 98 9 is_stmt 1 view .LVU28
  98:C:/Users/victim/Desktop/dangerous/yuziakicin/UEFI/UEFI/Backend/gnu-efi-3.0.18/lib\hand.c ****         *NoHandles = 0;
 131              		.loc 1 98 20 is_stmt 0 view .LVU29
 132 00a0 49C70424 		movq	$0, (%r12)
 132      00000000 
 133 00a8 EBE6     		jmp	.L4
 134              		.cfi_endproc
 135              	.LFE3:
 136              		.seh_endproc
 137              		.globl	LibLocateProtocol
 139              		.seh_proc	LibLocateProtocol
 140              	LibLocateProtocol:
 141              	.LVL9:
 142              	.LFB2:
  30:C:/Users/victim/Desktop/dangerous/yuziakicin/UEFI/UEFI/Backend/gnu-efi-3.0.18/lib\hand.c ****     EFI_STATUS      Status;
 143              		.loc 1 30 1 is_stmt 1 view -0
 144              		.cfi_startproc
  30:C:/Users/victim/Desktop/dangerous/yuziakicin/UEFI/UEFI/Backend/gnu-efi-3.0.18/lib\hand.c ****     EFI_STATUS      Status;
 145              		.loc 1 30 1 is_stmt 0 view .LVU31
 146 00aa 55       		pushq	%rbp
 147              		.seh_pushreg	%rbp
 148              		.cfi_def_cfa_offset 16
 149              		.cfi_offset 6, -16
 150 00ab 57       		pushq	%rdi
 151              		.seh_pushreg	%rdi
 152              		.cfi_def_cfa_offset 24
 153              		.cfi_offset 5, -24
 154 00ac 56       		pushq	%rsi
 155              		.seh_pushreg	%rsi
 156              		.cfi_def_cfa_offset 32
 157              		.cfi_offset 4, -32
 158 00ad 53       		pushq	%rbx
 159              		.seh_pushreg	%rbx
 160              		.cfi_def_cfa_offset 40
 161              		.cfi_offset 3, -40
 162 00ae 4883EC48 		subq	$72, %rsp
 163              		.seh_stackalloc	72
 164              		.cfi_def_cfa_offset 112
 165              		.seh_endprologue
 166 00b2 4889CF   		movq	%rcx, %rdi
 167 00b5 4889D5   		movq	%rdx, %rbp
  31:C:/Users/victim/Desktop/dangerous/yuziakicin/UEFI/UEFI/Backend/gnu-efi-3.0.18/lib\hand.c ****     UINTN           NumberHandles, Index;
 168              		.loc 1 31 5 is_stmt 1 view .LVU32
  32:C:/Users/victim/Desktop/dangerous/yuziakicin/UEFI/UEFI/Backend/gnu-efi-3.0.18/lib\hand.c ****     EFI_HANDLE      *Handles;
 169              		.loc 1 32 5 view .LVU33
  33:C:/Users/victim/Desktop/dangerous/yuziakicin/UEFI/UEFI/Backend/gnu-efi-3.0.18/lib\hand.c **** 
 170              		.loc 1 33 5 view .LVU34
  36:C:/Users/victim/Desktop/dangerous/yuziakicin/UEFI/UEFI/Backend/gnu-efi-3.0.18/lib\hand.c ****     Status = LibLocateHandle (ByProtocol, ProtocolGuid, NULL, &NumberHandles, &Handles);
 171              		.loc 1 36 5 view .LVU35
  36:C:/Users/victim/Desktop/dangerous/yuziakicin/UEFI/UEFI/Backend/gnu-efi-3.0.18/lib\hand.c ****     Status = LibLocateHandle (ByProtocol, ProtocolGuid, NULL, &NumberHandles, &Handles);
 172              		.loc 1 36 16 is_stmt 0 view .LVU36
 173 00b8 48C70200 		movq	$0, (%rdx)
 173      000000
  37:C:/Users/victim/Desktop/dangerous/yuziakicin/UEFI/UEFI/Backend/gnu-efi-3.0.18/lib\hand.c ****     if (EFI_ERROR(Status)) {
 174              		.loc 1 37 5 is_stmt 1 view .LVU37
  37:C:/Users/victim/Desktop/dangerous/yuziakicin/UEFI/UEFI/Backend/gnu-efi-3.0.18/lib\hand.c ****     if (EFI_ERROR(Status)) {
 175              		.loc 1 37 14 is_stmt 0 view .LVU38
 176 00bf 488D4424 		leaq	48(%rsp), %rax
 176      30
 177 00c4 48894424 		movq	%rax, 32(%rsp)
 177      20
 178 00c9 4C8D4C24 		leaq	56(%rsp), %r9
 178      38
 179 00ce 41B80000 		movl	$0, %r8d
 179      0000
 180 00d4 4889CA   		movq	%rcx, %rdx
 181              	.LVL10:
  37:C:/Users/victim/Desktop/dangerous/yuziakicin/UEFI/UEFI/Backend/gnu-efi-3.0.18/lib\hand.c ****     if (EFI_ERROR(Status)) {
 182              		.loc 1 37 14 view .LVU39
 183 00d7 B9020000 		movl	$2, %ecx
 183      00
 184              	.LVL11:
  37:C:/Users/victim/Desktop/dangerous/yuziakicin/UEFI/UEFI/Backend/gnu-efi-3.0.18/lib\hand.c ****     if (EFI_ERROR(Status)) {
 185              		.loc 1 37 14 view .LVU40
 186 00dc E81FFFFF 		call	LibLocateHandle
 186      FF
 187              	.LVL12:
  37:C:/Users/victim/Desktop/dangerous/yuziakicin/UEFI/UEFI/Backend/gnu-efi-3.0.18/lib\hand.c ****     if (EFI_ERROR(Status)) {
 188              		.loc 1 37 14 view .LVU41
 189 00e1 4889C3   		movq	%rax, %rbx
 190              	.LVL13:
  38:C:/Users/victim/Desktop/dangerous/yuziakicin/UEFI/UEFI/Backend/gnu-efi-3.0.18/lib\hand.c ****         DEBUG((D_INFO, "LibLocateProtocol: Handle not found\n"));
 191              		.loc 1 38 5 is_stmt 1 view .LVU42
  38:C:/Users/victim/Desktop/dangerous/yuziakicin/UEFI/UEFI/Backend/gnu-efi-3.0.18/lib\hand.c ****         DEBUG((D_INFO, "LibLocateProtocol: Handle not found\n"));
 192              		.loc 1 38 8 is_stmt 0 view .LVU43
 193 00e4 4885C0   		testq	%rax, %rax
 194 00e7 7848     		js	.L6
  43:C:/Users/victim/Desktop/dangerous/yuziakicin/UEFI/UEFI/Backend/gnu-efi-3.0.18/lib\hand.c ****         Status = uefi_call_wrapper(BS->HandleProtocol, 3, Handles[Index], ProtocolGuid, Interface);
 195              		.loc 1 43 15 view .LVU44
 196 00e9 BE000000 		movl	$0, %esi
 196      00
 197              	.L8:
 198              	.LVL14:
  43:C:/Users/victim/Desktop/dangerous/yuziakicin/UEFI/UEFI/Backend/gnu-efi-3.0.18/lib\hand.c ****         Status = uefi_call_wrapper(BS->HandleProtocol, 3, Handles[Index], ProtocolGuid, Interface);
 199              		.loc 1 43 25 is_stmt 1 discriminator 1 view .LVU45
 200 00ee 483B7424 		cmpq	56(%rsp), %rsi
 200      38
 201 00f3 732D     		jnb	.L9
  44:C:/Users/victim/Desktop/dangerous/yuziakicin/UEFI/UEFI/Backend/gnu-efi-3.0.18/lib\hand.c ****         if (!EFI_ERROR(Status)) {
 202              		.loc 1 44 9 view .LVU46
  44:C:/Users/victim/Desktop/dangerous/yuziakicin/UEFI/UEFI/Backend/gnu-efi-3.0.18/lib\hand.c ****         if (!EFI_ERROR(Status)) {
 203              		.loc 1 44 18 is_stmt 0 view .LVU47
 204 00f5 488B0500 		movq	.refptr.BS(%rip), %rax
 204      000000
 205              	.LVL15:
  44:C:/Users/victim/Desktop/dangerous/yuziakicin/UEFI/UEFI/Backend/gnu-efi-3.0.18/lib\hand.c ****         if (!EFI_ERROR(Status)) {
 206              		.loc 1 44 18 view .LVU48
 207 00fc 488B00   		movq	(%rax), %rax
 208 00ff 488B5424 		movq	48(%rsp), %rdx
 208      30
 209 0104 488B0CF2 		movq	(%rdx,%rsi,8), %rcx
 210 0108 4989E8   		movq	%rbp, %r8
 211 010b 4889FA   		movq	%rdi, %rdx
 212 010e FF909800 		call	*152(%rax)
 212      0000
 213              	.LVL16:
 214 0114 4889C3   		movq	%rax, %rbx
 215              	.LVL17:
  45:C:/Users/victim/Desktop/dangerous/yuziakicin/UEFI/UEFI/Backend/gnu-efi-3.0.18/lib\hand.c ****             break;
 216              		.loc 1 45 9 is_stmt 1 view .LVU49
  45:C:/Users/victim/Desktop/dangerous/yuziakicin/UEFI/UEFI/Backend/gnu-efi-3.0.18/lib\hand.c ****             break;
 217              		.loc 1 45 12 is_stmt 0 view .LVU50
 218 0117 4885C0   		testq	%rax, %rax
 219 011a 7906     		jns	.L9
  43:C:/Users/victim/Desktop/dangerous/yuziakicin/UEFI/UEFI/Backend/gnu-efi-3.0.18/lib\hand.c ****         Status = uefi_call_wrapper(BS->HandleProtocol, 3, Handles[Index], ProtocolGuid, Interface);
 220              		.loc 1 43 47 is_stmt 1 discriminator 2 view .LVU51
 221 011c 4883C601 		addq	$1, %rsi
 222              	.LVL18:
  43:C:/Users/victim/Desktop/dangerous/yuziakicin/UEFI/UEFI/Backend/gnu-efi-3.0.18/lib\hand.c ****         Status = uefi_call_wrapper(BS->HandleProtocol, 3, Handles[Index], ProtocolGuid, Interface);
 223              		.loc 1 43 47 is_stmt 0 discriminator 2 view .LVU52
 224 0120 EBCC     		jmp	.L8
 225              	.L9:
  50:C:/Users/victim/Desktop/dangerous/yuziakicin/UEFI/UEFI/Backend/gnu-efi-3.0.18/lib\hand.c ****         FreePool (Handles);
 226              		.loc 1 50 5 is_stmt 1 view .LVU53
  50:C:/Users/victim/Desktop/dangerous/yuziakicin/UEFI/UEFI/Backend/gnu-efi-3.0.18/lib\hand.c ****         FreePool (Handles);
 227              		.loc 1 50 9 is_stmt 0 view .LVU54
 228 0122 488B4C24 		movq	48(%rsp), %rcx
 228      30
  50:C:/Users/victim/Desktop/dangerous/yuziakicin/UEFI/UEFI/Backend/gnu-efi-3.0.18/lib\hand.c ****         FreePool (Handles);
 229              		.loc 1 50 8 view .LVU55
 230 0127 4885C9   		testq	%rcx, %rcx
 231 012a 7405     		je	.L6
  51:C:/Users/victim/Desktop/dangerous/yuziakicin/UEFI/UEFI/Backend/gnu-efi-3.0.18/lib\hand.c ****     }
 232              		.loc 1 51 9 is_stmt 1 view .LVU56
 233 012c E8000000 		call	FreePool
 233      00
 234              	.LVL19:
 235              	.L6:
  55:C:/Users/victim/Desktop/dangerous/yuziakicin/UEFI/UEFI/Backend/gnu-efi-3.0.18/lib\hand.c **** 
 236              		.loc 1 55 1 is_stmt 0 view .LVU57
 237 0131 4889D8   		movq	%rbx, %rax
 238 0134 4883C448 		addq	$72, %rsp
 239              		.cfi_def_cfa_offset 40
 240 0138 5B       		popq	%rbx
 241              		.cfi_restore 3
 242              		.cfi_def_cfa_offset 32
 243              	.LVL20:
  55:C:/Users/victim/Desktop/dangerous/yuziakicin/UEFI/UEFI/Backend/gnu-efi-3.0.18/lib\hand.c **** 
 244              		.loc 1 55 1 view .LVU58
 245 0139 5E       		popq	%rsi
 246              		.cfi_restore 4
 247              		.cfi_def_cfa_offset 24
 248 013a 5F       		popq	%rdi
 249              		.cfi_restore 5
 250              		.cfi_def_cfa_offset 16
 251              	.LVL21:
  55:C:/Users/victim/Desktop/dangerous/yuziakicin/UEFI/UEFI/Backend/gnu-efi-3.0.18/lib\hand.c **** 
 252              		.loc 1 55 1 view .LVU59
 253 013b 5D       		popq	%rbp
 254              		.cfi_restore 6
 255              		.cfi_def_cfa_offset 8
 256              	.LVL22:
  55:C:/Users/victim/Desktop/dangerous/yuziakicin/UEFI/UEFI/Backend/gnu-efi-3.0.18/lib\hand.c **** 
 257              		.loc 1 55 1 view .LVU60
 258 013c C3       		ret
 259              		.cfi_endproc
 260              	.LFE2:
 261              		.seh_endproc
 262              		.globl	LibLocateHandleByDiskSignature
 264              		.seh_proc	LibLocateHandleByDiskSignature
 265              	LibLocateHandleByDiskSignature:
 266              	.LVL23:
 267              	.LFB4:
 103:C:/Users/victim/Desktop/dangerous/yuziakicin/UEFI/UEFI/Backend/gnu-efi-3.0.18/lib\hand.c **** 
 104:C:/Users/victim/Desktop/dangerous/yuziakicin/UEFI/UEFI/Backend/gnu-efi-3.0.18/lib\hand.c **** EFI_STATUS
 105:C:/Users/victim/Desktop/dangerous/yuziakicin/UEFI/UEFI/Backend/gnu-efi-3.0.18/lib\hand.c **** LibLocateHandleByDiskSignature (
 106:C:/Users/victim/Desktop/dangerous/yuziakicin/UEFI/UEFI/Backend/gnu-efi-3.0.18/lib\hand.c ****     IN UINT8                        MBRType,
 107:C:/Users/victim/Desktop/dangerous/yuziakicin/UEFI/UEFI/Backend/gnu-efi-3.0.18/lib\hand.c ****     IN UINT8                        SignatureType,
 108:C:/Users/victim/Desktop/dangerous/yuziakicin/UEFI/UEFI/Backend/gnu-efi-3.0.18/lib\hand.c ****     IN VOID                         *Signature,
 109:C:/Users/victim/Desktop/dangerous/yuziakicin/UEFI/UEFI/Backend/gnu-efi-3.0.18/lib\hand.c ****     IN OUT UINTN                    *NoHandles,
 110:C:/Users/victim/Desktop/dangerous/yuziakicin/UEFI/UEFI/Backend/gnu-efi-3.0.18/lib\hand.c ****     OUT EFI_HANDLE                  **Buffer
 111:C:/Users/victim/Desktop/dangerous/yuziakicin/UEFI/UEFI/Backend/gnu-efi-3.0.18/lib\hand.c ****     )
 112:C:/Users/victim/Desktop/dangerous/yuziakicin/UEFI/UEFI/Backend/gnu-efi-3.0.18/lib\hand.c **** 
 113:C:/Users/victim/Desktop/dangerous/yuziakicin/UEFI/UEFI/Backend/gnu-efi-3.0.18/lib\hand.c **** {
 268              		.loc 1 113 1 is_stmt 1 view -0
 269              		.cfi_startproc
 270              		.loc 1 113 1 is_stmt 0 view .LVU62
 271 013d 4157     		pushq	%r15
 272              		.seh_pushreg	%r15
 273              		.cfi_def_cfa_offset 16
 274              		.cfi_offset 15, -16
 275 013f 4156     		pushq	%r14
 276              		.seh_pushreg	%r14
 277              		.cfi_def_cfa_offset 24
 278              		.cfi_offset 14, -24
 279 0141 4155     		pushq	%r13
 280              		.seh_pushreg	%r13
 281              		.cfi_def_cfa_offset 32
 282              		.cfi_offset 13, -32
 283 0143 4154     		pushq	%r12
 284              		.seh_pushreg	%r12
 285              		.cfi_def_cfa_offset 40
 286              		.cfi_offset 12, -40
 287 0145 55       		pushq	%rbp
 288              		.seh_pushreg	%rbp
 289              		.cfi_def_cfa_offset 48
 290              		.cfi_offset 6, -48
 291 0146 57       		pushq	%rdi
 292              		.seh_pushreg	%rdi
 293              		.cfi_def_cfa_offset 56
 294              		.cfi_offset 5, -56
 295 0147 56       		pushq	%rsi
 296              		.seh_pushreg	%rsi
 297              		.cfi_def_cfa_offset 64
 298              		.cfi_offset 4, -64
 299 0148 53       		pushq	%rbx
 300              		.seh_pushreg	%rbx
 301              		.cfi_def_cfa_offset 72
 302              		.cfi_offset 3, -72
 303 0149 4883EC68 		subq	$104, %rsp
 304              		.seh_stackalloc	104
 305              		.cfi_def_cfa_offset 176
 306              		.seh_endprologue
 307 014d 4C898424 		movq	%r8, 192(%rsp)
 307      C0000000 
 308 0155 4D89CC   		movq	%r9, %r12
 309 0158 4C8BBC24 		movq	208(%rsp), %r15
 309      D0000000 
 310 0160 884C243E 		movb	%cl, 62(%rsp)
 311 0164 8854243F 		movb	%dl, 63(%rsp)
 114:C:/Users/victim/Desktop/dangerous/yuziakicin/UEFI/UEFI/Backend/gnu-efi-3.0.18/lib\hand.c ****     EFI_STATUS            Status;
 312              		.loc 1 114 5 is_stmt 1 view .LVU63
 115:C:/Users/victim/Desktop/dangerous/yuziakicin/UEFI/UEFI/Backend/gnu-efi-3.0.18/lib\hand.c ****     UINTN                 BufferSize;
 313              		.loc 1 115 5 view .LVU64
 116:C:/Users/victim/Desktop/dangerous/yuziakicin/UEFI/UEFI/Backend/gnu-efi-3.0.18/lib\hand.c ****     UINTN                 NoBlockIoHandles;
 314              		.loc 1 116 5 view .LVU65
 117:C:/Users/victim/Desktop/dangerous/yuziakicin/UEFI/UEFI/Backend/gnu-efi-3.0.18/lib\hand.c ****     EFI_HANDLE            *BlockIoBuffer;
 315              		.loc 1 117 5 view .LVU66
 118:C:/Users/victim/Desktop/dangerous/yuziakicin/UEFI/UEFI/Backend/gnu-efi-3.0.18/lib\hand.c ****     EFI_DEVICE_PATH       *DevicePath;
 316              		.loc 1 118 5 view .LVU67
 119:C:/Users/victim/Desktop/dangerous/yuziakicin/UEFI/UEFI/Backend/gnu-efi-3.0.18/lib\hand.c ****     UINTN                 Index;
 317              		.loc 1 119 5 view .LVU68
 120:C:/Users/victim/Desktop/dangerous/yuziakicin/UEFI/UEFI/Backend/gnu-efi-3.0.18/lib\hand.c ****     EFI_DEVICE_PATH       *Next, *DevPath;
 318              		.loc 1 120 5 view .LVU69
 121:C:/Users/victim/Desktop/dangerous/yuziakicin/UEFI/UEFI/Backend/gnu-efi-3.0.18/lib\hand.c ****     HARDDRIVE_DEVICE_PATH *HardDriveDevicePath;
 319              		.loc 1 121 5 view .LVU70
 122:C:/Users/victim/Desktop/dangerous/yuziakicin/UEFI/UEFI/Backend/gnu-efi-3.0.18/lib\hand.c ****     BOOLEAN               Match;
 320              		.loc 1 122 5 view .LVU71
 123:C:/Users/victim/Desktop/dangerous/yuziakicin/UEFI/UEFI/Backend/gnu-efi-3.0.18/lib\hand.c ****     BOOLEAN               PreviousNodeIsHardDriveDevicePath;
 321              		.loc 1 123 5 view .LVU72
 124:C:/Users/victim/Desktop/dangerous/yuziakicin/UEFI/UEFI/Backend/gnu-efi-3.0.18/lib\hand.c **** 
 125:C:/Users/victim/Desktop/dangerous/yuziakicin/UEFI/UEFI/Backend/gnu-efi-3.0.18/lib\hand.c ****     //
 126:C:/Users/victim/Desktop/dangerous/yuziakicin/UEFI/UEFI/Backend/gnu-efi-3.0.18/lib\hand.c ****     // Initialize for GrowBuffer loop
 127:C:/Users/victim/Desktop/dangerous/yuziakicin/UEFI/UEFI/Backend/gnu-efi-3.0.18/lib\hand.c ****     //
 128:C:/Users/victim/Desktop/dangerous/yuziakicin/UEFI/UEFI/Backend/gnu-efi-3.0.18/lib\hand.c **** 
 129:C:/Users/victim/Desktop/dangerous/yuziakicin/UEFI/UEFI/Backend/gnu-efi-3.0.18/lib\hand.c ****     Status = EFI_SUCCESS;
 322              		.loc 1 129 5 view .LVU73
 323              		.loc 1 129 12 is_stmt 0 view .LVU74
 324 0168 48C74424 		movq	$0, 88(%rsp)
 324      58000000 
 324      00
 130:C:/Users/victim/Desktop/dangerous/yuziakicin/UEFI/UEFI/Backend/gnu-efi-3.0.18/lib\hand.c ****     BlockIoBuffer = NULL;
 325              		.loc 1 130 5 is_stmt 1 view .LVU75
 326              		.loc 1 130 19 is_stmt 0 view .LVU76
 327 0171 48C74424 		movq	$0, 72(%rsp)
 327      48000000 
 327      00
 131:C:/Users/victim/Desktop/dangerous/yuziakicin/UEFI/UEFI/Backend/gnu-efi-3.0.18/lib\hand.c ****     BufferSize = 50 * sizeof(EFI_HANDLE);
 328              		.loc 1 131 5 is_stmt 1 view .LVU77
 329              		.loc 1 131 16 is_stmt 0 view .LVU78
 330 017a 48C74424 		movq	$400, 80(%rsp)
 330      50900100 
 330      00
 132:C:/Users/victim/Desktop/dangerous/yuziakicin/UEFI/UEFI/Backend/gnu-efi-3.0.18/lib\hand.c **** 
 133:C:/Users/victim/Desktop/dangerous/yuziakicin/UEFI/UEFI/Backend/gnu-efi-3.0.18/lib\hand.c ****     //
 134:C:/Users/victim/Desktop/dangerous/yuziakicin/UEFI/UEFI/Backend/gnu-efi-3.0.18/lib\hand.c ****     // Call the real function
 135:C:/Users/victim/Desktop/dangerous/yuziakicin/UEFI/UEFI/Backend/gnu-efi-3.0.18/lib\hand.c ****     //
 136:C:/Users/victim/Desktop/dangerous/yuziakicin/UEFI/UEFI/Backend/gnu-efi-3.0.18/lib\hand.c **** 
 137:C:/Users/victim/Desktop/dangerous/yuziakicin/UEFI/UEFI/Backend/gnu-efi-3.0.18/lib\hand.c ****     while (GrowBuffer (&Status, (VOID **)&BlockIoBuffer, BufferSize)) {
 331              		.loc 1 137 5 is_stmt 1 view .LVU79
 332              		.loc 1 137 11 is_stmt 0 view .LVU80
 333 0183 EB39     		jmp	.L12
 334              	.LVL24:
 335              	.L13:
 138:C:/Users/victim/Desktop/dangerous/yuziakicin/UEFI/UEFI/Backend/gnu-efi-3.0.18/lib\hand.c **** 
 139:C:/Users/victim/Desktop/dangerous/yuziakicin/UEFI/UEFI/Backend/gnu-efi-3.0.18/lib\hand.c ****         //
 140:C:/Users/victim/Desktop/dangerous/yuziakicin/UEFI/UEFI/Backend/gnu-efi-3.0.18/lib\hand.c ****         // Get list of device handles that support the BLOCK_IO Protocol.
 141:C:/Users/victim/Desktop/dangerous/yuziakicin/UEFI/UEFI/Backend/gnu-efi-3.0.18/lib\hand.c ****         //
 142:C:/Users/victim/Desktop/dangerous/yuziakicin/UEFI/UEFI/Backend/gnu-efi-3.0.18/lib\hand.c **** 
 143:C:/Users/victim/Desktop/dangerous/yuziakicin/UEFI/UEFI/Backend/gnu-efi-3.0.18/lib\hand.c ****         Status = uefi_call_wrapper(
 336              		.loc 1 143 9 is_stmt 1 view .LVU81
 337              		.loc 1 143 18 is_stmt 0 view .LVU82
 338 0185 488B0500 		movq	.refptr.BS(%rip), %rax
 338      000000
 339 018c 488B00   		movq	(%rax), %rax
 340 018f 488B80B0 		movq	176(%rax), %rax
 340      000000
 341 0196 488B5424 		movq	72(%rsp), %rdx
 341      48
 342 019b 48895424 		movq	%rdx, 32(%rsp)
 342      20
 343 01a0 4C8D4C24 		leaq	80(%rsp), %r9
 343      50
 344 01a5 41B80000 		movl	$0, %r8d
 344      0000
 345 01ab 488B1500 		movq	.refptr.gEfiBlockIoProtocolGuid(%rip), %rdx
 345      000000
 346 01b2 B9020000 		movl	$2, %ecx
 346      00
 347 01b7 FFD0     		call	*%rax
 348              	.LVL25:
 349              		.loc 1 143 16 discriminator 1 view .LVU83
 350 01b9 48894424 		movq	%rax, 88(%rsp)
 350      58
 351              	.L12:
 137:C:/Users/victim/Desktop/dangerous/yuziakicin/UEFI/UEFI/Backend/gnu-efi-3.0.18/lib\hand.c **** 
 352              		.loc 1 137 12 is_stmt 1 view .LVU84
 353 01be 488D5424 		leaq	72(%rsp), %rdx
 353      48
 354 01c3 488D4C24 		leaq	88(%rsp), %rcx
 354      58
 355 01c8 4C8B4424 		movq	80(%rsp), %r8
 355      50
 356 01cd E8000000 		call	GrowBuffer
 356      00
 357              	.LVL26:
 358 01d2 89C6     		movl	%eax, %esi
 137:C:/Users/victim/Desktop/dangerous/yuziakicin/UEFI/UEFI/Backend/gnu-efi-3.0.18/lib\hand.c **** 
 359              		.loc 1 137 12 is_stmt 0 discriminator 1 view .LVU85
 360 01d4 84C0     		testb	%al, %al
 361 01d6 75AD     		jne	.L13
 144:C:/Users/victim/Desktop/dangerous/yuziakicin/UEFI/UEFI/Backend/gnu-efi-3.0.18/lib\hand.c **** 			BS->LocateHandle,
 145:C:/Users/victim/Desktop/dangerous/yuziakicin/UEFI/UEFI/Backend/gnu-efi-3.0.18/lib\hand.c **** 			5,
 146:C:/Users/victim/Desktop/dangerous/yuziakicin/UEFI/UEFI/Backend/gnu-efi-3.0.18/lib\hand.c ****                         ByProtocol,
 147:C:/Users/victim/Desktop/dangerous/yuziakicin/UEFI/UEFI/Backend/gnu-efi-3.0.18/lib\hand.c ****                         &BlockIoProtocol,
 148:C:/Users/victim/Desktop/dangerous/yuziakicin/UEFI/UEFI/Backend/gnu-efi-3.0.18/lib\hand.c ****                         NULL,
 149:C:/Users/victim/Desktop/dangerous/yuziakicin/UEFI/UEFI/Backend/gnu-efi-3.0.18/lib\hand.c ****                         &BufferSize,
 150:C:/Users/victim/Desktop/dangerous/yuziakicin/UEFI/UEFI/Backend/gnu-efi-3.0.18/lib\hand.c ****                         BlockIoBuffer
 151:C:/Users/victim/Desktop/dangerous/yuziakicin/UEFI/UEFI/Backend/gnu-efi-3.0.18/lib\hand.c ****                         );
 152:C:/Users/victim/Desktop/dangerous/yuziakicin/UEFI/UEFI/Backend/gnu-efi-3.0.18/lib\hand.c **** 
 153:C:/Users/victim/Desktop/dangerous/yuziakicin/UEFI/UEFI/Backend/gnu-efi-3.0.18/lib\hand.c ****     }
 154:C:/Users/victim/Desktop/dangerous/yuziakicin/UEFI/UEFI/Backend/gnu-efi-3.0.18/lib\hand.c **** 
 155:C:/Users/victim/Desktop/dangerous/yuziakicin/UEFI/UEFI/Backend/gnu-efi-3.0.18/lib\hand.c ****     NoBlockIoHandles = BufferSize / sizeof (EFI_HANDLE);
 362              		.loc 1 155 5 is_stmt 1 view .LVU86
 363              		.loc 1 155 35 is_stmt 0 view .LVU87
 364 01d8 488B4424 		movq	80(%rsp), %rax
 364      50
 365              		.loc 1 155 22 view .LVU88
 366 01dd 4989C5   		movq	%rax, %r13
 367 01e0 49C1ED03 		shrq	$3, %r13
 368              	.LVL27:
 156:C:/Users/victim/Desktop/dangerous/yuziakicin/UEFI/UEFI/Backend/gnu-efi-3.0.18/lib\hand.c ****     if (EFI_ERROR(Status)) {
 369              		.loc 1 156 5 is_stmt 1 view .LVU89
 370              		.loc 1 156 8 is_stmt 0 view .LVU90
 371 01e4 48837C24 		cmpq	$0, 88(%rsp)
 371      5800
 372 01ea 7818     		js	.L14
 157:C:/Users/victim/Desktop/dangerous/yuziakicin/UEFI/UEFI/Backend/gnu-efi-3.0.18/lib\hand.c ****         NoBlockIoHandles = 0;
 158:C:/Users/victim/Desktop/dangerous/yuziakicin/UEFI/UEFI/Backend/gnu-efi-3.0.18/lib\hand.c ****     }
 159:C:/Users/victim/Desktop/dangerous/yuziakicin/UEFI/UEFI/Backend/gnu-efi-3.0.18/lib\hand.c **** 
 160:C:/Users/victim/Desktop/dangerous/yuziakicin/UEFI/UEFI/Backend/gnu-efi-3.0.18/lib\hand.c ****     //
 161:C:/Users/victim/Desktop/dangerous/yuziakicin/UEFI/UEFI/Backend/gnu-efi-3.0.18/lib\hand.c ****     // If there was an error or there are no device handles that support 
 162:C:/Users/victim/Desktop/dangerous/yuziakicin/UEFI/UEFI/Backend/gnu-efi-3.0.18/lib\hand.c ****     // the BLOCK_IO Protocol, then return.
 163:C:/Users/victim/Desktop/dangerous/yuziakicin/UEFI/UEFI/Backend/gnu-efi-3.0.18/lib\hand.c ****     //
 164:C:/Users/victim/Desktop/dangerous/yuziakicin/UEFI/UEFI/Backend/gnu-efi-3.0.18/lib\hand.c **** 
 165:C:/Users/victim/Desktop/dangerous/yuziakicin/UEFI/UEFI/Backend/gnu-efi-3.0.18/lib\hand.c ****     if (NoBlockIoHandles == 0) {
 373              		.loc 1 165 5 is_stmt 1 view .LVU91
 374              		.loc 1 165 8 is_stmt 0 view .LVU92
 375 01ec 4883F807 		cmpq	$7, %rax
 376 01f0 7612     		jbe	.L14
 166:C:/Users/victim/Desktop/dangerous/yuziakicin/UEFI/UEFI/Backend/gnu-efi-3.0.18/lib\hand.c ****         FreePool(BlockIoBuffer);
 167:C:/Users/victim/Desktop/dangerous/yuziakicin/UEFI/UEFI/Backend/gnu-efi-3.0.18/lib\hand.c ****         *NoHandles = 0;
 168:C:/Users/victim/Desktop/dangerous/yuziakicin/UEFI/UEFI/Backend/gnu-efi-3.0.18/lib\hand.c ****         *Buffer = NULL;
 169:C:/Users/victim/Desktop/dangerous/yuziakicin/UEFI/UEFI/Backend/gnu-efi-3.0.18/lib\hand.c ****         return Status;
 170:C:/Users/victim/Desktop/dangerous/yuziakicin/UEFI/UEFI/Backend/gnu-efi-3.0.18/lib\hand.c ****     }
 171:C:/Users/victim/Desktop/dangerous/yuziakicin/UEFI/UEFI/Backend/gnu-efi-3.0.18/lib\hand.c **** 
 172:C:/Users/victim/Desktop/dangerous/yuziakicin/UEFI/UEFI/Backend/gnu-efi-3.0.18/lib\hand.c ****     //
 173:C:/Users/victim/Desktop/dangerous/yuziakicin/UEFI/UEFI/Backend/gnu-efi-3.0.18/lib\hand.c ****     // Loop through all the device handles that support the BLOCK_IO Protocol
 174:C:/Users/victim/Desktop/dangerous/yuziakicin/UEFI/UEFI/Backend/gnu-efi-3.0.18/lib\hand.c ****     //
 175:C:/Users/victim/Desktop/dangerous/yuziakicin/UEFI/UEFI/Backend/gnu-efi-3.0.18/lib\hand.c **** 
 176:C:/Users/victim/Desktop/dangerous/yuziakicin/UEFI/UEFI/Backend/gnu-efi-3.0.18/lib\hand.c ****     *NoHandles = 0;
 377              		.loc 1 176 5 is_stmt 1 view .LVU93
 378              		.loc 1 176 16 is_stmt 0 view .LVU94
 379 01f2 49C70424 		movq	$0, (%r12)
 379      00000000 
 177:C:/Users/victim/Desktop/dangerous/yuziakicin/UEFI/UEFI/Backend/gnu-efi-3.0.18/lib\hand.c **** 
 178:C:/Users/victim/Desktop/dangerous/yuziakicin/UEFI/UEFI/Backend/gnu-efi-3.0.18/lib\hand.c ****     for(Index=0;Index<NoBlockIoHandles;Index++) {
 380              		.loc 1 178 5 is_stmt 1 view .LVU95
 381              	.LVL28:
 382              		.loc 1 178 14 is_stmt 0 view .LVU96
 383 01fa BD000000 		movl	$0, %ebp
 383      00
 384              		.loc 1 178 5 view .LVU97
 385 01ff E9310100 		jmp	.L17
 385      00
 386              	.LVL29:
 387              	.L14:
 166:C:/Users/victim/Desktop/dangerous/yuziakicin/UEFI/UEFI/Backend/gnu-efi-3.0.18/lib\hand.c ****         FreePool(BlockIoBuffer);
 388              		.loc 1 166 9 is_stmt 1 view .LVU98
 389 0204 488B4C24 		movq	72(%rsp), %rcx
 389      48
 390 0209 E8000000 		call	FreePool
 390      00
 391              	.LVL30:
 167:C:/Users/victim/Desktop/dangerous/yuziakicin/UEFI/UEFI/Backend/gnu-efi-3.0.18/lib\hand.c ****         *Buffer = NULL;
 392              		.loc 1 167 9 view .LVU99
 167:C:/Users/victim/Desktop/dangerous/yuziakicin/UEFI/UEFI/Backend/gnu-efi-3.0.18/lib\hand.c ****         *Buffer = NULL;
 393              		.loc 1 167 20 is_stmt 0 view .LVU100
 394 020e 49C70424 		movq	$0, (%r12)
 394      00000000 
 168:C:/Users/victim/Desktop/dangerous/yuziakicin/UEFI/UEFI/Backend/gnu-efi-3.0.18/lib\hand.c ****         return Status;
 395              		.loc 1 168 9 is_stmt 1 view .LVU101
 168:C:/Users/victim/Desktop/dangerous/yuziakicin/UEFI/UEFI/Backend/gnu-efi-3.0.18/lib\hand.c ****         return Status;
 396              		.loc 1 168 17 is_stmt 0 view .LVU102
 397 0216 49C70700 		movq	$0, (%r15)
 397      000000
 169:C:/Users/victim/Desktop/dangerous/yuziakicin/UEFI/UEFI/Backend/gnu-efi-3.0.18/lib\hand.c ****     }
 398              		.loc 1 169 9 is_stmt 1 view .LVU103
 169:C:/Users/victim/Desktop/dangerous/yuziakicin/UEFI/UEFI/Backend/gnu-efi-3.0.18/lib\hand.c ****     }
 399              		.loc 1 169 16 is_stmt 0 view .LVU104
 400 021d 488B5C24 		movq	88(%rsp), %rbx
 400      58
 401              	.L11:
 179:C:/Users/victim/Desktop/dangerous/yuziakicin/UEFI/UEFI/Backend/gnu-efi-3.0.18/lib\hand.c **** 
 180:C:/Users/victim/Desktop/dangerous/yuziakicin/UEFI/UEFI/Backend/gnu-efi-3.0.18/lib\hand.c ****         Status = uefi_call_wrapper(
 181:C:/Users/victim/Desktop/dangerous/yuziakicin/UEFI/UEFI/Backend/gnu-efi-3.0.18/lib\hand.c **** 				     BS->HandleProtocol, 
 182:C:/Users/victim/Desktop/dangerous/yuziakicin/UEFI/UEFI/Backend/gnu-efi-3.0.18/lib\hand.c **** 					3,
 183:C:/Users/victim/Desktop/dangerous/yuziakicin/UEFI/UEFI/Backend/gnu-efi-3.0.18/lib\hand.c **** 				     BlockIoBuffer[Index], 
 184:C:/Users/victim/Desktop/dangerous/yuziakicin/UEFI/UEFI/Backend/gnu-efi-3.0.18/lib\hand.c ****                                      &DevicePathProtocol, 
 185:C:/Users/victim/Desktop/dangerous/yuziakicin/UEFI/UEFI/Backend/gnu-efi-3.0.18/lib\hand.c ****                                      (VOID*)&DevicePath
 186:C:/Users/victim/Desktop/dangerous/yuziakicin/UEFI/UEFI/Backend/gnu-efi-3.0.18/lib\hand.c ****                                      );
 187:C:/Users/victim/Desktop/dangerous/yuziakicin/UEFI/UEFI/Backend/gnu-efi-3.0.18/lib\hand.c **** 
 188:C:/Users/victim/Desktop/dangerous/yuziakicin/UEFI/UEFI/Backend/gnu-efi-3.0.18/lib\hand.c ****         //
 189:C:/Users/victim/Desktop/dangerous/yuziakicin/UEFI/UEFI/Backend/gnu-efi-3.0.18/lib\hand.c ****         // Search DevicePath for a Hard Drive Media Device Path node.
 190:C:/Users/victim/Desktop/dangerous/yuziakicin/UEFI/UEFI/Backend/gnu-efi-3.0.18/lib\hand.c ****         // If one is found, then see if it matches the signature that was
 191:C:/Users/victim/Desktop/dangerous/yuziakicin/UEFI/UEFI/Backend/gnu-efi-3.0.18/lib\hand.c ****         // passed in.  If it does match, and the next node is the End of the
 192:C:/Users/victim/Desktop/dangerous/yuziakicin/UEFI/UEFI/Backend/gnu-efi-3.0.18/lib\hand.c ****         // device path, and the previous node is not a Hard Drive Media Device
 193:C:/Users/victim/Desktop/dangerous/yuziakicin/UEFI/UEFI/Backend/gnu-efi-3.0.18/lib\hand.c ****         // Path, then we have found a match.
 194:C:/Users/victim/Desktop/dangerous/yuziakicin/UEFI/UEFI/Backend/gnu-efi-3.0.18/lib\hand.c ****         //
 195:C:/Users/victim/Desktop/dangerous/yuziakicin/UEFI/UEFI/Backend/gnu-efi-3.0.18/lib\hand.c **** 
 196:C:/Users/victim/Desktop/dangerous/yuziakicin/UEFI/UEFI/Backend/gnu-efi-3.0.18/lib\hand.c ****         Match = FALSE;
 197:C:/Users/victim/Desktop/dangerous/yuziakicin/UEFI/UEFI/Backend/gnu-efi-3.0.18/lib\hand.c **** 
 198:C:/Users/victim/Desktop/dangerous/yuziakicin/UEFI/UEFI/Backend/gnu-efi-3.0.18/lib\hand.c ****         if (DevicePath != NULL) {
 199:C:/Users/victim/Desktop/dangerous/yuziakicin/UEFI/UEFI/Backend/gnu-efi-3.0.18/lib\hand.c **** 
 200:C:/Users/victim/Desktop/dangerous/yuziakicin/UEFI/UEFI/Backend/gnu-efi-3.0.18/lib\hand.c ****             PreviousNodeIsHardDriveDevicePath = FALSE;
 201:C:/Users/victim/Desktop/dangerous/yuziakicin/UEFI/UEFI/Backend/gnu-efi-3.0.18/lib\hand.c **** 
 202:C:/Users/victim/Desktop/dangerous/yuziakicin/UEFI/UEFI/Backend/gnu-efi-3.0.18/lib\hand.c ****             DevPath = DevicePath;
 203:C:/Users/victim/Desktop/dangerous/yuziakicin/UEFI/UEFI/Backend/gnu-efi-3.0.18/lib\hand.c **** 
 204:C:/Users/victim/Desktop/dangerous/yuziakicin/UEFI/UEFI/Backend/gnu-efi-3.0.18/lib\hand.c ****             //
 205:C:/Users/victim/Desktop/dangerous/yuziakicin/UEFI/UEFI/Backend/gnu-efi-3.0.18/lib\hand.c ****             // Check for end of device path type
 206:C:/Users/victim/Desktop/dangerous/yuziakicin/UEFI/UEFI/Backend/gnu-efi-3.0.18/lib\hand.c ****             //    
 207:C:/Users/victim/Desktop/dangerous/yuziakicin/UEFI/UEFI/Backend/gnu-efi-3.0.18/lib\hand.c **** 
 208:C:/Users/victim/Desktop/dangerous/yuziakicin/UEFI/UEFI/Backend/gnu-efi-3.0.18/lib\hand.c ****             for (; ;) {
 209:C:/Users/victim/Desktop/dangerous/yuziakicin/UEFI/UEFI/Backend/gnu-efi-3.0.18/lib\hand.c **** 
 210:C:/Users/victim/Desktop/dangerous/yuziakicin/UEFI/UEFI/Backend/gnu-efi-3.0.18/lib\hand.c ****                 if ((DevicePathType(DevPath) == MEDIA_DEVICE_PATH) &&
 211:C:/Users/victim/Desktop/dangerous/yuziakicin/UEFI/UEFI/Backend/gnu-efi-3.0.18/lib\hand.c ****                     (DevicePathSubType(DevPath) == MEDIA_HARDDRIVE_DP)) {
 212:C:/Users/victim/Desktop/dangerous/yuziakicin/UEFI/UEFI/Backend/gnu-efi-3.0.18/lib\hand.c **** 
 213:C:/Users/victim/Desktop/dangerous/yuziakicin/UEFI/UEFI/Backend/gnu-efi-3.0.18/lib\hand.c ****                     HardDriveDevicePath = (HARDDRIVE_DEVICE_PATH *)(DevPath);
 214:C:/Users/victim/Desktop/dangerous/yuziakicin/UEFI/UEFI/Backend/gnu-efi-3.0.18/lib\hand.c **** 
 215:C:/Users/victim/Desktop/dangerous/yuziakicin/UEFI/UEFI/Backend/gnu-efi-3.0.18/lib\hand.c ****                     if (PreviousNodeIsHardDriveDevicePath == FALSE) {
 216:C:/Users/victim/Desktop/dangerous/yuziakicin/UEFI/UEFI/Backend/gnu-efi-3.0.18/lib\hand.c **** 
 217:C:/Users/victim/Desktop/dangerous/yuziakicin/UEFI/UEFI/Backend/gnu-efi-3.0.18/lib\hand.c ****                         Next = NextDevicePathNode(DevPath);
 218:C:/Users/victim/Desktop/dangerous/yuziakicin/UEFI/UEFI/Backend/gnu-efi-3.0.18/lib\hand.c ****                         if (IsDevicePathEndType(Next)) {
 219:C:/Users/victim/Desktop/dangerous/yuziakicin/UEFI/UEFI/Backend/gnu-efi-3.0.18/lib\hand.c ****                             if ((HardDriveDevicePath->MBRType == MBRType) &&
 220:C:/Users/victim/Desktop/dangerous/yuziakicin/UEFI/UEFI/Backend/gnu-efi-3.0.18/lib\hand.c ****                                 (HardDriveDevicePath->SignatureType == SignatureType)) {
 221:C:/Users/victim/Desktop/dangerous/yuziakicin/UEFI/UEFI/Backend/gnu-efi-3.0.18/lib\hand.c ****                                     switch(SignatureType) {
 222:C:/Users/victim/Desktop/dangerous/yuziakicin/UEFI/UEFI/Backend/gnu-efi-3.0.18/lib\hand.c ****                                         case SIGNATURE_TYPE_MBR:
 223:C:/Users/victim/Desktop/dangerous/yuziakicin/UEFI/UEFI/Backend/gnu-efi-3.0.18/lib\hand.c ****                                             if (*((UINT32 *)(Signature)) == *(UINT32 *)(&(HardDrive
 224:C:/Users/victim/Desktop/dangerous/yuziakicin/UEFI/UEFI/Backend/gnu-efi-3.0.18/lib\hand.c ****                                                 Match = TRUE;
 225:C:/Users/victim/Desktop/dangerous/yuziakicin/UEFI/UEFI/Backend/gnu-efi-3.0.18/lib\hand.c ****                                             }
 226:C:/Users/victim/Desktop/dangerous/yuziakicin/UEFI/UEFI/Backend/gnu-efi-3.0.18/lib\hand.c ****                                             break;
 227:C:/Users/victim/Desktop/dangerous/yuziakicin/UEFI/UEFI/Backend/gnu-efi-3.0.18/lib\hand.c ****                                         case SIGNATURE_TYPE_GUID:
 228:C:/Users/victim/Desktop/dangerous/yuziakicin/UEFI/UEFI/Backend/gnu-efi-3.0.18/lib\hand.c ****                                             if (CompareGuid((EFI_GUID *)Signature,(EFI_GUID *)(&(Ha
 229:C:/Users/victim/Desktop/dangerous/yuziakicin/UEFI/UEFI/Backend/gnu-efi-3.0.18/lib\hand.c ****                                                 Match = TRUE;
 230:C:/Users/victim/Desktop/dangerous/yuziakicin/UEFI/UEFI/Backend/gnu-efi-3.0.18/lib\hand.c ****                                             }
 231:C:/Users/victim/Desktop/dangerous/yuziakicin/UEFI/UEFI/Backend/gnu-efi-3.0.18/lib\hand.c ****                                             break;
 232:C:/Users/victim/Desktop/dangerous/yuziakicin/UEFI/UEFI/Backend/gnu-efi-3.0.18/lib\hand.c ****                                     }
 233:C:/Users/victim/Desktop/dangerous/yuziakicin/UEFI/UEFI/Backend/gnu-efi-3.0.18/lib\hand.c ****                             }
 234:C:/Users/victim/Desktop/dangerous/yuziakicin/UEFI/UEFI/Backend/gnu-efi-3.0.18/lib\hand.c ****                         }
 235:C:/Users/victim/Desktop/dangerous/yuziakicin/UEFI/UEFI/Backend/gnu-efi-3.0.18/lib\hand.c ****                     }
 236:C:/Users/victim/Desktop/dangerous/yuziakicin/UEFI/UEFI/Backend/gnu-efi-3.0.18/lib\hand.c ****                     PreviousNodeIsHardDriveDevicePath = TRUE;
 237:C:/Users/victim/Desktop/dangerous/yuziakicin/UEFI/UEFI/Backend/gnu-efi-3.0.18/lib\hand.c ****                 } else {
 238:C:/Users/victim/Desktop/dangerous/yuziakicin/UEFI/UEFI/Backend/gnu-efi-3.0.18/lib\hand.c ****                     PreviousNodeIsHardDriveDevicePath = FALSE;
 239:C:/Users/victim/Desktop/dangerous/yuziakicin/UEFI/UEFI/Backend/gnu-efi-3.0.18/lib\hand.c ****                 }
 240:C:/Users/victim/Desktop/dangerous/yuziakicin/UEFI/UEFI/Backend/gnu-efi-3.0.18/lib\hand.c **** 
 241:C:/Users/victim/Desktop/dangerous/yuziakicin/UEFI/UEFI/Backend/gnu-efi-3.0.18/lib\hand.c ****                 if (IsDevicePathEnd(DevPath)) {
 242:C:/Users/victim/Desktop/dangerous/yuziakicin/UEFI/UEFI/Backend/gnu-efi-3.0.18/lib\hand.c ****                     break;
 243:C:/Users/victim/Desktop/dangerous/yuziakicin/UEFI/UEFI/Backend/gnu-efi-3.0.18/lib\hand.c ****                 }
 244:C:/Users/victim/Desktop/dangerous/yuziakicin/UEFI/UEFI/Backend/gnu-efi-3.0.18/lib\hand.c **** 
 245:C:/Users/victim/Desktop/dangerous/yuziakicin/UEFI/UEFI/Backend/gnu-efi-3.0.18/lib\hand.c ****                 DevPath = NextDevicePathNode(DevPath);
 246:C:/Users/victim/Desktop/dangerous/yuziakicin/UEFI/UEFI/Backend/gnu-efi-3.0.18/lib\hand.c ****             }
 247:C:/Users/victim/Desktop/dangerous/yuziakicin/UEFI/UEFI/Backend/gnu-efi-3.0.18/lib\hand.c **** 
 248:C:/Users/victim/Desktop/dangerous/yuziakicin/UEFI/UEFI/Backend/gnu-efi-3.0.18/lib\hand.c ****         }
 249:C:/Users/victim/Desktop/dangerous/yuziakicin/UEFI/UEFI/Backend/gnu-efi-3.0.18/lib\hand.c **** 
 250:C:/Users/victim/Desktop/dangerous/yuziakicin/UEFI/UEFI/Backend/gnu-efi-3.0.18/lib\hand.c ****         if (Match == FALSE) {
 251:C:/Users/victim/Desktop/dangerous/yuziakicin/UEFI/UEFI/Backend/gnu-efi-3.0.18/lib\hand.c ****             BlockIoBuffer[Index] = NULL;
 252:C:/Users/victim/Desktop/dangerous/yuziakicin/UEFI/UEFI/Backend/gnu-efi-3.0.18/lib\hand.c ****         } else {
 253:C:/Users/victim/Desktop/dangerous/yuziakicin/UEFI/UEFI/Backend/gnu-efi-3.0.18/lib\hand.c ****             *NoHandles = *NoHandles + 1;
 254:C:/Users/victim/Desktop/dangerous/yuziakicin/UEFI/UEFI/Backend/gnu-efi-3.0.18/lib\hand.c ****         }
 255:C:/Users/victim/Desktop/dangerous/yuziakicin/UEFI/UEFI/Backend/gnu-efi-3.0.18/lib\hand.c ****     }
 256:C:/Users/victim/Desktop/dangerous/yuziakicin/UEFI/UEFI/Backend/gnu-efi-3.0.18/lib\hand.c **** 
 257:C:/Users/victim/Desktop/dangerous/yuziakicin/UEFI/UEFI/Backend/gnu-efi-3.0.18/lib\hand.c ****     //
 258:C:/Users/victim/Desktop/dangerous/yuziakicin/UEFI/UEFI/Backend/gnu-efi-3.0.18/lib\hand.c ****     // If there are no matches, then return
 259:C:/Users/victim/Desktop/dangerous/yuziakicin/UEFI/UEFI/Backend/gnu-efi-3.0.18/lib\hand.c ****     //
 260:C:/Users/victim/Desktop/dangerous/yuziakicin/UEFI/UEFI/Backend/gnu-efi-3.0.18/lib\hand.c **** 
 261:C:/Users/victim/Desktop/dangerous/yuziakicin/UEFI/UEFI/Backend/gnu-efi-3.0.18/lib\hand.c ****     if (*NoHandles == 0) {
 262:C:/Users/victim/Desktop/dangerous/yuziakicin/UEFI/UEFI/Backend/gnu-efi-3.0.18/lib\hand.c ****         FreePool(BlockIoBuffer);
 263:C:/Users/victim/Desktop/dangerous/yuziakicin/UEFI/UEFI/Backend/gnu-efi-3.0.18/lib\hand.c ****         *NoHandles = 0;
 264:C:/Users/victim/Desktop/dangerous/yuziakicin/UEFI/UEFI/Backend/gnu-efi-3.0.18/lib\hand.c ****         *Buffer = NULL;
 265:C:/Users/victim/Desktop/dangerous/yuziakicin/UEFI/UEFI/Backend/gnu-efi-3.0.18/lib\hand.c ****         return EFI_SUCCESS;
 266:C:/Users/victim/Desktop/dangerous/yuziakicin/UEFI/UEFI/Backend/gnu-efi-3.0.18/lib\hand.c ****     }
 267:C:/Users/victim/Desktop/dangerous/yuziakicin/UEFI/UEFI/Backend/gnu-efi-3.0.18/lib\hand.c **** 
 268:C:/Users/victim/Desktop/dangerous/yuziakicin/UEFI/UEFI/Backend/gnu-efi-3.0.18/lib\hand.c ****     //
 269:C:/Users/victim/Desktop/dangerous/yuziakicin/UEFI/UEFI/Backend/gnu-efi-3.0.18/lib\hand.c ****     // Allocate space for the return buffer of device handles.
 270:C:/Users/victim/Desktop/dangerous/yuziakicin/UEFI/UEFI/Backend/gnu-efi-3.0.18/lib\hand.c ****     //
 271:C:/Users/victim/Desktop/dangerous/yuziakicin/UEFI/UEFI/Backend/gnu-efi-3.0.18/lib\hand.c **** 
 272:C:/Users/victim/Desktop/dangerous/yuziakicin/UEFI/UEFI/Backend/gnu-efi-3.0.18/lib\hand.c ****     *Buffer = AllocatePool(*NoHandles * sizeof(EFI_HANDLE));
 273:C:/Users/victim/Desktop/dangerous/yuziakicin/UEFI/UEFI/Backend/gnu-efi-3.0.18/lib\hand.c **** 
 274:C:/Users/victim/Desktop/dangerous/yuziakicin/UEFI/UEFI/Backend/gnu-efi-3.0.18/lib\hand.c ****     if (*Buffer == NULL) {
 275:C:/Users/victim/Desktop/dangerous/yuziakicin/UEFI/UEFI/Backend/gnu-efi-3.0.18/lib\hand.c ****         FreePool(BlockIoBuffer);
 276:C:/Users/victim/Desktop/dangerous/yuziakicin/UEFI/UEFI/Backend/gnu-efi-3.0.18/lib\hand.c ****         *NoHandles = 0;
 277:C:/Users/victim/Desktop/dangerous/yuziakicin/UEFI/UEFI/Backend/gnu-efi-3.0.18/lib\hand.c ****         *Buffer = NULL;
 278:C:/Users/victim/Desktop/dangerous/yuziakicin/UEFI/UEFI/Backend/gnu-efi-3.0.18/lib\hand.c ****         return EFI_OUT_OF_RESOURCES;
 279:C:/Users/victim/Desktop/dangerous/yuziakicin/UEFI/UEFI/Backend/gnu-efi-3.0.18/lib\hand.c ****     }
 280:C:/Users/victim/Desktop/dangerous/yuziakicin/UEFI/UEFI/Backend/gnu-efi-3.0.18/lib\hand.c **** 
 281:C:/Users/victim/Desktop/dangerous/yuziakicin/UEFI/UEFI/Backend/gnu-efi-3.0.18/lib\hand.c ****     //
 282:C:/Users/victim/Desktop/dangerous/yuziakicin/UEFI/UEFI/Backend/gnu-efi-3.0.18/lib\hand.c ****     // Build list of matching device handles.
 283:C:/Users/victim/Desktop/dangerous/yuziakicin/UEFI/UEFI/Backend/gnu-efi-3.0.18/lib\hand.c ****     //
 284:C:/Users/victim/Desktop/dangerous/yuziakicin/UEFI/UEFI/Backend/gnu-efi-3.0.18/lib\hand.c **** 
 285:C:/Users/victim/Desktop/dangerous/yuziakicin/UEFI/UEFI/Backend/gnu-efi-3.0.18/lib\hand.c ****     *NoHandles = 0;
 286:C:/Users/victim/Desktop/dangerous/yuziakicin/UEFI/UEFI/Backend/gnu-efi-3.0.18/lib\hand.c ****     for(Index=0;Index<NoBlockIoHandles;Index++) {
 287:C:/Users/victim/Desktop/dangerous/yuziakicin/UEFI/UEFI/Backend/gnu-efi-3.0.18/lib\hand.c ****         if (BlockIoBuffer[Index] != NULL) {
 288:C:/Users/victim/Desktop/dangerous/yuziakicin/UEFI/UEFI/Backend/gnu-efi-3.0.18/lib\hand.c ****             (*Buffer)[*NoHandles] = BlockIoBuffer[Index];
 289:C:/Users/victim/Desktop/dangerous/yuziakicin/UEFI/UEFI/Backend/gnu-efi-3.0.18/lib\hand.c ****             *NoHandles = *NoHandles + 1;
 290:C:/Users/victim/Desktop/dangerous/yuziakicin/UEFI/UEFI/Backend/gnu-efi-3.0.18/lib\hand.c ****         }
 291:C:/Users/victim/Desktop/dangerous/yuziakicin/UEFI/UEFI/Backend/gnu-efi-3.0.18/lib\hand.c ****     }
 292:C:/Users/victim/Desktop/dangerous/yuziakicin/UEFI/UEFI/Backend/gnu-efi-3.0.18/lib\hand.c **** 
 293:C:/Users/victim/Desktop/dangerous/yuziakicin/UEFI/UEFI/Backend/gnu-efi-3.0.18/lib\hand.c ****     FreePool(BlockIoBuffer);
 294:C:/Users/victim/Desktop/dangerous/yuziakicin/UEFI/UEFI/Backend/gnu-efi-3.0.18/lib\hand.c **** 
 295:C:/Users/victim/Desktop/dangerous/yuziakicin/UEFI/UEFI/Backend/gnu-efi-3.0.18/lib\hand.c ****     return EFI_SUCCESS;
 296:C:/Users/victim/Desktop/dangerous/yuziakicin/UEFI/UEFI/Backend/gnu-efi-3.0.18/lib\hand.c **** }
 402              		.loc 1 296 1 view .LVU105
 403 0222 4889D8   		movq	%rbx, %rax
 404 0225 4883C468 		addq	$104, %rsp
 405              		.cfi_remember_state
 406              		.cfi_def_cfa_offset 72
 407 0229 5B       		popq	%rbx
 408              		.cfi_restore 3
 409              		.cfi_def_cfa_offset 64
 410 022a 5E       		popq	%rsi
 411              		.cfi_restore 4
 412              		.cfi_def_cfa_offset 56
 413 022b 5F       		popq	%rdi
 414              		.cfi_restore 5
 415              		.cfi_def_cfa_offset 48
 416 022c 5D       		popq	%rbp
 417              		.cfi_restore 6
 418              		.cfi_def_cfa_offset 40
 419 022d 415C     		popq	%r12
 420              		.cfi_restore 12
 421              		.cfi_def_cfa_offset 32
 422              	.LVL31:
 423              		.loc 1 296 1 view .LVU106
 424 022f 415D     		popq	%r13
 425              		.cfi_restore 13
 426              		.cfi_def_cfa_offset 24
 427 0231 415E     		popq	%r14
 428              		.cfi_restore 14
 429              		.cfi_def_cfa_offset 16
 430 0233 415F     		popq	%r15
 431              		.cfi_restore 15
 432              		.cfi_def_cfa_offset 8
 433 0235 C3       		ret
 434              	.LVL32:
 435              	.L44:
 436              		.cfi_restore_state
 210:C:/Users/victim/Desktop/dangerous/yuziakicin/UEFI/UEFI/Backend/gnu-efi-3.0.18/lib\hand.c ****                     (DevicePathSubType(DevPath) == MEDIA_HARDDRIVE_DP)) {
 437              		.loc 1 210 68 discriminator 1 view .LVU107
 438 0236 807B0101 		cmpb	$1, 1(%rbx)
 439 023a 7407     		je	.L40
 238:C:/Users/victim/Desktop/dangerous/yuziakicin/UEFI/UEFI/Backend/gnu-efi-3.0.18/lib\hand.c ****                 }
 440              		.loc 1 238 55 view .LVU108
 441 023c 89F2     		movl	%esi, %edx
 442              	.LVL33:
 238:C:/Users/victim/Desktop/dangerous/yuziakicin/UEFI/UEFI/Backend/gnu-efi-3.0.18/lib\hand.c ****                 }
 443              		.loc 1 238 55 view .LVU109
 444 023e E9CE0000 		jmp	.L19
 444      00
 445              	.LVL34:
 446              	.L40:
 213:C:/Users/victim/Desktop/dangerous/yuziakicin/UEFI/UEFI/Backend/gnu-efi-3.0.18/lib\hand.c **** 
 447              		.loc 1 213 21 is_stmt 1 view .LVU110
 215:C:/Users/victim/Desktop/dangerous/yuziakicin/UEFI/UEFI/Backend/gnu-efi-3.0.18/lib\hand.c **** 
 448              		.loc 1 215 21 view .LVU111
 215:C:/Users/victim/Desktop/dangerous/yuziakicin/UEFI/UEFI/Backend/gnu-efi-3.0.18/lib\hand.c **** 
 449              		.loc 1 215 24 is_stmt 0 view .LVU112
 450 0243 84D2     		testb	%dl, %dl
 451 0245 0F85C600 		jne	.L19
 451      0000
 217:C:/Users/victim/Desktop/dangerous/yuziakicin/UEFI/UEFI/Backend/gnu-efi-3.0.18/lib\hand.c ****                         if (IsDevicePathEndType(Next)) {
 452              		.loc 1 217 25 is_stmt 1 view .LVU113
 217:C:/Users/victim/Desktop/dangerous/yuziakicin/UEFI/UEFI/Backend/gnu-efi-3.0.18/lib\hand.c ****                         if (IsDevicePathEndType(Next)) {
 453              		.loc 1 217 32 is_stmt 0 view .LVU114
 454 024b 0FB64302 		movzbl	2(%rbx), %eax
 455 024f 0FB65303 		movzbl	3(%rbx), %edx
 456              	.LVL35:
 217:C:/Users/victim/Desktop/dangerous/yuziakicin/UEFI/UEFI/Backend/gnu-efi-3.0.18/lib\hand.c ****                         if (IsDevicePathEndType(Next)) {
 457              		.loc 1 217 32 view .LVU115
 458 0253 C1E208   		sall	$8, %edx
 459 0256 09D0     		orl	%edx, %eax
 460 0258 4898     		cltq
 461              	.LVL36:
 218:C:/Users/victim/Desktop/dangerous/yuziakicin/UEFI/UEFI/Backend/gnu-efi-3.0.18/lib\hand.c ****                             if ((HardDriveDevicePath->MBRType == MBRType) &&
 462              		.loc 1 218 25 is_stmt 1 view .LVU116
 218:C:/Users/victim/Desktop/dangerous/yuziakicin/UEFI/UEFI/Backend/gnu-efi-3.0.18/lib\hand.c ****                             if ((HardDriveDevicePath->MBRType == MBRType) &&
 463              		.loc 1 218 29 is_stmt 0 view .LVU117
 464 025a 0FB60403 		movzbl	(%rbx,%rax), %eax
 465              	.LVL37:
 218:C:/Users/victim/Desktop/dangerous/yuziakicin/UEFI/UEFI/Backend/gnu-efi-3.0.18/lib\hand.c ****                             if ((HardDriveDevicePath->MBRType == MBRType) &&
 466              		.loc 1 218 28 view .LVU118
 467 025e F7D0     		notl	%eax
 468 0260 A87F     		testb	$127, %al
 469 0262 740A     		je	.L41
 236:C:/Users/victim/Desktop/dangerous/yuziakicin/UEFI/UEFI/Backend/gnu-efi-3.0.18/lib\hand.c ****                 } else {
 470              		.loc 1 236 55 view .LVU119
 471 0264 BA010000 		movl	$1, %edx
 471      00
 472              	.LVL38:
 236:C:/Users/victim/Desktop/dangerous/yuziakicin/UEFI/UEFI/Backend/gnu-efi-3.0.18/lib\hand.c ****                 } else {
 473              		.loc 1 236 55 view .LVU120
 474 0269 E9A30000 		jmp	.L19
 474      00
 475              	.LVL39:
 476              	.L41:
 219:C:/Users/victim/Desktop/dangerous/yuziakicin/UEFI/UEFI/Backend/gnu-efi-3.0.18/lib\hand.c ****                                 (HardDriveDevicePath->SignatureType == SignatureType)) {
 477              		.loc 1 219 29 is_stmt 1 view .LVU121
 219:C:/Users/victim/Desktop/dangerous/yuziakicin/UEFI/UEFI/Backend/gnu-efi-3.0.18/lib\hand.c ****                                 (HardDriveDevicePath->SignatureType == SignatureType)) {
 478              		.loc 1 219 32 is_stmt 0 view .LVU122
 479 026e 0FB64424 		movzbl	62(%rsp), %eax
 479      3E
 480 0273 384328   		cmpb	%al, 40(%rbx)
 481 0276 740A     		je	.L42
 236:C:/Users/victim/Desktop/dangerous/yuziakicin/UEFI/UEFI/Backend/gnu-efi-3.0.18/lib\hand.c ****                 } else {
 482              		.loc 1 236 55 view .LVU123
 483 0278 BA010000 		movl	$1, %edx
 483      00
 484              	.LVL40:
 236:C:/Users/victim/Desktop/dangerous/yuziakicin/UEFI/UEFI/Backend/gnu-efi-3.0.18/lib\hand.c ****                 } else {
 485              		.loc 1 236 55 view .LVU124
 486 027d E98F0000 		jmp	.L19
 486      00
 487              	.LVL41:
 488              	.L42:
 219:C:/Users/victim/Desktop/dangerous/yuziakicin/UEFI/UEFI/Backend/gnu-efi-3.0.18/lib\hand.c ****                                 (HardDriveDevicePath->SignatureType == SignatureType)) {
 489              		.loc 1 219 75 discriminator 1 view .LVU125
 490 0282 0FB64424 		movzbl	63(%rsp), %eax
 490      3F
 491 0287 384329   		cmpb	%al, 41(%rbx)
 492 028a 7407     		je	.L43
 236:C:/Users/victim/Desktop/dangerous/yuziakicin/UEFI/UEFI/Backend/gnu-efi-3.0.18/lib\hand.c ****                 } else {
 493              		.loc 1 236 55 view .LVU126
 494 028c BA010000 		movl	$1, %edx
 494      00
 495              	.LVL42:
 236:C:/Users/victim/Desktop/dangerous/yuziakicin/UEFI/UEFI/Backend/gnu-efi-3.0.18/lib\hand.c ****                 } else {
 496              		.loc 1 236 55 view .LVU127
 497 0291 EB7E     		jmp	.L19
 498              	.LVL43:
 499              	.L43:
 221:C:/Users/victim/Desktop/dangerous/yuziakicin/UEFI/UEFI/Backend/gnu-efi-3.0.18/lib\hand.c ****                                         case SIGNATURE_TYPE_MBR:
 500              		.loc 1 221 37 is_stmt 1 view .LVU128
 501 0293 3C01     		cmpb	$1, %al
 502 0295 740B     		je	.L20
 503 0297 3C02     		cmpb	$2, %al
 504 0299 741D     		je	.L21
 505 029b BA010000 		movl	$1, %edx
 505      00
 506              	.LVL44:
 221:C:/Users/victim/Desktop/dangerous/yuziakicin/UEFI/UEFI/Backend/gnu-efi-3.0.18/lib\hand.c ****                                         case SIGNATURE_TYPE_MBR:
 507              		.loc 1 221 37 is_stmt 0 view .LVU129
 508 02a0 EB6F     		jmp	.L19
 509              	.LVL45:
 510              	.L20:
 223:C:/Users/victim/Desktop/dangerous/yuziakicin/UEFI/UEFI/Backend/gnu-efi-3.0.18/lib\hand.c ****                                                 Match = TRUE;
 511              		.loc 1 223 45 is_stmt 1 view .LVU130
 223:C:/Users/victim/Desktop/dangerous/yuziakicin/UEFI/UEFI/Backend/gnu-efi-3.0.18/lib\hand.c ****                                                 Match = TRUE;
 512              		.loc 1 223 48 is_stmt 0 view .LVU131
 513 02a2 488B8424 		movq	192(%rsp), %rax
 513      C0000000 
 514 02aa 8B5318   		movl	24(%rbx), %edx
 515              	.LVL46:
 223:C:/Users/victim/Desktop/dangerous/yuziakicin/UEFI/UEFI/Backend/gnu-efi-3.0.18/lib\hand.c ****                                                 Match = TRUE;
 516              		.loc 1 223 48 view .LVU132
 517 02ad 3910     		cmpl	%edx, (%rax)
 518 02af 7424     		je	.L38
 236:C:/Users/victim/Desktop/dangerous/yuziakicin/UEFI/UEFI/Backend/gnu-efi-3.0.18/lib\hand.c ****                 } else {
 519              		.loc 1 236 55 view .LVU133
 520 02b1 BA010000 		movl	$1, %edx
 520      00
 521 02b6 EB59     		jmp	.L19
 522              	.LVL47:
 523              	.L21:
 228:C:/Users/victim/Desktop/dangerous/yuziakicin/UEFI/UEFI/Backend/gnu-efi-3.0.18/lib\hand.c ****                                                 Match = TRUE;
 524              		.loc 1 228 45 is_stmt 1 view .LVU134
 228:C:/Users/victim/Desktop/dangerous/yuziakicin/UEFI/UEFI/Backend/gnu-efi-3.0.18/lib\hand.c ****                                                 Match = TRUE;
 525              		.loc 1 228 96 is_stmt 0 view .LVU135
 526 02b8 488D5318 		leaq	24(%rbx), %rdx
 527              	.LVL48:
 228:C:/Users/victim/Desktop/dangerous/yuziakicin/UEFI/UEFI/Backend/gnu-efi-3.0.18/lib\hand.c ****                                                 Match = TRUE;
 528              		.loc 1 228 49 view .LVU136
 529 02bc 488B8C24 		movq	192(%rsp), %rcx
 529      C0000000 
 530 02c4 E8000000 		call	CompareGuid
 530      00
 531              	.LVL49:
 228:C:/Users/victim/Desktop/dangerous/yuziakicin/UEFI/UEFI/Backend/gnu-efi-3.0.18/lib\hand.c ****                                                 Match = TRUE;
 532              		.loc 1 228 48 discriminator 1 view .LVU137
 533 02c9 4885C0   		testq	%rax, %rax
 534 02cc 7414     		je	.L39
 236:C:/Users/victim/Desktop/dangerous/yuziakicin/UEFI/UEFI/Backend/gnu-efi-3.0.18/lib\hand.c ****                 } else {
 535              		.loc 1 236 55 view .LVU138
 536 02ce BA010000 		movl	$1, %edx
 536      00
 537 02d3 EB3C     		jmp	.L19
 538              	.LVL50:
 539              	.L38:
 236:C:/Users/victim/Desktop/dangerous/yuziakicin/UEFI/UEFI/Backend/gnu-efi-3.0.18/lib\hand.c ****                 } else {
 540              		.loc 1 236 55 view .LVU139
 541 02d5 BA010000 		movl	$1, %edx
 541      00
 224:C:/Users/victim/Desktop/dangerous/yuziakicin/UEFI/UEFI/Backend/gnu-efi-3.0.18/lib\hand.c ****                                             }
 542              		.loc 1 224 55 view .LVU140
 543 02da 41BE0100 		movl	$1, %r14d
 543      0000
 544              	.LVL51:
 224:C:/Users/victim/Desktop/dangerous/yuziakicin/UEFI/UEFI/Backend/gnu-efi-3.0.18/lib\hand.c ****                                             }
 545              		.loc 1 224 55 view .LVU141
 546 02e0 EB2F     		jmp	.L19
 547              	.LVL52:
 548              	.L39:
 236:C:/Users/victim/Desktop/dangerous/yuziakicin/UEFI/UEFI/Backend/gnu-efi-3.0.18/lib\hand.c ****                 } else {
 549              		.loc 1 236 55 view .LVU142
 550 02e2 BA010000 		movl	$1, %edx
 550      00
 229:C:/Users/victim/Desktop/dangerous/yuziakicin/UEFI/UEFI/Backend/gnu-efi-3.0.18/lib\hand.c ****                                             }
 551              		.loc 1 229 55 view .LVU143
 552 02e7 41BE0100 		movl	$1, %r14d
 552      0000
 553              	.LVL53:
 229:C:/Users/victim/Desktop/dangerous/yuziakicin/UEFI/UEFI/Backend/gnu-efi-3.0.18/lib\hand.c ****                                             }
 554              		.loc 1 229 55 view .LVU144
 555 02ed EB22     		jmp	.L19
 556              	.LVL54:
 557              	.L22:
 245:C:/Users/victim/Desktop/dangerous/yuziakicin/UEFI/UEFI/Backend/gnu-efi-3.0.18/lib\hand.c ****             }
 558              		.loc 1 245 17 is_stmt 1 view .LVU145
 245:C:/Users/victim/Desktop/dangerous/yuziakicin/UEFI/UEFI/Backend/gnu-efi-3.0.18/lib\hand.c ****             }
 559              		.loc 1 245 27 is_stmt 0 view .LVU146
 560 02ef 0FB64302 		movzbl	2(%rbx), %eax
 561 02f3 0FB64B03 		movzbl	3(%rbx), %ecx
 562 02f7 C1E108   		sall	$8, %ecx
 563 02fa 09C8     		orl	%ecx, %eax
 564 02fc 4898     		cltq
 245:C:/Users/victim/Desktop/dangerous/yuziakicin/UEFI/UEFI/Backend/gnu-efi-3.0.18/lib\hand.c ****             }
 565              		.loc 1 245 25 view .LVU147
 566 02fe 4801C3   		addq	%rax, %rbx
 567              	.LVL55:
 208:C:/Users/victim/Desktop/dangerous/yuziakicin/UEFI/UEFI/Backend/gnu-efi-3.0.18/lib\hand.c **** 
 568              		.loc 1 208 13 is_stmt 1 view .LVU148
 569              	.L24:
 208:C:/Users/victim/Desktop/dangerous/yuziakicin/UEFI/UEFI/Backend/gnu-efi-3.0.18/lib\hand.c **** 
 570              		.loc 1 208 13 view .LVU149
 210:C:/Users/victim/Desktop/dangerous/yuziakicin/UEFI/UEFI/Backend/gnu-efi-3.0.18/lib\hand.c ****                     (DevicePathSubType(DevPath) == MEDIA_HARDDRIVE_DP)) {
 571              		.loc 1 210 17 view .LVU150
 210:C:/Users/victim/Desktop/dangerous/yuziakicin/UEFI/UEFI/Backend/gnu-efi-3.0.18/lib\hand.c ****                     (DevicePathSubType(DevPath) == MEDIA_HARDDRIVE_DP)) {
 572              		.loc 1 210 20 is_stmt 0 view .LVU151
 573 0301 0FB603   		movzbl	(%rbx), %eax
 574 0304 83E07F   		andl	$127, %eax
 575 0307 3C04     		cmpb	$4, %al
 576 0309 0F8427FF 		je	.L44
 576      FFFF
 238:C:/Users/victim/Desktop/dangerous/yuziakicin/UEFI/UEFI/Backend/gnu-efi-3.0.18/lib\hand.c ****                 }
 577              		.loc 1 238 55 view .LVU152
 578 030f 89F2     		movl	%esi, %edx
 579              	.LVL56:
 580              	.L19:
 241:C:/Users/victim/Desktop/dangerous/yuziakicin/UEFI/UEFI/Backend/gnu-efi-3.0.18/lib\hand.c ****                     break;
 581              		.loc 1 241 17 is_stmt 1 view .LVU153
 241:C:/Users/victim/Desktop/dangerous/yuziakicin/UEFI/UEFI/Backend/gnu-efi-3.0.18/lib\hand.c ****                     break;
 582              		.loc 1 241 21 is_stmt 0 view .LVU154
 583 0311 0FB603   		movzbl	(%rbx), %eax
 241:C:/Users/victim/Desktop/dangerous/yuziakicin/UEFI/UEFI/Backend/gnu-efi-3.0.18/lib\hand.c ****                     break;
 584              		.loc 1 241 20 view .LVU155
 585 0314 F7D0     		notl	%eax
 586 0316 A87F     		testb	$127, %al
 587 0318 75D5     		jne	.L22
 241:C:/Users/victim/Desktop/dangerous/yuziakicin/UEFI/UEFI/Backend/gnu-efi-3.0.18/lib\hand.c ****                     break;
 588              		.loc 1 241 21 discriminator 1 view .LVU156
 589 031a 807B01FF 		cmpb	$-1, 1(%rbx)
 590 031e 75CF     		jne	.L22
 250:C:/Users/victim/Desktop/dangerous/yuziakicin/UEFI/UEFI/Backend/gnu-efi-3.0.18/lib\hand.c ****             BlockIoBuffer[Index] = NULL;
 591              		.loc 1 250 9 is_stmt 1 view .LVU157
 250:C:/Users/victim/Desktop/dangerous/yuziakicin/UEFI/UEFI/Backend/gnu-efi-3.0.18/lib\hand.c ****             BlockIoBuffer[Index] = NULL;
 592              		.loc 1 250 12 is_stmt 0 view .LVU158
 593 0320 4584F6   		testb	%r14b, %r14b
 594 0323 755A     		jne	.L25
 595              	.LVL57:
 596              	.L18:
 251:C:/Users/victim/Desktop/dangerous/yuziakicin/UEFI/UEFI/Backend/gnu-efi-3.0.18/lib\hand.c ****         } else {
 597              		.loc 1 251 13 is_stmt 1 view .LVU159
 251:C:/Users/victim/Desktop/dangerous/yuziakicin/UEFI/UEFI/Backend/gnu-efi-3.0.18/lib\hand.c ****         } else {
 598              		.loc 1 251 26 is_stmt 0 view .LVU160
 599 0325 48037C24 		addq	72(%rsp), %rdi
 599      48
 251:C:/Users/victim/Desktop/dangerous/yuziakicin/UEFI/UEFI/Backend/gnu-efi-3.0.18/lib\hand.c ****         } else {
 600              		.loc 1 251 34 view .LVU161
 601 032a 48C70700 		movq	$0, (%rdi)
 601      000000
 602              	.L26:
 178:C:/Users/victim/Desktop/dangerous/yuziakicin/UEFI/UEFI/Backend/gnu-efi-3.0.18/lib\hand.c **** 
 603              		.loc 1 178 45 is_stmt 1 discriminator 2 view .LVU162
 604 0331 4883C501 		addq	$1, %rbp
 605              	.LVL58:
 606              	.L17:
 178:C:/Users/victim/Desktop/dangerous/yuziakicin/UEFI/UEFI/Backend/gnu-efi-3.0.18/lib\hand.c **** 
 607              		.loc 1 178 22 discriminator 1 view .LVU163
 608 0335 4C39ED   		cmpq	%r13, %rbp
 609 0338 7353     		jnb	.L45
 180:C:/Users/victim/Desktop/dangerous/yuziakicin/UEFI/UEFI/Backend/gnu-efi-3.0.18/lib\hand.c **** 				     BS->HandleProtocol, 
 610              		.loc 1 180 9 view .LVU164
 180:C:/Users/victim/Desktop/dangerous/yuziakicin/UEFI/UEFI/Backend/gnu-efi-3.0.18/lib\hand.c **** 				     BS->HandleProtocol, 
 611              		.loc 1 180 18 is_stmt 0 view .LVU165
 612 033a 488B0500 		movq	.refptr.BS(%rip), %rax
 612      000000
 613 0341 488B00   		movq	(%rax), %rax
 614 0344 488D3CED 		leaq	0(,%rbp,8), %rdi
 614      00000000 
 615 034c 4889FA   		movq	%rdi, %rdx
 616 034f 48035424 		addq	72(%rsp), %rdx
 616      48
 617 0354 488B0A   		movq	(%rdx), %rcx
 618 0357 4C8D4424 		leaq	64(%rsp), %r8
 618      40
 619 035c 488B1500 		movq	.refptr.gEfiDevicePathProtocolGuid(%rip), %rdx
 619      000000
 620 0363 FF909800 		call	*152(%rax)
 620      0000
 621              	.LVL59:
 180:C:/Users/victim/Desktop/dangerous/yuziakicin/UEFI/UEFI/Backend/gnu-efi-3.0.18/lib\hand.c **** 				     BS->HandleProtocol, 
 622              		.loc 1 180 16 discriminator 1 view .LVU166
 623 0369 48894424 		movq	%rax, 88(%rsp)
 623      58
 196:C:/Users/victim/Desktop/dangerous/yuziakicin/UEFI/UEFI/Backend/gnu-efi-3.0.18/lib\hand.c **** 
 624              		.loc 1 196 9 is_stmt 1 view .LVU167
 625              	.LVL60:
 198:C:/Users/victim/Desktop/dangerous/yuziakicin/UEFI/UEFI/Backend/gnu-efi-3.0.18/lib\hand.c **** 
 626              		.loc 1 198 9 view .LVU168
 198:C:/Users/victim/Desktop/dangerous/yuziakicin/UEFI/UEFI/Backend/gnu-efi-3.0.18/lib\hand.c **** 
 627              		.loc 1 198 24 is_stmt 0 view .LVU169
 628 036e 488B5C24 		movq	64(%rsp), %rbx
 628      40
 198:C:/Users/victim/Desktop/dangerous/yuziakicin/UEFI/UEFI/Backend/gnu-efi-3.0.18/lib\hand.c **** 
 629              		.loc 1 198 12 view .LVU170
 630 0373 4885DB   		testq	%rbx, %rbx
 631 0376 74AD     		je	.L18
 200:C:/Users/victim/Desktop/dangerous/yuziakicin/UEFI/UEFI/Backend/gnu-efi-3.0.18/lib\hand.c **** 
 632              		.loc 1 200 47 view .LVU171
 633 0378 89F2     		movl	%esi, %edx
 196:C:/Users/victim/Desktop/dangerous/yuziakicin/UEFI/UEFI/Backend/gnu-efi-3.0.18/lib\hand.c **** 
 634              		.loc 1 196 15 view .LVU172
 635 037a 4189F6   		movl	%esi, %r14d
 636 037d EB82     		jmp	.L24
 637              	.LVL61:
 638              	.L25:
 253:C:/Users/victim/Desktop/dangerous/yuziakicin/UEFI/UEFI/Backend/gnu-efi-3.0.18/lib\hand.c ****         }
 639              		.loc 1 253 13 is_stmt 1 view .LVU173
 253:C:/Users/victim/Desktop/dangerous/yuziakicin/UEFI/UEFI/Backend/gnu-efi-3.0.18/lib\hand.c ****         }
 640              		.loc 1 253 37 is_stmt 0 view .LVU174
 641 037f 498B0424 		movq	(%r12), %rax
 642 0383 4883C001 		addq	$1, %rax
 253:C:/Users/victim/Desktop/dangerous/yuziakicin/UEFI/UEFI/Backend/gnu-efi-3.0.18/lib\hand.c ****         }
 643              		.loc 1 253 24 view .LVU175
 644 0387 49890424 		movq	%rax, (%r12)
 645 038b EBA4     		jmp	.L26
 646              	.LVL62:
 647              	.L45:
 261:C:/Users/victim/Desktop/dangerous/yuziakicin/UEFI/UEFI/Backend/gnu-efi-3.0.18/lib\hand.c ****         FreePool(BlockIoBuffer);
 648              		.loc 1 261 5 is_stmt 1 view .LVU176
 261:C:/Users/victim/Desktop/dangerous/yuziakicin/UEFI/UEFI/Backend/gnu-efi-3.0.18/lib\hand.c ****         FreePool(BlockIoBuffer);
 649              		.loc 1 261 9 is_stmt 0 view .LVU177
 650 038d 498B1C24 		movq	(%r12), %rbx
 261:C:/Users/victim/Desktop/dangerous/yuziakicin/UEFI/UEFI/Backend/gnu-efi-3.0.18/lib\hand.c ****         FreePool(BlockIoBuffer);
 651              		.loc 1 261 8 view .LVU178
 652 0391 4885DB   		testq	%rbx, %rbx
 653 0394 7424     		je	.L46
 272:C:/Users/victim/Desktop/dangerous/yuziakicin/UEFI/UEFI/Backend/gnu-efi-3.0.18/lib\hand.c **** 
 654              		.loc 1 272 5 is_stmt 1 view .LVU179
 272:C:/Users/victim/Desktop/dangerous/yuziakicin/UEFI/UEFI/Backend/gnu-efi-3.0.18/lib\hand.c **** 
 655              		.loc 1 272 15 is_stmt 0 view .LVU180
 656 0396 488D0CDD 		leaq	0(,%rbx,8), %rcx
 656      00000000 
 657 039e E8000000 		call	AllocatePool
 657      00
 658              	.LVL63:
 272:C:/Users/victim/Desktop/dangerous/yuziakicin/UEFI/UEFI/Backend/gnu-efi-3.0.18/lib\hand.c **** 
 659              		.loc 1 272 13 discriminator 1 view .LVU181
 660 03a3 498907   		movq	%rax, (%r15)
 274:C:/Users/victim/Desktop/dangerous/yuziakicin/UEFI/UEFI/Backend/gnu-efi-3.0.18/lib\hand.c ****         FreePool(BlockIoBuffer);
 661              		.loc 1 274 5 is_stmt 1 view .LVU182
 274:C:/Users/victim/Desktop/dangerous/yuziakicin/UEFI/UEFI/Backend/gnu-efi-3.0.18/lib\hand.c ****         FreePool(BlockIoBuffer);
 662              		.loc 1 274 8 is_stmt 0 view .LVU183
 663 03a6 4885C0   		testq	%rax, %rax
 664 03a9 742D     		je	.L47
 285:C:/Users/victim/Desktop/dangerous/yuziakicin/UEFI/UEFI/Backend/gnu-efi-3.0.18/lib\hand.c ****     for(Index=0;Index<NoBlockIoHandles;Index++) {
 665              		.loc 1 285 5 is_stmt 1 view .LVU184
 285:C:/Users/victim/Desktop/dangerous/yuziakicin/UEFI/UEFI/Backend/gnu-efi-3.0.18/lib\hand.c ****     for(Index=0;Index<NoBlockIoHandles;Index++) {
 666              		.loc 1 285 16 is_stmt 0 view .LVU185
 667 03ab 49C70424 		movq	$0, (%r12)
 667      00000000 
 286:C:/Users/victim/Desktop/dangerous/yuziakicin/UEFI/UEFI/Backend/gnu-efi-3.0.18/lib\hand.c ****         if (BlockIoBuffer[Index] != NULL) {
 668              		.loc 1 286 5 is_stmt 1 view .LVU186
 669              	.LVL64:
 286:C:/Users/victim/Desktop/dangerous/yuziakicin/UEFI/UEFI/Backend/gnu-efi-3.0.18/lib\hand.c ****         if (BlockIoBuffer[Index] != NULL) {
 670              		.loc 1 286 14 is_stmt 0 view .LVU187
 671 03b3 B8000000 		movl	$0, %eax
 671      00
 286:C:/Users/victim/Desktop/dangerous/yuziakicin/UEFI/UEFI/Backend/gnu-efi-3.0.18/lib\hand.c ****         if (BlockIoBuffer[Index] != NULL) {
 672              		.loc 1 286 5 view .LVU188
 673 03b8 EB4A     		jmp	.L30
 674              	.LVL65:
 675              	.L46:
 262:C:/Users/victim/Desktop/dangerous/yuziakicin/UEFI/UEFI/Backend/gnu-efi-3.0.18/lib\hand.c ****         *NoHandles = 0;
 676              		.loc 1 262 9 is_stmt 1 view .LVU189
 677 03ba 488B4C24 		movq	72(%rsp), %rcx
 677      48
 678 03bf E8000000 		call	FreePool
 678      00
 679              	.LVL66:
 263:C:/Users/victim/Desktop/dangerous/yuziakicin/UEFI/UEFI/Backend/gnu-efi-3.0.18/lib\hand.c ****         *Buffer = NULL;
 680              		.loc 1 263 9 view .LVU190
 263:C:/Users/victim/Desktop/dangerous/yuziakicin/UEFI/UEFI/Backend/gnu-efi-3.0.18/lib\hand.c ****         *Buffer = NULL;
 681              		.loc 1 263 20 is_stmt 0 view .LVU191
 682 03c4 49C70424 		movq	$0, (%r12)
 682      00000000 
 264:C:/Users/victim/Desktop/dangerous/yuziakicin/UEFI/UEFI/Backend/gnu-efi-3.0.18/lib\hand.c ****         return EFI_SUCCESS;
 683              		.loc 1 264 9 is_stmt 1 view .LVU192
 264:C:/Users/victim/Desktop/dangerous/yuziakicin/UEFI/UEFI/Backend/gnu-efi-3.0.18/lib\hand.c ****         return EFI_SUCCESS;
 684              		.loc 1 264 17 is_stmt 0 view .LVU193
 685 03cc 49C70700 		movq	$0, (%r15)
 685      000000
 265:C:/Users/victim/Desktop/dangerous/yuziakicin/UEFI/UEFI/Backend/gnu-efi-3.0.18/lib\hand.c ****     }
 686              		.loc 1 265 9 is_stmt 1 view .LVU194
 265:C:/Users/victim/Desktop/dangerous/yuziakicin/UEFI/UEFI/Backend/gnu-efi-3.0.18/lib\hand.c ****     }
 687              		.loc 1 265 16 is_stmt 0 view .LVU195
 688 03d3 E94AFEFF 		jmp	.L11
 688      FF
 689              	.L47:
 275:C:/Users/victim/Desktop/dangerous/yuziakicin/UEFI/UEFI/Backend/gnu-efi-3.0.18/lib\hand.c ****         *NoHandles = 0;
 690              		.loc 1 275 9 is_stmt 1 view .LVU196
 691 03d8 488B4C24 		movq	72(%rsp), %rcx
 691      48
 692 03dd E8000000 		call	FreePool
 692      00
 693              	.LVL67:
 276:C:/Users/victim/Desktop/dangerous/yuziakicin/UEFI/UEFI/Backend/gnu-efi-3.0.18/lib\hand.c ****         *Buffer = NULL;
 694              		.loc 1 276 9 view .LVU197
 276:C:/Users/victim/Desktop/dangerous/yuziakicin/UEFI/UEFI/Backend/gnu-efi-3.0.18/lib\hand.c ****         *Buffer = NULL;
 695              		.loc 1 276 20 is_stmt 0 view .LVU198
 696 03e2 49C70424 		movq	$0, (%r12)
 696      00000000 
 277:C:/Users/victim/Desktop/dangerous/yuziakicin/UEFI/UEFI/Backend/gnu-efi-3.0.18/lib\hand.c ****         return EFI_OUT_OF_RESOURCES;
 697              		.loc 1 277 9 is_stmt 1 view .LVU199
 277:C:/Users/victim/Desktop/dangerous/yuziakicin/UEFI/UEFI/Backend/gnu-efi-3.0.18/lib\hand.c ****         return EFI_OUT_OF_RESOURCES;
 698              		.loc 1 277 17 is_stmt 0 view .LVU200
 699 03ea 49C70700 		movq	$0, (%r15)
 699      000000
 278:C:/Users/victim/Desktop/dangerous/yuziakicin/UEFI/UEFI/Backend/gnu-efi-3.0.18/lib\hand.c ****     }
 700              		.loc 1 278 9 is_stmt 1 view .LVU201
 278:C:/Users/victim/Desktop/dangerous/yuziakicin/UEFI/UEFI/Backend/gnu-efi-3.0.18/lib\hand.c ****     }
 701              		.loc 1 278 16 is_stmt 0 view .LVU202
 702 03f1 48BB0900 		movabsq	$-9223372036854775799, %rbx
 702      00000000 
 702      0080
 703 03fb E922FEFF 		jmp	.L11
 703      FF
 704              	.LVL68:
 705              	.L31:
 286:C:/Users/victim/Desktop/dangerous/yuziakicin/UEFI/UEFI/Backend/gnu-efi-3.0.18/lib\hand.c ****         if (BlockIoBuffer[Index] != NULL) {
 706              		.loc 1 286 45 is_stmt 1 discriminator 2 view .LVU203
 707 0400 4883C001 		addq	$1, %rax
 708              	.LVL69:
 709              	.L30:
 286:C:/Users/victim/Desktop/dangerous/yuziakicin/UEFI/UEFI/Backend/gnu-efi-3.0.18/lib\hand.c ****         if (BlockIoBuffer[Index] != NULL) {
 710              		.loc 1 286 22 discriminator 1 view .LVU204
 711 0404 4C39E8   		cmpq	%r13, %rax
 712 0407 732E     		jnb	.L48
 287:C:/Users/victim/Desktop/dangerous/yuziakicin/UEFI/UEFI/Backend/gnu-efi-3.0.18/lib\hand.c ****             (*Buffer)[*NoHandles] = BlockIoBuffer[Index];
 713              		.loc 1 287 9 view .LVU205
 287:C:/Users/victim/Desktop/dangerous/yuziakicin/UEFI/UEFI/Backend/gnu-efi-3.0.18/lib\hand.c ****             (*Buffer)[*NoHandles] = BlockIoBuffer[Index];
 714              		.loc 1 287 26 is_stmt 0 view .LVU206
 715 0409 488B5424 		movq	72(%rsp), %rdx
 715      48
 716 040e 488B0CC2 		movq	(%rdx,%rax,8), %rcx
 287:C:/Users/victim/Desktop/dangerous/yuziakicin/UEFI/UEFI/Backend/gnu-efi-3.0.18/lib\hand.c ****             (*Buffer)[*NoHandles] = BlockIoBuffer[Index];
 717              		.loc 1 287 12 view .LVU207
 718 0412 4885C9   		testq	%rcx, %rcx
 719 0415 74E9     		je	.L31
 288:C:/Users/victim/Desktop/dangerous/yuziakicin/UEFI/UEFI/Backend/gnu-efi-3.0.18/lib\hand.c ****             *NoHandles = *NoHandles + 1;
 720              		.loc 1 288 13 is_stmt 1 view .LVU208
 288:C:/Users/victim/Desktop/dangerous/yuziakicin/UEFI/UEFI/Backend/gnu-efi-3.0.18/lib\hand.c ****             *NoHandles = *NoHandles + 1;
 721              		.loc 1 288 22 is_stmt 0 view .LVU209
 722 0417 498B3C24 		movq	(%r12), %rdi
 723 041b 488D14FD 		leaq	0(,%rdi,8), %rdx
 723      00000000 
 724 0423 490317   		addq	(%r15), %rdx
 288:C:/Users/victim/Desktop/dangerous/yuziakicin/UEFI/UEFI/Backend/gnu-efi-3.0.18/lib\hand.c ****             *NoHandles = *NoHandles + 1;
 725              		.loc 1 288 35 view .LVU210
 726 0426 48890A   		movq	%rcx, (%rdx)
 289:C:/Users/victim/Desktop/dangerous/yuziakicin/UEFI/UEFI/Backend/gnu-efi-3.0.18/lib\hand.c ****         }
 727              		.loc 1 289 13 is_stmt 1 view .LVU211
 289:C:/Users/victim/Desktop/dangerous/yuziakicin/UEFI/UEFI/Backend/gnu-efi-3.0.18/lib\hand.c ****         }
 728              		.loc 1 289 37 is_stmt 0 view .LVU212
 729 0429 498B3C24 		movq	(%r12), %rdi
 730 042d 488D5701 		leaq	1(%rdi), %rdx
 289:C:/Users/victim/Desktop/dangerous/yuziakicin/UEFI/UEFI/Backend/gnu-efi-3.0.18/lib\hand.c ****         }
 731              		.loc 1 289 24 view .LVU213
 732 0431 49891424 		movq	%rdx, (%r12)
 733 0435 EBC9     		jmp	.L31
 734              	.L48:
 293:C:/Users/victim/Desktop/dangerous/yuziakicin/UEFI/UEFI/Backend/gnu-efi-3.0.18/lib\hand.c **** 
 735              		.loc 1 293 5 is_stmt 1 view .LVU214
 736 0437 488B4C24 		movq	72(%rsp), %rcx
 736      48
 737 043c E8000000 		call	FreePool
 737      00
 738              	.LVL70:
 295:C:/Users/victim/Desktop/dangerous/yuziakicin/UEFI/UEFI/Backend/gnu-efi-3.0.18/lib\hand.c **** }
 739              		.loc 1 295 5 view .LVU215
 295:C:/Users/victim/Desktop/dangerous/yuziakicin/UEFI/UEFI/Backend/gnu-efi-3.0.18/lib\hand.c **** }
 740              		.loc 1 295 12 is_stmt 0 view .LVU216
 741 0441 BB000000 		movl	$0, %ebx
 741      00
 742 0446 E9D7FDFF 		jmp	.L11
 742      FF
 743              		.cfi_endproc
 744              	.LFE4:
 745              		.seh_endproc
 746              		.globl	LibOpenRoot
 748              		.seh_proc	LibOpenRoot
 749              	LibOpenRoot:
 750              	.LVL71:
 751              	.LFB5:
 297:C:/Users/victim/Desktop/dangerous/yuziakicin/UEFI/UEFI/Backend/gnu-efi-3.0.18/lib\hand.c **** 
 298:C:/Users/victim/Desktop/dangerous/yuziakicin/UEFI/UEFI/Backend/gnu-efi-3.0.18/lib\hand.c **** EFI_FILE_HANDLE
 299:C:/Users/victim/Desktop/dangerous/yuziakicin/UEFI/UEFI/Backend/gnu-efi-3.0.18/lib\hand.c **** LibOpenRoot (
 300:C:/Users/victim/Desktop/dangerous/yuziakicin/UEFI/UEFI/Backend/gnu-efi-3.0.18/lib\hand.c ****     IN EFI_HANDLE               DeviceHandle
 301:C:/Users/victim/Desktop/dangerous/yuziakicin/UEFI/UEFI/Backend/gnu-efi-3.0.18/lib\hand.c ****     )
 302:C:/Users/victim/Desktop/dangerous/yuziakicin/UEFI/UEFI/Backend/gnu-efi-3.0.18/lib\hand.c **** {
 752              		.loc 1 302 1 is_stmt 1 view -0
 753              		.cfi_startproc
 754              		.loc 1 302 1 is_stmt 0 view .LVU218
 755 044b 4883EC38 		subq	$56, %rsp
 756              		.seh_stackalloc	56
 757              		.cfi_def_cfa_offset 64
 758              		.seh_endprologue
 303:C:/Users/victim/Desktop/dangerous/yuziakicin/UEFI/UEFI/Backend/gnu-efi-3.0.18/lib\hand.c ****     EFI_STATUS                  Status;
 759              		.loc 1 303 5 is_stmt 1 view .LVU219
 304:C:/Users/victim/Desktop/dangerous/yuziakicin/UEFI/UEFI/Backend/gnu-efi-3.0.18/lib\hand.c ****     EFI_FILE_IO_INTERFACE       *Volume;
 760              		.loc 1 304 5 view .LVU220
 305:C:/Users/victim/Desktop/dangerous/yuziakicin/UEFI/UEFI/Backend/gnu-efi-3.0.18/lib\hand.c ****     EFI_FILE_HANDLE             File;
 761              		.loc 1 305 5 view .LVU221
 306:C:/Users/victim/Desktop/dangerous/yuziakicin/UEFI/UEFI/Backend/gnu-efi-3.0.18/lib\hand.c **** 
 307:C:/Users/victim/Desktop/dangerous/yuziakicin/UEFI/UEFI/Backend/gnu-efi-3.0.18/lib\hand.c **** 
 308:C:/Users/victim/Desktop/dangerous/yuziakicin/UEFI/UEFI/Backend/gnu-efi-3.0.18/lib\hand.c ****     //
 309:C:/Users/victim/Desktop/dangerous/yuziakicin/UEFI/UEFI/Backend/gnu-efi-3.0.18/lib\hand.c ****     // File the file system interface to the device
 310:C:/Users/victim/Desktop/dangerous/yuziakicin/UEFI/UEFI/Backend/gnu-efi-3.0.18/lib\hand.c ****     //
 311:C:/Users/victim/Desktop/dangerous/yuziakicin/UEFI/UEFI/Backend/gnu-efi-3.0.18/lib\hand.c **** 
 312:C:/Users/victim/Desktop/dangerous/yuziakicin/UEFI/UEFI/Backend/gnu-efi-3.0.18/lib\hand.c ****     Status = uefi_call_wrapper(BS->HandleProtocol, 3, DeviceHandle, &FileSystemProtocol, (VOID*)&Vo
 762              		.loc 1 312 5 view .LVU222
 763              		.loc 1 312 14 is_stmt 0 view .LVU223
 764 044f 488B0500 		movq	.refptr.BS(%rip), %rax
 764      000000
 765 0456 488B00   		movq	(%rax), %rax
 766 0459 4C8D4424 		leaq	40(%rsp), %r8
 766      28
 767 045e 488B1500 		movq	.refptr.gEfiSimpleFileSystemProtocolGuid(%rip), %rdx
 767      000000
 768 0465 FF909800 		call	*152(%rax)
 768      0000
 769              	.LVL72:
 313:C:/Users/victim/Desktop/dangerous/yuziakicin/UEFI/UEFI/Backend/gnu-efi-3.0.18/lib\hand.c **** 
 314:C:/Users/victim/Desktop/dangerous/yuziakicin/UEFI/UEFI/Backend/gnu-efi-3.0.18/lib\hand.c ****     //
 315:C:/Users/victim/Desktop/dangerous/yuziakicin/UEFI/UEFI/Backend/gnu-efi-3.0.18/lib\hand.c ****     // Open the root directory of the volume 
 316:C:/Users/victim/Desktop/dangerous/yuziakicin/UEFI/UEFI/Backend/gnu-efi-3.0.18/lib\hand.c ****     //
 317:C:/Users/victim/Desktop/dangerous/yuziakicin/UEFI/UEFI/Backend/gnu-efi-3.0.18/lib\hand.c **** 
 318:C:/Users/victim/Desktop/dangerous/yuziakicin/UEFI/UEFI/Backend/gnu-efi-3.0.18/lib\hand.c ****     if (!EFI_ERROR(Status)) {
 770              		.loc 1 318 5 is_stmt 1 view .LVU224
 771              		.loc 1 318 8 is_stmt 0 view .LVU225
 772 046b 4885C0   		testq	%rax, %rax
 773 046e 781F     		js	.L51
 319:C:/Users/victim/Desktop/dangerous/yuziakicin/UEFI/UEFI/Backend/gnu-efi-3.0.18/lib\hand.c ****         Status = uefi_call_wrapper(Volume->OpenVolume, 2, Volume, &File);
 774              		.loc 1 319 9 is_stmt 1 view .LVU226
 775              		.loc 1 319 18 is_stmt 0 view .LVU227
 776 0470 488B4424 		movq	40(%rsp), %rax
 776      28
 777              	.LVL73:
 778              		.loc 1 319 18 view .LVU228
 779 0475 488D5424 		leaq	32(%rsp), %rdx
 779      20
 780 047a 4889C1   		movq	%rax, %rcx
 781 047d FF5008   		call	*8(%rax)
 782              	.LVL74:
 320:C:/Users/victim/Desktop/dangerous/yuziakicin/UEFI/UEFI/Backend/gnu-efi-3.0.18/lib\hand.c ****     }
 321:C:/Users/victim/Desktop/dangerous/yuziakicin/UEFI/UEFI/Backend/gnu-efi-3.0.18/lib\hand.c **** 
 322:C:/Users/victim/Desktop/dangerous/yuziakicin/UEFI/UEFI/Backend/gnu-efi-3.0.18/lib\hand.c ****     //
 323:C:/Users/victim/Desktop/dangerous/yuziakicin/UEFI/UEFI/Backend/gnu-efi-3.0.18/lib\hand.c ****     // Done
 324:C:/Users/victim/Desktop/dangerous/yuziakicin/UEFI/UEFI/Backend/gnu-efi-3.0.18/lib\hand.c ****     //
 325:C:/Users/victim/Desktop/dangerous/yuziakicin/UEFI/UEFI/Backend/gnu-efi-3.0.18/lib\hand.c **** 
 326:C:/Users/victim/Desktop/dangerous/yuziakicin/UEFI/UEFI/Backend/gnu-efi-3.0.18/lib\hand.c ****     return EFI_ERROR(Status) ? NULL : File;
 783              		.loc 1 326 5 is_stmt 1 view .LVU229
 784              		.loc 1 326 37 is_stmt 0 view .LVU230
 785 0480 4885C0   		testq	%rax, %rax
 786 0483 7811     		js	.L52
 787              		.loc 1 326 37 discriminator 1 view .LVU231
 788 0485 488B4424 		movq	32(%rsp), %rax
 788      20
 789              	.LVL75:
 790              	.L49:
 327:C:/Users/victim/Desktop/dangerous/yuziakicin/UEFI/UEFI/Backend/gnu-efi-3.0.18/lib\hand.c **** }
 791              		.loc 1 327 1 view .LVU232
 792 048a 4883C438 		addq	$56, %rsp
 793              		.cfi_remember_state
 794              		.cfi_def_cfa_offset 8
 795 048e C3       		ret
 796              	.LVL76:
 797              	.L51:
 798              		.cfi_restore_state
 326:C:/Users/victim/Desktop/dangerous/yuziakicin/UEFI/UEFI/Backend/gnu-efi-3.0.18/lib\hand.c **** }
 799              		.loc 1 326 37 discriminator 2 view .LVU233
 800 048f B8000000 		movl	$0, %eax
 800      00
 801              	.LVL77:
 326:C:/Users/victim/Desktop/dangerous/yuziakicin/UEFI/UEFI/Backend/gnu-efi-3.0.18/lib\hand.c **** }
 802              		.loc 1 326 37 discriminator 2 view .LVU234
 803 0494 EBF4     		jmp	.L49
 804              	.LVL78:
 805              	.L52:
 326:C:/Users/victim/Desktop/dangerous/yuziakicin/UEFI/UEFI/Backend/gnu-efi-3.0.18/lib\hand.c **** }
 806              		.loc 1 326 37 discriminator 2 view .LVU235
 807 0496 B8000000 		movl	$0, %eax
 807      00
 808              	.LVL79:
 326:C:/Users/victim/Desktop/dangerous/yuziakicin/UEFI/UEFI/Backend/gnu-efi-3.0.18/lib\hand.c **** }
 809              		.loc 1 326 37 view .LVU236
 810 049b EBED     		jmp	.L49
 811              		.cfi_endproc
 812              	.LFE5:
 813              		.seh_endproc
 814              		.globl	LibFileInfo
 816              		.seh_proc	LibFileInfo
 817              	LibFileInfo:
 818              	.LVL80:
 819              	.LFB6:
 328:C:/Users/victim/Desktop/dangerous/yuziakicin/UEFI/UEFI/Backend/gnu-efi-3.0.18/lib\hand.c **** 
 329:C:/Users/victim/Desktop/dangerous/yuziakicin/UEFI/UEFI/Backend/gnu-efi-3.0.18/lib\hand.c **** EFI_FILE_INFO *
 330:C:/Users/victim/Desktop/dangerous/yuziakicin/UEFI/UEFI/Backend/gnu-efi-3.0.18/lib\hand.c **** LibFileInfo (
 331:C:/Users/victim/Desktop/dangerous/yuziakicin/UEFI/UEFI/Backend/gnu-efi-3.0.18/lib\hand.c ****     IN EFI_FILE_HANDLE      FHand
 332:C:/Users/victim/Desktop/dangerous/yuziakicin/UEFI/UEFI/Backend/gnu-efi-3.0.18/lib\hand.c ****     )
 333:C:/Users/victim/Desktop/dangerous/yuziakicin/UEFI/UEFI/Backend/gnu-efi-3.0.18/lib\hand.c **** {
 820              		.loc 1 333 1 is_stmt 1 view -0
 821              		.cfi_startproc
 822              		.loc 1 333 1 is_stmt 0 view .LVU238
 823 049d 53       		pushq	%rbx
 824              		.seh_pushreg	%rbx
 825              		.cfi_def_cfa_offset 16
 826              		.cfi_offset 3, -16
 827 049e 4883EC40 		subq	$64, %rsp
 828              		.seh_stackalloc	64
 829              		.cfi_def_cfa_offset 80
 830              		.seh_endprologue
 831 04a2 4889CB   		movq	%rcx, %rbx
 334:C:/Users/victim/Desktop/dangerous/yuziakicin/UEFI/UEFI/Backend/gnu-efi-3.0.18/lib\hand.c ****     EFI_STATUS              Status;
 832              		.loc 1 334 5 is_stmt 1 view .LVU239
 335:C:/Users/victim/Desktop/dangerous/yuziakicin/UEFI/UEFI/Backend/gnu-efi-3.0.18/lib\hand.c ****     EFI_FILE_INFO           *Buffer;
 833              		.loc 1 335 5 view .LVU240
 336:C:/Users/victim/Desktop/dangerous/yuziakicin/UEFI/UEFI/Backend/gnu-efi-3.0.18/lib\hand.c ****     UINTN                   BufferSize;
 834              		.loc 1 336 5 view .LVU241
 337:C:/Users/victim/Desktop/dangerous/yuziakicin/UEFI/UEFI/Backend/gnu-efi-3.0.18/lib\hand.c **** 
 338:C:/Users/victim/Desktop/dangerous/yuziakicin/UEFI/UEFI/Backend/gnu-efi-3.0.18/lib\hand.c ****     //
 339:C:/Users/victim/Desktop/dangerous/yuziakicin/UEFI/UEFI/Backend/gnu-efi-3.0.18/lib\hand.c ****     // Initialize for GrowBuffer loop
 340:C:/Users/victim/Desktop/dangerous/yuziakicin/UEFI/UEFI/Backend/gnu-efi-3.0.18/lib\hand.c ****     //
 341:C:/Users/victim/Desktop/dangerous/yuziakicin/UEFI/UEFI/Backend/gnu-efi-3.0.18/lib\hand.c **** 
 342:C:/Users/victim/Desktop/dangerous/yuziakicin/UEFI/UEFI/Backend/gnu-efi-3.0.18/lib\hand.c ****     Status = EFI_SUCCESS;
 835              		.loc 1 342 5 view .LVU242
 836              		.loc 1 342 12 is_stmt 0 view .LVU243
 837 04a5 48C74424 		movq	$0, 56(%rsp)
 837      38000000 
 837      00
 343:C:/Users/victim/Desktop/dangerous/yuziakicin/UEFI/UEFI/Backend/gnu-efi-3.0.18/lib\hand.c ****     Buffer = NULL;
 838              		.loc 1 343 5 is_stmt 1 view .LVU244
 839              		.loc 1 343 12 is_stmt 0 view .LVU245
 840 04ae 48C74424 		movq	$0, 48(%rsp)
 840      30000000 
 840      00
 344:C:/Users/victim/Desktop/dangerous/yuziakicin/UEFI/UEFI/Backend/gnu-efi-3.0.18/lib\hand.c ****     BufferSize = SIZE_OF_EFI_FILE_INFO + 200;
 841              		.loc 1 344 5 is_stmt 1 view .LVU246
 842              		.loc 1 344 16 is_stmt 0 view .LVU247
 843 04b7 48C74424 		movq	$280, 40(%rsp)
 843      28180100 
 843      00
 345:C:/Users/victim/Desktop/dangerous/yuziakicin/UEFI/UEFI/Backend/gnu-efi-3.0.18/lib\hand.c **** 
 346:C:/Users/victim/Desktop/dangerous/yuziakicin/UEFI/UEFI/Backend/gnu-efi-3.0.18/lib\hand.c ****     //
 347:C:/Users/victim/Desktop/dangerous/yuziakicin/UEFI/UEFI/Backend/gnu-efi-3.0.18/lib\hand.c ****     // Call the real function
 348:C:/Users/victim/Desktop/dangerous/yuziakicin/UEFI/UEFI/Backend/gnu-efi-3.0.18/lib\hand.c ****     //
 349:C:/Users/victim/Desktop/dangerous/yuziakicin/UEFI/UEFI/Backend/gnu-efi-3.0.18/lib\hand.c **** 
 350:C:/Users/victim/Desktop/dangerous/yuziakicin/UEFI/UEFI/Backend/gnu-efi-3.0.18/lib\hand.c ****     while (GrowBuffer (&Status, (VOID **) &Buffer, BufferSize)) {
 844              		.loc 1 350 5 is_stmt 1 view .LVU248
 845              		.loc 1 350 11 is_stmt 0 view .LVU249
 846 04c0 EB1C     		jmp	.L54
 847              	.LVL81:
 848              	.L55:
 351:C:/Users/victim/Desktop/dangerous/yuziakicin/UEFI/UEFI/Backend/gnu-efi-3.0.18/lib\hand.c ****         Status = uefi_call_wrapper(
 849              		.loc 1 351 9 is_stmt 1 view .LVU250
 850              		.loc 1 351 18 is_stmt 0 view .LVU251
 851 04c2 4C8B4C24 		movq	48(%rsp), %r9
 851      30
 852 04c7 4C8D4424 		leaq	40(%rsp), %r8
 852      28
 853 04cc 488B1500 		movq	.refptr.gEfiFileInfoGuid(%rip), %rdx
 853      000000
 854 04d3 4889D9   		movq	%rbx, %rcx
 855 04d6 FF5340   		call	*64(%rbx)
 856              	.LVL82:
 857              		.loc 1 351 16 discriminator 1 view .LVU252
 858 04d9 48894424 		movq	%rax, 56(%rsp)
 858      38
 859              	.L54:
 350:C:/Users/victim/Desktop/dangerous/yuziakicin/UEFI/UEFI/Backend/gnu-efi-3.0.18/lib\hand.c ****         Status = uefi_call_wrapper(
 860              		.loc 1 350 12 is_stmt 1 view .LVU253
 861 04de 488D5424 		leaq	48(%rsp), %rdx
 861      30
 862 04e3 488D4C24 		leaq	56(%rsp), %rcx
 862      38
 863 04e8 4C8B4424 		movq	40(%rsp), %r8
 863      28
 864 04ed E8000000 		call	GrowBuffer
 864      00
 865              	.LVL83:
 350:C:/Users/victim/Desktop/dangerous/yuziakicin/UEFI/UEFI/Backend/gnu-efi-3.0.18/lib\hand.c ****         Status = uefi_call_wrapper(
 866              		.loc 1 350 12 is_stmt 0 discriminator 1 view .LVU254
 867 04f2 84C0     		testb	%al, %al
 868 04f4 75CC     		jne	.L55
 352:C:/Users/victim/Desktop/dangerous/yuziakicin/UEFI/UEFI/Backend/gnu-efi-3.0.18/lib\hand.c **** 		    FHand->GetInfo,
 353:C:/Users/victim/Desktop/dangerous/yuziakicin/UEFI/UEFI/Backend/gnu-efi-3.0.18/lib\hand.c **** 			4,
 354:C:/Users/victim/Desktop/dangerous/yuziakicin/UEFI/UEFI/Backend/gnu-efi-3.0.18/lib\hand.c ****                     FHand,
 355:C:/Users/victim/Desktop/dangerous/yuziakicin/UEFI/UEFI/Backend/gnu-efi-3.0.18/lib\hand.c ****                     &GenericFileInfo,
 356:C:/Users/victim/Desktop/dangerous/yuziakicin/UEFI/UEFI/Backend/gnu-efi-3.0.18/lib\hand.c ****                     &BufferSize,
 357:C:/Users/victim/Desktop/dangerous/yuziakicin/UEFI/UEFI/Backend/gnu-efi-3.0.18/lib\hand.c ****                     Buffer
 358:C:/Users/victim/Desktop/dangerous/yuziakicin/UEFI/UEFI/Backend/gnu-efi-3.0.18/lib\hand.c ****                     );
 359:C:/Users/victim/Desktop/dangerous/yuziakicin/UEFI/UEFI/Backend/gnu-efi-3.0.18/lib\hand.c ****     }
 360:C:/Users/victim/Desktop/dangerous/yuziakicin/UEFI/UEFI/Backend/gnu-efi-3.0.18/lib\hand.c **** 
 361:C:/Users/victim/Desktop/dangerous/yuziakicin/UEFI/UEFI/Backend/gnu-efi-3.0.18/lib\hand.c ****     return Buffer;
 869              		.loc 1 361 5 is_stmt 1 view .LVU255
 362:C:/Users/victim/Desktop/dangerous/yuziakicin/UEFI/UEFI/Backend/gnu-efi-3.0.18/lib\hand.c **** }
 870              		.loc 1 362 1 is_stmt 0 view .LVU256
 871 04f6 488B4424 		movq	48(%rsp), %rax
 871      30
 872 04fb 4883C440 		addq	$64, %rsp
 873              		.cfi_def_cfa_offset 16
 874 04ff 5B       		popq	%rbx
 875              		.cfi_restore 3
 876              		.cfi_def_cfa_offset 8
 877              	.LVL84:
 878              		.loc 1 362 1 view .LVU257
 879 0500 C3       		ret
 880              		.cfi_endproc
 881              	.LFE6:
 882              		.seh_endproc
 883              		.globl	LibFileSystemInfo
 885              		.seh_proc	LibFileSystemInfo
 886              	LibFileSystemInfo:
 887              	.LVL85:
 888              	.LFB7:
 363:C:/Users/victim/Desktop/dangerous/yuziakicin/UEFI/UEFI/Backend/gnu-efi-3.0.18/lib\hand.c **** 
 364:C:/Users/victim/Desktop/dangerous/yuziakicin/UEFI/UEFI/Backend/gnu-efi-3.0.18/lib\hand.c ****     
 365:C:/Users/victim/Desktop/dangerous/yuziakicin/UEFI/UEFI/Backend/gnu-efi-3.0.18/lib\hand.c **** EFI_FILE_SYSTEM_INFO *
 366:C:/Users/victim/Desktop/dangerous/yuziakicin/UEFI/UEFI/Backend/gnu-efi-3.0.18/lib\hand.c **** LibFileSystemInfo (
 367:C:/Users/victim/Desktop/dangerous/yuziakicin/UEFI/UEFI/Backend/gnu-efi-3.0.18/lib\hand.c ****     IN EFI_FILE_HANDLE      FHand
 368:C:/Users/victim/Desktop/dangerous/yuziakicin/UEFI/UEFI/Backend/gnu-efi-3.0.18/lib\hand.c ****     )
 369:C:/Users/victim/Desktop/dangerous/yuziakicin/UEFI/UEFI/Backend/gnu-efi-3.0.18/lib\hand.c **** {
 889              		.loc 1 369 1 is_stmt 1 view -0
 890              		.cfi_startproc
 891              		.loc 1 369 1 is_stmt 0 view .LVU259
 892 0501 53       		pushq	%rbx
 893              		.seh_pushreg	%rbx
 894              		.cfi_def_cfa_offset 16
 895              		.cfi_offset 3, -16
 896 0502 4883EC40 		subq	$64, %rsp
 897              		.seh_stackalloc	64
 898              		.cfi_def_cfa_offset 80
 899              		.seh_endprologue
 900 0506 4889CB   		movq	%rcx, %rbx
 370:C:/Users/victim/Desktop/dangerous/yuziakicin/UEFI/UEFI/Backend/gnu-efi-3.0.18/lib\hand.c ****     EFI_STATUS              Status;
 901              		.loc 1 370 5 is_stmt 1 view .LVU260
 371:C:/Users/victim/Desktop/dangerous/yuziakicin/UEFI/UEFI/Backend/gnu-efi-3.0.18/lib\hand.c ****     EFI_FILE_SYSTEM_INFO    *Buffer;
 902              		.loc 1 371 5 view .LVU261
 372:C:/Users/victim/Desktop/dangerous/yuziakicin/UEFI/UEFI/Backend/gnu-efi-3.0.18/lib\hand.c ****     UINTN                   BufferSize;
 903              		.loc 1 372 5 view .LVU262
 373:C:/Users/victim/Desktop/dangerous/yuziakicin/UEFI/UEFI/Backend/gnu-efi-3.0.18/lib\hand.c **** 
 374:C:/Users/victim/Desktop/dangerous/yuziakicin/UEFI/UEFI/Backend/gnu-efi-3.0.18/lib\hand.c ****     //
 375:C:/Users/victim/Desktop/dangerous/yuziakicin/UEFI/UEFI/Backend/gnu-efi-3.0.18/lib\hand.c ****     // Initialize for GrowBuffer loop
 376:C:/Users/victim/Desktop/dangerous/yuziakicin/UEFI/UEFI/Backend/gnu-efi-3.0.18/lib\hand.c ****     //
 377:C:/Users/victim/Desktop/dangerous/yuziakicin/UEFI/UEFI/Backend/gnu-efi-3.0.18/lib\hand.c **** 
 378:C:/Users/victim/Desktop/dangerous/yuziakicin/UEFI/UEFI/Backend/gnu-efi-3.0.18/lib\hand.c ****     Status = EFI_SUCCESS;
 904              		.loc 1 378 5 view .LVU263
 905              		.loc 1 378 12 is_stmt 0 view .LVU264
 906 0509 48C74424 		movq	$0, 56(%rsp)
 906      38000000 
 906      00
 379:C:/Users/victim/Desktop/dangerous/yuziakicin/UEFI/UEFI/Backend/gnu-efi-3.0.18/lib\hand.c ****     Buffer = NULL;
 907              		.loc 1 379 5 is_stmt 1 view .LVU265
 908              		.loc 1 379 12 is_stmt 0 view .LVU266
 909 0512 48C74424 		movq	$0, 48(%rsp)
 909      30000000 
 909      00
 380:C:/Users/victim/Desktop/dangerous/yuziakicin/UEFI/UEFI/Backend/gnu-efi-3.0.18/lib\hand.c ****     BufferSize = SIZE_OF_EFI_FILE_SYSTEM_INFO + 200;
 910              		.loc 1 380 5 is_stmt 1 view .LVU267
 911              		.loc 1 380 16 is_stmt 0 view .LVU268
 912 051b 48C74424 		movq	$236, 40(%rsp)
 912      28EC0000 
 912      00
 381:C:/Users/victim/Desktop/dangerous/yuziakicin/UEFI/UEFI/Backend/gnu-efi-3.0.18/lib\hand.c **** 
 382:C:/Users/victim/Desktop/dangerous/yuziakicin/UEFI/UEFI/Backend/gnu-efi-3.0.18/lib\hand.c ****     //
 383:C:/Users/victim/Desktop/dangerous/yuziakicin/UEFI/UEFI/Backend/gnu-efi-3.0.18/lib\hand.c ****     // Call the real function
 384:C:/Users/victim/Desktop/dangerous/yuziakicin/UEFI/UEFI/Backend/gnu-efi-3.0.18/lib\hand.c ****     //
 385:C:/Users/victim/Desktop/dangerous/yuziakicin/UEFI/UEFI/Backend/gnu-efi-3.0.18/lib\hand.c **** 
 386:C:/Users/victim/Desktop/dangerous/yuziakicin/UEFI/UEFI/Backend/gnu-efi-3.0.18/lib\hand.c ****     while (GrowBuffer (&Status, (VOID **) &Buffer, BufferSize)) {
 913              		.loc 1 386 5 is_stmt 1 view .LVU269
 914              		.loc 1 386 11 is_stmt 0 view .LVU270
 915 0524 EB1C     		jmp	.L57
 916              	.LVL86:
 917              	.L58:
 387:C:/Users/victim/Desktop/dangerous/yuziakicin/UEFI/UEFI/Backend/gnu-efi-3.0.18/lib\hand.c ****         Status = uefi_call_wrapper(
 918              		.loc 1 387 9 is_stmt 1 view .LVU271
 919              		.loc 1 387 18 is_stmt 0 view .LVU272
 920 0526 4C8B4C24 		movq	48(%rsp), %r9
 920      30
 921 052b 4C8D4424 		leaq	40(%rsp), %r8
 921      28
 922 0530 488B1500 		movq	.refptr.gEfiFileSystemInfoGuid(%rip), %rdx
 922      000000
 923 0537 4889D9   		movq	%rbx, %rcx
 924 053a FF5340   		call	*64(%rbx)
 925              	.LVL87:
 926              		.loc 1 387 16 discriminator 1 view .LVU273
 927 053d 48894424 		movq	%rax, 56(%rsp)
 927      38
 928              	.L57:
 386:C:/Users/victim/Desktop/dangerous/yuziakicin/UEFI/UEFI/Backend/gnu-efi-3.0.18/lib\hand.c ****         Status = uefi_call_wrapper(
 929              		.loc 1 386 12 is_stmt 1 view .LVU274
 930 0542 488D5424 		leaq	48(%rsp), %rdx
 930      30
 931 0547 488D4C24 		leaq	56(%rsp), %rcx
 931      38
 932 054c 4C8B4424 		movq	40(%rsp), %r8
 932      28
 933 0551 E8000000 		call	GrowBuffer
 933      00
 934              	.LVL88:
 386:C:/Users/victim/Desktop/dangerous/yuziakicin/UEFI/UEFI/Backend/gnu-efi-3.0.18/lib\hand.c ****         Status = uefi_call_wrapper(
 935              		.loc 1 386 12 is_stmt 0 discriminator 1 view .LVU275
 936 0556 84C0     		testb	%al, %al
 937 0558 75CC     		jne	.L58
 388:C:/Users/victim/Desktop/dangerous/yuziakicin/UEFI/UEFI/Backend/gnu-efi-3.0.18/lib\hand.c **** 		    FHand->GetInfo,
 389:C:/Users/victim/Desktop/dangerous/yuziakicin/UEFI/UEFI/Backend/gnu-efi-3.0.18/lib\hand.c **** 			4,
 390:C:/Users/victim/Desktop/dangerous/yuziakicin/UEFI/UEFI/Backend/gnu-efi-3.0.18/lib\hand.c ****                     FHand,
 391:C:/Users/victim/Desktop/dangerous/yuziakicin/UEFI/UEFI/Backend/gnu-efi-3.0.18/lib\hand.c ****                     &FileSystemInfo,
 392:C:/Users/victim/Desktop/dangerous/yuziakicin/UEFI/UEFI/Backend/gnu-efi-3.0.18/lib\hand.c ****                     &BufferSize,
 393:C:/Users/victim/Desktop/dangerous/yuziakicin/UEFI/UEFI/Backend/gnu-efi-3.0.18/lib\hand.c ****                     Buffer
 394:C:/Users/victim/Desktop/dangerous/yuziakicin/UEFI/UEFI/Backend/gnu-efi-3.0.18/lib\hand.c ****                     );
 395:C:/Users/victim/Desktop/dangerous/yuziakicin/UEFI/UEFI/Backend/gnu-efi-3.0.18/lib\hand.c ****     }
 396:C:/Users/victim/Desktop/dangerous/yuziakicin/UEFI/UEFI/Backend/gnu-efi-3.0.18/lib\hand.c **** 
 397:C:/Users/victim/Desktop/dangerous/yuziakicin/UEFI/UEFI/Backend/gnu-efi-3.0.18/lib\hand.c ****     return Buffer;
 938              		.loc 1 397 5 is_stmt 1 view .LVU276
 398:C:/Users/victim/Desktop/dangerous/yuziakicin/UEFI/UEFI/Backend/gnu-efi-3.0.18/lib\hand.c **** }
 939              		.loc 1 398 1 is_stmt 0 view .LVU277
 940 055a 488B4424 		movq	48(%rsp), %rax
 940      30
 941 055f 4883C440 		addq	$64, %rsp
 942              		.cfi_def_cfa_offset 16
 943 0563 5B       		popq	%rbx
 944              		.cfi_restore 3
 945              		.cfi_def_cfa_offset 8
 946              	.LVL89:
 947              		.loc 1 398 1 view .LVU278
 948 0564 C3       		ret
 949              		.cfi_endproc
 950              	.LFE7:
 951              		.seh_endproc
 952              		.globl	LibFileSystemVolumeLabelInfo
 954              		.seh_proc	LibFileSystemVolumeLabelInfo
 955              	LibFileSystemVolumeLabelInfo:
 956              	.LVL90:
 957              	.LFB8:
 399:C:/Users/victim/Desktop/dangerous/yuziakicin/UEFI/UEFI/Backend/gnu-efi-3.0.18/lib\hand.c **** 
 400:C:/Users/victim/Desktop/dangerous/yuziakicin/UEFI/UEFI/Backend/gnu-efi-3.0.18/lib\hand.c **** EFI_FILE_SYSTEM_VOLUME_LABEL_INFO *
 401:C:/Users/victim/Desktop/dangerous/yuziakicin/UEFI/UEFI/Backend/gnu-efi-3.0.18/lib\hand.c **** LibFileSystemVolumeLabelInfo (
 402:C:/Users/victim/Desktop/dangerous/yuziakicin/UEFI/UEFI/Backend/gnu-efi-3.0.18/lib\hand.c ****     IN EFI_FILE_HANDLE      FHand
 403:C:/Users/victim/Desktop/dangerous/yuziakicin/UEFI/UEFI/Backend/gnu-efi-3.0.18/lib\hand.c ****     )
 404:C:/Users/victim/Desktop/dangerous/yuziakicin/UEFI/UEFI/Backend/gnu-efi-3.0.18/lib\hand.c **** {
 958              		.loc 1 404 1 is_stmt 1 view -0
 959              		.cfi_startproc
 960              		.loc 1 404 1 is_stmt 0 view .LVU280
 961 0565 53       		pushq	%rbx
 962              		.seh_pushreg	%rbx
 963              		.cfi_def_cfa_offset 16
 964              		.cfi_offset 3, -16
 965 0566 4883EC40 		subq	$64, %rsp
 966              		.seh_stackalloc	64
 967              		.cfi_def_cfa_offset 80
 968              		.seh_endprologue
 969 056a 4889CB   		movq	%rcx, %rbx
 405:C:/Users/victim/Desktop/dangerous/yuziakicin/UEFI/UEFI/Backend/gnu-efi-3.0.18/lib\hand.c ****     EFI_STATUS                        Status;
 970              		.loc 1 405 5 is_stmt 1 view .LVU281
 406:C:/Users/victim/Desktop/dangerous/yuziakicin/UEFI/UEFI/Backend/gnu-efi-3.0.18/lib\hand.c ****     EFI_FILE_SYSTEM_VOLUME_LABEL_INFO *Buffer;
 971              		.loc 1 406 5 view .LVU282
 407:C:/Users/victim/Desktop/dangerous/yuziakicin/UEFI/UEFI/Backend/gnu-efi-3.0.18/lib\hand.c ****     UINTN                             BufferSize;
 972              		.loc 1 407 5 view .LVU283
 408:C:/Users/victim/Desktop/dangerous/yuziakicin/UEFI/UEFI/Backend/gnu-efi-3.0.18/lib\hand.c **** 
 409:C:/Users/victim/Desktop/dangerous/yuziakicin/UEFI/UEFI/Backend/gnu-efi-3.0.18/lib\hand.c ****     //
 410:C:/Users/victim/Desktop/dangerous/yuziakicin/UEFI/UEFI/Backend/gnu-efi-3.0.18/lib\hand.c ****     // Initialize for GrowBuffer loop
 411:C:/Users/victim/Desktop/dangerous/yuziakicin/UEFI/UEFI/Backend/gnu-efi-3.0.18/lib\hand.c ****     //
 412:C:/Users/victim/Desktop/dangerous/yuziakicin/UEFI/UEFI/Backend/gnu-efi-3.0.18/lib\hand.c **** 
 413:C:/Users/victim/Desktop/dangerous/yuziakicin/UEFI/UEFI/Backend/gnu-efi-3.0.18/lib\hand.c ****     Status = EFI_SUCCESS;
 973              		.loc 1 413 5 view .LVU284
 974              		.loc 1 413 12 is_stmt 0 view .LVU285
 975 056d 48C74424 		movq	$0, 56(%rsp)
 975      38000000 
 975      00
 414:C:/Users/victim/Desktop/dangerous/yuziakicin/UEFI/UEFI/Backend/gnu-efi-3.0.18/lib\hand.c ****     Buffer = NULL;
 976              		.loc 1 414 5 is_stmt 1 view .LVU286
 977              		.loc 1 414 12 is_stmt 0 view .LVU287
 978 0576 48C74424 		movq	$0, 48(%rsp)
 978      30000000 
 978      00
 415:C:/Users/victim/Desktop/dangerous/yuziakicin/UEFI/UEFI/Backend/gnu-efi-3.0.18/lib\hand.c ****     BufferSize = SIZE_OF_EFI_FILE_SYSTEM_VOLUME_LABEL_INFO + 200;
 979              		.loc 1 415 5 is_stmt 1 view .LVU288
 980              		.loc 1 415 16 is_stmt 0 view .LVU289
 981 057f 48C74424 		movq	$200, 40(%rsp)
 981      28C80000 
 981      00
 416:C:/Users/victim/Desktop/dangerous/yuziakicin/UEFI/UEFI/Backend/gnu-efi-3.0.18/lib\hand.c **** 
 417:C:/Users/victim/Desktop/dangerous/yuziakicin/UEFI/UEFI/Backend/gnu-efi-3.0.18/lib\hand.c ****     //
 418:C:/Users/victim/Desktop/dangerous/yuziakicin/UEFI/UEFI/Backend/gnu-efi-3.0.18/lib\hand.c ****     // Call the real function
 419:C:/Users/victim/Desktop/dangerous/yuziakicin/UEFI/UEFI/Backend/gnu-efi-3.0.18/lib\hand.c ****     //
 420:C:/Users/victim/Desktop/dangerous/yuziakicin/UEFI/UEFI/Backend/gnu-efi-3.0.18/lib\hand.c **** 
 421:C:/Users/victim/Desktop/dangerous/yuziakicin/UEFI/UEFI/Backend/gnu-efi-3.0.18/lib\hand.c ****     while (GrowBuffer (&Status, (VOID **) &Buffer, BufferSize)) {
 982              		.loc 1 421 5 is_stmt 1 view .LVU290
 983              		.loc 1 421 11 is_stmt 0 view .LVU291
 984 0588 EB1C     		jmp	.L60
 985              	.LVL91:
 986              	.L61:
 422:C:/Users/victim/Desktop/dangerous/yuziakicin/UEFI/UEFI/Backend/gnu-efi-3.0.18/lib\hand.c ****         Status = uefi_call_wrapper(
 987              		.loc 1 422 9 is_stmt 1 view .LVU292
 988              		.loc 1 422 18 is_stmt 0 view .LVU293
 989 058a 4C8B4C24 		movq	48(%rsp), %r9
 989      30
 990 058f 4C8D4424 		leaq	40(%rsp), %r8
 990      28
 991 0594 488B1500 		movq	.refptr.gEfiFileSystemVolumeLabelInfoIdGuid(%rip), %rdx
 991      000000
 992 059b 4889D9   		movq	%rbx, %rcx
 993 059e FF5340   		call	*64(%rbx)
 994              	.LVL92:
 995              		.loc 1 422 16 discriminator 1 view .LVU294
 996 05a1 48894424 		movq	%rax, 56(%rsp)
 996      38
 997              	.L60:
 421:C:/Users/victim/Desktop/dangerous/yuziakicin/UEFI/UEFI/Backend/gnu-efi-3.0.18/lib\hand.c ****         Status = uefi_call_wrapper(
 998              		.loc 1 421 12 is_stmt 1 view .LVU295
 999 05a6 488D5424 		leaq	48(%rsp), %rdx
 999      30
 1000 05ab 488D4C24 		leaq	56(%rsp), %rcx
 1000      38
 1001 05b0 4C8B4424 		movq	40(%rsp), %r8
 1001      28
 1002 05b5 E8000000 		call	GrowBuffer
 1002      00
 1003              	.LVL93:
 421:C:/Users/victim/Desktop/dangerous/yuziakicin/UEFI/UEFI/Backend/gnu-efi-3.0.18/lib\hand.c ****         Status = uefi_call_wrapper(
 1004              		.loc 1 421 12 is_stmt 0 discriminator 1 view .LVU296
 1005 05ba 84C0     		testb	%al, %al
 1006 05bc 75CC     		jne	.L61
 423:C:/Users/victim/Desktop/dangerous/yuziakicin/UEFI/UEFI/Backend/gnu-efi-3.0.18/lib\hand.c **** 		    FHand->GetInfo,
 424:C:/Users/victim/Desktop/dangerous/yuziakicin/UEFI/UEFI/Backend/gnu-efi-3.0.18/lib\hand.c **** 			4,
 425:C:/Users/victim/Desktop/dangerous/yuziakicin/UEFI/UEFI/Backend/gnu-efi-3.0.18/lib\hand.c ****                     FHand,
 426:C:/Users/victim/Desktop/dangerous/yuziakicin/UEFI/UEFI/Backend/gnu-efi-3.0.18/lib\hand.c ****                     &FileSystemVolumeLabelInfo,
 427:C:/Users/victim/Desktop/dangerous/yuziakicin/UEFI/UEFI/Backend/gnu-efi-3.0.18/lib\hand.c ****                     &BufferSize,
 428:C:/Users/victim/Desktop/dangerous/yuziakicin/UEFI/UEFI/Backend/gnu-efi-3.0.18/lib\hand.c ****                     Buffer
 429:C:/Users/victim/Desktop/dangerous/yuziakicin/UEFI/UEFI/Backend/gnu-efi-3.0.18/lib\hand.c ****                     );
 430:C:/Users/victim/Desktop/dangerous/yuziakicin/UEFI/UEFI/Backend/gnu-efi-3.0.18/lib\hand.c ****     }
 431:C:/Users/victim/Desktop/dangerous/yuziakicin/UEFI/UEFI/Backend/gnu-efi-3.0.18/lib\hand.c **** 
 432:C:/Users/victim/Desktop/dangerous/yuziakicin/UEFI/UEFI/Backend/gnu-efi-3.0.18/lib\hand.c ****     return Buffer;
 1007              		.loc 1 432 5 is_stmt 1 view .LVU297
 433:C:/Users/victim/Desktop/dangerous/yuziakicin/UEFI/UEFI/Backend/gnu-efi-3.0.18/lib\hand.c **** }
 1008              		.loc 1 433 1 is_stmt 0 view .LVU298
 1009 05be 488B4424 		movq	48(%rsp), %rax
 1009      30
 1010 05c3 4883C440 		addq	$64, %rsp
 1011              		.cfi_def_cfa_offset 16
 1012 05c7 5B       		popq	%rbx
 1013              		.cfi_restore 3
 1014              		.cfi_def_cfa_offset 8
 1015              	.LVL94:
 1016              		.loc 1 433 1 view .LVU299
 1017 05c8 C3       		ret
 1018              		.cfi_endproc
 1019              	.LFE8:
 1020              		.seh_endproc
 1021              		.globl	LibInstallProtocolInterfaces
 1023              		.seh_proc	LibInstallProtocolInterfaces
 1024              	LibInstallProtocolInterfaces:
 1025              	.LVL95:
 1026              	.LFB9:
 434:C:/Users/victim/Desktop/dangerous/yuziakicin/UEFI/UEFI/Backend/gnu-efi-3.0.18/lib\hand.c **** 
 435:C:/Users/victim/Desktop/dangerous/yuziakicin/UEFI/UEFI/Backend/gnu-efi-3.0.18/lib\hand.c ****     
 436:C:/Users/victim/Desktop/dangerous/yuziakicin/UEFI/UEFI/Backend/gnu-efi-3.0.18/lib\hand.c **** 
 437:C:/Users/victim/Desktop/dangerous/yuziakicin/UEFI/UEFI/Backend/gnu-efi-3.0.18/lib\hand.c **** EFI_STATUS
 438:C:/Users/victim/Desktop/dangerous/yuziakicin/UEFI/UEFI/Backend/gnu-efi-3.0.18/lib\hand.c **** LibInstallProtocolInterfaces (
 439:C:/Users/victim/Desktop/dangerous/yuziakicin/UEFI/UEFI/Backend/gnu-efi-3.0.18/lib\hand.c ****     IN OUT EFI_HANDLE           *Handle,
 440:C:/Users/victim/Desktop/dangerous/yuziakicin/UEFI/UEFI/Backend/gnu-efi-3.0.18/lib\hand.c ****     ...
 441:C:/Users/victim/Desktop/dangerous/yuziakicin/UEFI/UEFI/Backend/gnu-efi-3.0.18/lib\hand.c ****     )
 442:C:/Users/victim/Desktop/dangerous/yuziakicin/UEFI/UEFI/Backend/gnu-efi-3.0.18/lib\hand.c **** {
 1027              		.loc 1 442 1 is_stmt 1 view -0
 1028              		.cfi_startproc
 1029              		.loc 1 442 1 is_stmt 0 view .LVU301
 1030 05c9 4154     		pushq	%r12
 1031              		.seh_pushreg	%r12
 1032              		.cfi_def_cfa_offset 16
 1033              		.cfi_offset 12, -16
 1034 05cb 55       		pushq	%rbp
 1035              		.seh_pushreg	%rbp
 1036              		.cfi_def_cfa_offset 24
 1037              		.cfi_offset 6, -24
 1038 05cc 57       		pushq	%rdi
 1039              		.seh_pushreg	%rdi
 1040              		.cfi_def_cfa_offset 32
 1041              		.cfi_offset 5, -32
 1042 05cd 56       		pushq	%rsi
 1043              		.seh_pushreg	%rsi
 1044              		.cfi_def_cfa_offset 40
 1045              		.cfi_offset 4, -40
 1046 05ce 53       		pushq	%rbx
 1047              		.seh_pushreg	%rbx
 1048              		.cfi_def_cfa_offset 48
 1049              		.cfi_offset 3, -48
 1050 05cf 4883EC30 		subq	$48, %rsp
 1051              		.seh_stackalloc	48
 1052              		.cfi_def_cfa_offset 96
 1053              		.seh_endprologue
 1054 05d3 4889CF   		movq	%rcx, %rdi
 1055 05d6 48895424 		movq	%rdx, 104(%rsp)
 1055      68
 1056 05db 4C894424 		movq	%r8, 112(%rsp)
 1056      70
 1057 05e0 4C894C24 		movq	%r9, 120(%rsp)
 1057      78
 443:C:/Users/victim/Desktop/dangerous/yuziakicin/UEFI/UEFI/Backend/gnu-efi-3.0.18/lib\hand.c ****     va_list         args;
 1058              		.loc 1 443 5 is_stmt 1 view .LVU302
 444:C:/Users/victim/Desktop/dangerous/yuziakicin/UEFI/UEFI/Backend/gnu-efi-3.0.18/lib\hand.c ****     EFI_STATUS      Status;
 1059              		.loc 1 444 5 view .LVU303
 445:C:/Users/victim/Desktop/dangerous/yuziakicin/UEFI/UEFI/Backend/gnu-efi-3.0.18/lib\hand.c ****     EFI_GUID        *Protocol;
 1060              		.loc 1 445 5 view .LVU304
 446:C:/Users/victim/Desktop/dangerous/yuziakicin/UEFI/UEFI/Backend/gnu-efi-3.0.18/lib\hand.c ****     VOID            *Interface;
 1061              		.loc 1 446 5 view .LVU305
 447:C:/Users/victim/Desktop/dangerous/yuziakicin/UEFI/UEFI/Backend/gnu-efi-3.0.18/lib\hand.c ****     EFI_TPL         OldTpl;
 1062              		.loc 1 447 5 view .LVU306
 448:C:/Users/victim/Desktop/dangerous/yuziakicin/UEFI/UEFI/Backend/gnu-efi-3.0.18/lib\hand.c ****     UINTN           Index;
 1063              		.loc 1 448 5 view .LVU307
 449:C:/Users/victim/Desktop/dangerous/yuziakicin/UEFI/UEFI/Backend/gnu-efi-3.0.18/lib\hand.c ****     EFI_HANDLE      OldHandle;
 1064              		.loc 1 449 5 view .LVU308
 450:C:/Users/victim/Desktop/dangerous/yuziakicin/UEFI/UEFI/Backend/gnu-efi-3.0.18/lib\hand.c **** 
 451:C:/Users/victim/Desktop/dangerous/yuziakicin/UEFI/UEFI/Backend/gnu-efi-3.0.18/lib\hand.c ****     //
 452:C:/Users/victim/Desktop/dangerous/yuziakicin/UEFI/UEFI/Backend/gnu-efi-3.0.18/lib\hand.c ****     // Syncronize with notifcations
 453:C:/Users/victim/Desktop/dangerous/yuziakicin/UEFI/UEFI/Backend/gnu-efi-3.0.18/lib\hand.c ****     // 
 454:C:/Users/victim/Desktop/dangerous/yuziakicin/UEFI/UEFI/Backend/gnu-efi-3.0.18/lib\hand.c **** 
 455:C:/Users/victim/Desktop/dangerous/yuziakicin/UEFI/UEFI/Backend/gnu-efi-3.0.18/lib\hand.c ****     OldTpl = uefi_call_wrapper(BS->RaiseTPL, 1, TPL_NOTIFY);
 1065              		.loc 1 455 5 view .LVU309
 1066              		.loc 1 455 14 is_stmt 0 view .LVU310
 1067 05e5 488B0500 		movq	.refptr.BS(%rip), %rax
 1067      000000
 1068 05ec 488B00   		movq	(%rax), %rax
 1069 05ef B9100000 		movl	$16, %ecx
 1069      00
 1070              	.LVL96:
 1071              		.loc 1 455 14 view .LVU311
 1072 05f4 FF5018   		call	*24(%rax)
 1073              	.LVL97:
 1074 05f7 4889C5   		movq	%rax, %rbp
 1075              	.LVL98:
 456:C:/Users/victim/Desktop/dangerous/yuziakicin/UEFI/UEFI/Backend/gnu-efi-3.0.18/lib\hand.c ****     OldHandle = *Handle;
 1076              		.loc 1 456 5 is_stmt 1 view .LVU312
 1077              		.loc 1 456 15 is_stmt 0 view .LVU313
 1078 05fa 4C8B27   		movq	(%rdi), %r12
 1079              	.LVL99:
 457:C:/Users/victim/Desktop/dangerous/yuziakicin/UEFI/UEFI/Backend/gnu-efi-3.0.18/lib\hand.c **** 
 458:C:/Users/victim/Desktop/dangerous/yuziakicin/UEFI/UEFI/Backend/gnu-efi-3.0.18/lib\hand.c ****     //
 459:C:/Users/victim/Desktop/dangerous/yuziakicin/UEFI/UEFI/Backend/gnu-efi-3.0.18/lib\hand.c ****     // Install the protocol interfaces
 460:C:/Users/victim/Desktop/dangerous/yuziakicin/UEFI/UEFI/Backend/gnu-efi-3.0.18/lib\hand.c ****     //
 461:C:/Users/victim/Desktop/dangerous/yuziakicin/UEFI/UEFI/Backend/gnu-efi-3.0.18/lib\hand.c **** 
 462:C:/Users/victim/Desktop/dangerous/yuziakicin/UEFI/UEFI/Backend/gnu-efi-3.0.18/lib\hand.c ****     Index = 0;
 1080              		.loc 1 462 5 is_stmt 1 view .LVU314
 463:C:/Users/victim/Desktop/dangerous/yuziakicin/UEFI/UEFI/Backend/gnu-efi-3.0.18/lib\hand.c ****     Status = EFI_SUCCESS;
 1081              		.loc 1 463 5 view .LVU315
 464:C:/Users/victim/Desktop/dangerous/yuziakicin/UEFI/UEFI/Backend/gnu-efi-3.0.18/lib\hand.c ****     va_start (args, Handle);
 1082              		.loc 1 464 5 view .LVU316
 1083 05fd 488D4424 		leaq	104(%rsp), %rax
 1083      68
 1084              	.LVL100:
 1085              		.loc 1 464 5 is_stmt 0 view .LVU317
 1086 0602 48894424 		movq	%rax, 40(%rsp)
 1086      28
 465:C:/Users/victim/Desktop/dangerous/yuziakicin/UEFI/UEFI/Backend/gnu-efi-3.0.18/lib\hand.c **** 
 466:C:/Users/victim/Desktop/dangerous/yuziakicin/UEFI/UEFI/Backend/gnu-efi-3.0.18/lib\hand.c ****     while (!EFI_ERROR(Status)) {
 1087              		.loc 1 466 5 is_stmt 1 view .LVU318
 462:C:/Users/victim/Desktop/dangerous/yuziakicin/UEFI/UEFI/Backend/gnu-efi-3.0.18/lib\hand.c ****     Status = EFI_SUCCESS;
 1088              		.loc 1 462 11 is_stmt 0 view .LVU319
 1089 0607 BE000000 		movl	$0, %esi
 1089      00
 463:C:/Users/victim/Desktop/dangerous/yuziakicin/UEFI/UEFI/Backend/gnu-efi-3.0.18/lib\hand.c ****     va_start (args, Handle);
 1090              		.loc 1 463 12 view .LVU320
 1091 060c BB000000 		movl	$0, %ebx
 1091      00
 1092              		.loc 1 466 11 view .LVU321
 1093 0611 EB04     		jmp	.L63
 1094              	.LVL101:
 1095              	.L69:
 467:C:/Users/victim/Desktop/dangerous/yuziakicin/UEFI/UEFI/Backend/gnu-efi-3.0.18/lib\hand.c **** 
 468:C:/Users/victim/Desktop/dangerous/yuziakicin/UEFI/UEFI/Backend/gnu-efi-3.0.18/lib\hand.c ****         //
 469:C:/Users/victim/Desktop/dangerous/yuziakicin/UEFI/UEFI/Backend/gnu-efi-3.0.18/lib\hand.c ****         // If protocol is NULL, then it's the end of the list
 470:C:/Users/victim/Desktop/dangerous/yuziakicin/UEFI/UEFI/Backend/gnu-efi-3.0.18/lib\hand.c ****         //
 471:C:/Users/victim/Desktop/dangerous/yuziakicin/UEFI/UEFI/Backend/gnu-efi-3.0.18/lib\hand.c **** 
 472:C:/Users/victim/Desktop/dangerous/yuziakicin/UEFI/UEFI/Backend/gnu-efi-3.0.18/lib\hand.c ****         Protocol = va_arg(args, EFI_GUID *);
 473:C:/Users/victim/Desktop/dangerous/yuziakicin/UEFI/UEFI/Backend/gnu-efi-3.0.18/lib\hand.c ****         if (!Protocol) {
 474:C:/Users/victim/Desktop/dangerous/yuziakicin/UEFI/UEFI/Backend/gnu-efi-3.0.18/lib\hand.c ****             break;
 475:C:/Users/victim/Desktop/dangerous/yuziakicin/UEFI/UEFI/Backend/gnu-efi-3.0.18/lib\hand.c ****         }
 476:C:/Users/victim/Desktop/dangerous/yuziakicin/UEFI/UEFI/Backend/gnu-efi-3.0.18/lib\hand.c **** 
 477:C:/Users/victim/Desktop/dangerous/yuziakicin/UEFI/UEFI/Backend/gnu-efi-3.0.18/lib\hand.c ****         Interface = va_arg(args, VOID *);
 478:C:/Users/victim/Desktop/dangerous/yuziakicin/UEFI/UEFI/Backend/gnu-efi-3.0.18/lib\hand.c **** 
 479:C:/Users/victim/Desktop/dangerous/yuziakicin/UEFI/UEFI/Backend/gnu-efi-3.0.18/lib\hand.c ****         //
 480:C:/Users/victim/Desktop/dangerous/yuziakicin/UEFI/UEFI/Backend/gnu-efi-3.0.18/lib\hand.c ****         // Install it
 481:C:/Users/victim/Desktop/dangerous/yuziakicin/UEFI/UEFI/Backend/gnu-efi-3.0.18/lib\hand.c ****         //
 482:C:/Users/victim/Desktop/dangerous/yuziakicin/UEFI/UEFI/Backend/gnu-efi-3.0.18/lib\hand.c **** 
 483:C:/Users/victim/Desktop/dangerous/yuziakicin/UEFI/UEFI/Backend/gnu-efi-3.0.18/lib\hand.c ****         DEBUG((D_INFO, "LibInstallProtocolInterface: %d %x\n", Protocol, Interface));
 484:C:/Users/victim/Desktop/dangerous/yuziakicin/UEFI/UEFI/Backend/gnu-efi-3.0.18/lib\hand.c ****         Status = uefi_call_wrapper(BS->InstallProtocolInterface, 4, Handle, Protocol, EFI_NATIVE_IN
 485:C:/Users/victim/Desktop/dangerous/yuziakicin/UEFI/UEFI/Backend/gnu-efi-3.0.18/lib\hand.c ****         if (EFI_ERROR(Status)) {
 486:C:/Users/victim/Desktop/dangerous/yuziakicin/UEFI/UEFI/Backend/gnu-efi-3.0.18/lib\hand.c ****             break;
 487:C:/Users/victim/Desktop/dangerous/yuziakicin/UEFI/UEFI/Backend/gnu-efi-3.0.18/lib\hand.c ****         }
 488:C:/Users/victim/Desktop/dangerous/yuziakicin/UEFI/UEFI/Backend/gnu-efi-3.0.18/lib\hand.c **** 
 489:C:/Users/victim/Desktop/dangerous/yuziakicin/UEFI/UEFI/Backend/gnu-efi-3.0.18/lib\hand.c ****         Index += 1;
 1096              		.loc 1 489 9 is_stmt 1 view .LVU322
 1097              		.loc 1 489 15 is_stmt 0 view .LVU323
 1098 0613 4883C601 		addq	$1, %rsi
 1099              	.LVL102:
 1100              	.L63:
 466:C:/Users/victim/Desktop/dangerous/yuziakicin/UEFI/UEFI/Backend/gnu-efi-3.0.18/lib\hand.c **** 
 1101              		.loc 1 466 12 is_stmt 1 view .LVU324
 1102 0617 4885DB   		testq	%rbx, %rbx
 1103 061a 7849     		js	.L64
 472:C:/Users/victim/Desktop/dangerous/yuziakicin/UEFI/UEFI/Backend/gnu-efi-3.0.18/lib\hand.c ****         if (!Protocol) {
 1104              		.loc 1 472 9 view .LVU325
 472:C:/Users/victim/Desktop/dangerous/yuziakicin/UEFI/UEFI/Backend/gnu-efi-3.0.18/lib\hand.c ****         if (!Protocol) {
 1105              		.loc 1 472 18 is_stmt 0 view .LVU326
 1106 061c 488B4424 		movq	40(%rsp), %rax
 1106      28
 1107 0621 488D5008 		leaq	8(%rax), %rdx
 1108 0625 48895424 		movq	%rdx, 40(%rsp)
 1108      28
 1109 062a 488B10   		movq	(%rax), %rdx
 473:C:/Users/victim/Desktop/dangerous/yuziakicin/UEFI/UEFI/Backend/gnu-efi-3.0.18/lib\hand.c ****             break;
 1110              		.loc 1 473 9 is_stmt 1 view .LVU327
 473:C:/Users/victim/Desktop/dangerous/yuziakicin/UEFI/UEFI/Backend/gnu-efi-3.0.18/lib\hand.c ****             break;
 1111              		.loc 1 473 12 is_stmt 0 view .LVU328
 1112 062d 4885D2   		testq	%rdx, %rdx
 1113 0630 7433     		je	.L64
 477:C:/Users/victim/Desktop/dangerous/yuziakicin/UEFI/UEFI/Backend/gnu-efi-3.0.18/lib\hand.c **** 
 1114              		.loc 1 477 9 is_stmt 1 view .LVU329
 477:C:/Users/victim/Desktop/dangerous/yuziakicin/UEFI/UEFI/Backend/gnu-efi-3.0.18/lib\hand.c **** 
 1115              		.loc 1 477 19 is_stmt 0 view .LVU330
 1116 0632 488B4424 		movq	40(%rsp), %rax
 1116      28
 1117 0637 488D4808 		leaq	8(%rax), %rcx
 1118 063b 48894C24 		movq	%rcx, 40(%rsp)
 1118      28
 483:C:/Users/victim/Desktop/dangerous/yuziakicin/UEFI/UEFI/Backend/gnu-efi-3.0.18/lib\hand.c ****         Status = uefi_call_wrapper(BS->InstallProtocolInterface, 4, Handle, Protocol, EFI_NATIVE_IN
 1119              		.loc 1 483 85 is_stmt 1 view .LVU331
 484:C:/Users/victim/Desktop/dangerous/yuziakicin/UEFI/UEFI/Backend/gnu-efi-3.0.18/lib\hand.c ****         if (EFI_ERROR(Status)) {
 1120              		.loc 1 484 9 view .LVU332
 484:C:/Users/victim/Desktop/dangerous/yuziakicin/UEFI/UEFI/Backend/gnu-efi-3.0.18/lib\hand.c ****         if (EFI_ERROR(Status)) {
 1121              		.loc 1 484 18 is_stmt 0 view .LVU333
 1122 0640 488B0D00 		movq	.refptr.BS(%rip), %rcx
 1122      000000
 1123 0647 4C8B11   		movq	(%rcx), %r10
 1124 064a 4C8B08   		movq	(%rax), %r9
 1125 064d 41B80000 		movl	$0, %r8d
 1125      0000
 1126 0653 4889F9   		movq	%rdi, %rcx
 1127 0656 41FF9280 		call	*128(%r10)
 1127      000000
 1128              	.LVL103:
 1129 065d 4889C3   		movq	%rax, %rbx
 1130              	.LVL104:
 485:C:/Users/victim/Desktop/dangerous/yuziakicin/UEFI/UEFI/Backend/gnu-efi-3.0.18/lib\hand.c ****             break;
 1131              		.loc 1 485 9 is_stmt 1 view .LVU334
 485:C:/Users/victim/Desktop/dangerous/yuziakicin/UEFI/UEFI/Backend/gnu-efi-3.0.18/lib\hand.c ****             break;
 1132              		.loc 1 485 12 is_stmt 0 view .LVU335
 1133 0660 4885C0   		testq	%rax, %rax
 1134 0663 79AE     		jns	.L69
 1135              	.LVL105:
 1136              	.L64:
 490:C:/Users/victim/Desktop/dangerous/yuziakicin/UEFI/UEFI/Backend/gnu-efi-3.0.18/lib\hand.c ****     }
 491:C:/Users/victim/Desktop/dangerous/yuziakicin/UEFI/UEFI/Backend/gnu-efi-3.0.18/lib\hand.c ****     va_end (args);
 1137              		.loc 1 491 5 is_stmt 1 view .LVU336
 492:C:/Users/victim/Desktop/dangerous/yuziakicin/UEFI/UEFI/Backend/gnu-efi-3.0.18/lib\hand.c **** 
 493:C:/Users/victim/Desktop/dangerous/yuziakicin/UEFI/UEFI/Backend/gnu-efi-3.0.18/lib\hand.c ****     //
 494:C:/Users/victim/Desktop/dangerous/yuziakicin/UEFI/UEFI/Backend/gnu-efi-3.0.18/lib\hand.c ****     // If there was an error, remove all the interfaces that were
 495:C:/Users/victim/Desktop/dangerous/yuziakicin/UEFI/UEFI/Backend/gnu-efi-3.0.18/lib\hand.c ****     // installed without any errors
 496:C:/Users/victim/Desktop/dangerous/yuziakicin/UEFI/UEFI/Backend/gnu-efi-3.0.18/lib\hand.c ****     //
 497:C:/Users/victim/Desktop/dangerous/yuziakicin/UEFI/UEFI/Backend/gnu-efi-3.0.18/lib\hand.c **** 
 498:C:/Users/victim/Desktop/dangerous/yuziakicin/UEFI/UEFI/Backend/gnu-efi-3.0.18/lib\hand.c ****     if (EFI_ERROR(Status)) {
 1138              		.loc 1 498 5 view .LVU337
 1139              		.loc 1 498 8 is_stmt 0 view .LVU338
 1140 0665 4885DB   		testq	%rbx, %rbx
 1141 0668 781E     		js	.L70
 1142              	.L66:
 499:C:/Users/victim/Desktop/dangerous/yuziakicin/UEFI/UEFI/Backend/gnu-efi-3.0.18/lib\hand.c ****         va_start (args, Handle);
 500:C:/Users/victim/Desktop/dangerous/yuziakicin/UEFI/UEFI/Backend/gnu-efi-3.0.18/lib\hand.c ****         while (Index) {
 501:C:/Users/victim/Desktop/dangerous/yuziakicin/UEFI/UEFI/Backend/gnu-efi-3.0.18/lib\hand.c **** 
 502:C:/Users/victim/Desktop/dangerous/yuziakicin/UEFI/UEFI/Backend/gnu-efi-3.0.18/lib\hand.c ****             Protocol = va_arg(args, EFI_GUID *);
 503:C:/Users/victim/Desktop/dangerous/yuziakicin/UEFI/UEFI/Backend/gnu-efi-3.0.18/lib\hand.c ****             Interface = va_arg(args, VOID *);
 504:C:/Users/victim/Desktop/dangerous/yuziakicin/UEFI/UEFI/Backend/gnu-efi-3.0.18/lib\hand.c ****             uefi_call_wrapper(BS->UninstallProtocolInterface, 3, *Handle, Protocol, Interface);
 505:C:/Users/victim/Desktop/dangerous/yuziakicin/UEFI/UEFI/Backend/gnu-efi-3.0.18/lib\hand.c **** 
 506:C:/Users/victim/Desktop/dangerous/yuziakicin/UEFI/UEFI/Backend/gnu-efi-3.0.18/lib\hand.c ****             Index -= 1;
 507:C:/Users/victim/Desktop/dangerous/yuziakicin/UEFI/UEFI/Backend/gnu-efi-3.0.18/lib\hand.c ****         }        
 508:C:/Users/victim/Desktop/dangerous/yuziakicin/UEFI/UEFI/Backend/gnu-efi-3.0.18/lib\hand.c **** 
 509:C:/Users/victim/Desktop/dangerous/yuziakicin/UEFI/UEFI/Backend/gnu-efi-3.0.18/lib\hand.c ****         *Handle = OldHandle;
 510:C:/Users/victim/Desktop/dangerous/yuziakicin/UEFI/UEFI/Backend/gnu-efi-3.0.18/lib\hand.c ****         va_end (args);
 511:C:/Users/victim/Desktop/dangerous/yuziakicin/UEFI/UEFI/Backend/gnu-efi-3.0.18/lib\hand.c ****     }
 512:C:/Users/victim/Desktop/dangerous/yuziakicin/UEFI/UEFI/Backend/gnu-efi-3.0.18/lib\hand.c **** 
 513:C:/Users/victim/Desktop/dangerous/yuziakicin/UEFI/UEFI/Backend/gnu-efi-3.0.18/lib\hand.c ****     //
 514:C:/Users/victim/Desktop/dangerous/yuziakicin/UEFI/UEFI/Backend/gnu-efi-3.0.18/lib\hand.c ****     // Done
 515:C:/Users/victim/Desktop/dangerous/yuziakicin/UEFI/UEFI/Backend/gnu-efi-3.0.18/lib\hand.c ****     //
 516:C:/Users/victim/Desktop/dangerous/yuziakicin/UEFI/UEFI/Backend/gnu-efi-3.0.18/lib\hand.c **** 
 517:C:/Users/victim/Desktop/dangerous/yuziakicin/UEFI/UEFI/Backend/gnu-efi-3.0.18/lib\hand.c ****     uefi_call_wrapper(BS->RestoreTPL, 1, OldTpl);
 1143              		.loc 1 517 5 is_stmt 1 view .LVU339
 1144 066a 488B0500 		movq	.refptr.BS(%rip), %rax
 1144      000000
 1145 0671 488B00   		movq	(%rax), %rax
 1146 0674 4889E9   		movq	%rbp, %rcx
 1147 0677 FF5020   		call	*32(%rax)
 1148              	.LVL106:
 518:C:/Users/victim/Desktop/dangerous/yuziakicin/UEFI/UEFI/Backend/gnu-efi-3.0.18/lib\hand.c ****     return Status;
 1149              		.loc 1 518 5 view .LVU340
 519:C:/Users/victim/Desktop/dangerous/yuziakicin/UEFI/UEFI/Backend/gnu-efi-3.0.18/lib\hand.c **** }
 1150              		.loc 1 519 1 is_stmt 0 view .LVU341
 1151 067a 4889D8   		movq	%rbx, %rax
 1152 067d 4883C430 		addq	$48, %rsp
 1153              		.cfi_remember_state
 1154              		.cfi_def_cfa_offset 48
 1155 0681 5B       		popq	%rbx
 1156              		.cfi_restore 3
 1157              		.cfi_def_cfa_offset 40
 1158              	.LVL107:
 1159              		.loc 1 519 1 view .LVU342
 1160 0682 5E       		popq	%rsi
 1161              		.cfi_restore 4
 1162              		.cfi_def_cfa_offset 32
 1163              	.LVL108:
 1164              		.loc 1 519 1 view .LVU343
 1165 0683 5F       		popq	%rdi
 1166              		.cfi_restore 5
 1167              		.cfi_def_cfa_offset 24
 1168              	.LVL109:
 1169              		.loc 1 519 1 view .LVU344
 1170 0684 5D       		popq	%rbp
 1171              		.cfi_restore 6
 1172              		.cfi_def_cfa_offset 16
 1173              	.LVL110:
 1174              		.loc 1 519 1 view .LVU345
 1175 0685 415C     		popq	%r12
 1176              		.cfi_restore 12
 1177              		.cfi_def_cfa_offset 8
 1178              	.LVL111:
 1179              		.loc 1 519 1 view .LVU346
 1180 0687 C3       		ret
 1181              	.LVL112:
 1182              	.L70:
 1183              		.cfi_restore_state
 499:C:/Users/victim/Desktop/dangerous/yuziakicin/UEFI/UEFI/Backend/gnu-efi-3.0.18/lib\hand.c ****         va_start (args, Handle);
 1184              		.loc 1 499 9 is_stmt 1 view .LVU347
 1185 0688 488D4424 		leaq	104(%rsp), %rax
 1185      68
 1186 068d 48894424 		movq	%rax, 40(%rsp)
 1186      28
 500:C:/Users/victim/Desktop/dangerous/yuziakicin/UEFI/UEFI/Backend/gnu-efi-3.0.18/lib\hand.c **** 
 1187              		.loc 1 500 9 view .LVU348
 1188              	.L67:
 500:C:/Users/victim/Desktop/dangerous/yuziakicin/UEFI/UEFI/Backend/gnu-efi-3.0.18/lib\hand.c **** 
 1189              		.loc 1 500 16 view .LVU349
 1190 0692 4885F6   		testq	%rsi, %rsi
 1191 0695 7438     		je	.L71
 502:C:/Users/victim/Desktop/dangerous/yuziakicin/UEFI/UEFI/Backend/gnu-efi-3.0.18/lib\hand.c ****             Interface = va_arg(args, VOID *);
 1192              		.loc 1 502 13 view .LVU350
 502:C:/Users/victim/Desktop/dangerous/yuziakicin/UEFI/UEFI/Backend/gnu-efi-3.0.18/lib\hand.c ****             Interface = va_arg(args, VOID *);
 1193              		.loc 1 502 22 is_stmt 0 view .LVU351
 1194 0697 488B4424 		movq	40(%rsp), %rax
 1194      28
 1195 069c 488D5008 		leaq	8(%rax), %rdx
 1196 06a0 48895424 		movq	%rdx, 40(%rsp)
 1196      28
 1197 06a5 488B10   		movq	(%rax), %rdx
 503:C:/Users/victim/Desktop/dangerous/yuziakicin/UEFI/UEFI/Backend/gnu-efi-3.0.18/lib\hand.c ****             uefi_call_wrapper(BS->UninstallProtocolInterface, 3, *Handle, Protocol, Interface);
 1198              		.loc 1 503 13 is_stmt 1 view .LVU352
 503:C:/Users/victim/Desktop/dangerous/yuziakicin/UEFI/UEFI/Backend/gnu-efi-3.0.18/lib\hand.c ****             uefi_call_wrapper(BS->UninstallProtocolInterface, 3, *Handle, Protocol, Interface);
 1199              		.loc 1 503 23 is_stmt 0 view .LVU353
 1200 06a8 488D4810 		leaq	16(%rax), %rcx
 1201 06ac 48894C24 		movq	%rcx, 40(%rsp)
 1201      28
 504:C:/Users/victim/Desktop/dangerous/yuziakicin/UEFI/UEFI/Backend/gnu-efi-3.0.18/lib\hand.c **** 
 1202              		.loc 1 504 13 is_stmt 1 view .LVU354
 1203 06b1 488B0D00 		movq	.refptr.BS(%rip), %rcx
 1203      000000
 1204 06b8 4C8B09   		movq	(%rcx), %r9
 1205 06bb 488B0F   		movq	(%rdi), %rcx
 1206 06be 4C8B4008 		movq	8(%rax), %r8
 1207 06c2 41FF9190 		call	*144(%r9)
 1207      000000
 1208              	.LVL113:
 506:C:/Users/victim/Desktop/dangerous/yuziakicin/UEFI/UEFI/Backend/gnu-efi-3.0.18/lib\hand.c ****         }        
 1209              		.loc 1 506 13 view .LVU355
 506:C:/Users/victim/Desktop/dangerous/yuziakicin/UEFI/UEFI/Backend/gnu-efi-3.0.18/lib\hand.c ****         }        
 1210              		.loc 1 506 19 is_stmt 0 view .LVU356
 1211 06c9 4883EE01 		subq	$1, %rsi
 1212              	.LVL114:
 506:C:/Users/victim/Desktop/dangerous/yuziakicin/UEFI/UEFI/Backend/gnu-efi-3.0.18/lib\hand.c ****         }        
 1213              		.loc 1 506 19 view .LVU357
 1214 06cd EBC3     		jmp	.L67
 1215              	.L71:
 509:C:/Users/victim/Desktop/dangerous/yuziakicin/UEFI/UEFI/Backend/gnu-efi-3.0.18/lib\hand.c ****         va_end (args);
 1216              		.loc 1 509 9 is_stmt 1 view .LVU358
 509:C:/Users/victim/Desktop/dangerous/yuziakicin/UEFI/UEFI/Backend/gnu-efi-3.0.18/lib\hand.c ****         va_end (args);
 1217              		.loc 1 509 17 is_stmt 0 view .LVU359
 1218 06cf 4C8927   		movq	%r12, (%rdi)
 510:C:/Users/victim/Desktop/dangerous/yuziakicin/UEFI/UEFI/Backend/gnu-efi-3.0.18/lib\hand.c ****     }
 1219              		.loc 1 510 9 is_stmt 1 view .LVU360
 1220 06d2 EB96     		jmp	.L66
 1221              		.cfi_endproc
 1222              	.LFE9:
 1223              		.seh_endproc
 1224              		.globl	LibUninstallProtocolInterfaces
 1226              		.seh_proc	LibUninstallProtocolInterfaces
 1227              	LibUninstallProtocolInterfaces:
 1228              	.LVL115:
 1229              	.LFB10:
 520:C:/Users/victim/Desktop/dangerous/yuziakicin/UEFI/UEFI/Backend/gnu-efi-3.0.18/lib\hand.c **** 
 521:C:/Users/victim/Desktop/dangerous/yuziakicin/UEFI/UEFI/Backend/gnu-efi-3.0.18/lib\hand.c **** 
 522:C:/Users/victim/Desktop/dangerous/yuziakicin/UEFI/UEFI/Backend/gnu-efi-3.0.18/lib\hand.c **** VOID
 523:C:/Users/victim/Desktop/dangerous/yuziakicin/UEFI/UEFI/Backend/gnu-efi-3.0.18/lib\hand.c **** LibUninstallProtocolInterfaces (
 524:C:/Users/victim/Desktop/dangerous/yuziakicin/UEFI/UEFI/Backend/gnu-efi-3.0.18/lib\hand.c ****     IN EFI_HANDLE           Handle,
 525:C:/Users/victim/Desktop/dangerous/yuziakicin/UEFI/UEFI/Backend/gnu-efi-3.0.18/lib\hand.c ****     ...
 526:C:/Users/victim/Desktop/dangerous/yuziakicin/UEFI/UEFI/Backend/gnu-efi-3.0.18/lib\hand.c ****     )
 527:C:/Users/victim/Desktop/dangerous/yuziakicin/UEFI/UEFI/Backend/gnu-efi-3.0.18/lib\hand.c **** {
 1230              		.loc 1 527 1 view -0
 1231              		.cfi_startproc
 1232              		.loc 1 527 1 is_stmt 0 view .LVU362
 1233 06d4 53       		pushq	%rbx
 1234              		.seh_pushreg	%rbx
 1235              		.cfi_def_cfa_offset 16
 1236              		.cfi_offset 3, -16
 1237 06d5 4883EC30 		subq	$48, %rsp
 1238              		.seh_stackalloc	48
 1239              		.cfi_def_cfa_offset 64
 1240              		.seh_endprologue
 1241 06d9 4889CB   		movq	%rcx, %rbx
 1242 06dc 48895424 		movq	%rdx, 72(%rsp)
 1242      48
 1243 06e1 4C894424 		movq	%r8, 80(%rsp)
 1243      50
 1244 06e6 4C894C24 		movq	%r9, 88(%rsp)
 1244      58
 528:C:/Users/victim/Desktop/dangerous/yuziakicin/UEFI/UEFI/Backend/gnu-efi-3.0.18/lib\hand.c ****     va_list         args;
 1245              		.loc 1 528 5 is_stmt 1 view .LVU363
 529:C:/Users/victim/Desktop/dangerous/yuziakicin/UEFI/UEFI/Backend/gnu-efi-3.0.18/lib\hand.c ****     EFI_STATUS      Status;
 1246              		.loc 1 529 5 view .LVU364
 530:C:/Users/victim/Desktop/dangerous/yuziakicin/UEFI/UEFI/Backend/gnu-efi-3.0.18/lib\hand.c ****     EFI_GUID        *Protocol;
 1247              		.loc 1 530 5 view .LVU365
 531:C:/Users/victim/Desktop/dangerous/yuziakicin/UEFI/UEFI/Backend/gnu-efi-3.0.18/lib\hand.c ****     VOID            *Interface;
 1248              		.loc 1 531 5 view .LVU366
 532:C:/Users/victim/Desktop/dangerous/yuziakicin/UEFI/UEFI/Backend/gnu-efi-3.0.18/lib\hand.c **** 
 533:C:/Users/victim/Desktop/dangerous/yuziakicin/UEFI/UEFI/Backend/gnu-efi-3.0.18/lib\hand.c ****     
 534:C:/Users/victim/Desktop/dangerous/yuziakicin/UEFI/UEFI/Backend/gnu-efi-3.0.18/lib\hand.c ****     va_start (args, Handle);
 1249              		.loc 1 534 5 view .LVU367
 1250 06eb 488D4424 		leaq	72(%rsp), %rax
 1250      48
 1251 06f0 48894424 		movq	%rax, 40(%rsp)
 1251      28
 1252 06f5 EB25     		jmp	.L74
 1253              	.LVL116:
 1254              	.L75:
 535:C:/Users/victim/Desktop/dangerous/yuziakicin/UEFI/UEFI/Backend/gnu-efi-3.0.18/lib\hand.c ****     for (; ;) {
 536:C:/Users/victim/Desktop/dangerous/yuziakicin/UEFI/UEFI/Backend/gnu-efi-3.0.18/lib\hand.c **** 
 537:C:/Users/victim/Desktop/dangerous/yuziakicin/UEFI/UEFI/Backend/gnu-efi-3.0.18/lib\hand.c ****         //
 538:C:/Users/victim/Desktop/dangerous/yuziakicin/UEFI/UEFI/Backend/gnu-efi-3.0.18/lib\hand.c ****         // If protocol is NULL, then it's the end of the list
 539:C:/Users/victim/Desktop/dangerous/yuziakicin/UEFI/UEFI/Backend/gnu-efi-3.0.18/lib\hand.c ****         //
 540:C:/Users/victim/Desktop/dangerous/yuziakicin/UEFI/UEFI/Backend/gnu-efi-3.0.18/lib\hand.c **** 
 541:C:/Users/victim/Desktop/dangerous/yuziakicin/UEFI/UEFI/Backend/gnu-efi-3.0.18/lib\hand.c ****         Protocol = va_arg(args, EFI_GUID *);
 542:C:/Users/victim/Desktop/dangerous/yuziakicin/UEFI/UEFI/Backend/gnu-efi-3.0.18/lib\hand.c ****         if (!Protocol) {
 543:C:/Users/victim/Desktop/dangerous/yuziakicin/UEFI/UEFI/Backend/gnu-efi-3.0.18/lib\hand.c ****             break;
 544:C:/Users/victim/Desktop/dangerous/yuziakicin/UEFI/UEFI/Backend/gnu-efi-3.0.18/lib\hand.c ****         }
 545:C:/Users/victim/Desktop/dangerous/yuziakicin/UEFI/UEFI/Backend/gnu-efi-3.0.18/lib\hand.c **** 
 546:C:/Users/victim/Desktop/dangerous/yuziakicin/UEFI/UEFI/Backend/gnu-efi-3.0.18/lib\hand.c ****         Interface = va_arg(args, VOID *);
 1255              		.loc 1 546 9 view .LVU368
 1256              		.loc 1 546 19 is_stmt 0 view .LVU369
 1257 06f7 488B4424 		movq	40(%rsp), %rax
 1257      28
 1258 06fc 488D4808 		leaq	8(%rax), %rcx
 1259 0700 48894C24 		movq	%rcx, 40(%rsp)
 1259      28
 547:C:/Users/victim/Desktop/dangerous/yuziakicin/UEFI/UEFI/Backend/gnu-efi-3.0.18/lib\hand.c **** 
 548:C:/Users/victim/Desktop/dangerous/yuziakicin/UEFI/UEFI/Backend/gnu-efi-3.0.18/lib\hand.c ****         //
 549:C:/Users/victim/Desktop/dangerous/yuziakicin/UEFI/UEFI/Backend/gnu-efi-3.0.18/lib\hand.c ****         // Uninstall it
 550:C:/Users/victim/Desktop/dangerous/yuziakicin/UEFI/UEFI/Backend/gnu-efi-3.0.18/lib\hand.c ****         //
 551:C:/Users/victim/Desktop/dangerous/yuziakicin/UEFI/UEFI/Backend/gnu-efi-3.0.18/lib\hand.c **** 
 552:C:/Users/victim/Desktop/dangerous/yuziakicin/UEFI/UEFI/Backend/gnu-efi-3.0.18/lib\hand.c ****         Status = uefi_call_wrapper(BS->UninstallProtocolInterface, 3, Handle, Protocol, Interface);
 1260              		.loc 1 552 9 is_stmt 1 view .LVU370
 1261              		.loc 1 552 18 is_stmt 0 view .LVU371
 1262 0705 488B0D00 		movq	.refptr.BS(%rip), %rcx
 1262      000000
 1263 070c 4C8B09   		movq	(%rcx), %r9
 1264 070f 4C8B00   		movq	(%rax), %r8
 1265 0712 4889D9   		movq	%rbx, %rcx
 1266 0715 41FF9190 		call	*144(%r9)
 1266      000000
 1267              	.LVL117:
 553:C:/Users/victim/Desktop/dangerous/yuziakicin/UEFI/UEFI/Backend/gnu-efi-3.0.18/lib\hand.c ****         if (EFI_ERROR(Status)) {
 1268              		.loc 1 553 9 is_stmt 1 view .LVU372
 554:C:/Users/victim/Desktop/dangerous/yuziakicin/UEFI/UEFI/Backend/gnu-efi-3.0.18/lib\hand.c ****             DEBUG((D_ERROR, "LibUninstallProtocolInterfaces: failed %g, %r\n", Protocol, Handle));
 1269              		.loc 1 554 98 view .LVU373
 535:C:/Users/victim/Desktop/dangerous/yuziakicin/UEFI/UEFI/Backend/gnu-efi-3.0.18/lib\hand.c **** 
 1270              		.loc 1 535 5 view .LVU374
 1271              	.L74:
 535:C:/Users/victim/Desktop/dangerous/yuziakicin/UEFI/UEFI/Backend/gnu-efi-3.0.18/lib\hand.c **** 
 1272              		.loc 1 535 5 view .LVU375
 541:C:/Users/victim/Desktop/dangerous/yuziakicin/UEFI/UEFI/Backend/gnu-efi-3.0.18/lib\hand.c ****         if (!Protocol) {
 1273              		.loc 1 541 9 view .LVU376
 541:C:/Users/victim/Desktop/dangerous/yuziakicin/UEFI/UEFI/Backend/gnu-efi-3.0.18/lib\hand.c ****         if (!Protocol) {
 1274              		.loc 1 541 18 is_stmt 0 view .LVU377
 1275 071c 488B4424 		movq	40(%rsp), %rax
 1275      28
 1276 0721 488D5008 		leaq	8(%rax), %rdx
 1277 0725 48895424 		movq	%rdx, 40(%rsp)
 1277      28
 1278 072a 488B10   		movq	(%rax), %rdx
 542:C:/Users/victim/Desktop/dangerous/yuziakicin/UEFI/UEFI/Backend/gnu-efi-3.0.18/lib\hand.c ****             break;
 1279              		.loc 1 542 9 is_stmt 1 view .LVU378
 542:C:/Users/victim/Desktop/dangerous/yuziakicin/UEFI/UEFI/Backend/gnu-efi-3.0.18/lib\hand.c ****             break;
 1280              		.loc 1 542 12 is_stmt 0 view .LVU379
 1281 072d 4885D2   		testq	%rdx, %rdx
 1282 0730 75C5     		jne	.L75
 555:C:/Users/victim/Desktop/dangerous/yuziakicin/UEFI/UEFI/Backend/gnu-efi-3.0.18/lib\hand.c ****         }
 556:C:/Users/victim/Desktop/dangerous/yuziakicin/UEFI/UEFI/Backend/gnu-efi-3.0.18/lib\hand.c ****     }
 557:C:/Users/victim/Desktop/dangerous/yuziakicin/UEFI/UEFI/Backend/gnu-efi-3.0.18/lib\hand.c ****     va_end (args);
 558:C:/Users/victim/Desktop/dangerous/yuziakicin/UEFI/UEFI/Backend/gnu-efi-3.0.18/lib\hand.c **** }    
 1283              		.loc 1 558 1 view .LVU380
 1284 0732 4883C430 		addq	$48, %rsp
 1285              		.cfi_def_cfa_offset 16
 1286 0736 5B       		popq	%rbx
 1287              		.cfi_restore 3
 1288              		.cfi_def_cfa_offset 8
 1289              	.LVL118:
 1290              		.loc 1 558 1 view .LVU381
 1291 0737 C3       		ret
 1292              		.cfi_endproc
 1293              	.LFE10:
 1294              		.seh_endproc
 1295              		.globl	LibReinstallProtocolInterfaces
 1297              		.seh_proc	LibReinstallProtocolInterfaces
 1298              	LibReinstallProtocolInterfaces:
 1299              	.LVL119:
 1300              	.LFB11:
 559:C:/Users/victim/Desktop/dangerous/yuziakicin/UEFI/UEFI/Backend/gnu-efi-3.0.18/lib\hand.c **** 
 560:C:/Users/victim/Desktop/dangerous/yuziakicin/UEFI/UEFI/Backend/gnu-efi-3.0.18/lib\hand.c **** 
 561:C:/Users/victim/Desktop/dangerous/yuziakicin/UEFI/UEFI/Backend/gnu-efi-3.0.18/lib\hand.c **** EFI_STATUS
 562:C:/Users/victim/Desktop/dangerous/yuziakicin/UEFI/UEFI/Backend/gnu-efi-3.0.18/lib\hand.c **** LibReinstallProtocolInterfaces (
 563:C:/Users/victim/Desktop/dangerous/yuziakicin/UEFI/UEFI/Backend/gnu-efi-3.0.18/lib\hand.c ****     IN OUT EFI_HANDLE           *Handle,
 564:C:/Users/victim/Desktop/dangerous/yuziakicin/UEFI/UEFI/Backend/gnu-efi-3.0.18/lib\hand.c ****     ...
 565:C:/Users/victim/Desktop/dangerous/yuziakicin/UEFI/UEFI/Backend/gnu-efi-3.0.18/lib\hand.c ****     )
 566:C:/Users/victim/Desktop/dangerous/yuziakicin/UEFI/UEFI/Backend/gnu-efi-3.0.18/lib\hand.c **** {
 1301              		.loc 1 566 1 is_stmt 1 view -0
 1302              		.cfi_startproc
 1303              		.loc 1 566 1 is_stmt 0 view .LVU383
 1304 0738 55       		pushq	%rbp
 1305              		.seh_pushreg	%rbp
 1306              		.cfi_def_cfa_offset 16
 1307              		.cfi_offset 6, -16
 1308 0739 57       		pushq	%rdi
 1309              		.seh_pushreg	%rdi
 1310              		.cfi_def_cfa_offset 24
 1311              		.cfi_offset 5, -24
 1312 073a 56       		pushq	%rsi
 1313              		.seh_pushreg	%rsi
 1314              		.cfi_def_cfa_offset 32
 1315              		.cfi_offset 4, -32
 1316 073b 53       		pushq	%rbx
 1317              		.seh_pushreg	%rbx
 1318              		.cfi_def_cfa_offset 40
 1319              		.cfi_offset 3, -40
 1320 073c 4883EC38 		subq	$56, %rsp
 1321              		.seh_stackalloc	56
 1322              		.cfi_def_cfa_offset 96
 1323              		.seh_endprologue
 1324 0740 4889CF   		movq	%rcx, %rdi
 1325 0743 48895424 		movq	%rdx, 104(%rsp)
 1325      68
 1326 0748 4C894424 		movq	%r8, 112(%rsp)
 1326      70
 1327 074d 4C894C24 		movq	%r9, 120(%rsp)
 1327      78
 567:C:/Users/victim/Desktop/dangerous/yuziakicin/UEFI/UEFI/Backend/gnu-efi-3.0.18/lib\hand.c ****     va_list         args;
 1328              		.loc 1 567 5 is_stmt 1 view .LVU384
 568:C:/Users/victim/Desktop/dangerous/yuziakicin/UEFI/UEFI/Backend/gnu-efi-3.0.18/lib\hand.c ****     EFI_STATUS      Status;
 1329              		.loc 1 568 5 view .LVU385
 569:C:/Users/victim/Desktop/dangerous/yuziakicin/UEFI/UEFI/Backend/gnu-efi-3.0.18/lib\hand.c ****     EFI_GUID        *Protocol;
 1330              		.loc 1 569 5 view .LVU386
 570:C:/Users/victim/Desktop/dangerous/yuziakicin/UEFI/UEFI/Backend/gnu-efi-3.0.18/lib\hand.c ****     VOID            *OldInterface, *NewInterface;
 1331              		.loc 1 570 5 view .LVU387
 571:C:/Users/victim/Desktop/dangerous/yuziakicin/UEFI/UEFI/Backend/gnu-efi-3.0.18/lib\hand.c ****     EFI_TPL         OldTpl;
 1332              		.loc 1 571 5 view .LVU388
 572:C:/Users/victim/Desktop/dangerous/yuziakicin/UEFI/UEFI/Backend/gnu-efi-3.0.18/lib\hand.c ****     UINTN           Index;
 1333              		.loc 1 572 5 view .LVU389
 573:C:/Users/victim/Desktop/dangerous/yuziakicin/UEFI/UEFI/Backend/gnu-efi-3.0.18/lib\hand.c **** 
 574:C:/Users/victim/Desktop/dangerous/yuziakicin/UEFI/UEFI/Backend/gnu-efi-3.0.18/lib\hand.c ****     //
 575:C:/Users/victim/Desktop/dangerous/yuziakicin/UEFI/UEFI/Backend/gnu-efi-3.0.18/lib\hand.c ****     // Syncronize with notifcations
 576:C:/Users/victim/Desktop/dangerous/yuziakicin/UEFI/UEFI/Backend/gnu-efi-3.0.18/lib\hand.c ****     // 
 577:C:/Users/victim/Desktop/dangerous/yuziakicin/UEFI/UEFI/Backend/gnu-efi-3.0.18/lib\hand.c **** 
 578:C:/Users/victim/Desktop/dangerous/yuziakicin/UEFI/UEFI/Backend/gnu-efi-3.0.18/lib\hand.c ****     OldTpl = uefi_call_wrapper(BS->RaiseTPL, 1, TPL_NOTIFY);
 1334              		.loc 1 578 5 view .LVU390
 1335              		.loc 1 578 14 is_stmt 0 view .LVU391
 1336 0752 488B0500 		movq	.refptr.BS(%rip), %rax
 1336      000000
 1337 0759 488B00   		movq	(%rax), %rax
 1338 075c B9100000 		movl	$16, %ecx
 1338      00
 1339              	.LVL120:
 1340              		.loc 1 578 14 view .LVU392
 1341 0761 FF5018   		call	*24(%rax)
 1342              	.LVL121:
 1343 0764 4889C5   		movq	%rax, %rbp
 1344              	.LVL122:
 579:C:/Users/victim/Desktop/dangerous/yuziakicin/UEFI/UEFI/Backend/gnu-efi-3.0.18/lib\hand.c **** 
 580:C:/Users/victim/Desktop/dangerous/yuziakicin/UEFI/UEFI/Backend/gnu-efi-3.0.18/lib\hand.c ****     //
 581:C:/Users/victim/Desktop/dangerous/yuziakicin/UEFI/UEFI/Backend/gnu-efi-3.0.18/lib\hand.c ****     // Install the protocol interfaces
 582:C:/Users/victim/Desktop/dangerous/yuziakicin/UEFI/UEFI/Backend/gnu-efi-3.0.18/lib\hand.c ****     //
 583:C:/Users/victim/Desktop/dangerous/yuziakicin/UEFI/UEFI/Backend/gnu-efi-3.0.18/lib\hand.c **** 
 584:C:/Users/victim/Desktop/dangerous/yuziakicin/UEFI/UEFI/Backend/gnu-efi-3.0.18/lib\hand.c ****     Index = 0;
 1345              		.loc 1 584 5 is_stmt 1 view .LVU393
 585:C:/Users/victim/Desktop/dangerous/yuziakicin/UEFI/UEFI/Backend/gnu-efi-3.0.18/lib\hand.c ****     Status = EFI_SUCCESS;
 1346              		.loc 1 585 5 view .LVU394
 586:C:/Users/victim/Desktop/dangerous/yuziakicin/UEFI/UEFI/Backend/gnu-efi-3.0.18/lib\hand.c ****     va_start (args, Handle);
 1347              		.loc 1 586 5 view .LVU395
 1348 0767 488D4424 		leaq	104(%rsp), %rax
 1348      68
 1349              	.LVL123:
 1350              		.loc 1 586 5 is_stmt 0 view .LVU396
 1351 076c 48894424 		movq	%rax, 40(%rsp)
 1351      28
 587:C:/Users/victim/Desktop/dangerous/yuziakicin/UEFI/UEFI/Backend/gnu-efi-3.0.18/lib\hand.c **** 
 588:C:/Users/victim/Desktop/dangerous/yuziakicin/UEFI/UEFI/Backend/gnu-efi-3.0.18/lib\hand.c ****     while (!EFI_ERROR(Status)) {
 1352              		.loc 1 588 5 is_stmt 1 view .LVU397
 584:C:/Users/victim/Desktop/dangerous/yuziakicin/UEFI/UEFI/Backend/gnu-efi-3.0.18/lib\hand.c ****     Status = EFI_SUCCESS;
 1353              		.loc 1 584 11 is_stmt 0 view .LVU398
 1354 0771 BE000000 		movl	$0, %esi
 1354      00
 585:C:/Users/victim/Desktop/dangerous/yuziakicin/UEFI/UEFI/Backend/gnu-efi-3.0.18/lib\hand.c ****     va_start (args, Handle);
 1355              		.loc 1 585 12 view .LVU399
 1356 0776 BB000000 		movl	$0, %ebx
 1356      00
 1357              		.loc 1 588 11 view .LVU400
 1358 077b EB04     		jmp	.L77
 1359              	.LVL124:
 1360              	.L83:
 589:C:/Users/victim/Desktop/dangerous/yuziakicin/UEFI/UEFI/Backend/gnu-efi-3.0.18/lib\hand.c **** 
 590:C:/Users/victim/Desktop/dangerous/yuziakicin/UEFI/UEFI/Backend/gnu-efi-3.0.18/lib\hand.c ****         //
 591:C:/Users/victim/Desktop/dangerous/yuziakicin/UEFI/UEFI/Backend/gnu-efi-3.0.18/lib\hand.c ****         // If protocol is NULL, then it's the end of the list
 592:C:/Users/victim/Desktop/dangerous/yuziakicin/UEFI/UEFI/Backend/gnu-efi-3.0.18/lib\hand.c ****         //
 593:C:/Users/victim/Desktop/dangerous/yuziakicin/UEFI/UEFI/Backend/gnu-efi-3.0.18/lib\hand.c **** 
 594:C:/Users/victim/Desktop/dangerous/yuziakicin/UEFI/UEFI/Backend/gnu-efi-3.0.18/lib\hand.c ****         Protocol = va_arg(args, EFI_GUID *);
 595:C:/Users/victim/Desktop/dangerous/yuziakicin/UEFI/UEFI/Backend/gnu-efi-3.0.18/lib\hand.c ****         if (!Protocol) {
 596:C:/Users/victim/Desktop/dangerous/yuziakicin/UEFI/UEFI/Backend/gnu-efi-3.0.18/lib\hand.c ****             break;
 597:C:/Users/victim/Desktop/dangerous/yuziakicin/UEFI/UEFI/Backend/gnu-efi-3.0.18/lib\hand.c ****         }
 598:C:/Users/victim/Desktop/dangerous/yuziakicin/UEFI/UEFI/Backend/gnu-efi-3.0.18/lib\hand.c **** 
 599:C:/Users/victim/Desktop/dangerous/yuziakicin/UEFI/UEFI/Backend/gnu-efi-3.0.18/lib\hand.c ****         OldInterface = va_arg(args, VOID *);
 600:C:/Users/victim/Desktop/dangerous/yuziakicin/UEFI/UEFI/Backend/gnu-efi-3.0.18/lib\hand.c ****         NewInterface = va_arg(args, VOID *);
 601:C:/Users/victim/Desktop/dangerous/yuziakicin/UEFI/UEFI/Backend/gnu-efi-3.0.18/lib\hand.c **** 
 602:C:/Users/victim/Desktop/dangerous/yuziakicin/UEFI/UEFI/Backend/gnu-efi-3.0.18/lib\hand.c ****         //
 603:C:/Users/victim/Desktop/dangerous/yuziakicin/UEFI/UEFI/Backend/gnu-efi-3.0.18/lib\hand.c ****         // Reinstall it
 604:C:/Users/victim/Desktop/dangerous/yuziakicin/UEFI/UEFI/Backend/gnu-efi-3.0.18/lib\hand.c ****         //
 605:C:/Users/victim/Desktop/dangerous/yuziakicin/UEFI/UEFI/Backend/gnu-efi-3.0.18/lib\hand.c **** 
 606:C:/Users/victim/Desktop/dangerous/yuziakicin/UEFI/UEFI/Backend/gnu-efi-3.0.18/lib\hand.c ****         Status = uefi_call_wrapper(BS->ReinstallProtocolInterface, 4, Handle, Protocol, OldInterfac
 607:C:/Users/victim/Desktop/dangerous/yuziakicin/UEFI/UEFI/Backend/gnu-efi-3.0.18/lib\hand.c ****         if (EFI_ERROR(Status)) {
 608:C:/Users/victim/Desktop/dangerous/yuziakicin/UEFI/UEFI/Backend/gnu-efi-3.0.18/lib\hand.c ****             break;
 609:C:/Users/victim/Desktop/dangerous/yuziakicin/UEFI/UEFI/Backend/gnu-efi-3.0.18/lib\hand.c ****         }
 610:C:/Users/victim/Desktop/dangerous/yuziakicin/UEFI/UEFI/Backend/gnu-efi-3.0.18/lib\hand.c **** 
 611:C:/Users/victim/Desktop/dangerous/yuziakicin/UEFI/UEFI/Backend/gnu-efi-3.0.18/lib\hand.c ****         Index += 1;
 1361              		.loc 1 611 9 is_stmt 1 view .LVU401
 1362              		.loc 1 611 15 is_stmt 0 view .LVU402
 1363 077d 4883C601 		addq	$1, %rsi
 1364              	.LVL125:
 1365              	.L77:
 588:C:/Users/victim/Desktop/dangerous/yuziakicin/UEFI/UEFI/Backend/gnu-efi-3.0.18/lib\hand.c **** 
 1366              		.loc 1 588 12 is_stmt 1 view .LVU403
 1367 0781 4885DB   		testq	%rbx, %rbx
 1368 0784 7850     		js	.L78
 594:C:/Users/victim/Desktop/dangerous/yuziakicin/UEFI/UEFI/Backend/gnu-efi-3.0.18/lib\hand.c ****         if (!Protocol) {
 1369              		.loc 1 594 9 view .LVU404
 594:C:/Users/victim/Desktop/dangerous/yuziakicin/UEFI/UEFI/Backend/gnu-efi-3.0.18/lib\hand.c ****         if (!Protocol) {
 1370              		.loc 1 594 18 is_stmt 0 view .LVU405
 1371 0786 488B4424 		movq	40(%rsp), %rax
 1371      28
 1372 078b 488D5008 		leaq	8(%rax), %rdx
 1373 078f 48895424 		movq	%rdx, 40(%rsp)
 1373      28
 1374 0794 488B10   		movq	(%rax), %rdx
 595:C:/Users/victim/Desktop/dangerous/yuziakicin/UEFI/UEFI/Backend/gnu-efi-3.0.18/lib\hand.c ****             break;
 1375              		.loc 1 595 9 is_stmt 1 view .LVU406
 595:C:/Users/victim/Desktop/dangerous/yuziakicin/UEFI/UEFI/Backend/gnu-efi-3.0.18/lib\hand.c ****             break;
 1376              		.loc 1 595 12 is_stmt 0 view .LVU407
 1377 0797 4885D2   		testq	%rdx, %rdx
 1378 079a 743A     		je	.L78
 599:C:/Users/victim/Desktop/dangerous/yuziakicin/UEFI/UEFI/Backend/gnu-efi-3.0.18/lib\hand.c ****         NewInterface = va_arg(args, VOID *);
 1379              		.loc 1 599 9 is_stmt 1 view .LVU408
 599:C:/Users/victim/Desktop/dangerous/yuziakicin/UEFI/UEFI/Backend/gnu-efi-3.0.18/lib\hand.c ****         NewInterface = va_arg(args, VOID *);
 1380              		.loc 1 599 22 is_stmt 0 view .LVU409
 1381 079c 488B4424 		movq	40(%rsp), %rax
 1381      28
 1382 07a1 488D4808 		leaq	8(%rax), %rcx
 1383 07a5 48894C24 		movq	%rcx, 40(%rsp)
 1383      28
 1384 07aa 4C8B00   		movq	(%rax), %r8
 600:C:/Users/victim/Desktop/dangerous/yuziakicin/UEFI/UEFI/Backend/gnu-efi-3.0.18/lib\hand.c **** 
 1385              		.loc 1 600 9 is_stmt 1 view .LVU410
 600:C:/Users/victim/Desktop/dangerous/yuziakicin/UEFI/UEFI/Backend/gnu-efi-3.0.18/lib\hand.c **** 
 1386              		.loc 1 600 22 is_stmt 0 view .LVU411
 1387 07ad 488D4810 		leaq	16(%rax), %rcx
 1388 07b1 48894C24 		movq	%rcx, 40(%rsp)
 1388      28
 606:C:/Users/victim/Desktop/dangerous/yuziakicin/UEFI/UEFI/Backend/gnu-efi-3.0.18/lib\hand.c ****         if (EFI_ERROR(Status)) {
 1389              		.loc 1 606 9 is_stmt 1 view .LVU412
 606:C:/Users/victim/Desktop/dangerous/yuziakicin/UEFI/UEFI/Backend/gnu-efi-3.0.18/lib\hand.c ****         if (EFI_ERROR(Status)) {
 1390              		.loc 1 606 18 is_stmt 0 view .LVU413
 1391 07b6 488B0D00 		movq	.refptr.BS(%rip), %rcx
 1391      000000
 1392 07bd 4C8B11   		movq	(%rcx), %r10
 1393 07c0 4C8B4808 		movq	8(%rax), %r9
 1394 07c4 4889F9   		movq	%rdi, %rcx
 1395 07c7 41FF9288 		call	*136(%r10)
 1395      000000
 1396              	.LVL126:
 1397 07ce 4889C3   		movq	%rax, %rbx
 1398              	.LVL127:
 607:C:/Users/victim/Desktop/dangerous/yuziakicin/UEFI/UEFI/Backend/gnu-efi-3.0.18/lib\hand.c ****             break;
 1399              		.loc 1 607 9 is_stmt 1 view .LVU414
 607:C:/Users/victim/Desktop/dangerous/yuziakicin/UEFI/UEFI/Backend/gnu-efi-3.0.18/lib\hand.c ****             break;
 1400              		.loc 1 607 12 is_stmt 0 view .LVU415
 1401 07d1 4885C0   		testq	%rax, %rax
 1402 07d4 79A7     		jns	.L83
 1403              	.LVL128:
 1404              	.L78:
 612:C:/Users/victim/Desktop/dangerous/yuziakicin/UEFI/UEFI/Backend/gnu-efi-3.0.18/lib\hand.c ****     }
 613:C:/Users/victim/Desktop/dangerous/yuziakicin/UEFI/UEFI/Backend/gnu-efi-3.0.18/lib\hand.c ****     va_end (args);
 1405              		.loc 1 613 5 is_stmt 1 view .LVU416
 614:C:/Users/victim/Desktop/dangerous/yuziakicin/UEFI/UEFI/Backend/gnu-efi-3.0.18/lib\hand.c **** 
 615:C:/Users/victim/Desktop/dangerous/yuziakicin/UEFI/UEFI/Backend/gnu-efi-3.0.18/lib\hand.c ****     //
 616:C:/Users/victim/Desktop/dangerous/yuziakicin/UEFI/UEFI/Backend/gnu-efi-3.0.18/lib\hand.c ****     // If there was an error, undo all the interfaces that were
 617:C:/Users/victim/Desktop/dangerous/yuziakicin/UEFI/UEFI/Backend/gnu-efi-3.0.18/lib\hand.c ****     // reinstalled without any errors
 618:C:/Users/victim/Desktop/dangerous/yuziakicin/UEFI/UEFI/Backend/gnu-efi-3.0.18/lib\hand.c ****     //
 619:C:/Users/victim/Desktop/dangerous/yuziakicin/UEFI/UEFI/Backend/gnu-efi-3.0.18/lib\hand.c **** 
 620:C:/Users/victim/Desktop/dangerous/yuziakicin/UEFI/UEFI/Backend/gnu-efi-3.0.18/lib\hand.c ****     if (EFI_ERROR(Status)) {
 1406              		.loc 1 620 5 view .LVU417
 1407              		.loc 1 620 8 is_stmt 0 view .LVU418
 1408 07d6 4885DB   		testq	%rbx, %rbx
 1409 07d9 781C     		js	.L84
 1410              	.L80:
 621:C:/Users/victim/Desktop/dangerous/yuziakicin/UEFI/UEFI/Backend/gnu-efi-3.0.18/lib\hand.c ****         va_start (args, Handle);
 622:C:/Users/victim/Desktop/dangerous/yuziakicin/UEFI/UEFI/Backend/gnu-efi-3.0.18/lib\hand.c ****         while (Index) {
 623:C:/Users/victim/Desktop/dangerous/yuziakicin/UEFI/UEFI/Backend/gnu-efi-3.0.18/lib\hand.c **** 
 624:C:/Users/victim/Desktop/dangerous/yuziakicin/UEFI/UEFI/Backend/gnu-efi-3.0.18/lib\hand.c ****             Protocol = va_arg(args, EFI_GUID *);
 625:C:/Users/victim/Desktop/dangerous/yuziakicin/UEFI/UEFI/Backend/gnu-efi-3.0.18/lib\hand.c ****             OldInterface = va_arg(args, VOID *);
 626:C:/Users/victim/Desktop/dangerous/yuziakicin/UEFI/UEFI/Backend/gnu-efi-3.0.18/lib\hand.c ****             NewInterface = va_arg(args, VOID *);
 627:C:/Users/victim/Desktop/dangerous/yuziakicin/UEFI/UEFI/Backend/gnu-efi-3.0.18/lib\hand.c **** 
 628:C:/Users/victim/Desktop/dangerous/yuziakicin/UEFI/UEFI/Backend/gnu-efi-3.0.18/lib\hand.c ****             uefi_call_wrapper(BS->ReinstallProtocolInterface, 4, Handle, Protocol, NewInterface, Ol
 629:C:/Users/victim/Desktop/dangerous/yuziakicin/UEFI/UEFI/Backend/gnu-efi-3.0.18/lib\hand.c **** 
 630:C:/Users/victim/Desktop/dangerous/yuziakicin/UEFI/UEFI/Backend/gnu-efi-3.0.18/lib\hand.c ****             Index -= 1;
 631:C:/Users/victim/Desktop/dangerous/yuziakicin/UEFI/UEFI/Backend/gnu-efi-3.0.18/lib\hand.c ****         }
 632:C:/Users/victim/Desktop/dangerous/yuziakicin/UEFI/UEFI/Backend/gnu-efi-3.0.18/lib\hand.c ****         va_end (args);
 633:C:/Users/victim/Desktop/dangerous/yuziakicin/UEFI/UEFI/Backend/gnu-efi-3.0.18/lib\hand.c ****     }
 634:C:/Users/victim/Desktop/dangerous/yuziakicin/UEFI/UEFI/Backend/gnu-efi-3.0.18/lib\hand.c **** 
 635:C:/Users/victim/Desktop/dangerous/yuziakicin/UEFI/UEFI/Backend/gnu-efi-3.0.18/lib\hand.c ****     //
 636:C:/Users/victim/Desktop/dangerous/yuziakicin/UEFI/UEFI/Backend/gnu-efi-3.0.18/lib\hand.c ****     // Done
 637:C:/Users/victim/Desktop/dangerous/yuziakicin/UEFI/UEFI/Backend/gnu-efi-3.0.18/lib\hand.c ****     //
 638:C:/Users/victim/Desktop/dangerous/yuziakicin/UEFI/UEFI/Backend/gnu-efi-3.0.18/lib\hand.c **** 
 639:C:/Users/victim/Desktop/dangerous/yuziakicin/UEFI/UEFI/Backend/gnu-efi-3.0.18/lib\hand.c ****     uefi_call_wrapper(BS->RestoreTPL, 1, OldTpl);
 1411              		.loc 1 639 5 is_stmt 1 view .LVU419
 1412 07db 488B0500 		movq	.refptr.BS(%rip), %rax
 1412      000000
 1413 07e2 488B00   		movq	(%rax), %rax
 1414 07e5 4889E9   		movq	%rbp, %rcx
 1415 07e8 FF5020   		call	*32(%rax)
 1416              	.LVL129:
 640:C:/Users/victim/Desktop/dangerous/yuziakicin/UEFI/UEFI/Backend/gnu-efi-3.0.18/lib\hand.c ****     return Status;
 1417              		.loc 1 640 5 view .LVU420
 641:C:/Users/victim/Desktop/dangerous/yuziakicin/UEFI/UEFI/Backend/gnu-efi-3.0.18/lib\hand.c **** }
 1418              		.loc 1 641 1 is_stmt 0 view .LVU421
 1419 07eb 4889D8   		movq	%rbx, %rax
 1420 07ee 4883C438 		addq	$56, %rsp
 1421              		.cfi_remember_state
 1422              		.cfi_def_cfa_offset 40
 1423 07f2 5B       		popq	%rbx
 1424              		.cfi_restore 3
 1425              		.cfi_def_cfa_offset 32
 1426              	.LVL130:
 1427              		.loc 1 641 1 view .LVU422
 1428 07f3 5E       		popq	%rsi
 1429              		.cfi_restore 4
 1430              		.cfi_def_cfa_offset 24
 1431              	.LVL131:
 1432              		.loc 1 641 1 view .LVU423
 1433 07f4 5F       		popq	%rdi
 1434              		.cfi_restore 5
 1435              		.cfi_def_cfa_offset 16
 1436              	.LVL132:
 1437              		.loc 1 641 1 view .LVU424
 1438 07f5 5D       		popq	%rbp
 1439              		.cfi_restore 6
 1440              		.cfi_def_cfa_offset 8
 1441              	.LVL133:
 1442              		.loc 1 641 1 view .LVU425
 1443 07f6 C3       		ret
 1444              	.LVL134:
 1445              	.L84:
 1446              		.cfi_restore_state
 621:C:/Users/victim/Desktop/dangerous/yuziakicin/UEFI/UEFI/Backend/gnu-efi-3.0.18/lib\hand.c ****         va_start (args, Handle);
 1447              		.loc 1 621 9 is_stmt 1 view .LVU426
 1448 07f7 488D4424 		leaq	104(%rsp), %rax
 1448      68
 1449 07fc 48894424 		movq	%rax, 40(%rsp)
 1449      28
 622:C:/Users/victim/Desktop/dangerous/yuziakicin/UEFI/UEFI/Backend/gnu-efi-3.0.18/lib\hand.c **** 
 1450              		.loc 1 622 9 view .LVU427
 1451              	.L81:
 622:C:/Users/victim/Desktop/dangerous/yuziakicin/UEFI/UEFI/Backend/gnu-efi-3.0.18/lib\hand.c **** 
 1452              		.loc 1 622 16 view .LVU428
 1453 0801 4885F6   		testq	%rsi, %rsi
 1454 0804 74D5     		je	.L80
 624:C:/Users/victim/Desktop/dangerous/yuziakicin/UEFI/UEFI/Backend/gnu-efi-3.0.18/lib\hand.c ****             OldInterface = va_arg(args, VOID *);
 1455              		.loc 1 624 13 view .LVU429
 624:C:/Users/victim/Desktop/dangerous/yuziakicin/UEFI/UEFI/Backend/gnu-efi-3.0.18/lib\hand.c ****             OldInterface = va_arg(args, VOID *);
 1456              		.loc 1 624 22 is_stmt 0 view .LVU430
 1457 0806 488B4424 		movq	40(%rsp), %rax
 1457      28
 1458 080b 488D5008 		leaq	8(%rax), %rdx
 1459 080f 48895424 		movq	%rdx, 40(%rsp)
 1459      28
 1460 0814 488B10   		movq	(%rax), %rdx
 625:C:/Users/victim/Desktop/dangerous/yuziakicin/UEFI/UEFI/Backend/gnu-efi-3.0.18/lib\hand.c ****             NewInterface = va_arg(args, VOID *);
 1461              		.loc 1 625 13 is_stmt 1 view .LVU431
 625:C:/Users/victim/Desktop/dangerous/yuziakicin/UEFI/UEFI/Backend/gnu-efi-3.0.18/lib\hand.c ****             NewInterface = va_arg(args, VOID *);
 1462              		.loc 1 625 26 is_stmt 0 view .LVU432
 1463 0817 488D4810 		leaq	16(%rax), %rcx
 1464 081b 48894C24 		movq	%rcx, 40(%rsp)
 1464      28
 1465 0820 4C8B4808 		movq	8(%rax), %r9
 626:C:/Users/victim/Desktop/dangerous/yuziakicin/UEFI/UEFI/Backend/gnu-efi-3.0.18/lib\hand.c **** 
 1466              		.loc 1 626 13 is_stmt 1 view .LVU433
 626:C:/Users/victim/Desktop/dangerous/yuziakicin/UEFI/UEFI/Backend/gnu-efi-3.0.18/lib\hand.c **** 
 1467              		.loc 1 626 26 is_stmt 0 view .LVU434
 1468 0824 488D4818 		leaq	24(%rax), %rcx
 1469 0828 48894C24 		movq	%rcx, 40(%rsp)
 1469      28
 628:C:/Users/victim/Desktop/dangerous/yuziakicin/UEFI/UEFI/Backend/gnu-efi-3.0.18/lib\hand.c **** 
 1470              		.loc 1 628 13 is_stmt 1 view .LVU435
 1471 082d 488B0D00 		movq	.refptr.BS(%rip), %rcx
 1471      000000
 1472 0834 4C8B11   		movq	(%rcx), %r10
 1473 0837 4C8B4010 		movq	16(%rax), %r8
 1474 083b 4889F9   		movq	%rdi, %rcx
 1475 083e 41FF9288 		call	*136(%r10)
 1475      000000
 1476              	.LVL135:
 630:C:/Users/victim/Desktop/dangerous/yuziakicin/UEFI/UEFI/Backend/gnu-efi-3.0.18/lib\hand.c ****         }
 1477              		.loc 1 630 13 view .LVU436
 630:C:/Users/victim/Desktop/dangerous/yuziakicin/UEFI/UEFI/Backend/gnu-efi-3.0.18/lib\hand.c ****         }
 1478              		.loc 1 630 19 is_stmt 0 view .LVU437
 1479 0845 4883EE01 		subq	$1, %rsi
 1480              	.LVL136:
 630:C:/Users/victim/Desktop/dangerous/yuziakicin/UEFI/UEFI/Backend/gnu-efi-3.0.18/lib\hand.c ****         }
 1481              		.loc 1 630 19 view .LVU438
 1482 0849 EBB6     		jmp	.L81
 1483              		.cfi_endproc
 1484              	.LFE11:
 1485              		.seh_endproc
 1486              	.Letext0:
 1487              		.file 2 "C:/Users/victim/Desktop/dangerous/yuziakicin/UEFI/UEFI/Backend/mingw64/lib/gcc/x86_64-w64
 1488              		.file 3 "C:/Users/victim/Desktop/dangerous/yuziakicin/UEFI/UEFI/Backend/mingw64/include/vadefs.h"
 1489              		.file 4 "C:/Users/victim/Desktop/dangerous/yuziakicin/UEFI/UEFI/Backend/mingw64/include/corecrt.h"
 1490              		.file 5 "gnu-efi-3.0.18/inc/x86_64/efibind.h"
 1491              		.file 6 "gnu-efi-3.0.18/inc/efidef.h"
 1492              		.file 7 "gnu-efi-3.0.18/inc/efidevp.h"
 1493              		.file 8 "gnu-efi-3.0.18/inc/efiprot.h"
 1494              		.file 9 "gnu-efi-3.0.18/inc/efiapi.h"
 1495              		.file 10 "gnu-efi-3.0.18/inc/efilib.h"
 1496 084b 90909090 		.section	.debug_info,"dr"
 1496      90
 1497              	.Ldebug_info0:
 1498 0000 232C0000 		.long	0x2c23
 1499 0004 0500     		.word	0x5
 1500 0006 01       		.byte	0x1
 1501 0007 08       		.byte	0x8
 1502 0008 00000000 		.secrel32	.Ldebug_abbrev0
 1503 000c 30       		.uleb128 0x30
 1504 000d 474E5520 		.ascii "GNU C11 13.2.0 -mno-stack-arg-probe -m64 -mno-red-zone -maccumulate-outgoing-args -mtune=g
 1504      43313120 
 1504      31332E32 
 1504      2E30202D 
 1504      6D6E6F2D 
 1505 0111 1D       		.byte	0x1d
 1506 0112 00000000 		.secrel32	.LASF0
 1507 0116 59000000 		.secrel32	.LASF1
 1508 011a 00000000 		.quad	.Ltext0
 1508      00000000 
 1509 0122 4B080000 		.quad	.Letext0-.Ltext0
 1509      00000000 
 1510 012a 00000000 		.secrel32	.Ldebug_line0
 1511 012e 00000000 		.secrel32	.Ldebug_macro0
 1512 0132 0C       		.uleb128 0xc
 1513 0133 01       		.byte	0x1
 1514 0134 06       		.byte	0x6
 1515 0135 7369676E 		.ascii "signed char\0"
 1515      65642063 
 1515      68617200 
 1516 0141 06       		.uleb128 0x6
 1517 0142 696E7431 		.ascii "int16_t\0"
 1517      365F7400 
 1518 014a 02       		.byte	0x2
 1519 014b 25       		.byte	0x25
 1520 014c 18       		.byte	0x18
 1521 014d 51010000 		.long	0x151
 1522 0151 0C       		.uleb128 0xc
 1523 0152 02       		.byte	0x2
 1524 0153 05       		.byte	0x5
 1525 0154 73686F72 		.ascii "short int\0"
 1525      7420696E 
 1525      7400
 1526 015e 0C       		.uleb128 0xc
 1527 015f 04       		.byte	0x4
 1528 0160 05       		.byte	0x5
 1529 0161 696E7400 		.ascii "int\0"
 1530 0165 06       		.uleb128 0x6
 1531 0166 696E7436 		.ascii "int64_t\0"
 1531      345F7400 
 1532 016e 02       		.byte	0x2
 1533 016f 2B       		.byte	0x2b
 1534 0170 18       		.byte	0x18
 1535 0171 75010000 		.long	0x175
 1536 0175 0C       		.uleb128 0xc
 1537 0176 08       		.byte	0x8
 1538 0177 05       		.byte	0x5
 1539 0178 6C6F6E67 		.ascii "long long int\0"
 1539      206C6F6E 
 1539      6720696E 
 1539      7400
 1540 0186 06       		.uleb128 0x6
 1541 0187 75696E74 		.ascii "uint8_t\0"
 1541      385F7400 
 1542 018f 02       		.byte	0x2
 1543 0190 2E       		.byte	0x2e
 1544 0191 18       		.byte	0x18
 1545 0192 96010000 		.long	0x196
 1546 0196 0C       		.uleb128 0xc
 1547 0197 01       		.byte	0x1
 1548 0198 08       		.byte	0x8
 1549 0199 756E7369 		.ascii "unsigned char\0"
 1549      676E6564 
 1549      20636861 
 1549      7200
 1550 01a7 06       		.uleb128 0x6
 1551 01a8 75696E74 		.ascii "uint16_t\0"
 1551      31365F74 
 1551      00
 1552 01b1 02       		.byte	0x2
 1553 01b2 31       		.byte	0x31
 1554 01b3 19       		.byte	0x19
 1555 01b4 B8010000 		.long	0x1b8
 1556 01b8 0C       		.uleb128 0xc
 1557 01b9 02       		.byte	0x2
 1558 01ba 07       		.byte	0x7
 1559 01bb 73686F72 		.ascii "short unsigned int\0"
 1559      7420756E 
 1559      7369676E 
 1559      65642069 
 1559      6E7400
 1560 01ce 06       		.uleb128 0x6
 1561 01cf 75696E74 		.ascii "uint32_t\0"
 1561      33325F74 
 1561      00
 1562 01d8 02       		.byte	0x2
 1563 01d9 34       		.byte	0x34
 1564 01da 19       		.byte	0x19
 1565 01db DF010000 		.long	0x1df
 1566 01df 0C       		.uleb128 0xc
 1567 01e0 04       		.byte	0x4
 1568 01e1 07       		.byte	0x7
 1569 01e2 756E7369 		.ascii "unsigned int\0"
 1569      676E6564 
 1569      20696E74 
 1569      00
 1570 01ef 06       		.uleb128 0x6
 1571 01f0 75696E74 		.ascii "uint64_t\0"
 1571      36345F74 
 1571      00
 1572 01f9 02       		.byte	0x2
 1573 01fa 37       		.byte	0x37
 1574 01fb 19       		.byte	0x19
 1575 01fc 00020000 		.long	0x200
 1576 0200 0C       		.uleb128 0xc
 1577 0201 08       		.byte	0x8
 1578 0202 07       		.byte	0x7
 1579 0203 6C6F6E67 		.ascii "long long unsigned int\0"
 1579      206C6F6E 
 1579      6720756E 
 1579      7369676E 
 1579      65642069 
 1580 021a 06       		.uleb128 0x6
 1581 021b 696E7470 		.ascii "intptr_t\0"
 1581      74725F74 
 1581      00
 1582 0224 02       		.byte	0x2
 1583 0225 53       		.byte	0x53
 1584 0226 19       		.byte	0x19
 1585 0227 75010000 		.long	0x175
 1586 022b 06       		.uleb128 0x6
 1587 022c 5F5F676E 		.ascii "__gnuc_va_list\0"
 1587      75635F76 
 1587      615F6C69 
 1587      737400
 1588 023b 03       		.byte	0x3
 1589 023c 18       		.byte	0x18
 1590 023d 1D       		.byte	0x1d
 1591 023e 42020000 		.long	0x242
 1592 0242 31       		.uleb128 0x31
 1593 0243 08       		.byte	0x8
 1594 0244 5F5F6275 		.ascii "__builtin_va_list\0"
 1594      696C7469 
 1594      6E5F7661 
 1594      5F6C6973 
 1594      7400
 1595 0256 5A020000 		.long	0x25a
 1596 025a 0C       		.uleb128 0xc
 1597 025b 01       		.byte	0x1
 1598 025c 06       		.byte	0x6
 1599 025d 63686172 		.ascii "char\0"
 1599      00
 1600 0262 06       		.uleb128 0x6
 1601 0263 76615F6C 		.ascii "va_list\0"
 1601      69737400 
 1602 026b 03       		.byte	0x3
 1603 026c 1F       		.byte	0x1f
 1604 026d 1A       		.byte	0x1a
 1605 026e 2B020000 		.long	0x22b
 1606 0272 06       		.uleb128 0x6
 1607 0273 77636861 		.ascii "wchar_t\0"
 1607      725F7400 
 1608 027b 04       		.byte	0x4
 1609 027c 62       		.byte	0x62
 1610 027d 18       		.byte	0x18
 1611 027e B8010000 		.long	0x1b8
 1612 0282 0C       		.uleb128 0xc
 1613 0283 04       		.byte	0x4
 1614 0284 05       		.byte	0x5
 1615 0285 6C6F6E67 		.ascii "long int\0"
 1615      20696E74 
 1615      00
 1616 028e 0C       		.uleb128 0xc
 1617 028f 04       		.byte	0x4
 1618 0290 07       		.byte	0x7
 1619 0291 6C6F6E67 		.ascii "long unsigned int\0"
 1619      20756E73 
 1619      69676E65 
 1619      6420696E 
 1619      7400
 1620 02a3 0C       		.uleb128 0xc
 1621 02a4 10       		.byte	0x10
 1622 02a5 04       		.byte	0x4
 1623 02a6 6C6F6E67 		.ascii "long double\0"
 1623      20646F75 
 1623      626C6500 
 1624 02b2 06       		.uleb128 0x6
 1625 02b3 43484152 		.ascii "CHAR16\0"
 1625      313600
 1626 02ba 05       		.byte	0x5
 1627 02bb 65       		.byte	0x65
 1628 02bc 11       		.byte	0x11
 1629 02bd 72020000 		.long	0x272
 1630 02c1 06       		.uleb128 0x6
 1631 02c2 55494E54 		.ascii "UINT64\0"
 1631      363400
 1632 02c9 05       		.byte	0x5
 1633 02ca 68       		.byte	0x68
 1634 02cb 14       		.byte	0x14
 1635 02cc EF010000 		.long	0x1ef
 1636 02d0 06       		.uleb128 0x6
 1637 02d1 55494E54 		.ascii "UINT32\0"
 1637      333200
 1638 02d8 05       		.byte	0x5
 1639 02d9 6C       		.byte	0x6c
 1640 02da 18       		.byte	0x18
 1641 02db CE010000 		.long	0x1ce
 1642 02df 06       		.uleb128 0x6
 1643 02e0 55494E54 		.ascii "UINT16\0"
 1643      313600
 1644 02e7 05       		.byte	0x5
 1645 02e8 70       		.byte	0x70
 1646 02e9 14       		.byte	0x14
 1647 02ea A7010000 		.long	0x1a7
 1648 02ee 06       		.uleb128 0x6
 1649 02ef 494E5431 		.ascii "INT16\0"
 1649      3600
 1650 02f5 05       		.byte	0x5
 1651 02f6 71       		.byte	0x71
 1652 02f7 14       		.byte	0x14
 1653 02f8 41010000 		.long	0x141
 1654 02fc 06       		.uleb128 0x6
 1655 02fd 55494E54 		.ascii "UINT8\0"
 1655      3800
 1656 0303 05       		.byte	0x5
 1657 0304 73       		.byte	0x73
 1658 0305 14       		.byte	0x14
 1659 0306 86010000 		.long	0x186
 1660 030a 32       		.uleb128 0x32
 1661 030b 564F4944 		.ascii "VOID\0"
 1661      00
 1662 0310 05       		.byte	0x5
 1663 0311 78       		.byte	0x78
 1664 0312 14       		.byte	0x14
 1665 0313 2A       		.uleb128 0x2a
 1666 0314 0A030000 		.long	0x30a
 1667 0318 06       		.uleb128 0x6
 1668 0319 494E544E 		.ascii "INTN\0"
 1668      00
 1669 031e 05       		.byte	0x5
 1670 031f 7B       		.byte	0x7b
 1671 0320 14       		.byte	0x14
 1672 0321 65010000 		.long	0x165
 1673 0325 06       		.uleb128 0x6
 1674 0326 55494E54 		.ascii "UINTN\0"
 1674      4E00
 1675 032c 05       		.byte	0x5
 1676 032d 7C       		.byte	0x7c
 1677 032e 14       		.byte	0x14
 1678 032f EF010000 		.long	0x1ef
 1679 0333 06       		.uleb128 0x6
 1680 0334 424F4F4C 		.ascii "BOOLEAN\0"
 1680      45414E00 
 1681 033c 06       		.byte	0x6
 1682 033d 19       		.byte	0x19
 1683 033e 0F       		.byte	0xf
 1684 033f 43030000 		.long	0x343
 1685 0343 0C       		.uleb128 0xc
 1686 0344 01       		.byte	0x1
 1687 0345 02       		.byte	0x2
 1688 0346 5F426F6F 		.ascii "_Bool\0"
 1688      6C00
 1689 034c 06       		.uleb128 0x6
 1690 034d 4546495F 		.ascii "EFI_STATUS\0"
 1690      53544154 
 1690      555300
 1691 0358 06       		.byte	0x6
 1692 0359 3A       		.byte	0x3a
 1693 035a 19       		.byte	0x19
 1694 035b 25030000 		.long	0x325
 1695 035f 06       		.uleb128 0x6
 1696 0360 4546495F 		.ascii "EFI_TPL\0"
 1696      54504C00 
 1697 0368 06       		.byte	0x6
 1698 0369 3C       		.byte	0x3c
 1699 036a 19       		.byte	0x19
 1700 036b 25030000 		.long	0x325
 1701 036f 06       		.uleb128 0x6
 1702 0370 4546495F 		.ascii "EFI_HANDLE\0"
 1702      48414E44 
 1702      4C4500
 1703 037b 06       		.byte	0x6
 1704 037c 3D       		.byte	0x3d
 1705 037d 1A       		.byte	0x1a
 1706 037e 82030000 		.long	0x382
 1707 0382 02       		.uleb128 0x2
 1708 0383 0A030000 		.long	0x30a
 1709 0387 06       		.uleb128 0x6
 1710 0388 4546495F 		.ascii "EFI_EVENT\0"
 1710      4556454E 
 1710      5400
 1711 0392 06       		.byte	0x6
 1712 0393 3E       		.byte	0x3e
 1713 0394 1A       		.byte	0x1a
 1714 0395 82030000 		.long	0x382
 1715 0399 25       		.uleb128 0x25
 1716 039a 10       		.byte	0x10
 1717 039b 55       		.byte	0x55
 1718 039c DD030000 		.long	0x3dd
 1719 03a0 09       		.uleb128 0x9
 1720 03a1 44617461 		.ascii "Data1\0"
 1720      3100
 1721 03a7 06       		.byte	0x6
 1722 03a8 56       		.byte	0x56
 1723 03a9 0D       		.byte	0xd
 1724 03aa D0020000 		.long	0x2d0
 1725 03ae 00       		.byte	0
 1726 03af 09       		.uleb128 0x9
 1727 03b0 44617461 		.ascii "Data2\0"
 1727      3200
 1728 03b6 06       		.byte	0x6
 1729 03b7 57       		.byte	0x57
 1730 03b8 0D       		.byte	0xd
 1731 03b9 DF020000 		.long	0x2df
 1732 03bd 04       		.byte	0x4
 1733 03be 09       		.uleb128 0x9
 1734 03bf 44617461 		.ascii "Data3\0"
 1734      3300
 1735 03c5 06       		.byte	0x6
 1736 03c6 58       		.byte	0x58
 1737 03c7 0D       		.byte	0xd
 1738 03c8 DF020000 		.long	0x2df
 1739 03cc 06       		.byte	0x6
 1740 03cd 09       		.uleb128 0x9
 1741 03ce 44617461 		.ascii "Data4\0"
 1741      3400
 1742 03d4 06       		.byte	0x6
 1743 03d5 59       		.byte	0x59
 1744 03d6 0D       		.byte	0xd
 1745 03d7 DD030000 		.long	0x3dd
 1746 03db 08       		.byte	0x8
 1747 03dc 00       		.byte	0
 1748 03dd 1A       		.uleb128 0x1a
 1749 03de FC020000 		.long	0x2fc
 1750 03e2 ED030000 		.long	0x3ed
 1751 03e6 1B       		.uleb128 0x1b
 1752 03e7 00020000 		.long	0x200
 1753 03eb 07       		.byte	0x7
 1754 03ec 00       		.byte	0
 1755 03ed 06       		.uleb128 0x6
 1756 03ee 4546495F 		.ascii "EFI_GUID\0"
 1756      47554944 
 1756      00
 1757 03f7 06       		.byte	0x6
 1758 03f8 5A       		.byte	0x5a
 1759 03f9 03       		.byte	0x3
 1760 03fa 99030000 		.long	0x399
 1761 03fe 2A       		.uleb128 0x2a
 1762 03ff ED030000 		.long	0x3ed
 1763 0403 25       		.uleb128 0x25
 1764 0404 10       		.byte	0x10
 1765 0405 61       		.byte	0x61
 1766 0406 B7040000 		.long	0x4b7
 1767 040a 09       		.uleb128 0x9
 1768 040b 59656172 		.ascii "Year\0"
 1768      00
 1769 0410 06       		.byte	0x6
 1770 0411 62       		.byte	0x62
 1771 0412 11       		.byte	0x11
 1772 0413 DF020000 		.long	0x2df
 1773 0417 00       		.byte	0
 1774 0418 09       		.uleb128 0x9
 1775 0419 4D6F6E74 		.ascii "Month\0"
 1775      6800
 1776 041f 06       		.byte	0x6
 1777 0420 63       		.byte	0x63
 1778 0421 11       		.byte	0x11
 1779 0422 FC020000 		.long	0x2fc
 1780 0426 02       		.byte	0x2
 1781 0427 09       		.uleb128 0x9
 1782 0428 44617900 		.ascii "Day\0"
 1783 042c 06       		.byte	0x6
 1784 042d 64       		.byte	0x64
 1785 042e 11       		.byte	0x11
 1786 042f FC020000 		.long	0x2fc
 1787 0433 03       		.byte	0x3
 1788 0434 09       		.uleb128 0x9
 1789 0435 486F7572 		.ascii "Hour\0"
 1789      00
 1790 043a 06       		.byte	0x6
 1791 043b 65       		.byte	0x65
 1792 043c 11       		.byte	0x11
 1793 043d FC020000 		.long	0x2fc
 1794 0441 04       		.byte	0x4
 1795 0442 09       		.uleb128 0x9
 1796 0443 4D696E75 		.ascii "Minute\0"
 1796      746500
 1797 044a 06       		.byte	0x6
 1798 044b 66       		.byte	0x66
 1799 044c 11       		.byte	0x11
 1800 044d FC020000 		.long	0x2fc
 1801 0451 05       		.byte	0x5
 1802 0452 09       		.uleb128 0x9
 1803 0453 5365636F 		.ascii "Second\0"
 1803      6E6400
 1804 045a 06       		.byte	0x6
 1805 045b 67       		.byte	0x67
 1806 045c 11       		.byte	0x11
 1807 045d FC020000 		.long	0x2fc
 1808 0461 06       		.byte	0x6
 1809 0462 09       		.uleb128 0x9
 1810 0463 50616431 		.ascii "Pad1\0"
 1810      00
 1811 0468 06       		.byte	0x6
 1812 0469 68       		.byte	0x68
 1813 046a 11       		.byte	0x11
 1814 046b FC020000 		.long	0x2fc
 1815 046f 07       		.byte	0x7
 1816 0470 09       		.uleb128 0x9
 1817 0471 4E616E6F 		.ascii "Nanosecond\0"
 1817      7365636F 
 1817      6E6400
 1818 047c 06       		.byte	0x6
 1819 047d 69       		.byte	0x69
 1820 047e 11       		.byte	0x11
 1821 047f D0020000 		.long	0x2d0
 1822 0483 08       		.byte	0x8
 1823 0484 09       		.uleb128 0x9
 1824 0485 54696D65 		.ascii "TimeZone\0"
 1824      5A6F6E65 
 1824      00
 1825 048e 06       		.byte	0x6
 1826 048f 6A       		.byte	0x6a
 1827 0490 11       		.byte	0x11
 1828 0491 EE020000 		.long	0x2ee
 1829 0495 0C       		.byte	0xc
 1830 0496 09       		.uleb128 0x9
 1831 0497 4461796C 		.ascii "Daylight\0"
 1831      69676874 
 1831      00
 1832 04a0 06       		.byte	0x6
 1833 04a1 6B       		.byte	0x6b
 1834 04a2 11       		.byte	0x11
 1835 04a3 FC020000 		.long	0x2fc
 1836 04a7 0E       		.byte	0xe
 1837 04a8 09       		.uleb128 0x9
 1838 04a9 50616432 		.ascii "Pad2\0"
 1838      00
 1839 04ae 06       		.byte	0x6
 1840 04af 6C       		.byte	0x6c
 1841 04b0 11       		.byte	0x11
 1842 04b1 FC020000 		.long	0x2fc
 1843 04b5 0F       		.byte	0xf
 1844 04b6 00       		.byte	0
 1845 04b7 06       		.uleb128 0x6
 1846 04b8 4546495F 		.ascii "EFI_TIME\0"
 1846      54494D45 
 1846      00
 1847 04c1 06       		.byte	0x6
 1848 04c2 6D       		.byte	0x6d
 1849 04c3 03       		.byte	0x3
 1850 04c4 03040000 		.long	0x403
 1851 04c8 1A       		.uleb128 0x1a
 1852 04c9 FC020000 		.long	0x2fc
 1853 04cd D8040000 		.long	0x4d8
 1854 04d1 1B       		.uleb128 0x1b
 1855 04d2 00020000 		.long	0x200
 1856 04d6 0F       		.byte	0xf
 1857 04d7 00       		.byte	0
 1858 04d8 06       		.uleb128 0x6
 1859 04d9 4546495F 		.ascii "EFI_PHYSICAL_ADDRESS\0"
 1859      50485953 
 1859      4943414C 
 1859      5F414444 
 1859      52455353 
 1860 04ee 06       		.byte	0x6
 1861 04ef 99       		.byte	0x99
 1862 04f0 19       		.byte	0x19
 1863 04f1 C1020000 		.long	0x2c1
 1864 04f5 06       		.uleb128 0x6
 1865 04f6 4546495F 		.ascii "EFI_VIRTUAL_ADDRESS\0"
 1865      56495254 
 1865      55414C5F 
 1865      41444452 
 1865      45535300 
 1866 050a 06       		.byte	0x6
 1867 050b 9A       		.byte	0x9a
 1868 050c 19       		.byte	0x19
 1869 050d C1020000 		.long	0x2c1
 1870 0511 26       		.uleb128 0x26
 1871 0512 DF010000 		.long	0x1df
 1872 0516 06       		.byte	0x6
 1873 0517 9C       		.byte	0x9c
 1874 0518 69050000 		.long	0x569
 1875 051c 08       		.uleb128 0x8
 1876 051d 416C6C6F 		.ascii "AllocateAnyPages\0"
 1876      63617465 
 1876      416E7950 
 1876      61676573 
 1876      00
 1877 052e 00       		.byte	0
 1878 052f 08       		.uleb128 0x8
 1879 0530 416C6C6F 		.ascii "AllocateMaxAddress\0"
 1879      63617465 
 1879      4D617841 
 1879      64647265 
 1879      737300
 1880 0543 01       		.byte	0x1
 1881 0544 08       		.uleb128 0x8
 1882 0545 416C6C6F 		.ascii "AllocateAddress\0"
 1882      63617465 
 1882      41646472 
 1882      65737300 
 1883 0555 02       		.byte	0x2
 1884 0556 08       		.uleb128 0x8
 1885 0557 4D617841 		.ascii "MaxAllocateType\0"
 1885      6C6C6F63 
 1885      61746554 
 1885      79706500 
 1886 0567 03       		.byte	0x3
 1887 0568 00       		.byte	0
 1888 0569 06       		.uleb128 0x6
 1889 056a 4546495F 		.ascii "EFI_ALLOCATE_TYPE\0"
 1889      414C4C4F 
 1889      43415445 
 1889      5F545950 
 1889      4500
 1890 057c 06       		.byte	0x6
 1891 057d A1       		.byte	0xa1
 1892 057e 03       		.byte	0x3
 1893 057f 11050000 		.long	0x511
 1894 0583 26       		.uleb128 0x26
 1895 0584 DF010000 		.long	0x1df
 1896 0588 06       		.byte	0x6
 1897 0589 AA       		.byte	0xaa
 1898 058a FC060000 		.long	0x6fc
 1899 058e 08       		.uleb128 0x8
 1900 058f 45666952 		.ascii "EfiReservedMemoryType\0"
 1900      65736572 
 1900      7665644D 
 1900      656D6F72 
 1900      79547970 
 1901 05a5 00       		.byte	0
 1902 05a6 08       		.uleb128 0x8
 1903 05a7 4566694C 		.ascii "EfiLoaderCode\0"
 1903      6F616465 
 1903      72436F64 
 1903      6500
 1904 05b5 01       		.byte	0x1
 1905 05b6 08       		.uleb128 0x8
 1906 05b7 4566694C 		.ascii "EfiLoaderData\0"
 1906      6F616465 
 1906      72446174 
 1906      6100
 1907 05c5 02       		.byte	0x2
 1908 05c6 08       		.uleb128 0x8
 1909 05c7 45666942 		.ascii "EfiBootServicesCode\0"
 1909      6F6F7453 
 1909      65727669 
 1909      63657343 
 1909      6F646500 
 1910 05db 03       		.byte	0x3
 1911 05dc 08       		.uleb128 0x8
 1912 05dd 45666942 		.ascii "EfiBootServicesData\0"
 1912      6F6F7453 
 1912      65727669 
 1912      63657344 
 1912      61746100 
 1913 05f1 04       		.byte	0x4
 1914 05f2 08       		.uleb128 0x8
 1915 05f3 45666952 		.ascii "EfiRuntimeServicesCode\0"
 1915      756E7469 
 1915      6D655365 
 1915      72766963 
 1915      6573436F 
 1916 060a 05       		.byte	0x5
 1917 060b 08       		.uleb128 0x8
 1918 060c 45666952 		.ascii "EfiRuntimeServicesData\0"
 1918      756E7469 
 1918      6D655365 
 1918      72766963 
 1918      65734461 
 1919 0623 06       		.byte	0x6
 1920 0624 08       		.uleb128 0x8
 1921 0625 45666943 		.ascii "EfiConventionalMemory\0"
 1921      6F6E7665 
 1921      6E74696F 
 1921      6E616C4D 
 1921      656D6F72 
 1922 063b 07       		.byte	0x7
 1923 063c 08       		.uleb128 0x8
 1924 063d 45666955 		.ascii "EfiUnusableMemory\0"
 1924      6E757361 
 1924      626C654D 
 1924      656D6F72 
 1924      7900
 1925 064f 08       		.byte	0x8
 1926 0650 08       		.uleb128 0x8
 1927 0651 45666941 		.ascii "EfiACPIReclaimMemory\0"
 1927      43504952 
 1927      65636C61 
 1927      696D4D65 
 1927      6D6F7279 
 1928 0666 09       		.byte	0x9
 1929 0667 08       		.uleb128 0x8
 1930 0668 45666941 		.ascii "EfiACPIMemoryNVS\0"
 1930      4350494D 
 1930      656D6F72 
 1930      794E5653 
 1930      00
 1931 0679 0A       		.byte	0xa
 1932 067a 08       		.uleb128 0x8
 1933 067b 4566694D 		.ascii "EfiMemoryMappedIO\0"
 1933      656D6F72 
 1933      794D6170 
 1933      70656449 
 1933      4F00
 1934 068d 0B       		.byte	0xb
 1935 068e 08       		.uleb128 0x8
 1936 068f 4566694D 		.ascii "EfiMemoryMappedIOPortSpace\0"
 1936      656D6F72 
 1936      794D6170 
 1936      70656449 
 1936      4F506F72 
 1937 06aa 0C       		.byte	0xc
 1938 06ab 08       		.uleb128 0x8
 1939 06ac 45666950 		.ascii "EfiPalCode\0"
 1939      616C436F 
 1939      646500
 1940 06b7 0D       		.byte	0xd
 1941 06b8 08       		.uleb128 0x8
 1942 06b9 45666950 		.ascii "EfiPersistentMemory\0"
 1942      65727369 
 1942      7374656E 
 1942      744D656D 
 1942      6F727900 
 1943 06cd 0E       		.byte	0xe
 1944 06ce 08       		.uleb128 0x8
 1945 06cf 45666955 		.ascii "EfiUnacceptedMemoryType\0"
 1945      6E616363 
 1945      65707465 
 1945      644D656D 
 1945      6F727954 
 1946 06e7 0F       		.byte	0xf
 1947 06e8 08       		.uleb128 0x8
 1948 06e9 4566694D 		.ascii "EfiMaxMemoryType\0"
 1948      61784D65 
 1948      6D6F7279 
 1948      54797065 
 1948      00
 1949 06fa 10       		.byte	0x10
 1950 06fb 00       		.byte	0
 1951 06fc 06       		.uleb128 0x6
 1952 06fd 4546495F 		.ascii "EFI_MEMORY_TYPE\0"
 1952      4D454D4F 
 1952      52595F54 
 1952      59504500 
 1953 070d 06       		.byte	0x6
 1954 070e BC       		.byte	0xbc
 1955 070f 03       		.byte	0x3
 1956 0710 83050000 		.long	0x583
 1957 0714 25       		.uleb128 0x25
 1958 0715 28       		.byte	0x28
 1959 0716 D9       		.byte	0xd9
 1960 0717 88070000 		.long	0x788
 1961 071b 09       		.uleb128 0x9
 1962 071c 54797065 		.ascii "Type\0"
 1962      00
 1963 0721 06       		.byte	0x6
 1964 0722 DA       		.byte	0xda
 1965 0723 25       		.byte	0x25
 1966 0724 D0020000 		.long	0x2d0
 1967 0728 00       		.byte	0
 1968 0729 09       		.uleb128 0x9
 1969 072a 50616400 		.ascii "Pad\0"
 1970 072e 06       		.byte	0x6
 1971 072f DB       		.byte	0xdb
 1972 0730 25       		.byte	0x25
 1973 0731 D0020000 		.long	0x2d0
 1974 0735 04       		.byte	0x4
 1975 0736 09       		.uleb128 0x9
 1976 0737 50687973 		.ascii "PhysicalStart\0"
 1976      6963616C 
 1976      53746172 
 1976      7400
 1977 0745 06       		.byte	0x6
 1978 0746 DC       		.byte	0xdc
 1979 0747 25       		.byte	0x25
 1980 0748 D8040000 		.long	0x4d8
 1981 074c 08       		.byte	0x8
 1982 074d 09       		.uleb128 0x9
 1983 074e 56697274 		.ascii "VirtualStart\0"
 1983      75616C53 
 1983      74617274 
 1983      00
 1984 075b 06       		.byte	0x6
 1985 075c DD       		.byte	0xdd
 1986 075d 25       		.byte	0x25
 1987 075e F5040000 		.long	0x4f5
 1988 0762 10       		.byte	0x10
 1989 0763 09       		.uleb128 0x9
 1990 0764 4E756D62 		.ascii "NumberOfPages\0"
 1990      65724F66 
 1990      50616765 
 1990      7300
 1991 0772 06       		.byte	0x6
 1992 0773 DE       		.byte	0xde
 1993 0774 25       		.byte	0x25
 1994 0775 C1020000 		.long	0x2c1
 1995 0779 18       		.byte	0x18
 1996 077a 33       		.uleb128 0x33
 1997 077b 17000000 		.secrel32	.LASF2
 1998 077f 06       		.byte	0x6
 1999 0780 DF       		.byte	0xdf
 2000 0781 25       		.byte	0x25
 2001 0782 C1020000 		.long	0x2c1
 2002 0786 20       		.byte	0x20
 2003 0787 00       		.byte	0
 2004 0788 06       		.uleb128 0x6
 2005 0789 4546495F 		.ascii "EFI_MEMORY_DESCRIPTOR\0"
 2005      4D454D4F 
 2005      52595F44 
 2005      45534352 
 2005      4950544F 
 2006 079f 06       		.byte	0x6
 2007 07a0 E0       		.byte	0xe0
 2008 07a1 03       		.byte	0x3
 2009 07a2 14070000 		.long	0x714
 2010 07a6 34       		.uleb128 0x34
 2011 07a7 5F454649 		.ascii "_EFI_DEVICE_PATH_PROTOCOL\0"
 2011      5F444556 
 2011      4943455F 
 2011      50415448 
 2011      5F50524F 
 2012 07c1 04       		.byte	0x4
 2013 07c2 07       		.byte	0x7
 2014 07c3 1A       		.byte	0x1a
 2015 07c4 10       		.byte	0x10
 2016 07c5 F9070000 		.long	0x7f9
 2017 07c9 09       		.uleb128 0x9
 2018 07ca 54797065 		.ascii "Type\0"
 2018      00
 2019 07cf 07       		.byte	0x7
 2020 07d0 1B       		.byte	0x1b
 2021 07d1 29       		.byte	0x29
 2022 07d2 FC020000 		.long	0x2fc
 2023 07d6 00       		.byte	0
 2024 07d7 09       		.uleb128 0x9
 2025 07d8 53756254 		.ascii "SubType\0"
 2025      79706500 
 2026 07e0 07       		.byte	0x7
 2027 07e1 1C       		.byte	0x1c
 2028 07e2 29       		.byte	0x29
 2029 07e3 FC020000 		.long	0x2fc
 2030 07e7 01       		.byte	0x1
 2031 07e8 09       		.uleb128 0x9
 2032 07e9 4C656E67 		.ascii "Length\0"
 2032      746800
 2033 07f0 07       		.byte	0x7
 2034 07f1 1D       		.byte	0x1d
 2035 07f2 29       		.byte	0x29
 2036 07f3 F9070000 		.long	0x7f9
 2037 07f7 02       		.byte	0x2
 2038 07f8 00       		.byte	0
 2039 07f9 1A       		.uleb128 0x1a
 2040 07fa FC020000 		.long	0x2fc
 2041 07fe 09080000 		.long	0x809
 2042 0802 1B       		.uleb128 0x1b
 2043 0803 00020000 		.long	0x200
 2044 0807 01       		.byte	0x1
 2045 0808 00       		.byte	0
 2046 0809 06       		.uleb128 0x6
 2047 080a 4546495F 		.ascii "EFI_DEVICE_PATH_PROTOCOL\0"
 2047      44455649 
 2047      43455F50 
 2047      4154485F 
 2047      50524F54 
 2048 0823 07       		.byte	0x7
 2049 0824 1E       		.byte	0x1e
 2050 0825 03       		.byte	0x3
 2051 0826 A6070000 		.long	0x7a6
 2052 082a 06       		.uleb128 0x6
 2053 082b 4546495F 		.ascii "EFI_DEVICE_PATH\0"
 2053      44455649 
 2053      43455F50 
 2053      41544800 
 2054 083b 07       		.byte	0x7
 2055 083c 21       		.byte	0x21
 2056 083d 22       		.byte	0x22
 2057 083e 09080000 		.long	0x809
 2058 0842 1A       		.uleb128 0x1a
 2059 0843 B2020000 		.long	0x2b2
 2060 0847 52080000 		.long	0x852
 2061 084b 1B       		.uleb128 0x1b
 2062 084c 00020000 		.long	0x200
 2063 0850 00       		.byte	0
 2064 0851 00       		.byte	0
 2065 0852 1C       		.uleb128 0x1c
 2066 0853 5F484152 		.ascii "_HARDDRIVE_DEVICE_PATH\0"
 2066      44445249 
 2066      56455F44 
 2066      45564943 
 2066      455F5041 
 2067 086a 30       		.byte	0x30
 2068 086b 07       		.byte	0x7
 2069 086c 7301     		.word	0x173
 2070 086e FD080000 		.long	0x8fd
 2071 0872 03       		.uleb128 0x3
 2072 0873 48656164 		.ascii "Header\0"
 2072      657200
 2073 087a 07       		.byte	0x7
 2074 087b 7401     		.word	0x174
 2075 087d 29       		.byte	0x29
 2076 087e 09080000 		.long	0x809
 2077 0882 00       		.byte	0
 2078 0883 03       		.uleb128 0x3
 2079 0884 50617274 		.ascii "PartitionNumber\0"
 2079      6974696F 
 2079      6E4E756D 
 2079      62657200 
 2080 0894 07       		.byte	0x7
 2081 0895 7501     		.word	0x175
 2082 0897 29       		.byte	0x29
 2083 0898 D0020000 		.long	0x2d0
 2084 089c 04       		.byte	0x4
 2085 089d 03       		.uleb128 0x3
 2086 089e 50617274 		.ascii "PartitionStart\0"
 2086      6974696F 
 2086      6E537461 
 2086      727400
 2087 08ad 07       		.byte	0x7
 2088 08ae 7601     		.word	0x176
 2089 08b0 29       		.byte	0x29
 2090 08b1 C1020000 		.long	0x2c1
 2091 08b5 08       		.byte	0x8
 2092 08b6 03       		.uleb128 0x3
 2093 08b7 50617274 		.ascii "PartitionSize\0"
 2093      6974696F 
 2093      6E53697A 
 2093      6500
 2094 08c5 07       		.byte	0x7
 2095 08c6 7701     		.word	0x177
 2096 08c8 29       		.byte	0x29
 2097 08c9 C1020000 		.long	0x2c1
 2098 08cd 10       		.byte	0x10
 2099 08ce 0B       		.uleb128 0xb
 2100 08cf 0D000000 		.secrel32	.LASF3
 2101 08d3 07       		.byte	0x7
 2102 08d4 7801     		.word	0x178
 2103 08d6 29       		.byte	0x29
 2104 08d7 C8040000 		.long	0x4c8
 2105 08db 18       		.byte	0x18
 2106 08dc 03       		.uleb128 0x3
 2107 08dd 4D425254 		.ascii "MBRType\0"
 2107      79706500 
 2108 08e5 07       		.byte	0x7
 2109 08e6 7901     		.word	0x179
 2110 08e8 29       		.byte	0x29
 2111 08e9 FC020000 		.long	0x2fc
 2112 08ed 28       		.byte	0x28
 2113 08ee 0B       		.uleb128 0xb
 2114 08ef 21000000 		.secrel32	.LASF4
 2115 08f3 07       		.byte	0x7
 2116 08f4 7A01     		.word	0x17a
 2117 08f6 29       		.byte	0x29
 2118 08f7 FC020000 		.long	0x2fc
 2119 08fb 29       		.byte	0x29
 2120 08fc 00       		.byte	0
 2121 08fd 04       		.uleb128 0x4
 2122 08fe 48415244 		.ascii "HARDDRIVE_DEVICE_PATH\0"
 2122      44524956 
 2122      455F4445 
 2122      56494345 
 2122      5F504154 
 2123 0914 07       		.byte	0x7
 2124 0915 7B01     		.word	0x17b
 2125 0917 03       		.byte	0x3
 2126 0918 52080000 		.long	0x852
 2127 091c 02       		.uleb128 0x2
 2128 091d FD080000 		.long	0x8fd
 2129 0921 02       		.uleb128 0x2
 2130 0922 B2020000 		.long	0x2b2
 2131 0926 02       		.uleb128 0x2
 2132 0927 25030000 		.long	0x325
 2133 092b 02       		.uleb128 0x2
 2134 092c C1020000 		.long	0x2c1
 2135 0930 02       		.uleb128 0x2
 2136 0931 82030000 		.long	0x382
 2137 0935 02       		.uleb128 0x2
 2138 0936 D8040000 		.long	0x4d8
 2139 093a 04       		.uleb128 0x4
 2140 093b 4546495F 		.ascii "EFI_VOLUME_OPEN\0"
 2140      564F4C55 
 2140      4D455F4F 
 2140      50454E00 
 2141 094b 08       		.byte	0x8
 2142 094c 2701     		.word	0x127
 2143 094e 0A       		.byte	0xa
 2144 094f 53090000 		.long	0x953
 2145 0953 02       		.uleb128 0x2
 2146 0954 58090000 		.long	0x958
 2147 0958 05       		.uleb128 0x5
 2148 0959 4C030000 		.long	0x34c
 2149 095d 6C090000 		.long	0x96c
 2150 0961 01       		.uleb128 0x1
 2151 0962 6C090000 		.long	0x96c
 2152 0966 01       		.uleb128 0x1
 2153 0967 BF090000 		.long	0x9bf
 2154 096b 00       		.byte	0
 2155 096c 02       		.uleb128 0x2
 2156 096d 71090000 		.long	0x971
 2157 0971 1C       		.uleb128 0x1c
 2158 0972 5F454649 		.ascii "_EFI_SIMPLE_FILE_SYSTEM_PROTOCOL\0"
 2158      5F53494D 
 2158      504C455F 
 2158      46494C45 
 2158      5F535953 
 2159 0993 10       		.byte	0x10
 2160 0994 08       		.byte	0x8
 2161 0995 2F01     		.word	0x12f
 2162 0997 BF090000 		.long	0x9bf
 2163 099b 0B       		.uleb128 0xb
 2164 099c 7E000000 		.secrel32	.LASF5
 2165 09a0 08       		.byte	0x8
 2166 09a1 3001     		.word	0x130
 2167 09a3 1D       		.byte	0x1d
 2168 09a4 C1020000 		.long	0x2c1
 2169 09a8 00       		.byte	0
 2170 09a9 03       		.uleb128 0x3
 2171 09aa 4F70656E 		.ascii "OpenVolume\0"
 2171      566F6C75 
 2171      6D6500
 2172 09b5 08       		.byte	0x8
 2173 09b6 3101     		.word	0x131
 2174 09b8 1D       		.byte	0x1d
 2175 09b9 3A090000 		.long	0x93a
 2176 09bd 08       		.byte	0x8
 2177 09be 00       		.byte	0
 2178 09bf 02       		.uleb128 0x2
 2179 09c0 C4090000 		.long	0x9c4
 2180 09c4 02       		.uleb128 0x2
 2181 09c5 C9090000 		.long	0x9c9
 2182 09c9 1C       		.uleb128 0x1c
 2183 09ca 5F454649 		.ascii "_EFI_FILE_HANDLE\0"
 2183      5F46494C 
 2183      455F4841 
 2183      4E444C45 
 2183      00
 2184 09db 78       		.byte	0x78
 2185 09dc 08       		.byte	0x8
 2186 09dd C101     		.word	0x1c1
 2187 09df E70A0000 		.long	0xae7
 2188 09e3 0B       		.uleb128 0xb
 2189 09e4 7E000000 		.secrel32	.LASF5
 2190 09e8 08       		.byte	0x8
 2191 09e9 C201     		.word	0x1c2
 2192 09eb 1D       		.byte	0x1d
 2193 09ec C1020000 		.long	0x2c1
 2194 09f0 00       		.byte	0
 2195 09f1 03       		.uleb128 0x3
 2196 09f2 4F70656E 		.ascii "Open\0"
 2196      00
 2197 09f7 08       		.byte	0x8
 2198 09f8 C301     		.word	0x1c3
 2199 09fa 1D       		.byte	0x1d
 2200 09fb 2F0B0000 		.long	0xb2f
 2201 09ff 08       		.byte	0x8
 2202 0a00 03       		.uleb128 0x3
 2203 0a01 436C6F73 		.ascii "Close\0"
 2203      6500
 2204 0a07 08       		.byte	0x8
 2205 0a08 C401     		.word	0x1c4
 2206 0a0a 1D       		.byte	0x1d
 2207 0a0b 6E0B0000 		.long	0xb6e
 2208 0a0f 10       		.byte	0x10
 2209 0a10 03       		.uleb128 0x3
 2210 0a11 44656C65 		.ascii "Delete\0"
 2210      746500
 2211 0a18 08       		.byte	0x8
 2212 0a19 C501     		.word	0x1c5
 2213 0a1b 1D       		.byte	0x1d
 2214 0a1c 9A0B0000 		.long	0xb9a
 2215 0a20 18       		.byte	0x18
 2216 0a21 03       		.uleb128 0x3
 2217 0a22 52656164 		.ascii "Read\0"
 2217      00
 2218 0a27 08       		.byte	0x8
 2219 0a28 C601     		.word	0x1c6
 2220 0a2a 1D       		.byte	0x1d
 2221 0a2b B30B0000 		.long	0xbb3
 2222 0a2f 20       		.byte	0x20
 2223 0a30 03       		.uleb128 0x3
 2224 0a31 57726974 		.ascii "Write\0"
 2224      6500
 2225 0a37 08       		.byte	0x8
 2226 0a38 C701     		.word	0x1c7
 2227 0a3a 1D       		.byte	0x1d
 2228 0a3b E80B0000 		.long	0xbe8
 2229 0a3f 28       		.byte	0x28
 2230 0a40 03       		.uleb128 0x3
 2231 0a41 47657450 		.ascii "GetPosition\0"
 2231      6F736974 
 2231      696F6E00 
 2232 0a4d 08       		.byte	0x8
 2233 0a4e C801     		.word	0x1c8
 2234 0a50 1D       		.byte	0x1d
 2235 0a51 380C0000 		.long	0xc38
 2236 0a55 30       		.byte	0x30
 2237 0a56 03       		.uleb128 0x3
 2238 0a57 53657450 		.ascii "SetPosition\0"
 2238      6F736974 
 2238      696F6E00 
 2239 0a63 08       		.byte	0x8
 2240 0a64 C901     		.word	0x1c9
 2241 0a66 1D       		.byte	0x1d
 2242 0a67 000C0000 		.long	0xc00
 2243 0a6b 38       		.byte	0x38
 2244 0a6c 03       		.uleb128 0x3
 2245 0a6d 47657449 		.ascii "GetInfo\0"
 2245      6E666F00 
 2246 0a75 08       		.byte	0x8
 2247 0a76 CA01     		.word	0x1ca
 2248 0a78 1D       		.byte	0x1d
 2249 0a79 700C0000 		.long	0xc70
 2250 0a7d 40       		.byte	0x40
 2251 0a7e 03       		.uleb128 0x3
 2252 0a7f 53657449 		.ascii "SetInfo\0"
 2252      6E666F00 
 2253 0a87 08       		.byte	0x8
 2254 0a88 CB01     		.word	0x1cb
 2255 0a8a 1D       		.byte	0x1d
 2256 0a8b B30C0000 		.long	0xcb3
 2257 0a8f 48       		.byte	0x48
 2258 0a90 03       		.uleb128 0x3
 2259 0a91 466C7573 		.ascii "Flush\0"
 2259      6800
 2260 0a97 08       		.byte	0x8
 2261 0a98 CC01     		.word	0x1cc
 2262 0a9a 1D       		.byte	0x1d
 2263 0a9b F10C0000 		.long	0xcf1
 2264 0a9f 50       		.byte	0x50
 2265 0aa0 03       		.uleb128 0x3
 2266 0aa1 4F70656E 		.ascii "OpenEx\0"
 2266      457800
 2267 0aa8 08       		.byte	0x8
 2268 0aa9 CD01     		.word	0x1cd
 2269 0aab 1D       		.byte	0x1d
 2270 0aac 680D0000 		.long	0xd68
 2271 0ab0 58       		.byte	0x58
 2272 0ab1 03       		.uleb128 0x3
 2273 0ab2 52656164 		.ascii "ReadEx\0"
 2273      457800
 2274 0ab9 08       		.byte	0x8
 2275 0aba CE01     		.word	0x1ce
 2276 0abc 1D       		.byte	0x1d
 2277 0abd B40D0000 		.long	0xdb4
 2278 0ac1 60       		.byte	0x60
 2279 0ac2 03       		.uleb128 0x3
 2280 0ac3 57726974 		.ascii "WriteEx\0"
 2280      65457800 
 2281 0acb 08       		.byte	0x8
 2282 0acc CF01     		.word	0x1cf
 2283 0ace 1D       		.byte	0x1d
 2284 0acf E70D0000 		.long	0xde7
 2285 0ad3 68       		.byte	0x68
 2286 0ad4 03       		.uleb128 0x3
 2287 0ad5 466C7573 		.ascii "FlushEx\0"
 2287      68457800 
 2288 0add 08       		.byte	0x8
 2289 0ade D001     		.word	0x1d0
 2290 0ae0 1D       		.byte	0x1d
 2291 0ae1 020E0000 		.long	0xe02
 2292 0ae5 70       		.byte	0x70
 2293 0ae6 00       		.byte	0
 2294 0ae7 04       		.uleb128 0x4
 2295 0ae8 4546495F 		.ascii "EFI_SIMPLE_FILE_SYSTEM_PROTOCOL\0"
 2295      53494D50 
 2295      4C455F46 
 2295      494C455F 
 2295      53595354 
 2296 0b08 08       		.byte	0x8
 2297 0b09 3201     		.word	0x132
 2298 0b0b 03       		.byte	0x3
 2299 0b0c 71090000 		.long	0x971
 2300 0b10 04       		.uleb128 0x4
 2301 0b11 4546495F 		.ascii "EFI_FILE_IO_INTERFACE\0"
 2301      46494C45 
 2301      5F494F5F 
 2301      494E5445 
 2301      52464143 
 2302 0b27 08       		.byte	0x8
 2303 0b28 3501     		.word	0x135
 2304 0b2a 29       		.byte	0x29
 2305 0b2b E70A0000 		.long	0xae7
 2306 0b2f 04       		.uleb128 0x4
 2307 0b30 4546495F 		.ascii "EFI_FILE_OPEN\0"
 2307      46494C45 
 2307      5F4F5045 
 2307      4E00
 2308 0b3e 08       		.byte	0x8
 2309 0b3f 3D01     		.word	0x13d
 2310 0b41 0A       		.byte	0xa
 2311 0b42 460B0000 		.long	0xb46
 2312 0b46 02       		.uleb128 0x2
 2313 0b47 4B0B0000 		.long	0xb4b
 2314 0b4b 05       		.uleb128 0x5
 2315 0b4c 4C030000 		.long	0x34c
 2316 0b50 6E0B0000 		.long	0xb6e
 2317 0b54 01       		.uleb128 0x1
 2318 0b55 C4090000 		.long	0x9c4
 2319 0b59 01       		.uleb128 0x1
 2320 0b5a BF090000 		.long	0x9bf
 2321 0b5e 01       		.uleb128 0x1
 2322 0b5f 21090000 		.long	0x921
 2323 0b63 01       		.uleb128 0x1
 2324 0b64 C1020000 		.long	0x2c1
 2325 0b68 01       		.uleb128 0x1
 2326 0b69 C1020000 		.long	0x2c1
 2327 0b6d 00       		.byte	0
 2328 0b6e 04       		.uleb128 0x4
 2329 0b6f 4546495F 		.ascii "EFI_FILE_CLOSE\0"
 2329      46494C45 
 2329      5F434C4F 
 2329      534500
 2330 0b7e 08       		.byte	0x8
 2331 0b7f 5501     		.word	0x155
 2332 0b81 0A       		.byte	0xa
 2333 0b82 860B0000 		.long	0xb86
 2334 0b86 02       		.uleb128 0x2
 2335 0b87 8B0B0000 		.long	0xb8b
 2336 0b8b 05       		.uleb128 0x5
 2337 0b8c 4C030000 		.long	0x34c
 2338 0b90 9A0B0000 		.long	0xb9a
 2339 0b94 01       		.uleb128 0x1
 2340 0b95 C4090000 		.long	0x9c4
 2341 0b99 00       		.byte	0
 2342 0b9a 04       		.uleb128 0x4
 2343 0b9b 4546495F 		.ascii "EFI_FILE_DELETE\0"
 2343      46494C45 
 2343      5F44454C 
 2343      45544500 
 2344 0bab 08       		.byte	0x8
 2345 0bac 5B01     		.word	0x15b
 2346 0bae 0A       		.byte	0xa
 2347 0baf 860B0000 		.long	0xb86
 2348 0bb3 04       		.uleb128 0x4
 2349 0bb4 4546495F 		.ascii "EFI_FILE_READ\0"
 2349      46494C45 
 2349      5F524541 
 2349      4400
 2350 0bc2 08       		.byte	0x8
 2351 0bc3 6101     		.word	0x161
 2352 0bc5 0A       		.byte	0xa
 2353 0bc6 CA0B0000 		.long	0xbca
 2354 0bca 02       		.uleb128 0x2
 2355 0bcb CF0B0000 		.long	0xbcf
 2356 0bcf 05       		.uleb128 0x5
 2357 0bd0 4C030000 		.long	0x34c
 2358 0bd4 E80B0000 		.long	0xbe8
 2359 0bd8 01       		.uleb128 0x1
 2360 0bd9 C4090000 		.long	0x9c4
 2361 0bdd 01       		.uleb128 0x1
 2362 0bde 26090000 		.long	0x926
 2363 0be2 01       		.uleb128 0x1
 2364 0be3 82030000 		.long	0x382
 2365 0be7 00       		.byte	0
 2366 0be8 04       		.uleb128 0x4
 2367 0be9 4546495F 		.ascii "EFI_FILE_WRITE\0"
 2367      46494C45 
 2367      5F575249 
 2367      544500
 2368 0bf8 08       		.byte	0x8
 2369 0bf9 6901     		.word	0x169
 2370 0bfb 0A       		.byte	0xa
 2371 0bfc CA0B0000 		.long	0xbca
 2372 0c00 04       		.uleb128 0x4
 2373 0c01 4546495F 		.ascii "EFI_FILE_SET_POSITION\0"
 2373      46494C45 
 2373      5F534554 
 2373      5F504F53 
 2373      4954494F 
 2374 0c17 08       		.byte	0x8
 2375 0c18 7101     		.word	0x171
 2376 0c1a 0A       		.byte	0xa
 2377 0c1b 1F0C0000 		.long	0xc1f
 2378 0c1f 02       		.uleb128 0x2
 2379 0c20 240C0000 		.long	0xc24
 2380 0c24 05       		.uleb128 0x5
 2381 0c25 4C030000 		.long	0x34c
 2382 0c29 380C0000 		.long	0xc38
 2383 0c2d 01       		.uleb128 0x1
 2384 0c2e C4090000 		.long	0x9c4
 2385 0c32 01       		.uleb128 0x1
 2386 0c33 C1020000 		.long	0x2c1
 2387 0c37 00       		.byte	0
 2388 0c38 04       		.uleb128 0x4
 2389 0c39 4546495F 		.ascii "EFI_FILE_GET_POSITION\0"
 2389      46494C45 
 2389      5F474554 
 2389      5F504F53 
 2389      4954494F 
 2390 0c4f 08       		.byte	0x8
 2391 0c50 7801     		.word	0x178
 2392 0c52 0A       		.byte	0xa
 2393 0c53 570C0000 		.long	0xc57
 2394 0c57 02       		.uleb128 0x2
 2395 0c58 5C0C0000 		.long	0xc5c
 2396 0c5c 05       		.uleb128 0x5
 2397 0c5d 4C030000 		.long	0x34c
 2398 0c61 700C0000 		.long	0xc70
 2399 0c65 01       		.uleb128 0x1
 2400 0c66 C4090000 		.long	0x9c4
 2401 0c6a 01       		.uleb128 0x1
 2402 0c6b 2B090000 		.long	0x92b
 2403 0c6f 00       		.byte	0
 2404 0c70 04       		.uleb128 0x4
 2405 0c71 4546495F 		.ascii "EFI_FILE_GET_INFO\0"
 2405      46494C45 
 2405      5F474554 
 2405      5F494E46 
 2405      4F00
 2406 0c83 08       		.byte	0x8
 2407 0c84 7F01     		.word	0x17f
 2408 0c86 0A       		.byte	0xa
 2409 0c87 8B0C0000 		.long	0xc8b
 2410 0c8b 02       		.uleb128 0x2
 2411 0c8c 900C0000 		.long	0xc90
 2412 0c90 05       		.uleb128 0x5
 2413 0c91 4C030000 		.long	0x34c
 2414 0c95 AE0C0000 		.long	0xcae
 2415 0c99 01       		.uleb128 0x1
 2416 0c9a C4090000 		.long	0x9c4
 2417 0c9e 01       		.uleb128 0x1
 2418 0c9f AE0C0000 		.long	0xcae
 2419 0ca3 01       		.uleb128 0x1
 2420 0ca4 26090000 		.long	0x926
 2421 0ca8 01       		.uleb128 0x1
 2422 0ca9 82030000 		.long	0x382
 2423 0cad 00       		.byte	0
 2424 0cae 02       		.uleb128 0x2
 2425 0caf ED030000 		.long	0x3ed
 2426 0cb3 04       		.uleb128 0x4
 2427 0cb4 4546495F 		.ascii "EFI_FILE_SET_INFO\0"
 2427      46494C45 
 2427      5F534554 
 2427      5F494E46 
 2427      4F00
 2428 0cc6 08       		.byte	0x8
 2429 0cc7 8801     		.word	0x188
 2430 0cc9 0A       		.byte	0xa
 2431 0cca CE0C0000 		.long	0xcce
 2432 0cce 02       		.uleb128 0x2
 2433 0ccf D30C0000 		.long	0xcd3
 2434 0cd3 05       		.uleb128 0x5
 2435 0cd4 4C030000 		.long	0x34c
 2436 0cd8 F10C0000 		.long	0xcf1
 2437 0cdc 01       		.uleb128 0x1
 2438 0cdd C4090000 		.long	0x9c4
 2439 0ce1 01       		.uleb128 0x1
 2440 0ce2 AE0C0000 		.long	0xcae
 2441 0ce6 01       		.uleb128 0x1
 2442 0ce7 25030000 		.long	0x325
 2443 0ceb 01       		.uleb128 0x1
 2444 0cec 82030000 		.long	0x382
 2445 0cf0 00       		.byte	0
 2446 0cf1 04       		.uleb128 0x4
 2447 0cf2 4546495F 		.ascii "EFI_FILE_FLUSH\0"
 2447      46494C45 
 2447      5F464C55 
 2447      534800
 2448 0d01 08       		.byte	0x8
 2449 0d02 9101     		.word	0x191
 2450 0d04 0A       		.byte	0xa
 2451 0d05 860B0000 		.long	0xb86
 2452 0d09 13       		.uleb128 0x13
 2453 0d0a 20       		.byte	0x20
 2454 0d0b 08       		.byte	0x8
 2455 0d0c 9501     		.word	0x195
 2456 0d0e 4D0D0000 		.long	0xd4d
 2457 0d12 03       		.uleb128 0x3
 2458 0d13 4576656E 		.ascii "Event\0"
 2458      7400
 2459 0d19 08       		.byte	0x8
 2460 0d1a 9601     		.word	0x196
 2461 0d1c 15       		.byte	0x15
 2462 0d1d 87030000 		.long	0x387
 2463 0d21 00       		.byte	0
 2464 0d22 0B       		.uleb128 0xb
 2465 0d23 44000000 		.secrel32	.LASF6
 2466 0d27 08       		.byte	0x8
 2467 0d28 9701     		.word	0x197
 2468 0d2a 15       		.byte	0x15
 2469 0d2b 4C030000 		.long	0x34c
 2470 0d2f 08       		.byte	0x8
 2471 0d30 0B       		.uleb128 0xb
 2472 0d31 58000000 		.secrel32	.LASF7
 2473 0d35 08       		.byte	0x8
 2474 0d36 9801     		.word	0x198
 2475 0d38 15       		.byte	0x15
 2476 0d39 25030000 		.long	0x325
 2477 0d3d 10       		.byte	0x10
 2478 0d3e 0B       		.uleb128 0xb
 2479 0d3f 06000000 		.secrel32	.LASF8
 2480 0d43 08       		.byte	0x8
 2481 0d44 9901     		.word	0x199
 2482 0d46 16       		.byte	0x16
 2483 0d47 82030000 		.long	0x382
 2484 0d4b 18       		.byte	0x18
 2485 0d4c 00       		.byte	0
 2486 0d4d 04       		.uleb128 0x4
 2487 0d4e 4546495F 		.ascii "EFI_FILE_IO_TOKEN\0"
 2487      46494C45 
 2487      5F494F5F 
 2487      544F4B45 
 2487      4E00
 2488 0d60 08       		.byte	0x8
 2489 0d61 9A01     		.word	0x19a
 2490 0d63 03       		.byte	0x3
 2491 0d64 090D0000 		.long	0xd09
 2492 0d68 04       		.uleb128 0x4
 2493 0d69 4546495F 		.ascii "EFI_FILE_OPEN_EX\0"
 2493      46494C45 
 2493      5F4F5045 
 2493      4E5F4558 
 2493      00
 2494 0d7a 08       		.byte	0x8
 2495 0d7b 9E01     		.word	0x19e
 2496 0d7d 0A       		.byte	0xa
 2497 0d7e 820D0000 		.long	0xd82
 2498 0d82 02       		.uleb128 0x2
 2499 0d83 870D0000 		.long	0xd87
 2500 0d87 05       		.uleb128 0x5
 2501 0d88 4C030000 		.long	0x34c
 2502 0d8c AF0D0000 		.long	0xdaf
 2503 0d90 01       		.uleb128 0x1
 2504 0d91 C4090000 		.long	0x9c4
 2505 0d95 01       		.uleb128 0x1
 2506 0d96 BF090000 		.long	0x9bf
 2507 0d9a 01       		.uleb128 0x1
 2508 0d9b 21090000 		.long	0x921
 2509 0d9f 01       		.uleb128 0x1
 2510 0da0 C1020000 		.long	0x2c1
 2511 0da4 01       		.uleb128 0x1
 2512 0da5 C1020000 		.long	0x2c1
 2513 0da9 01       		.uleb128 0x1
 2514 0daa AF0D0000 		.long	0xdaf
 2515 0dae 00       		.byte	0
 2516 0daf 02       		.uleb128 0x2
 2517 0db0 4D0D0000 		.long	0xd4d
 2518 0db4 04       		.uleb128 0x4
 2519 0db5 4546495F 		.ascii "EFI_FILE_READ_EX\0"
 2519      46494C45 
 2519      5F524541 
 2519      445F4558 
 2519      00
 2520 0dc6 08       		.byte	0x8
 2521 0dc7 A901     		.word	0x1a9
 2522 0dc9 0A       		.byte	0xa
 2523 0dca CE0D0000 		.long	0xdce
 2524 0dce 02       		.uleb128 0x2
 2525 0dcf D30D0000 		.long	0xdd3
 2526 0dd3 05       		.uleb128 0x5
 2527 0dd4 4C030000 		.long	0x34c
 2528 0dd8 E70D0000 		.long	0xde7
 2529 0ddc 01       		.uleb128 0x1
 2530 0ddd C4090000 		.long	0x9c4
 2531 0de1 01       		.uleb128 0x1
 2532 0de2 AF0D0000 		.long	0xdaf
 2533 0de6 00       		.byte	0
 2534 0de7 04       		.uleb128 0x4
 2535 0de8 4546495F 		.ascii "EFI_FILE_WRITE_EX\0"
 2535      46494C45 
 2535      5F575249 
 2535      54455F45 
 2535      5800
 2536 0dfa 08       		.byte	0x8
 2537 0dfb B001     		.word	0x1b0
 2538 0dfd 0A       		.byte	0xa
 2539 0dfe CE0D0000 		.long	0xdce
 2540 0e02 04       		.uleb128 0x4
 2541 0e03 4546495F 		.ascii "EFI_FILE_FLUSH_EX\0"
 2541      46494C45 
 2541      5F464C55 
 2541      53485F45 
 2541      5800
 2542 0e15 08       		.byte	0x8
 2543 0e16 B701     		.word	0x1b7
 2544 0e18 0A       		.byte	0xa
 2545 0e19 CE0D0000 		.long	0xdce
 2546 0e1d 04       		.uleb128 0x4
 2547 0e1e 4546495F 		.ascii "EFI_FILE_HANDLE\0"
 2547      46494C45 
 2547      5F48414E 
 2547      444C4500 
 2548 0e2e 08       		.byte	0x8
 2549 0e2f D101     		.word	0x1d1
 2550 0e31 17       		.byte	0x17
 2551 0e32 C4090000 		.long	0x9c4
 2552 0e36 13       		.uleb128 0x13
 2553 0e37 58       		.byte	0x58
 2554 0e38 08       		.byte	0x8
 2555 0e39 DD01     		.word	0x1dd
 2556 0e3b E30E0000 		.long	0xee3
 2557 0e3f 03       		.uleb128 0x3
 2558 0e40 53697A65 		.ascii "Size\0"
 2558      00
 2559 0e45 08       		.byte	0x8
 2560 0e46 DE01     		.word	0x1de
 2561 0e48 1D       		.byte	0x1d
 2562 0e49 C1020000 		.long	0x2c1
 2563 0e4d 00       		.byte	0
 2564 0e4e 03       		.uleb128 0x3
 2565 0e4f 46696C65 		.ascii "FileSize\0"
 2565      53697A65 
 2565      00
 2566 0e58 08       		.byte	0x8
 2567 0e59 DF01     		.word	0x1df
 2568 0e5b 1D       		.byte	0x1d
 2569 0e5c C1020000 		.long	0x2c1
 2570 0e60 08       		.byte	0x8
 2571 0e61 03       		.uleb128 0x3
 2572 0e62 50687973 		.ascii "PhysicalSize\0"
 2572      6963616C 
 2572      53697A65 
 2572      00
 2573 0e6f 08       		.byte	0x8
 2574 0e70 E001     		.word	0x1e0
 2575 0e72 1D       		.byte	0x1d
 2576 0e73 C1020000 		.long	0x2c1
 2577 0e77 10       		.byte	0x10
 2578 0e78 03       		.uleb128 0x3
 2579 0e79 43726561 		.ascii "CreateTime\0"
 2579      74655469 
 2579      6D6500
 2580 0e84 08       		.byte	0x8
 2581 0e85 E101     		.word	0x1e1
 2582 0e87 1D       		.byte	0x1d
 2583 0e88 B7040000 		.long	0x4b7
 2584 0e8c 18       		.byte	0x18
 2585 0e8d 03       		.uleb128 0x3
 2586 0e8e 4C617374 		.ascii "LastAccessTime\0"
 2586      41636365 
 2586      73735469 
 2586      6D6500
 2587 0e9d 08       		.byte	0x8
 2588 0e9e E201     		.word	0x1e2
 2589 0ea0 1D       		.byte	0x1d
 2590 0ea1 B7040000 		.long	0x4b7
 2591 0ea5 28       		.byte	0x28
 2592 0ea6 03       		.uleb128 0x3
 2593 0ea7 4D6F6469 		.ascii "ModificationTime\0"
 2593      66696361 
 2593      74696F6E 
 2593      54696D65 
 2593      00
 2594 0eb8 08       		.byte	0x8
 2595 0eb9 E301     		.word	0x1e3
 2596 0ebb 1D       		.byte	0x1d
 2597 0ebc B7040000 		.long	0x4b7
 2598 0ec0 38       		.byte	0x38
 2599 0ec1 0B       		.uleb128 0xb
 2600 0ec2 17000000 		.secrel32	.LASF2
 2601 0ec6 08       		.byte	0x8
 2602 0ec7 E401     		.word	0x1e4
 2603 0ec9 1D       		.byte	0x1d
 2604 0eca C1020000 		.long	0x2c1
 2605 0ece 48       		.byte	0x48
 2606 0ecf 03       		.uleb128 0x3
 2607 0ed0 46696C65 		.ascii "FileName\0"
 2607      4E616D65 
 2607      00
 2608 0ed9 08       		.byte	0x8
 2609 0eda E501     		.word	0x1e5
 2610 0edc 1D       		.byte	0x1d
 2611 0edd 42080000 		.long	0x842
 2612 0ee1 50       		.byte	0x50
 2613 0ee2 00       		.byte	0
 2614 0ee3 04       		.uleb128 0x4
 2615 0ee4 4546495F 		.ascii "EFI_FILE_INFO\0"
 2615      46494C45 
 2615      5F494E46 
 2615      4F00
 2616 0ef2 08       		.byte	0x8
 2617 0ef3 E601     		.word	0x1e6
 2618 0ef5 03       		.byte	0x3
 2619 0ef6 360E0000 		.long	0xe36
 2620 0efa 13       		.uleb128 0x13
 2621 0efb 28       		.byte	0x28
 2622 0efc 08       		.byte	0x8
 2623 0efd F501     		.word	0x1f5
 2624 0eff 710F0000 		.long	0xf71
 2625 0f03 03       		.uleb128 0x3
 2626 0f04 53697A65 		.ascii "Size\0"
 2626      00
 2627 0f09 08       		.byte	0x8
 2628 0f0a F601     		.word	0x1f6
 2629 0f0c 1D       		.byte	0x1d
 2630 0f0d C1020000 		.long	0x2c1
 2631 0f11 00       		.byte	0
 2632 0f12 03       		.uleb128 0x3
 2633 0f13 52656164 		.ascii "ReadOnly\0"
 2633      4F6E6C79 
 2633      00
 2634 0f1c 08       		.byte	0x8
 2635 0f1d F701     		.word	0x1f7
 2636 0f1f 1D       		.byte	0x1d
 2637 0f20 33030000 		.long	0x333
 2638 0f24 08       		.byte	0x8
 2639 0f25 03       		.uleb128 0x3
 2640 0f26 566F6C75 		.ascii "VolumeSize\0"
 2640      6D655369 
 2640      7A6500
 2641 0f31 08       		.byte	0x8
 2642 0f32 F801     		.word	0x1f8
 2643 0f34 1D       		.byte	0x1d
 2644 0f35 C1020000 		.long	0x2c1
 2645 0f39 10       		.byte	0x10
 2646 0f3a 03       		.uleb128 0x3
 2647 0f3b 46726565 		.ascii "FreeSpace\0"
 2647      53706163 
 2647      6500
 2648 0f45 08       		.byte	0x8
 2649 0f46 F901     		.word	0x1f9
 2650 0f48 1D       		.byte	0x1d
 2651 0f49 C1020000 		.long	0x2c1
 2652 0f4d 18       		.byte	0x18
 2653 0f4e 03       		.uleb128 0x3
 2654 0f4f 426C6F63 		.ascii "BlockSize\0"
 2654      6B53697A 
 2654      6500
 2655 0f59 08       		.byte	0x8
 2656 0f5a FA01     		.word	0x1fa
 2657 0f5c 1D       		.byte	0x1d
 2658 0f5d D0020000 		.long	0x2d0
 2659 0f61 20       		.byte	0x20
 2660 0f62 0B       		.uleb128 0xb
 2661 0f63 38000000 		.secrel32	.LASF9
 2662 0f67 08       		.byte	0x8
 2663 0f68 FB01     		.word	0x1fb
 2664 0f6a 1D       		.byte	0x1d
 2665 0f6b 42080000 		.long	0x842
 2666 0f6f 24       		.byte	0x24
 2667 0f70 00       		.byte	0
 2668 0f71 04       		.uleb128 0x4
 2669 0f72 4546495F 		.ascii "EFI_FILE_SYSTEM_INFO\0"
 2669      46494C45 
 2669      5F535953 
 2669      54454D5F 
 2669      494E464F 
 2670 0f87 08       		.byte	0x8
 2671 0f88 FC01     		.word	0x1fc
 2672 0f8a 03       		.byte	0x3
 2673 0f8b FA0E0000 		.long	0xefa
 2674 0f8f 13       		.uleb128 0x13
 2675 0f90 02       		.byte	0x2
 2676 0f91 08       		.byte	0x8
 2677 0f92 0B02     		.word	0x20b
 2678 0f94 A70F0000 		.long	0xfa7
 2679 0f98 0B       		.uleb128 0xb
 2680 0f99 38000000 		.secrel32	.LASF9
 2681 0f9d 08       		.byte	0x8
 2682 0f9e 0C02     		.word	0x20c
 2683 0fa0 1D       		.byte	0x1d
 2684 0fa1 42080000 		.long	0x842
 2685 0fa5 00       		.byte	0
 2686 0fa6 00       		.byte	0
 2687 0fa7 04       		.uleb128 0x4
 2688 0fa8 4546495F 		.ascii "EFI_FILE_SYSTEM_VOLUME_LABEL\0"
 2688      46494C45 
 2688      5F535953 
 2688      54454D5F 
 2688      564F4C55 
 2689 0fc5 08       		.byte	0x8
 2690 0fc6 0D02     		.word	0x20d
 2691 0fc8 03       		.byte	0x3
 2692 0fc9 8F0F0000 		.long	0xf8f
 2693 0fcd 02       		.uleb128 0x2
 2694 0fce 2A080000 		.long	0x82a
 2695 0fd2 02       		.uleb128 0x2
 2696 0fd3 CD0F0000 		.long	0xfcd
 2697 0fd7 02       		.uleb128 0x2
 2698 0fd8 FE030000 		.long	0x3fe
 2699 0fdc 02       		.uleb128 0x2
 2700 0fdd 6F030000 		.long	0x36f
 2701 0fe1 02       		.uleb128 0x2
 2702 0fe2 D0020000 		.long	0x2d0
 2703 0fe6 02       		.uleb128 0x2
 2704 0fe7 21090000 		.long	0x921
 2705 0feb 04       		.uleb128 0x4
 2706 0fec 4546495F 		.ascii "EFI_IMAGE_UNLOAD\0"
 2706      494D4147 
 2706      455F554E 
 2706      4C4F4144 
 2706      00
 2707 0ffd 08       		.byte	0x8
 2708 0ffe C604     		.word	0x4c6
 2709 1000 0A       		.byte	0xa
 2710 1001 05100000 		.long	0x1005
 2711 1005 02       		.uleb128 0x2
 2712 1006 0A100000 		.long	0x100a
 2713 100a 05       		.uleb128 0x5
 2714 100b 4C030000 		.long	0x34c
 2715 100f 19100000 		.long	0x1019
 2716 1013 01       		.uleb128 0x1
 2717 1014 6F030000 		.long	0x36f
 2718 1018 00       		.byte	0
 2719 1019 06       		.uleb128 0x6
 2720 101a 4546495F 		.ascii "EFI_ALLOCATE_PAGES\0"
 2720      414C4C4F 
 2720      43415445 
 2720      5F504147 
 2720      455300
 2721 102d 09       		.byte	0x9
 2722 102e 2C       		.byte	0x2c
 2723 102f 0A       		.byte	0xa
 2724 1030 34100000 		.long	0x1034
 2725 1034 02       		.uleb128 0x2
 2726 1035 39100000 		.long	0x1039
 2727 1039 05       		.uleb128 0x5
 2728 103a 4C030000 		.long	0x34c
 2729 103e 57100000 		.long	0x1057
 2730 1042 01       		.uleb128 0x1
 2731 1043 69050000 		.long	0x569
 2732 1047 01       		.uleb128 0x1
 2733 1048 FC060000 		.long	0x6fc
 2734 104c 01       		.uleb128 0x1
 2735 104d 25030000 		.long	0x325
 2736 1051 01       		.uleb128 0x1
 2737 1052 35090000 		.long	0x935
 2738 1056 00       		.byte	0
 2739 1057 06       		.uleb128 0x6
 2740 1058 4546495F 		.ascii "EFI_FREE_PAGES\0"
 2740      46524545 
 2740      5F504147 
 2740      455300
 2741 1067 09       		.byte	0x9
 2742 1068 35       		.byte	0x35
 2743 1069 0A       		.byte	0xa
 2744 106a 6E100000 		.long	0x106e
 2745 106e 02       		.uleb128 0x2
 2746 106f 73100000 		.long	0x1073
 2747 1073 05       		.uleb128 0x5
 2748 1074 4C030000 		.long	0x34c
 2749 1078 87100000 		.long	0x1087
 2750 107c 01       		.uleb128 0x1
 2751 107d D8040000 		.long	0x4d8
 2752 1081 01       		.uleb128 0x1
 2753 1082 25030000 		.long	0x325
 2754 1086 00       		.byte	0
 2755 1087 06       		.uleb128 0x6
 2756 1088 4546495F 		.ascii "EFI_GET_MEMORY_MAP\0"
 2756      4745545F 
 2756      4D454D4F 
 2756      52595F4D 
 2756      415000
 2757 109b 09       		.byte	0x9
 2758 109c 3C       		.byte	0x3c
 2759 109d 0A       		.byte	0xa
 2760 109e A2100000 		.long	0x10a2
 2761 10a2 02       		.uleb128 0x2
 2762 10a3 A7100000 		.long	0x10a7
 2763 10a7 05       		.uleb128 0x5
 2764 10a8 4C030000 		.long	0x34c
 2765 10ac CA100000 		.long	0x10ca
 2766 10b0 01       		.uleb128 0x1
 2767 10b1 26090000 		.long	0x926
 2768 10b5 01       		.uleb128 0x1
 2769 10b6 CA100000 		.long	0x10ca
 2770 10ba 01       		.uleb128 0x1
 2771 10bb 26090000 		.long	0x926
 2772 10bf 01       		.uleb128 0x1
 2773 10c0 26090000 		.long	0x926
 2774 10c4 01       		.uleb128 0x1
 2775 10c5 E10F0000 		.long	0xfe1
 2776 10c9 00       		.byte	0
 2777 10ca 02       		.uleb128 0x2
 2778 10cb 88070000 		.long	0x788
 2779 10cf 06       		.uleb128 0x6
 2780 10d0 4546495F 		.ascii "EFI_ALLOCATE_POOL\0"
 2780      414C4C4F 
 2780      43415445 
 2780      5F504F4F 
 2780      4C00
 2781 10e2 09       		.byte	0x9
 2782 10e3 49       		.byte	0x49
 2783 10e4 0A       		.byte	0xa
 2784 10e5 E9100000 		.long	0x10e9
 2785 10e9 02       		.uleb128 0x2
 2786 10ea EE100000 		.long	0x10ee
 2787 10ee 05       		.uleb128 0x5
 2788 10ef 4C030000 		.long	0x34c
 2789 10f3 07110000 		.long	0x1107
 2790 10f7 01       		.uleb128 0x1
 2791 10f8 FC060000 		.long	0x6fc
 2792 10fc 01       		.uleb128 0x1
 2793 10fd 25030000 		.long	0x325
 2794 1101 01       		.uleb128 0x1
 2795 1102 30090000 		.long	0x930
 2796 1106 00       		.byte	0
 2797 1107 06       		.uleb128 0x6
 2798 1108 4546495F 		.ascii "EFI_FREE_POOL\0"
 2798      46524545 
 2798      5F504F4F 
 2798      4C00
 2799 1116 09       		.byte	0x9
 2800 1117 51       		.byte	0x51
 2801 1118 0A       		.byte	0xa
 2802 1119 1D110000 		.long	0x111d
 2803 111d 02       		.uleb128 0x2
 2804 111e 22110000 		.long	0x1122
 2805 1122 05       		.uleb128 0x5
 2806 1123 4C030000 		.long	0x34c
 2807 1127 31110000 		.long	0x1131
 2808 112b 01       		.uleb128 0x1
 2809 112c 82030000 		.long	0x382
 2810 1130 00       		.byte	0
 2811 1131 06       		.uleb128 0x6
 2812 1132 4546495F 		.ascii "EFI_EVENT_NOTIFY\0"
 2812      4556454E 
 2812      545F4E4F 
 2812      54494659 
 2812      00
 2813 1143 09       		.byte	0x9
 2814 1144 8A       		.byte	0x8a
 2815 1145 0A       		.byte	0xa
 2816 1146 4A110000 		.long	0x114a
 2817 114a 02       		.uleb128 0x2
 2818 114b 4F110000 		.long	0x114f
 2819 114f 1D       		.uleb128 0x1d
 2820 1150 5F110000 		.long	0x115f
 2821 1154 01       		.uleb128 0x1
 2822 1155 87030000 		.long	0x387
 2823 1159 01       		.uleb128 0x1
 2824 115a 82030000 		.long	0x382
 2825 115e 00       		.byte	0
 2826 115f 06       		.uleb128 0x6
 2827 1160 4546495F 		.ascii "EFI_CREATE_EVENT\0"
 2827      43524541 
 2827      54455F45 
 2827      56454E54 
 2827      00
 2828 1171 09       		.byte	0x9
 2829 1172 91       		.byte	0x91
 2830 1173 0A       		.byte	0xa
 2831 1174 78110000 		.long	0x1178
 2832 1178 02       		.uleb128 0x2
 2833 1179 7D110000 		.long	0x117d
 2834 117d 05       		.uleb128 0x5
 2835 117e 4C030000 		.long	0x34c
 2836 1182 A0110000 		.long	0x11a0
 2837 1186 01       		.uleb128 0x1
 2838 1187 D0020000 		.long	0x2d0
 2839 118b 01       		.uleb128 0x1
 2840 118c 5F030000 		.long	0x35f
 2841 1190 01       		.uleb128 0x1
 2842 1191 31110000 		.long	0x1131
 2843 1195 01       		.uleb128 0x1
 2844 1196 82030000 		.long	0x382
 2845 119a 01       		.uleb128 0x1
 2846 119b A0110000 		.long	0x11a0
 2847 119f 00       		.byte	0
 2848 11a0 02       		.uleb128 0x2
 2849 11a1 87030000 		.long	0x387
 2850 11a5 26       		.uleb128 0x26
 2851 11a6 DF010000 		.long	0x1df
 2852 11aa 09       		.byte	0x9
 2853 11ab 99       		.byte	0x99
 2854 11ac EE110000 		.long	0x11ee
 2855 11b0 08       		.uleb128 0x8
 2856 11b1 54696D65 		.ascii "TimerCancel\0"
 2856      7243616E 
 2856      63656C00 
 2857 11bd 00       		.byte	0
 2858 11be 08       		.uleb128 0x8
 2859 11bf 54696D65 		.ascii "TimerPeriodic\0"
 2859      72506572 
 2859      696F6469 
 2859      6300
 2860 11cd 01       		.byte	0x1
 2861 11ce 08       		.uleb128 0x8
 2862 11cf 54696D65 		.ascii "TimerRelative\0"
 2862      7252656C 
 2862      61746976 
 2862      6500
 2863 11dd 02       		.byte	0x2
 2864 11de 08       		.uleb128 0x8
 2865 11df 54696D65 		.ascii "TimerTypeMax\0"
 2865      72547970 
 2865      654D6178 
 2865      00
 2866 11ec 03       		.byte	0x3
 2867 11ed 00       		.byte	0
 2868 11ee 06       		.uleb128 0x6
 2869 11ef 4546495F 		.ascii "EFI_TIMER_DELAY\0"
 2869      54494D45 
 2869      525F4445 
 2869      4C415900 
 2870 11ff 09       		.byte	0x9
 2871 1200 9E       		.byte	0x9e
 2872 1201 03       		.byte	0x3
 2873 1202 A5110000 		.long	0x11a5
 2874 1206 06       		.uleb128 0x6
 2875 1207 4546495F 		.ascii "EFI_SET_TIMER\0"
 2875      5345545F 
 2875      54494D45 
 2875      5200
 2876 1215 09       		.byte	0x9
 2877 1216 A2       		.byte	0xa2
 2878 1217 0A       		.byte	0xa
 2879 1218 1C120000 		.long	0x121c
 2880 121c 02       		.uleb128 0x2
 2881 121d 21120000 		.long	0x1221
 2882 1221 05       		.uleb128 0x5
 2883 1222 4C030000 		.long	0x34c
 2884 1226 3A120000 		.long	0x123a
 2885 122a 01       		.uleb128 0x1
 2886 122b 87030000 		.long	0x387
 2887 122f 01       		.uleb128 0x1
 2888 1230 EE110000 		.long	0x11ee
 2889 1234 01       		.uleb128 0x1
 2890 1235 C1020000 		.long	0x2c1
 2891 1239 00       		.byte	0
 2892 123a 06       		.uleb128 0x6
 2893 123b 4546495F 		.ascii "EFI_SIGNAL_EVENT\0"
 2893      5349474E 
 2893      414C5F45 
 2893      56454E54 
 2893      00
 2894 124c 09       		.byte	0x9
 2895 124d AA       		.byte	0xaa
 2896 124e 0A       		.byte	0xa
 2897 124f 53120000 		.long	0x1253
 2898 1253 02       		.uleb128 0x2
 2899 1254 58120000 		.long	0x1258
 2900 1258 05       		.uleb128 0x5
 2901 1259 4C030000 		.long	0x34c
 2902 125d 67120000 		.long	0x1267
 2903 1261 01       		.uleb128 0x1
 2904 1262 87030000 		.long	0x387
 2905 1266 00       		.byte	0
 2906 1267 06       		.uleb128 0x6
 2907 1268 4546495F 		.ascii "EFI_WAIT_FOR_EVENT\0"
 2907      57414954 
 2907      5F464F52 
 2907      5F455645 
 2907      4E5400
 2908 127b 09       		.byte	0x9
 2909 127c B0       		.byte	0xb0
 2910 127d 0A       		.byte	0xa
 2911 127e 82120000 		.long	0x1282
 2912 1282 02       		.uleb128 0x2
 2913 1283 87120000 		.long	0x1287
 2914 1287 05       		.uleb128 0x5
 2915 1288 4C030000 		.long	0x34c
 2916 128c A0120000 		.long	0x12a0
 2917 1290 01       		.uleb128 0x1
 2918 1291 25030000 		.long	0x325
 2919 1295 01       		.uleb128 0x1
 2920 1296 A0110000 		.long	0x11a0
 2921 129a 01       		.uleb128 0x1
 2922 129b 26090000 		.long	0x926
 2923 129f 00       		.byte	0
 2924 12a0 06       		.uleb128 0x6
 2925 12a1 4546495F 		.ascii "EFI_CLOSE_EVENT\0"
 2925      434C4F53 
 2925      455F4556 
 2925      454E5400 
 2926 12b1 09       		.byte	0x9
 2927 12b2 B8       		.byte	0xb8
 2928 12b3 0A       		.byte	0xa
 2929 12b4 53120000 		.long	0x1253
 2930 12b8 06       		.uleb128 0x6
 2931 12b9 4546495F 		.ascii "EFI_CHECK_EVENT\0"
 2931      43484543 
 2931      4B5F4556 
 2931      454E5400 
 2932 12c9 09       		.byte	0x9
 2933 12ca BE       		.byte	0xbe
 2934 12cb 0A       		.byte	0xa
 2935 12cc 53120000 		.long	0x1253
 2936 12d0 06       		.uleb128 0x6
 2937 12d1 4546495F 		.ascii "EFI_RAISE_TPL\0"
 2937      52414953 
 2937      455F5450 
 2937      4C00
 2938 12df 09       		.byte	0x9
 2939 12e0 D0       		.byte	0xd0
 2940 12e1 0A       		.byte	0xa
 2941 12e2 E6120000 		.long	0x12e6
 2942 12e6 02       		.uleb128 0x2
 2943 12e7 EB120000 		.long	0x12eb
 2944 12eb 05       		.uleb128 0x5
 2945 12ec 5F030000 		.long	0x35f
 2946 12f0 FA120000 		.long	0x12fa
 2947 12f4 01       		.uleb128 0x1
 2948 12f5 5F030000 		.long	0x35f
 2949 12f9 00       		.byte	0
 2950 12fa 06       		.uleb128 0x6
 2951 12fb 4546495F 		.ascii "EFI_RESTORE_TPL\0"
 2951      52455354 
 2951      4F52455F 
 2951      54504C00 
 2952 130b 09       		.byte	0x9
 2953 130c D6       		.byte	0xd6
 2954 130d 0A       		.byte	0xa
 2955 130e 12130000 		.long	0x1312
 2956 1312 02       		.uleb128 0x2
 2957 1313 17130000 		.long	0x1317
 2958 1317 1D       		.uleb128 0x1d
 2959 1318 22130000 		.long	0x1322
 2960 131c 01       		.uleb128 0x1
 2961 131d 5F030000 		.long	0x35f
 2962 1321 00       		.byte	0
 2963 1322 04       		.uleb128 0x4
 2964 1323 4546495F 		.ascii "EFI_IMAGE_LOAD\0"
 2964      494D4147 
 2964      455F4C4F 
 2964      414400
 2965 1332 09       		.byte	0x9
 2966 1333 7B01     		.word	0x17b
 2967 1335 0A       		.byte	0xa
 2968 1336 3A130000 		.long	0x133a
 2969 133a 02       		.uleb128 0x2
 2970 133b 3F130000 		.long	0x133f
 2971 133f 05       		.uleb128 0x5
 2972 1340 4C030000 		.long	0x34c
 2973 1344 67130000 		.long	0x1367
 2974 1348 01       		.uleb128 0x1
 2975 1349 33030000 		.long	0x333
 2976 134d 01       		.uleb128 0x1
 2977 134e 6F030000 		.long	0x36f
 2978 1352 01       		.uleb128 0x1
 2979 1353 CD0F0000 		.long	0xfcd
 2980 1357 01       		.uleb128 0x1
 2981 1358 82030000 		.long	0x382
 2982 135c 01       		.uleb128 0x1
 2983 135d 25030000 		.long	0x325
 2984 1361 01       		.uleb128 0x1
 2985 1362 DC0F0000 		.long	0xfdc
 2986 1366 00       		.byte	0
 2987 1367 04       		.uleb128 0x4
 2988 1368 4546495F 		.ascii "EFI_IMAGE_START\0"
 2988      494D4147 
 2988      455F5354 
 2988      41525400 
 2989 1378 09       		.byte	0x9
 2990 1379 8601     		.word	0x186
 2991 137b 0A       		.byte	0xa
 2992 137c 80130000 		.long	0x1380
 2993 1380 02       		.uleb128 0x2
 2994 1381 85130000 		.long	0x1385
 2995 1385 05       		.uleb128 0x5
 2996 1386 4C030000 		.long	0x34c
 2997 138a 9E130000 		.long	0x139e
 2998 138e 01       		.uleb128 0x1
 2999 138f 6F030000 		.long	0x36f
 3000 1393 01       		.uleb128 0x1
 3001 1394 26090000 		.long	0x926
 3002 1398 01       		.uleb128 0x1
 3003 1399 E60F0000 		.long	0xfe6
 3004 139d 00       		.byte	0
 3005 139e 04       		.uleb128 0x4
 3006 139f 4546495F 		.ascii "EFI_EXIT\0"
 3006      45584954 
 3006      00
 3007 13a8 09       		.byte	0x9
 3008 13a9 8E01     		.word	0x18e
 3009 13ab 0A       		.byte	0xa
 3010 13ac B0130000 		.long	0x13b0
 3011 13b0 02       		.uleb128 0x2
 3012 13b1 B5130000 		.long	0x13b5
 3013 13b5 05       		.uleb128 0x5
 3014 13b6 4C030000 		.long	0x34c
 3015 13ba D3130000 		.long	0x13d3
 3016 13be 01       		.uleb128 0x1
 3017 13bf 6F030000 		.long	0x36f
 3018 13c3 01       		.uleb128 0x1
 3019 13c4 4C030000 		.long	0x34c
 3020 13c8 01       		.uleb128 0x1
 3021 13c9 25030000 		.long	0x325
 3022 13cd 01       		.uleb128 0x1
 3023 13ce 21090000 		.long	0x921
 3024 13d2 00       		.byte	0
 3025 13d3 04       		.uleb128 0x4
 3026 13d4 4546495F 		.ascii "EFI_EXIT_BOOT_SERVICES\0"
 3026      45584954 
 3026      5F424F4F 
 3026      545F5345 
 3026      52564943 
 3027 13eb 09       		.byte	0x9
 3028 13ec B701     		.word	0x1b7
 3029 13ee 0A       		.byte	0xa
 3030 13ef F3130000 		.long	0x13f3
 3031 13f3 02       		.uleb128 0x2
 3032 13f4 F8130000 		.long	0x13f8
 3033 13f8 05       		.uleb128 0x5
 3034 13f9 4C030000 		.long	0x34c
 3035 13fd 0C140000 		.long	0x140c
 3036 1401 01       		.uleb128 0x1
 3037 1402 6F030000 		.long	0x36f
 3038 1406 01       		.uleb128 0x1
 3039 1407 25030000 		.long	0x325
 3040 140b 00       		.byte	0
 3041 140c 04       		.uleb128 0x4
 3042 140d 4546495F 		.ascii "EFI_STALL\0"
 3042      5354414C 
 3042      4C00
 3043 1417 09       		.byte	0x9
 3044 1418 C301     		.word	0x1c3
 3045 141a 0A       		.byte	0xa
 3046 141b 1F140000 		.long	0x141f
 3047 141f 02       		.uleb128 0x2
 3048 1420 24140000 		.long	0x1424
 3049 1424 05       		.uleb128 0x5
 3050 1425 4C030000 		.long	0x34c
 3051 1429 33140000 		.long	0x1433
 3052 142d 01       		.uleb128 0x1
 3053 142e 25030000 		.long	0x325
 3054 1432 00       		.byte	0
 3055 1433 04       		.uleb128 0x4
 3056 1434 4546495F 		.ascii "EFI_SET_WATCHDOG_TIMER\0"
 3056      5345545F 
 3056      57415443 
 3056      48444F47 
 3056      5F54494D 
 3057 144b 09       		.byte	0x9
 3058 144c C901     		.word	0x1c9
 3059 144e 0A       		.byte	0xa
 3060 144f 53140000 		.long	0x1453
 3061 1453 02       		.uleb128 0x2
 3062 1454 58140000 		.long	0x1458
 3063 1458 05       		.uleb128 0x5
 3064 1459 4C030000 		.long	0x34c
 3065 145d 76140000 		.long	0x1476
 3066 1461 01       		.uleb128 0x1
 3067 1462 25030000 		.long	0x325
 3068 1466 01       		.uleb128 0x1
 3069 1467 C1020000 		.long	0x2c1
 3070 146b 01       		.uleb128 0x1
 3071 146c 25030000 		.long	0x325
 3072 1470 01       		.uleb128 0x1
 3073 1471 21090000 		.long	0x921
 3074 1475 00       		.byte	0
 3075 1476 04       		.uleb128 0x4
 3076 1477 4546495F 		.ascii "EFI_CONNECT_CONTROLLER\0"
 3076      434F4E4E 
 3076      4543545F 
 3076      434F4E54 
 3076      524F4C4C 
 3077 148e 09       		.byte	0x9
 3078 148f D201     		.word	0x1d2
 3079 1491 0A       		.byte	0xa
 3080 1492 96140000 		.long	0x1496
 3081 1496 02       		.uleb128 0x2
 3082 1497 9B140000 		.long	0x149b
 3083 149b 05       		.uleb128 0x5
 3084 149c 4C030000 		.long	0x34c
 3085 14a0 B9140000 		.long	0x14b9
 3086 14a4 01       		.uleb128 0x1
 3087 14a5 6F030000 		.long	0x36f
 3088 14a9 01       		.uleb128 0x1
 3089 14aa DC0F0000 		.long	0xfdc
 3090 14ae 01       		.uleb128 0x1
 3091 14af CD0F0000 		.long	0xfcd
 3092 14b3 01       		.uleb128 0x1
 3093 14b4 33030000 		.long	0x333
 3094 14b8 00       		.byte	0
 3095 14b9 04       		.uleb128 0x4
 3096 14ba 4546495F 		.ascii "EFI_DISCONNECT_CONTROLLER\0"
 3096      44495343 
 3096      4F4E4E45 
 3096      43545F43 
 3096      4F4E5452 
 3097 14d4 09       		.byte	0x9
 3098 14d5 DB01     		.word	0x1db
 3099 14d7 0A       		.byte	0xa
 3100 14d8 DC140000 		.long	0x14dc
 3101 14dc 02       		.uleb128 0x2
 3102 14dd E1140000 		.long	0x14e1
 3103 14e1 05       		.uleb128 0x5
 3104 14e2 4C030000 		.long	0x34c
 3105 14e6 FA140000 		.long	0x14fa
 3106 14ea 01       		.uleb128 0x1
 3107 14eb 6F030000 		.long	0x36f
 3108 14ef 01       		.uleb128 0x1
 3109 14f0 6F030000 		.long	0x36f
 3110 14f4 01       		.uleb128 0x1
 3111 14f5 6F030000 		.long	0x36f
 3112 14f9 00       		.byte	0
 3113 14fa 04       		.uleb128 0x4
 3114 14fb 4546495F 		.ascii "EFI_OPEN_PROTOCOL\0"
 3114      4F50454E 
 3114      5F50524F 
 3114      544F434F 
 3114      4C00
 3115 150d 09       		.byte	0x9
 3116 150e EA01     		.word	0x1ea
 3117 1510 0A       		.byte	0xa
 3118 1511 15150000 		.long	0x1515
 3119 1515 02       		.uleb128 0x2
 3120 1516 1A150000 		.long	0x151a
 3121 151a 05       		.uleb128 0x5
 3122 151b 4C030000 		.long	0x34c
 3123 151f 42150000 		.long	0x1542
 3124 1523 01       		.uleb128 0x1
 3125 1524 6F030000 		.long	0x36f
 3126 1528 01       		.uleb128 0x1
 3127 1529 AE0C0000 		.long	0xcae
 3128 152d 01       		.uleb128 0x1
 3129 152e 30090000 		.long	0x930
 3130 1532 01       		.uleb128 0x1
 3131 1533 6F030000 		.long	0x36f
 3132 1537 01       		.uleb128 0x1
 3133 1538 6F030000 		.long	0x36f
 3134 153c 01       		.uleb128 0x1
 3135 153d D0020000 		.long	0x2d0
 3136 1541 00       		.byte	0
 3137 1542 04       		.uleb128 0x4
 3138 1543 4546495F 		.ascii "EFI_CLOSE_PROTOCOL\0"
 3138      434C4F53 
 3138      455F5052 
 3138      4F544F43 
 3138      4F4C00
 3139 1556 09       		.byte	0x9
 3140 1557 F501     		.word	0x1f5
 3141 1559 0A       		.byte	0xa
 3142 155a 5E150000 		.long	0x155e
 3143 155e 02       		.uleb128 0x2
 3144 155f 63150000 		.long	0x1563
 3145 1563 05       		.uleb128 0x5
 3146 1564 4C030000 		.long	0x34c
 3147 1568 81150000 		.long	0x1581
 3148 156c 01       		.uleb128 0x1
 3149 156d 6F030000 		.long	0x36f
 3150 1571 01       		.uleb128 0x1
 3151 1572 AE0C0000 		.long	0xcae
 3152 1576 01       		.uleb128 0x1
 3153 1577 6F030000 		.long	0x36f
 3154 157b 01       		.uleb128 0x1
 3155 157c 6F030000 		.long	0x36f
 3156 1580 00       		.byte	0
 3157 1581 13       		.uleb128 0x13
 3158 1582 18       		.byte	0x18
 3159 1583 09       		.byte	0x9
 3160 1584 FC01     		.word	0x1fc
 3161 1586 E5150000 		.long	0x15e5
 3162 158a 03       		.uleb128 0x3
 3163 158b 4167656E 		.ascii "AgentHandle\0"
 3163      7448616E 
 3163      646C6500 
 3164 1597 09       		.byte	0x9
 3165 1598 FD01     		.word	0x1fd
 3166 159a 21       		.byte	0x21
 3167 159b 6F030000 		.long	0x36f
 3168 159f 00       		.byte	0
 3169 15a0 03       		.uleb128 0x3
 3170 15a1 436F6E74 		.ascii "ControllerHandle\0"
 3170      726F6C6C 
 3170      65724861 
 3170      6E646C65 
 3170      00
 3171 15b2 09       		.byte	0x9
 3172 15b3 FE01     		.word	0x1fe
 3173 15b5 21       		.byte	0x21
 3174 15b6 6F030000 		.long	0x36f
 3175 15ba 08       		.byte	0x8
 3176 15bb 03       		.uleb128 0x3
 3177 15bc 41747472 		.ascii "Attributes\0"
 3177      69627574 
 3177      657300
 3178 15c7 09       		.byte	0x9
 3179 15c8 FF01     		.word	0x1ff
 3180 15ca 21       		.byte	0x21
 3181 15cb D0020000 		.long	0x2d0
 3182 15cf 10       		.byte	0x10
 3183 15d0 03       		.uleb128 0x3
 3184 15d1 4F70656E 		.ascii "OpenCount\0"
 3184      436F756E 
 3184      7400
 3185 15db 09       		.byte	0x9
 3186 15dc 0002     		.word	0x200
 3187 15de 21       		.byte	0x21
 3188 15df D0020000 		.long	0x2d0
 3189 15e3 14       		.byte	0x14
 3190 15e4 00       		.byte	0
 3191 15e5 04       		.uleb128 0x4
 3192 15e6 4546495F 		.ascii "EFI_OPEN_PROTOCOL_INFORMATION_ENTRY\0"
 3192      4F50454E 
 3192      5F50524F 
 3192      544F434F 
 3192      4C5F494E 
 3193 160a 09       		.byte	0x9
 3194 160b 0102     		.word	0x201
 3195 160d 03       		.byte	0x3
 3196 160e 81150000 		.long	0x1581
 3197 1612 04       		.uleb128 0x4
 3198 1613 4546495F 		.ascii "EFI_OPEN_PROTOCOL_INFORMATION\0"
 3198      4F50454E 
 3198      5F50524F 
 3198      544F434F 
 3198      4C5F494E 
 3199 1631 09       		.byte	0x9
 3200 1632 0502     		.word	0x205
 3201 1634 0A       		.byte	0xa
 3202 1635 39160000 		.long	0x1639
 3203 1639 02       		.uleb128 0x2
 3204 163a 3E160000 		.long	0x163e
 3205 163e 05       		.uleb128 0x5
 3206 163f 4C030000 		.long	0x34c
 3207 1643 5C160000 		.long	0x165c
 3208 1647 01       		.uleb128 0x1
 3209 1648 6F030000 		.long	0x36f
 3210 164c 01       		.uleb128 0x1
 3211 164d AE0C0000 		.long	0xcae
 3212 1651 01       		.uleb128 0x1
 3213 1652 5C160000 		.long	0x165c
 3214 1656 01       		.uleb128 0x1
 3215 1657 26090000 		.long	0x926
 3216 165b 00       		.byte	0
 3217 165c 02       		.uleb128 0x2
 3218 165d 61160000 		.long	0x1661
 3219 1661 02       		.uleb128 0x2
 3220 1662 E5150000 		.long	0x15e5
 3221 1666 04       		.uleb128 0x4
 3222 1667 4546495F 		.ascii "EFI_PROTOCOLS_PER_HANDLE\0"
 3222      50524F54 
 3222      4F434F4C 
 3222      535F5045 
 3222      525F4841 
 3223 1680 09       		.byte	0x9
 3224 1681 0E02     		.word	0x20e
 3225 1683 0A       		.byte	0xa
 3226 1684 88160000 		.long	0x1688
 3227 1688 02       		.uleb128 0x2
 3228 1689 8D160000 		.long	0x168d
 3229 168d 05       		.uleb128 0x5
 3230 168e 4C030000 		.long	0x34c
 3231 1692 A6160000 		.long	0x16a6
 3232 1696 01       		.uleb128 0x1
 3233 1697 6F030000 		.long	0x36f
 3234 169b 01       		.uleb128 0x1
 3235 169c A6160000 		.long	0x16a6
 3236 16a0 01       		.uleb128 0x1
 3237 16a1 26090000 		.long	0x926
 3238 16a5 00       		.byte	0
 3239 16a6 02       		.uleb128 0x2
 3240 16a7 AB160000 		.long	0x16ab
 3241 16ab 02       		.uleb128 0x2
 3242 16ac AE0C0000 		.long	0xcae
 3243 16b0 2B       		.uleb128 0x2b
 3244 16b1 DF010000 		.long	0x1df
 3245 16b5 1402     		.word	0x214
 3246 16b7 E9160000 		.long	0x16e9
 3247 16bb 08       		.uleb128 0x8
 3248 16bc 416C6C48 		.ascii "AllHandles\0"
 3248      616E646C 
 3248      657300
 3249 16c7 00       		.byte	0
 3250 16c8 08       		.uleb128 0x8
 3251 16c9 42795265 		.ascii "ByRegisterNotify\0"
 3251      67697374 
 3251      65724E6F 
 3251      74696679 
 3251      00
 3252 16da 01       		.byte	0x1
 3253 16db 08       		.uleb128 0x8
 3254 16dc 42795072 		.ascii "ByProtocol\0"
 3254      6F746F63 
 3254      6F6C00
 3255 16e7 02       		.byte	0x2
 3256 16e8 00       		.byte	0
 3257 16e9 04       		.uleb128 0x4
 3258 16ea 4546495F 		.ascii "EFI_LOCATE_SEARCH_TYPE\0"
 3258      4C4F4341 
 3258      54455F53 
 3258      45415243 
 3258      485F5459 
 3259 1701 09       		.byte	0x9
 3260 1702 1802     		.word	0x218
 3261 1704 03       		.byte	0x3
 3262 1705 B0160000 		.long	0x16b0
 3263 1709 04       		.uleb128 0x4
 3264 170a 4546495F 		.ascii "EFI_LOCATE_HANDLE_BUFFER\0"
 3264      4C4F4341 
 3264      54455F48 
 3264      414E444C 
 3264      455F4255 
 3265 1723 09       		.byte	0x9
 3266 1724 1C02     		.word	0x21c
 3267 1726 0A       		.byte	0xa
 3268 1727 2B170000 		.long	0x172b
 3269 172b 02       		.uleb128 0x2
 3270 172c 30170000 		.long	0x1730
 3271 1730 05       		.uleb128 0x5
 3272 1731 4C030000 		.long	0x34c
 3273 1735 53170000 		.long	0x1753
 3274 1739 01       		.uleb128 0x1
 3275 173a E9160000 		.long	0x16e9
 3276 173e 01       		.uleb128 0x1
 3277 173f AE0C0000 		.long	0xcae
 3278 1743 01       		.uleb128 0x1
 3279 1744 82030000 		.long	0x382
 3280 1748 01       		.uleb128 0x1
 3281 1749 26090000 		.long	0x926
 3282 174d 01       		.uleb128 0x1
 3283 174e 53170000 		.long	0x1753
 3284 1752 00       		.byte	0
 3285 1753 02       		.uleb128 0x2
 3286 1754 DC0F0000 		.long	0xfdc
 3287 1758 04       		.uleb128 0x4
 3288 1759 4546495F 		.ascii "EFI_LOCATE_PROTOCOL\0"
 3288      4C4F4341 
 3288      54455F50 
 3288      524F544F 
 3288      434F4C00 
 3289 176d 09       		.byte	0x9
 3290 176e 2602     		.word	0x226
 3291 1770 0A       		.byte	0xa
 3292 1771 75170000 		.long	0x1775
 3293 1775 02       		.uleb128 0x2
 3294 1776 7A170000 		.long	0x177a
 3295 177a 05       		.uleb128 0x5
 3296 177b 4C030000 		.long	0x34c
 3297 177f 93170000 		.long	0x1793
 3298 1783 01       		.uleb128 0x1
 3299 1784 AE0C0000 		.long	0xcae
 3300 1788 01       		.uleb128 0x1
 3301 1789 82030000 		.long	0x382
 3302 178d 01       		.uleb128 0x1
 3303 178e 30090000 		.long	0x930
 3304 1792 00       		.byte	0
 3305 1793 04       		.uleb128 0x4
 3306 1794 4546495F 		.ascii "EFI_INSTALL_MULTIPLE_PROTOCOL_INTERFACES\0"
 3306      494E5354 
 3306      414C4C5F 
 3306      4D554C54 
 3306      49504C45 
 3307 17bd 09       		.byte	0x9
 3308 17be 2E02     		.word	0x22e
 3309 17c0 0A       		.byte	0xa
 3310 17c1 C5170000 		.long	0x17c5
 3311 17c5 02       		.uleb128 0x2
 3312 17c6 CA170000 		.long	0x17ca
 3313 17ca 05       		.uleb128 0x5
 3314 17cb 4C030000 		.long	0x34c
 3315 17cf DA170000 		.long	0x17da
 3316 17d3 01       		.uleb128 0x1
 3317 17d4 DC0F0000 		.long	0xfdc
 3318 17d8 14       		.uleb128 0x14
 3319 17d9 00       		.byte	0
 3320 17da 04       		.uleb128 0x4
 3321 17db 4546495F 		.ascii "EFI_UNINSTALL_MULTIPLE_PROTOCOL_INTERFACES\0"
 3321      554E494E 
 3321      5354414C 
 3321      4C5F4D55 
 3321      4C544950 
 3322 1806 09       		.byte	0x9
 3323 1807 3502     		.word	0x235
 3324 1809 0A       		.byte	0xa
 3325 180a 0E180000 		.long	0x180e
 3326 180e 02       		.uleb128 0x2
 3327 180f 13180000 		.long	0x1813
 3328 1813 05       		.uleb128 0x5
 3329 1814 4C030000 		.long	0x34c
 3330 1818 23180000 		.long	0x1823
 3331 181c 01       		.uleb128 0x1
 3332 181d 6F030000 		.long	0x36f
 3333 1821 14       		.uleb128 0x14
 3334 1822 00       		.byte	0
 3335 1823 04       		.uleb128 0x4
 3336 1824 4546495F 		.ascii "EFI_CALCULATE_CRC32\0"
 3336      43414C43 
 3336      554C4154 
 3336      455F4352 
 3336      43333200 
 3337 1838 09       		.byte	0x9
 3338 1839 3C02     		.word	0x23c
 3339 183b 0A       		.byte	0xa
 3340 183c 40180000 		.long	0x1840
 3341 1840 02       		.uleb128 0x2
 3342 1841 45180000 		.long	0x1845
 3343 1845 05       		.uleb128 0x5
 3344 1846 4C030000 		.long	0x34c
 3345 184a 5E180000 		.long	0x185e
 3346 184e 01       		.uleb128 0x1
 3347 184f 82030000 		.long	0x382
 3348 1853 01       		.uleb128 0x1
 3349 1854 25030000 		.long	0x325
 3350 1858 01       		.uleb128 0x1
 3351 1859 E10F0000 		.long	0xfe1
 3352 185d 00       		.byte	0
 3353 185e 04       		.uleb128 0x4
 3354 185f 4546495F 		.ascii "EFI_COPY_MEM\0"
 3354      434F5059 
 3354      5F4D454D 
 3354      00
 3355 186c 09       		.byte	0x9
 3356 186d 4402     		.word	0x244
 3357 186f 0A       		.byte	0xa
 3358 1870 74180000 		.long	0x1874
 3359 1874 02       		.uleb128 0x2
 3360 1875 79180000 		.long	0x1879
 3361 1879 1D       		.uleb128 0x1d
 3362 187a 8E180000 		.long	0x188e
 3363 187e 01       		.uleb128 0x1
 3364 187f 82030000 		.long	0x382
 3365 1883 01       		.uleb128 0x1
 3366 1884 82030000 		.long	0x382
 3367 1888 01       		.uleb128 0x1
 3368 1889 25030000 		.long	0x325
 3369 188d 00       		.byte	0
 3370 188e 04       		.uleb128 0x4
 3371 188f 4546495F 		.ascii "EFI_SET_MEM\0"
 3371      5345545F 
 3371      4D454D00 
 3372 189b 09       		.byte	0x9
 3373 189c 4C02     		.word	0x24c
 3374 189e 0A       		.byte	0xa
 3375 189f A3180000 		.long	0x18a3
 3376 18a3 02       		.uleb128 0x2
 3377 18a4 A8180000 		.long	0x18a8
 3378 18a8 1D       		.uleb128 0x1d
 3379 18a9 BD180000 		.long	0x18bd
 3380 18ad 01       		.uleb128 0x1
 3381 18ae 82030000 		.long	0x382
 3382 18b2 01       		.uleb128 0x1
 3383 18b3 25030000 		.long	0x325
 3384 18b7 01       		.uleb128 0x1
 3385 18b8 FC020000 		.long	0x2fc
 3386 18bc 00       		.byte	0
 3387 18bd 04       		.uleb128 0x4
 3388 18be 4546495F 		.ascii "EFI_CREATE_EVENT_EX\0"
 3388      43524541 
 3388      54455F45 
 3388      56454E54 
 3388      5F455800 
 3389 18d2 09       		.byte	0x9
 3390 18d3 5502     		.word	0x255
 3391 18d5 0A       		.byte	0xa
 3392 18d6 DA180000 		.long	0x18da
 3393 18da 02       		.uleb128 0x2
 3394 18db DF180000 		.long	0x18df
 3395 18df 05       		.uleb128 0x5
 3396 18e0 4C030000 		.long	0x34c
 3397 18e4 07190000 		.long	0x1907
 3398 18e8 01       		.uleb128 0x1
 3399 18e9 D0020000 		.long	0x2d0
 3400 18ed 01       		.uleb128 0x1
 3401 18ee 5F030000 		.long	0x35f
 3402 18f2 01       		.uleb128 0x1
 3403 18f3 31110000 		.long	0x1131
 3404 18f7 01       		.uleb128 0x1
 3405 18f8 07190000 		.long	0x1907
 3406 18fc 01       		.uleb128 0x1
 3407 18fd D70F0000 		.long	0xfd7
 3408 1901 01       		.uleb128 0x1
 3409 1902 A0110000 		.long	0x11a0
 3410 1906 00       		.byte	0
 3411 1907 02       		.uleb128 0x2
 3412 1908 13030000 		.long	0x313
 3413 190c 04       		.uleb128 0x4
 3414 190d 4546495F 		.ascii "EFI_GET_NEXT_MONOTONIC_COUNT\0"
 3414      4745545F 
 3414      4E455854 
 3414      5F4D4F4E 
 3414      4F544F4E 
 3415 192a 09       		.byte	0x9
 3416 192b 6F02     		.word	0x26f
 3417 192d 0A       		.byte	0xa
 3418 192e 32190000 		.long	0x1932
 3419 1932 02       		.uleb128 0x2
 3420 1933 37190000 		.long	0x1937
 3421 1937 05       		.uleb128 0x5
 3422 1938 4C030000 		.long	0x34c
 3423 193c 46190000 		.long	0x1946
 3424 1940 01       		.uleb128 0x1
 3425 1941 2B090000 		.long	0x92b
 3426 1945 00       		.byte	0
 3427 1946 2B       		.uleb128 0x2b
 3428 1947 DF010000 		.long	0x1df
 3429 194b AA02     		.word	0x2aa
 3430 194d 7F190000 		.long	0x197f
 3431 1951 08       		.uleb128 0x8
 3432 1952 4546495F 		.ascii "EFI_NATIVE_INTERFACE\0"
 3432      4E415449 
 3432      56455F49 
 3432      4E544552 
 3432      46414345 
 3433 1967 00       		.byte	0
 3434 1968 08       		.uleb128 0x8
 3435 1969 4546495F 		.ascii "EFI_PCODE_INTERFACE\0"
 3435      50434F44 
 3435      455F494E 
 3435      54455246 
 3435      41434500 
 3436 197d 01       		.byte	0x1
 3437 197e 00       		.byte	0
 3438 197f 04       		.uleb128 0x4
 3439 1980 4546495F 		.ascii "EFI_INTERFACE_TYPE\0"
 3439      494E5445 
 3439      52464143 
 3439      455F5459 
 3439      504500
 3440 1993 09       		.byte	0x9
 3441 1994 AD02     		.word	0x2ad
 3442 1996 03       		.byte	0x3
 3443 1997 46190000 		.long	0x1946
 3444 199b 04       		.uleb128 0x4
 3445 199c 4546495F 		.ascii "EFI_INSTALL_PROTOCOL_INTERFACE\0"
 3445      494E5354 
 3445      414C4C5F 
 3445      50524F54 
 3445      4F434F4C 
 3446 19bb 09       		.byte	0x9
 3447 19bc B102     		.word	0x2b1
 3448 19be 0A       		.byte	0xa
 3449 19bf C3190000 		.long	0x19c3
 3450 19c3 02       		.uleb128 0x2
 3451 19c4 C8190000 		.long	0x19c8
 3452 19c8 05       		.uleb128 0x5
 3453 19c9 4C030000 		.long	0x34c
 3454 19cd E6190000 		.long	0x19e6
 3455 19d1 01       		.uleb128 0x1
 3456 19d2 DC0F0000 		.long	0xfdc
 3457 19d6 01       		.uleb128 0x1
 3458 19d7 AE0C0000 		.long	0xcae
 3459 19db 01       		.uleb128 0x1
 3460 19dc 7F190000 		.long	0x197f
 3461 19e0 01       		.uleb128 0x1
 3462 19e1 82030000 		.long	0x382
 3463 19e5 00       		.byte	0
 3464 19e6 04       		.uleb128 0x4
 3465 19e7 4546495F 		.ascii "EFI_REINSTALL_PROTOCOL_INTERFACE\0"
 3465      5245494E 
 3465      5354414C 
 3465      4C5F5052 
 3465      4F544F43 
 3466 1a08 09       		.byte	0x9
 3467 1a09 BA02     		.word	0x2ba
 3468 1a0b 0A       		.byte	0xa
 3469 1a0c 101A0000 		.long	0x1a10
 3470 1a10 02       		.uleb128 0x2
 3471 1a11 151A0000 		.long	0x1a15
 3472 1a15 05       		.uleb128 0x5
 3473 1a16 4C030000 		.long	0x34c
 3474 1a1a 331A0000 		.long	0x1a33
 3475 1a1e 01       		.uleb128 0x1
 3476 1a1f 6F030000 		.long	0x36f
 3477 1a23 01       		.uleb128 0x1
 3478 1a24 AE0C0000 		.long	0xcae
 3479 1a28 01       		.uleb128 0x1
 3480 1a29 82030000 		.long	0x382
 3481 1a2d 01       		.uleb128 0x1
 3482 1a2e 82030000 		.long	0x382
 3483 1a32 00       		.byte	0
 3484 1a33 04       		.uleb128 0x4
 3485 1a34 4546495F 		.ascii "EFI_UNINSTALL_PROTOCOL_INTERFACE\0"
 3485      554E494E 
 3485      5354414C 
 3485      4C5F5052 
 3485      4F544F43 
 3486 1a55 09       		.byte	0x9
 3487 1a56 C302     		.word	0x2c3
 3488 1a58 0A       		.byte	0xa
 3489 1a59 5D1A0000 		.long	0x1a5d
 3490 1a5d 02       		.uleb128 0x2
 3491 1a5e 621A0000 		.long	0x1a62
 3492 1a62 05       		.uleb128 0x5
 3493 1a63 4C030000 		.long	0x34c
 3494 1a67 7B1A0000 		.long	0x1a7b
 3495 1a6b 01       		.uleb128 0x1
 3496 1a6c 6F030000 		.long	0x36f
 3497 1a70 01       		.uleb128 0x1
 3498 1a71 AE0C0000 		.long	0xcae
 3499 1a75 01       		.uleb128 0x1
 3500 1a76 82030000 		.long	0x382
 3501 1a7a 00       		.byte	0
 3502 1a7b 04       		.uleb128 0x4
 3503 1a7c 4546495F 		.ascii "EFI_HANDLE_PROTOCOL\0"
 3503      48414E44 
 3503      4C455F50 
 3503      524F544F 
 3503      434F4C00 
 3504 1a90 09       		.byte	0x9
 3505 1a91 CB02     		.word	0x2cb
 3506 1a93 0A       		.byte	0xa
 3507 1a94 981A0000 		.long	0x1a98
 3508 1a98 02       		.uleb128 0x2
 3509 1a99 9D1A0000 		.long	0x1a9d
 3510 1a9d 05       		.uleb128 0x5
 3511 1a9e 4C030000 		.long	0x34c
 3512 1aa2 B61A0000 		.long	0x1ab6
 3513 1aa6 01       		.uleb128 0x1
 3514 1aa7 6F030000 		.long	0x36f
 3515 1aab 01       		.uleb128 0x1
 3516 1aac AE0C0000 		.long	0xcae
 3517 1ab0 01       		.uleb128 0x1
 3518 1ab1 30090000 		.long	0x930
 3519 1ab5 00       		.byte	0
 3520 1ab6 04       		.uleb128 0x4
 3521 1ab7 4546495F 		.ascii "EFI_REGISTER_PROTOCOL_NOTIFY\0"
 3521      52454749 
 3521      53544552 
 3521      5F50524F 
 3521      544F434F 
 3522 1ad4 09       		.byte	0x9
 3523 1ad5 D302     		.word	0x2d3
 3524 1ad7 0A       		.byte	0xa
 3525 1ad8 DC1A0000 		.long	0x1adc
 3526 1adc 02       		.uleb128 0x2
 3527 1add E11A0000 		.long	0x1ae1
 3528 1ae1 05       		.uleb128 0x5
 3529 1ae2 4C030000 		.long	0x34c
 3530 1ae6 FA1A0000 		.long	0x1afa
 3531 1aea 01       		.uleb128 0x1
 3532 1aeb AE0C0000 		.long	0xcae
 3533 1aef 01       		.uleb128 0x1
 3534 1af0 87030000 		.long	0x387
 3535 1af4 01       		.uleb128 0x1
 3536 1af5 30090000 		.long	0x930
 3537 1af9 00       		.byte	0
 3538 1afa 04       		.uleb128 0x4
 3539 1afb 4546495F 		.ascii "EFI_LOCATE_HANDLE\0"
 3539      4C4F4341 
 3539      54455F48 
 3539      414E444C 
 3539      4500
 3540 1b0d 09       		.byte	0x9
 3541 1b0e DB02     		.word	0x2db
 3542 1b10 0A       		.byte	0xa
 3543 1b11 151B0000 		.long	0x1b15
 3544 1b15 02       		.uleb128 0x2
 3545 1b16 1A1B0000 		.long	0x1b1a
 3546 1b1a 05       		.uleb128 0x5
 3547 1b1b 4C030000 		.long	0x34c
 3548 1b1f 3D1B0000 		.long	0x1b3d
 3549 1b23 01       		.uleb128 0x1
 3550 1b24 E9160000 		.long	0x16e9
 3551 1b28 01       		.uleb128 0x1
 3552 1b29 AE0C0000 		.long	0xcae
 3553 1b2d 01       		.uleb128 0x1
 3554 1b2e 82030000 		.long	0x382
 3555 1b32 01       		.uleb128 0x1
 3556 1b33 26090000 		.long	0x926
 3557 1b37 01       		.uleb128 0x1
 3558 1b38 DC0F0000 		.long	0xfdc
 3559 1b3c 00       		.byte	0
 3560 1b3d 04       		.uleb128 0x4
 3561 1b3e 4546495F 		.ascii "EFI_LOCATE_DEVICE_PATH\0"
 3561      4C4F4341 
 3561      54455F44 
 3561      45564943 
 3561      455F5041 
 3562 1b55 09       		.byte	0x9
 3563 1b56 E502     		.word	0x2e5
 3564 1b58 0A       		.byte	0xa
 3565 1b59 5D1B0000 		.long	0x1b5d
 3566 1b5d 02       		.uleb128 0x2
 3567 1b5e 621B0000 		.long	0x1b62
 3568 1b62 05       		.uleb128 0x5
 3569 1b63 4C030000 		.long	0x34c
 3570 1b67 7B1B0000 		.long	0x1b7b
 3571 1b6b 01       		.uleb128 0x1
 3572 1b6c AE0C0000 		.long	0xcae
 3573 1b70 01       		.uleb128 0x1
 3574 1b71 D20F0000 		.long	0xfd2
 3575 1b75 01       		.uleb128 0x1
 3576 1b76 DC0F0000 		.long	0xfdc
 3577 1b7a 00       		.byte	0
 3578 1b7b 04       		.uleb128 0x4
 3579 1b7c 4546495F 		.ascii "EFI_INSTALL_CONFIGURATION_TABLE\0"
 3579      494E5354 
 3579      414C4C5F 
 3579      434F4E46 
 3579      49475552 
 3580 1b9c 09       		.byte	0x9
 3581 1b9d ED02     		.word	0x2ed
 3582 1b9f 0A       		.byte	0xa
 3583 1ba0 A41B0000 		.long	0x1ba4
 3584 1ba4 02       		.uleb128 0x2
 3585 1ba5 A91B0000 		.long	0x1ba9
 3586 1ba9 05       		.uleb128 0x5
 3587 1baa 4C030000 		.long	0x34c
 3588 1bae BD1B0000 		.long	0x1bbd
 3589 1bb2 01       		.uleb128 0x1
 3590 1bb3 AE0C0000 		.long	0xcae
 3591 1bb7 01       		.uleb128 0x1
 3592 1bb8 82030000 		.long	0x382
 3593 1bbc 00       		.byte	0
 3594 1bbd 1C       		.uleb128 0x1c
 3595 1bbe 5F454649 		.ascii "_EFI_TABLE_HEADER\0"
 3595      5F544142 
 3595      4C455F48 
 3595      45414445 
 3595      5200
 3596 1bd0 18       		.byte	0x18
 3597 1bd1 09       		.byte	0x9
 3598 1bd2 FB02     		.word	0x2fb
 3599 1bd4 2D1C0000 		.long	0x1c2d
 3600 1bd8 0B       		.uleb128 0xb
 3601 1bd9 0D000000 		.secrel32	.LASF3
 3602 1bdd 09       		.byte	0x9
 3603 1bde FC02     		.word	0x2fc
 3604 1be0 21       		.byte	0x21
 3605 1be1 C1020000 		.long	0x2c1
 3606 1be5 00       		.byte	0
 3607 1be6 0B       		.uleb128 0xb
 3608 1be7 7E000000 		.secrel32	.LASF5
 3609 1beb 09       		.byte	0x9
 3610 1bec FD02     		.word	0x2fd
 3611 1bee 21       		.byte	0x21
 3612 1bef D0020000 		.long	0x2d0
 3613 1bf3 08       		.byte	0x8
 3614 1bf4 03       		.uleb128 0x3
 3615 1bf5 48656164 		.ascii "HeaderSize\0"
 3615      65725369 
 3615      7A6500
 3616 1c00 09       		.byte	0x9
 3617 1c01 FE02     		.word	0x2fe
 3618 1c03 21       		.byte	0x21
 3619 1c04 D0020000 		.long	0x2d0
 3620 1c08 0C       		.byte	0xc
 3621 1c09 03       		.uleb128 0x3
 3622 1c0a 43524333 		.ascii "CRC32\0"
 3622      3200
 3623 1c10 09       		.byte	0x9
 3624 1c11 FF02     		.word	0x2ff
 3625 1c13 21       		.byte	0x21
 3626 1c14 D0020000 		.long	0x2d0
 3627 1c18 10       		.byte	0x10
 3628 1c19 03       		.uleb128 0x3
 3629 1c1a 52657365 		.ascii "Reserved\0"
 3629      72766564 
 3629      00
 3630 1c23 09       		.byte	0x9
 3631 1c24 0003     		.word	0x300
 3632 1c26 21       		.byte	0x21
 3633 1c27 D0020000 		.long	0x2d0
 3634 1c2b 14       		.byte	0x14
 3635 1c2c 00       		.byte	0
 3636 1c2d 04       		.uleb128 0x4
 3637 1c2e 4546495F 		.ascii "EFI_TABLE_HEADER\0"
 3637      5441424C 
 3637      455F4845 
 3637      41444552 
 3637      00
 3638 1c3f 09       		.byte	0x9
 3639 1c40 0103     		.word	0x301
 3640 1c42 03       		.byte	0x3
 3641 1c43 BD1B0000 		.long	0x1bbd
 3642 1c47 35       		.uleb128 0x35
 3643 1c48 5F454649 		.ascii "_EFI_BOOT_SERVICES\0"
 3643      5F424F4F 
 3643      545F5345 
 3643      52564943 
 3643      455300
 3644 1c5b 7801     		.word	0x178
 3645 1c5d 09       		.byte	0x9
 3646 1c5e 5603     		.word	0x356
 3647 1c60 10       		.byte	0x10
 3648 1c61 D4200000 		.long	0x20d4
 3649 1c65 03       		.uleb128 0x3
 3650 1c66 48647200 		.ascii "Hdr\0"
 3651 1c6a 09       		.byte	0x9
 3652 1c6b 5803     		.word	0x358
 3653 1c6d 25       		.byte	0x25
 3654 1c6e 2D1C0000 		.long	0x1c2d
 3655 1c72 00       		.byte	0
 3656 1c73 03       		.uleb128 0x3
 3657 1c74 52616973 		.ascii "RaiseTPL\0"
 3657      6554504C 
 3657      00
 3658 1c7d 09       		.byte	0x9
 3659 1c7e 5E03     		.word	0x35e
 3660 1c80 25       		.byte	0x25
 3661 1c81 D0120000 		.long	0x12d0
 3662 1c85 18       		.byte	0x18
 3663 1c86 03       		.uleb128 0x3
 3664 1c87 52657374 		.ascii "RestoreTPL\0"
 3664      6F726554 
 3664      504C00
 3665 1c92 09       		.byte	0x9
 3666 1c93 5F03     		.word	0x35f
 3667 1c95 25       		.byte	0x25
 3668 1c96 FA120000 		.long	0x12fa
 3669 1c9a 20       		.byte	0x20
 3670 1c9b 03       		.uleb128 0x3
 3671 1c9c 416C6C6F 		.ascii "AllocatePages\0"
 3671      63617465 
 3671      50616765 
 3671      7300
 3672 1caa 09       		.byte	0x9
 3673 1cab 6503     		.word	0x365
 3674 1cad 25       		.byte	0x25
 3675 1cae 19100000 		.long	0x1019
 3676 1cb2 28       		.byte	0x28
 3677 1cb3 03       		.uleb128 0x3
 3678 1cb4 46726565 		.ascii "FreePages\0"
 3678      50616765 
 3678      7300
 3679 1cbe 09       		.byte	0x9
 3680 1cbf 6603     		.word	0x366
 3681 1cc1 25       		.byte	0x25
 3682 1cc2 57100000 		.long	0x1057
 3683 1cc6 30       		.byte	0x30
 3684 1cc7 03       		.uleb128 0x3
 3685 1cc8 4765744D 		.ascii "GetMemoryMap\0"
 3685      656D6F72 
 3685      794D6170 
 3685      00
 3686 1cd5 09       		.byte	0x9
 3687 1cd6 6703     		.word	0x367
 3688 1cd8 25       		.byte	0x25
 3689 1cd9 87100000 		.long	0x1087
 3690 1cdd 38       		.byte	0x38
 3691 1cde 0B       		.uleb128 0xb
 3692 1cdf 4B000000 		.secrel32	.LASF10
 3693 1ce3 09       		.byte	0x9
 3694 1ce4 6803     		.word	0x368
 3695 1ce6 25       		.byte	0x25
 3696 1ce7 CF100000 		.long	0x10cf
 3697 1ceb 40       		.byte	0x40
 3698 1cec 0B       		.uleb128 0xb
 3699 1ced 2F000000 		.secrel32	.LASF11
 3700 1cf1 09       		.byte	0x9
 3701 1cf2 6903     		.word	0x369
 3702 1cf4 25       		.byte	0x25
 3703 1cf5 07110000 		.long	0x1107
 3704 1cf9 48       		.byte	0x48
 3705 1cfa 03       		.uleb128 0x3
 3706 1cfb 43726561 		.ascii "CreateEvent\0"
 3706      74654576 
 3706      656E7400 
 3707 1d07 09       		.byte	0x9
 3708 1d08 6F03     		.word	0x36f
 3709 1d0a 25       		.byte	0x25
 3710 1d0b 5F110000 		.long	0x115f
 3711 1d0f 50       		.byte	0x50
 3712 1d10 03       		.uleb128 0x3
 3713 1d11 53657454 		.ascii "SetTimer\0"
 3713      696D6572 
 3713      00
 3714 1d1a 09       		.byte	0x9
 3715 1d1b 7003     		.word	0x370
 3716 1d1d 25       		.byte	0x25
 3717 1d1e 06120000 		.long	0x1206
 3718 1d22 58       		.byte	0x58
 3719 1d23 03       		.uleb128 0x3
 3720 1d24 57616974 		.ascii "WaitForEvent\0"
 3720      466F7245 
 3720      76656E74 
 3720      00
 3721 1d31 09       		.byte	0x9
 3722 1d32 7103     		.word	0x371
 3723 1d34 25       		.byte	0x25
 3724 1d35 67120000 		.long	0x1267
 3725 1d39 60       		.byte	0x60
 3726 1d3a 03       		.uleb128 0x3
 3727 1d3b 5369676E 		.ascii "SignalEvent\0"
 3727      616C4576 
 3727      656E7400 
 3728 1d47 09       		.byte	0x9
 3729 1d48 7203     		.word	0x372
 3730 1d4a 25       		.byte	0x25
 3731 1d4b 3A120000 		.long	0x123a
 3732 1d4f 68       		.byte	0x68
 3733 1d50 03       		.uleb128 0x3
 3734 1d51 436C6F73 		.ascii "CloseEvent\0"
 3734      65457665 
 3734      6E7400
 3735 1d5c 09       		.byte	0x9
 3736 1d5d 7303     		.word	0x373
 3737 1d5f 25       		.byte	0x25
 3738 1d60 A0120000 		.long	0x12a0
 3739 1d64 70       		.byte	0x70
 3740 1d65 03       		.uleb128 0x3
 3741 1d66 43686563 		.ascii "CheckEvent\0"
 3741      6B457665 
 3741      6E7400
 3742 1d71 09       		.byte	0x9
 3743 1d72 7403     		.word	0x374
 3744 1d74 25       		.byte	0x25
 3745 1d75 B8120000 		.long	0x12b8
 3746 1d79 78       		.byte	0x78
 3747 1d7a 03       		.uleb128 0x3
 3748 1d7b 496E7374 		.ascii "InstallProtocolInterface\0"
 3748      616C6C50 
 3748      726F746F 
 3748      636F6C49 
 3748      6E746572 
 3749 1d94 09       		.byte	0x9
 3750 1d95 7A03     		.word	0x37a
 3751 1d97 25       		.byte	0x25
 3752 1d98 9B190000 		.long	0x199b
 3753 1d9c 80       		.byte	0x80
 3754 1d9d 03       		.uleb128 0x3
 3755 1d9e 5265696E 		.ascii "ReinstallProtocolInterface\0"
 3755      7374616C 
 3755      6C50726F 
 3755      746F636F 
 3755      6C496E74 
 3756 1db9 09       		.byte	0x9
 3757 1dba 7B03     		.word	0x37b
 3758 1dbc 26       		.byte	0x26
 3759 1dbd E6190000 		.long	0x19e6
 3760 1dc1 88       		.byte	0x88
 3761 1dc2 03       		.uleb128 0x3
 3762 1dc3 556E696E 		.ascii "UninstallProtocolInterface\0"
 3762      7374616C 
 3762      6C50726F 
 3762      746F636F 
 3762      6C496E74 
 3763 1dde 09       		.byte	0x9
 3764 1ddf 7C03     		.word	0x37c
 3765 1de1 26       		.byte	0x26
 3766 1de2 331A0000 		.long	0x1a33
 3767 1de6 90       		.byte	0x90
 3768 1de7 03       		.uleb128 0x3
 3769 1de8 48616E64 		.ascii "HandleProtocol\0"
 3769      6C655072 
 3769      6F746F63 
 3769      6F6C00
 3770 1df7 09       		.byte	0x9
 3771 1df8 7D03     		.word	0x37d
 3772 1dfa 25       		.byte	0x25
 3773 1dfb 7B1A0000 		.long	0x1a7b
 3774 1dff 98       		.byte	0x98
 3775 1e00 03       		.uleb128 0x3
 3776 1e01 50434861 		.ascii "PCHandleProtocol\0"
 3776      6E646C65 
 3776      50726F74 
 3776      6F636F6C 
 3776      00
 3777 1e12 09       		.byte	0x9
 3778 1e13 7E03     		.word	0x37e
 3779 1e15 25       		.byte	0x25
 3780 1e16 7B1A0000 		.long	0x1a7b
 3781 1e1a A0       		.byte	0xa0
 3782 1e1b 03       		.uleb128 0x3
 3783 1e1c 52656769 		.ascii "RegisterProtocolNotify\0"
 3783      73746572 
 3783      50726F74 
 3783      6F636F6C 
 3783      4E6F7469 
 3784 1e33 09       		.byte	0x9
 3785 1e34 7F03     		.word	0x37f
 3786 1e36 25       		.byte	0x25
 3787 1e37 B61A0000 		.long	0x1ab6
 3788 1e3b A8       		.byte	0xa8
 3789 1e3c 03       		.uleb128 0x3
 3790 1e3d 4C6F6361 		.ascii "LocateHandle\0"
 3790      74654861 
 3790      6E646C65 
 3790      00
 3791 1e4a 09       		.byte	0x9
 3792 1e4b 8003     		.word	0x380
 3793 1e4d 25       		.byte	0x25
 3794 1e4e FA1A0000 		.long	0x1afa
 3795 1e52 B0       		.byte	0xb0
 3796 1e53 03       		.uleb128 0x3
 3797 1e54 4C6F6361 		.ascii "LocateDevicePath\0"
 3797      74654465 
 3797      76696365 
 3797      50617468 
 3797      00
 3798 1e65 09       		.byte	0x9
 3799 1e66 8103     		.word	0x381
 3800 1e68 25       		.byte	0x25
 3801 1e69 3D1B0000 		.long	0x1b3d
 3802 1e6d B8       		.byte	0xb8
 3803 1e6e 03       		.uleb128 0x3
 3804 1e6f 496E7374 		.ascii "InstallConfigurationTable\0"
 3804      616C6C43 
 3804      6F6E6669 
 3804      67757261 
 3804      74696F6E 
 3805 1e89 09       		.byte	0x9
 3806 1e8a 8203     		.word	0x382
 3807 1e8c 25       		.byte	0x25
 3808 1e8d 7B1B0000 		.long	0x1b7b
 3809 1e91 C0       		.byte	0xc0
 3810 1e92 03       		.uleb128 0x3
 3811 1e93 4C6F6164 		.ascii "LoadImage\0"
 3811      496D6167 
 3811      6500
 3812 1e9d 09       		.byte	0x9
 3813 1e9e 8803     		.word	0x388
 3814 1ea0 25       		.byte	0x25
 3815 1ea1 22130000 		.long	0x1322
 3816 1ea5 C8       		.byte	0xc8
 3817 1ea6 03       		.uleb128 0x3
 3818 1ea7 53746172 		.ascii "StartImage\0"
 3818      74496D61 
 3818      676500
 3819 1eb2 09       		.byte	0x9
 3820 1eb3 8903     		.word	0x389
 3821 1eb5 25       		.byte	0x25
 3822 1eb6 67130000 		.long	0x1367
 3823 1eba D0       		.byte	0xd0
 3824 1ebb 03       		.uleb128 0x3
 3825 1ebc 45786974 		.ascii "Exit\0"
 3825      00
 3826 1ec1 09       		.byte	0x9
 3827 1ec2 8A03     		.word	0x38a
 3828 1ec4 25       		.byte	0x25
 3829 1ec5 9E130000 		.long	0x139e
 3830 1ec9 D8       		.byte	0xd8
 3831 1eca 03       		.uleb128 0x3
 3832 1ecb 556E6C6F 		.ascii "UnloadImage\0"
 3832      6164496D 
 3832      61676500 
 3833 1ed7 09       		.byte	0x9
 3834 1ed8 8B03     		.word	0x38b
 3835 1eda 25       		.byte	0x25
 3836 1edb EB0F0000 		.long	0xfeb
 3837 1edf E0       		.byte	0xe0
 3838 1ee0 03       		.uleb128 0x3
 3839 1ee1 45786974 		.ascii "ExitBootServices\0"
 3839      426F6F74 
 3839      53657276 
 3839      69636573 
 3839      00
 3840 1ef2 09       		.byte	0x9
 3841 1ef3 8C03     		.word	0x38c
 3842 1ef5 25       		.byte	0x25
 3843 1ef6 D3130000 		.long	0x13d3
 3844 1efa E8       		.byte	0xe8
 3845 1efb 03       		.uleb128 0x3
 3846 1efc 4765744E 		.ascii "GetNextMonotonicCount\0"
 3846      6578744D 
 3846      6F6E6F74 
 3846      6F6E6963 
 3846      436F756E 
 3847 1f12 09       		.byte	0x9
 3848 1f13 9203     		.word	0x392
 3849 1f15 25       		.byte	0x25
 3850 1f16 0C190000 		.long	0x190c
 3851 1f1a F0       		.byte	0xf0
 3852 1f1b 03       		.uleb128 0x3
 3853 1f1c 5374616C 		.ascii "Stall\0"
 3853      6C00
 3854 1f22 09       		.byte	0x9
 3855 1f23 9303     		.word	0x393
 3856 1f25 25       		.byte	0x25
 3857 1f26 0C140000 		.long	0x140c
 3858 1f2a F8       		.byte	0xf8
 3859 1f2b 0A       		.uleb128 0xa
 3860 1f2c 53657457 		.ascii "SetWatchdogTimer\0"
 3860      61746368 
 3860      646F6754 
 3860      696D6572 
 3860      00
 3861 1f3d 9403     		.word	0x394
 3862 1f3f 25       		.byte	0x25
 3863 1f40 33140000 		.long	0x1433
 3864 1f44 0001     		.word	0x100
 3865 1f46 0A       		.uleb128 0xa
 3866 1f47 436F6E6E 		.ascii "ConnectController\0"
 3866      65637443 
 3866      6F6E7472 
 3866      6F6C6C65 
 3866      7200
 3867 1f59 9A03     		.word	0x39a
 3868 1f5b 25       		.byte	0x25
 3869 1f5c 76140000 		.long	0x1476
 3870 1f60 0801     		.word	0x108
 3871 1f62 0A       		.uleb128 0xa
 3872 1f63 44697363 		.ascii "DisconnectController\0"
 3872      6F6E6E65 
 3872      6374436F 
 3872      6E74726F 
 3872      6C6C6572 
 3873 1f78 9B03     		.word	0x39b
 3874 1f7a 25       		.byte	0x25
 3875 1f7b B9140000 		.long	0x14b9
 3876 1f7f 1001     		.word	0x110
 3877 1f81 0A       		.uleb128 0xa
 3878 1f82 4F70656E 		.ascii "OpenProtocol\0"
 3878      50726F74 
 3878      6F636F6C 
 3878      00
 3879 1f8f A003     		.word	0x3a0
 3880 1f91 25       		.byte	0x25
 3881 1f92 FA140000 		.long	0x14fa
 3882 1f96 1801     		.word	0x118
 3883 1f98 0A       		.uleb128 0xa
 3884 1f99 436C6F73 		.ascii "CloseProtocol\0"
 3884      6550726F 
 3884      746F636F 
 3884      6C00
 3885 1fa7 A103     		.word	0x3a1
 3886 1fa9 25       		.byte	0x25
 3887 1faa 42150000 		.long	0x1542
 3888 1fae 2001     		.word	0x120
 3889 1fb0 0A       		.uleb128 0xa
 3890 1fb1 4F70656E 		.ascii "OpenProtocolInformation\0"
 3890      50726F74 
 3890      6F636F6C 
 3890      496E666F 
 3890      726D6174 
 3891 1fc9 A203     		.word	0x3a2
 3892 1fcb 25       		.byte	0x25
 3893 1fcc 12160000 		.long	0x1612
 3894 1fd0 2801     		.word	0x128
 3895 1fd2 0A       		.uleb128 0xa
 3896 1fd3 50726F74 		.ascii "ProtocolsPerHandle\0"
 3896      6F636F6C 
 3896      73506572 
 3896      48616E64 
 3896      6C6500
 3897 1fe6 A703     		.word	0x3a7
 3898 1fe8 25       		.byte	0x25
 3899 1fe9 66160000 		.long	0x1666
 3900 1fed 3001     		.word	0x130
 3901 1fef 0A       		.uleb128 0xa
 3902 1ff0 4C6F6361 		.ascii "LocateHandleBuffer\0"
 3902      74654861 
 3902      6E646C65 
 3902      42756666 
 3902      657200
 3903 2003 A803     		.word	0x3a8
 3904 2005 25       		.byte	0x25
 3905 2006 09170000 		.long	0x1709
 3906 200a 3801     		.word	0x138
 3907 200c 0A       		.uleb128 0xa
 3908 200d 4C6F6361 		.ascii "LocateProtocol\0"
 3908      74655072 
 3908      6F746F63 
 3908      6F6C00
 3909 201c A903     		.word	0x3a9
 3910 201e 25       		.byte	0x25
 3911 201f 58170000 		.long	0x1758
 3912 2023 4001     		.word	0x140
 3913 2025 0A       		.uleb128 0xa
 3914 2026 496E7374 		.ascii "InstallMultipleProtocolInterfaces\0"
 3914      616C6C4D 
 3914      756C7469 
 3914      706C6550 
 3914      726F746F 
 3915 2048 AA03     		.word	0x3aa
 3916 204a 2E       		.byte	0x2e
 3917 204b 93170000 		.long	0x1793
 3918 204f 4801     		.word	0x148
 3919 2051 0A       		.uleb128 0xa
 3920 2052 556E696E 		.ascii "UninstallMultipleProtocolInterfaces\0"
 3920      7374616C 
 3920      6C4D756C 
 3920      7469706C 
 3920      6550726F 
 3921 2076 AB03     		.word	0x3ab
 3922 2078 30       		.byte	0x30
 3923 2079 DA170000 		.long	0x17da
 3924 207d 5001     		.word	0x150
 3925 207f 0A       		.uleb128 0xa
 3926 2080 43616C63 		.ascii "CalculateCrc32\0"
 3926      756C6174 
 3926      65437263 
 3926      333200
 3927 208f B003     		.word	0x3b0
 3928 2091 25       		.byte	0x25
 3929 2092 23180000 		.long	0x1823
 3930 2096 5801     		.word	0x158
 3931 2098 0A       		.uleb128 0xa
 3932 2099 436F7079 		.ascii "CopyMem\0"
 3932      4D656D00 
 3933 20a1 B503     		.word	0x3b5
 3934 20a3 25       		.byte	0x25
 3935 20a4 5E180000 		.long	0x185e
 3936 20a8 6001     		.word	0x160
 3937 20aa 0A       		.uleb128 0xa
 3938 20ab 5365744D 		.ascii "SetMem\0"
 3938      656D00
 3939 20b2 B603     		.word	0x3b6
 3940 20b4 25       		.byte	0x25
 3941 20b5 8E180000 		.long	0x188e
 3942 20b9 6801     		.word	0x168
 3943 20bb 0A       		.uleb128 0xa
 3944 20bc 43726561 		.ascii "CreateEventEx\0"
 3944      74654576 
 3944      656E7445 
 3944      7800
 3945 20ca B703     		.word	0x3b7
 3946 20cc 25       		.byte	0x25
 3947 20cd BD180000 		.long	0x18bd
 3948 20d1 7001     		.word	0x170
 3949 20d3 00       		.byte	0
 3950 20d4 04       		.uleb128 0x4
 3951 20d5 4546495F 		.ascii "EFI_BOOT_SERVICES\0"
 3951      424F4F54 
 3951      5F534552 
 3951      56494345 
 3951      5300
 3952 20e7 09       		.byte	0x9
 3953 20e8 B803     		.word	0x3b8
 3954 20ea 03       		.byte	0x3
 3955 20eb 471C0000 		.long	0x1c47
 3956 20ef 02       		.uleb128 0x2
 3957 20f0 D4200000 		.long	0x20d4
 3958 20f4 02       		.uleb128 0x2
 3959 20f5 E30E0000 		.long	0xee3
 3960 20f9 02       		.uleb128 0x2
 3961 20fa 4C030000 		.long	0x34c
 3962 20fe 0F       		.uleb128 0xf
 3963 20ff 425300   		.ascii "BS\0"
 3964 2102 39       		.byte	0x39
 3965 2103 22       		.byte	0x22
 3966 2104 EF200000 		.long	0x20ef
 3967 2108 0F       		.uleb128 0xf
 3968 2109 67456669 		.ascii "gEfiDevicePathProtocolGuid\0"
 3968      44657669 
 3968      63655061 
 3968      74685072 
 3968      6F746F63 
 3969 2124 3E       		.byte	0x3e
 3970 2125 11       		.byte	0x11
 3971 2126 ED030000 		.long	0x3ed
 3972 212a 0F       		.uleb128 0xf
 3973 212b 67456669 		.ascii "gEfiBlockIoProtocolGuid\0"
 3973      426C6F63 
 3973      6B496F50 
 3973      726F746F 
 3973      636F6C47 
 3974 2143 54       		.byte	0x54
 3975 2144 11       		.byte	0x11
 3976 2145 ED030000 		.long	0x3ed
 3977 2149 0F       		.uleb128 0xf
 3978 214a 67456669 		.ascii "gEfiSimpleFileSystemProtocolGuid\0"
 3978      53696D70 
 3978      6C654669 
 3978      6C655379 
 3978      7374656D 
 3979 216b 5C       		.byte	0x5c
 3980 216c 11       		.byte	0x11
 3981 216d ED030000 		.long	0x3ed
 3982 2171 0F       		.uleb128 0xf
 3983 2172 67456669 		.ascii "gEfiFileInfoGuid\0"
 3983      46696C65 
 3983      496E666F 
 3983      47756964 
 3983      00
 3984 2183 8C       		.byte	0x8c
 3985 2184 11       		.byte	0x11
 3986 2185 ED030000 		.long	0x3ed
 3987 2189 0F       		.uleb128 0xf
 3988 218a 67456669 		.ascii "gEfiFileSystemInfoGuid\0"
 3988      46696C65 
 3988      53797374 
 3988      656D496E 
 3988      666F4775 
 3989 21a1 8E       		.byte	0x8e
 3990 21a2 11       		.byte	0x11
 3991 21a3 ED030000 		.long	0x3ed
 3992 21a7 0F       		.uleb128 0xf
 3993 21a8 67456669 		.ascii "gEfiFileSystemVolumeLabelInfoIdGuid\0"
 3993      46696C65 
 3993      53797374 
 3993      656D566F 
 3993      6C756D65 
 3994 21cc 90       		.byte	0x90
 3995 21cd 11       		.byte	0x11
 3996 21ce ED030000 		.long	0x3ed
 3997 21d2 36       		.uleb128 0x36
 3998 21d3 4B000000 		.secrel32	.LASF10
 3999 21d7 0A       		.byte	0xa
 4000 21d8 E901     		.word	0x1e9
 4001 21da 01       		.byte	0x1
 4002 21db 82030000 		.long	0x382
 4003 21df E9210000 		.long	0x21e9
 4004 21e3 01       		.uleb128 0x1
 4005 21e4 25030000 		.long	0x325
 4006 21e8 00       		.byte	0
 4007 21e9 2C       		.uleb128 0x2c
 4008 21ea 436F6D70 		.ascii "CompareGuid\0"
 4008      61726547 
 4008      75696400 
 4009 21f6 E301     		.word	0x1e3
 4010 21f8 18030000 		.long	0x318
 4011 21fc 0B220000 		.long	0x220b
 4012 2200 01       		.uleb128 0x1
 4013 2201 AE0C0000 		.long	0xcae
 4014 2205 01       		.uleb128 0x1
 4015 2206 AE0C0000 		.long	0xcae
 4016 220a 00       		.byte	0
 4017 220b 2C       		.uleb128 0x2c
 4018 220c 47726F77 		.ascii "GrowBuffer\0"
 4018      42756666 
 4018      657200
 4019 2217 A502     		.word	0x2a5
 4020 2219 33030000 		.long	0x333
 4021 221d 31220000 		.long	0x2231
 4022 2221 01       		.uleb128 0x1
 4023 2222 F9200000 		.long	0x20f9
 4024 2226 01       		.uleb128 0x1
 4025 2227 30090000 		.long	0x930
 4026 222b 01       		.uleb128 0x1
 4027 222c 25030000 		.long	0x325
 4028 2230 00       		.byte	0
 4029 2231 37       		.uleb128 0x37
 4030 2232 2F000000 		.secrel32	.LASF11
 4031 2236 0A       		.byte	0xa
 4032 2237 FA01     		.word	0x1fa
 4033 2239 01       		.byte	0x1
 4034 223a 44220000 		.long	0x2244
 4035 223e 01       		.uleb128 0x1
 4036 223f 82030000 		.long	0x382
 4037 2243 00       		.byte	0
 4038 2244 15       		.uleb128 0x15
 4039 2245 4C696252 		.ascii "LibReinstallProtocolInterfaces\0"
 4039      65696E73 
 4039      74616C6C 
 4039      50726F74 
 4039      6F636F6C 
 4040 2264 3202     		.word	0x232
 4041 2266 4C030000 		.long	0x34c
 4042 226a 38070000 		.quad	.LFB11
 4042      00000000 
 4043 2272 13010000 		.quad	.LFE11-.LFB11
 4043      00000000 
 4044 227a 01       		.uleb128 0x1
 4045 227b 9C       		.byte	0x9c
 4046 227c 61230000 		.long	0x2361
 4047 2280 27       		.uleb128 0x27
 4048 2281 77000000 		.secrel32	.LASF14
 4049 2285 3302     		.word	0x233
 4050 2287 22       		.byte	0x22
 4051 2288 DC0F0000 		.long	0xfdc
 4052 228c 14000000 		.secrel32	.LLST30
 4053 2290 0C000000 		.secrel32	.LVUS30
 4054 2294 14       		.uleb128 0x14
 4055 2295 16       		.uleb128 0x16
 4056 2296 61726773 		.ascii "args\0"
 4056      00
 4057 229b 3702     		.word	0x237
 4058 229d 15       		.byte	0x15
 4059 229e 62020000 		.long	0x262
 4060 22a2 02       		.uleb128 0x2
 4061 22a3 91       		.byte	0x91
 4062 22a4 48       		.sleb128 -56
 4063 22a5 17       		.uleb128 0x17
 4064 22a6 44000000 		.secrel32	.LASF6
 4065 22aa 3802     		.word	0x238
 4066 22ac 15       		.byte	0x15
 4067 22ad 4C030000 		.long	0x34c
 4068 22b1 42000000 		.secrel32	.LLST31
 4069 22b5 34000000 		.secrel32	.LVUS31
 4070 22b9 18       		.uleb128 0x18
 4071 22ba 87000000 		.secrel32	.LASF12
 4072 22be 3902     		.word	0x239
 4073 22c0 16       		.byte	0x16
 4074 22c1 AE0C0000 		.long	0xcae
 4075 22c5 2D       		.uleb128 0x2d
 4076 22c6 4F6C6449 		.ascii "OldInterface\0"
 4076      6E746572 
 4076      66616365 
 4076      00
 4077 22d3 16       		.byte	0x16
 4078 22d4 82030000 		.long	0x382
 4079 22d8 2D       		.uleb128 0x2d
 4080 22d9 4E657749 		.ascii "NewInterface\0"
 4080      6E746572 
 4080      66616365 
 4080      00
 4081 22e6 25       		.byte	0x25
 4082 22e7 82030000 		.long	0x382
 4083 22eb 28       		.uleb128 0x28
 4084 22ec 4F6C6454 		.ascii "OldTpl\0"
 4084      706C00
 4085 22f3 3B02     		.word	0x23b
 4086 22f5 5F030000 		.long	0x35f
 4087 22f9 7B000000 		.secrel32	.LLST32
 4088 22fd 75000000 		.secrel32	.LVUS32
 4089 2301 17       		.uleb128 0x17
 4090 2302 00000000 		.secrel32	.LASF13
 4091 2306 3C02     		.word	0x23c
 4092 2308 15       		.byte	0x15
 4093 2309 25030000 		.long	0x325
 4094 230d 97000000 		.secrel32	.LLST33
 4095 2311 91000000 		.secrel32	.LVUS33
 4096 2315 0D       		.uleb128 0xd
 4097 2316 64070000 		.quad	.LVL121
 4097      00000000 
 4098 231e 28230000 		.long	0x2328
 4099 2322 07       		.uleb128 0x7
 4100 2323 01       		.uleb128 0x1
 4101 2324 52       		.byte	0x52
 4102 2325 01       		.uleb128 0x1
 4103 2326 40       		.byte	0x40
 4104 2327 00       		.byte	0
 4105 2328 0D       		.uleb128 0xd
 4106 2329 CE070000 		.quad	.LVL126
 4106      00000000 
 4107 2331 3C230000 		.long	0x233c
 4108 2335 07       		.uleb128 0x7
 4109 2336 01       		.uleb128 0x1
 4110 2337 52       		.byte	0x52
 4111 2338 02       		.uleb128 0x2
 4112 2339 75       		.byte	0x75
 4113 233a 00       		.sleb128 0
 4114 233b 00       		.byte	0
 4115 233c 0D       		.uleb128 0xd
 4116 233d EB070000 		.quad	.LVL129
 4116      00000000 
 4117 2345 50230000 		.long	0x2350
 4118 2349 07       		.uleb128 0x7
 4119 234a 01       		.uleb128 0x1
 4120 234b 52       		.byte	0x52
 4121 234c 02       		.uleb128 0x2
 4122 234d 76       		.byte	0x76
 4123 234e 00       		.sleb128 0
 4124 234f 00       		.byte	0
 4125 2350 1E       		.uleb128 0x1e
 4126 2351 45080000 		.quad	.LVL135
 4126      00000000 
 4127 2359 07       		.uleb128 0x7
 4128 235a 01       		.uleb128 0x1
 4129 235b 52       		.byte	0x52
 4130 235c 02       		.uleb128 0x2
 4131 235d 75       		.byte	0x75
 4132 235e 00       		.sleb128 0
 4133 235f 00       		.byte	0
 4134 2360 00       		.byte	0
 4135 2361 38       		.uleb128 0x38
 4136 2362 4C696255 		.ascii "LibUninstallProtocolInterfaces\0"
 4136      6E696E73 
 4136      74616C6C 
 4136      50726F74 
 4136      6F636F6C 
 4137 2381 01       		.byte	0x1
 4138 2382 0B02     		.word	0x20b
 4139 2384 01       		.byte	0x1
 4140 2385 D4060000 		.quad	.LFB10
 4140      00000000 
 4141 238d 64000000 		.quad	.LFE10-.LFB10
 4141      00000000 
 4142 2395 01       		.uleb128 0x1
 4143 2396 9C       		.byte	0x9c
 4144 2397 F7230000 		.long	0x23f7
 4145 239b 27       		.uleb128 0x27
 4146 239c 77000000 		.secrel32	.LASF14
 4147 23a0 0C02     		.word	0x20c
 4148 23a2 1D       		.byte	0x1d
 4149 23a3 6F030000 		.long	0x36f
 4150 23a7 B4000000 		.secrel32	.LLST29
 4151 23ab AE000000 		.secrel32	.LVUS29
 4152 23af 14       		.uleb128 0x14
 4153 23b0 16       		.uleb128 0x16
 4154 23b1 61726773 		.ascii "args\0"
 4154      00
 4155 23b6 1002     		.word	0x210
 4156 23b8 15       		.byte	0x15
 4157 23b9 62020000 		.long	0x262
 4158 23bd 02       		.uleb128 0x2
 4159 23be 91       		.byte	0x91
 4160 23bf 68       		.sleb128 -24
 4161 23c0 18       		.uleb128 0x18
 4162 23c1 44000000 		.secrel32	.LASF6
 4163 23c5 1102     		.word	0x211
 4164 23c7 15       		.byte	0x15
 4165 23c8 4C030000 		.long	0x34c
 4166 23cc 0E       		.uleb128 0xe
 4167 23cd 87000000 		.secrel32	.LASF12
 4168 23d1 1202     		.word	0x212
 4169 23d3 16       		.byte	0x16
 4170 23d4 AE0C0000 		.long	0xcae
 4171 23d8 01       		.uleb128 0x1
 4172 23d9 51       		.byte	0x51
 4173 23da 18       		.uleb128 0x18
 4174 23db 63000000 		.secrel32	.LASF15
 4175 23df 1302     		.word	0x213
 4176 23e1 16       		.byte	0x16
 4177 23e2 82030000 		.long	0x382
 4178 23e6 1E       		.uleb128 0x1e
 4179 23e7 1C070000 		.quad	.LVL117
 4179      00000000 
 4180 23ef 07       		.uleb128 0x7
 4181 23f0 01       		.uleb128 0x1
 4182 23f1 52       		.byte	0x52
 4183 23f2 02       		.uleb128 0x2
 4184 23f3 73       		.byte	0x73
 4185 23f4 00       		.sleb128 0
 4186 23f5 00       		.byte	0
 4187 23f6 00       		.byte	0
 4188 23f7 39       		.uleb128 0x39
 4189 23f8 4C696249 		.ascii "LibInstallProtocolInterfaces\0"
 4189      6E737461 
 4189      6C6C5072 
 4189      6F746F63 
 4189      6F6C496E 
 4190 2415 01       		.byte	0x1
 4191 2416 B601     		.word	0x1b6
 4192 2418 01       		.byte	0x1
 4193 2419 4C030000 		.long	0x34c
 4194 241d C9050000 		.quad	.LFB9
 4194      00000000 
 4195 2425 0B010000 		.quad	.LFE9-.LFB9
 4195      00000000 
 4196 242d 01       		.uleb128 0x1
 4197 242e 9C       		.byte	0x9c
 4198 242f 04250000 		.long	0x2504
 4199 2433 27       		.uleb128 0x27
 4200 2434 77000000 		.secrel32	.LASF14
 4201 2438 B701     		.word	0x1b7
 4202 243a 22       		.byte	0x22
 4203 243b DC0F0000 		.long	0xfdc
 4204 243f D5000000 		.secrel32	.LLST24
 4205 2443 CD000000 		.secrel32	.LVUS24
 4206 2447 14       		.uleb128 0x14
 4207 2448 16       		.uleb128 0x16
 4208 2449 61726773 		.ascii "args\0"
 4208      00
 4209 244e BB01     		.word	0x1bb
 4210 2450 15       		.byte	0x15
 4211 2451 62020000 		.long	0x262
 4212 2455 02       		.uleb128 0x2
 4213 2456 91       		.byte	0x91
 4214 2457 48       		.sleb128 -56
 4215 2458 17       		.uleb128 0x17
 4216 2459 44000000 		.secrel32	.LASF6
 4217 245d BC01     		.word	0x1bc
 4218 245f 15       		.byte	0x15
 4219 2460 4C030000 		.long	0x34c
 4220 2464 03010000 		.secrel32	.LLST25
 4221 2468 F5000000 		.secrel32	.LVUS25
 4222 246c 18       		.uleb128 0x18
 4223 246d 87000000 		.secrel32	.LASF12
 4224 2471 BD01     		.word	0x1bd
 4225 2473 16       		.byte	0x16
 4226 2474 AE0C0000 		.long	0xcae
 4227 2478 18       		.uleb128 0x18
 4228 2479 63000000 		.secrel32	.LASF15
 4229 247d BE01     		.word	0x1be
 4230 247f 16       		.byte	0x16
 4231 2480 82030000 		.long	0x382
 4232 2484 28       		.uleb128 0x28
 4233 2485 4F6C6454 		.ascii "OldTpl\0"
 4233      706C00
 4234 248c BF01     		.word	0x1bf
 4235 248e 5F030000 		.long	0x35f
 4236 2492 3C010000 		.secrel32	.LLST26
 4237 2496 36010000 		.secrel32	.LVUS26
 4238 249a 17       		.uleb128 0x17
 4239 249b 00000000 		.secrel32	.LASF13
 4240 249f C001     		.word	0x1c0
 4241 24a1 15       		.byte	0x15
 4242 24a2 25030000 		.long	0x325
 4243 24a6 58010000 		.secrel32	.LLST27
 4244 24aa 52010000 		.secrel32	.LVUS27
 4245 24ae 28       		.uleb128 0x28
 4246 24af 4F6C6448 		.ascii "OldHandle\0"
 4246      616E646C 
 4246      6500
 4247 24b9 C101     		.word	0x1c1
 4248 24bb 6F030000 		.long	0x36f
 4249 24bf 73010000 		.secrel32	.LLST28
 4250 24c3 6F010000 		.secrel32	.LVUS28
 4251 24c7 0D       		.uleb128 0xd
 4252 24c8 F7050000 		.quad	.LVL97
 4252      00000000 
 4253 24d0 DA240000 		.long	0x24da
 4254 24d4 07       		.uleb128 0x7
 4255 24d5 01       		.uleb128 0x1
 4256 24d6 52       		.byte	0x52
 4257 24d7 01       		.uleb128 0x1
 4258 24d8 40       		.byte	0x40
 4259 24d9 00       		.byte	0
 4260 24da 0D       		.uleb128 0xd
 4261 24db 5D060000 		.quad	.LVL103
 4261      00000000 
 4262 24e3 F3240000 		.long	0x24f3
 4263 24e7 07       		.uleb128 0x7
 4264 24e8 01       		.uleb128 0x1
 4265 24e9 52       		.byte	0x52
 4266 24ea 02       		.uleb128 0x2
 4267 24eb 75       		.byte	0x75
 4268 24ec 00       		.sleb128 0
 4269 24ed 07       		.uleb128 0x7
 4270 24ee 01       		.uleb128 0x1
 4271 24ef 58       		.byte	0x58
 4272 24f0 01       		.uleb128 0x1
 4273 24f1 30       		.byte	0x30
 4274 24f2 00       		.byte	0
 4275 24f3 1E       		.uleb128 0x1e
 4276 24f4 7A060000 		.quad	.LVL106
 4276      00000000 
 4277 24fc 07       		.uleb128 0x7
 4278 24fd 01       		.uleb128 0x1
 4279 24fe 52       		.byte	0x52
 4280 24ff 02       		.uleb128 0x2
 4281 2500 76       		.byte	0x76
 4282 2501 00       		.sleb128 0
 4283 2502 00       		.byte	0
 4284 2503 00       		.byte	0
 4285 2504 15       		.uleb128 0x15
 4286 2505 4C696246 		.ascii "LibFileSystemVolumeLabelInfo\0"
 4286      696C6553 
 4286      79737465 
 4286      6D566F6C 
 4286      756D654C 
 4287 2522 9101     		.word	0x191
 4288 2524 B9250000 		.long	0x25b9
 4289 2528 65050000 		.quad	.LFB8
 4289      00000000 
 4290 2530 64000000 		.quad	.LFE8-.LFB8
 4290      00000000 
 4291 2538 01       		.uleb128 0x1
 4292 2539 9C       		.byte	0x9c
 4293 253a B9250000 		.long	0x25b9
 4294 253e 1F       		.uleb128 0x1f
 4295 253f 4648616E 		.ascii "FHand\0"
 4295      6400
 4296 2545 9201     		.word	0x192
 4297 2547 1D       		.byte	0x1d
 4298 2548 1D0E0000 		.long	0xe1d
 4299 254c 88010000 		.secrel32	.LLST23
 4300 2550 82010000 		.secrel32	.LVUS23
 4301 2554 0E       		.uleb128 0xe
 4302 2555 44000000 		.secrel32	.LASF6
 4303 2559 9501     		.word	0x195
 4304 255b 27       		.byte	0x27
 4305 255c 4C030000 		.long	0x34c
 4306 2560 02       		.uleb128 0x2
 4307 2561 91       		.byte	0x91
 4308 2562 68       		.sleb128 -24
 4309 2563 0E       		.uleb128 0xe
 4310 2564 06000000 		.secrel32	.LASF8
 4311 2568 9601     		.word	0x196
 4312 256a 28       		.byte	0x28
 4313 256b B9250000 		.long	0x25b9
 4314 256f 02       		.uleb128 0x2
 4315 2570 91       		.byte	0x91
 4316 2571 60       		.sleb128 -32
 4317 2572 0E       		.uleb128 0xe
 4318 2573 58000000 		.secrel32	.LASF7
 4319 2577 9701     		.word	0x197
 4320 2579 27       		.byte	0x27
 4321 257a 25030000 		.long	0x325
 4322 257e 02       		.uleb128 0x2
 4323 257f 91       		.byte	0x91
 4324 2580 58       		.sleb128 -40
 4325 2581 0D       		.uleb128 0xd
 4326 2582 A1050000 		.quad	.LVL92
 4326      00000000 
 4327 258a 9E250000 		.long	0x259e
 4328 258e 07       		.uleb128 0x7
 4329 258f 01       		.uleb128 0x1
 4330 2590 52       		.byte	0x52
 4331 2591 02       		.uleb128 0x2
 4332 2592 73       		.byte	0x73
 4333 2593 00       		.sleb128 0
 4334 2594 10       		.uleb128 0x10
 4335 2595 01       		.uleb128 0x1
 4336 2596 51       		.byte	0x51
 4337 2597 07       		.uleb128 0x7
 4338 2598 01       		.uleb128 0x1
 4339 2599 58       		.byte	0x58
 4340 259a 02       		.uleb128 0x2
 4341 259b 91       		.byte	0x91
 4342 259c 58       		.sleb128 -40
 4343 259d 00       		.byte	0
 4344 259e 20       		.uleb128 0x20
 4345 259f BA050000 		.quad	.LVL93
 4345      00000000 
 4346 25a7 0B220000 		.long	0x220b
 4347 25ab 07       		.uleb128 0x7
 4348 25ac 01       		.uleb128 0x1
 4349 25ad 52       		.byte	0x52
 4350 25ae 02       		.uleb128 0x2
 4351 25af 91       		.byte	0x91
 4352 25b0 68       		.sleb128 -24
 4353 25b1 07       		.uleb128 0x7
 4354 25b2 01       		.uleb128 0x1
 4355 25b3 51       		.byte	0x51
 4356 25b4 02       		.uleb128 0x2
 4357 25b5 91       		.byte	0x91
 4358 25b6 60       		.sleb128 -32
 4359 25b7 00       		.byte	0
 4360 25b8 00       		.byte	0
 4361 25b9 02       		.uleb128 0x2
 4362 25ba A70F0000 		.long	0xfa7
 4363 25be 15       		.uleb128 0x15
 4364 25bf 4C696246 		.ascii "LibFileSystemInfo\0"
 4364      696C6553 
 4364      79737465 
 4364      6D496E66 
 4364      6F00
 4365 25d1 6E01     		.word	0x16e
 4366 25d3 68260000 		.long	0x2668
 4367 25d7 01050000 		.quad	.LFB7
 4367      00000000 
 4368 25df 64000000 		.quad	.LFE7-.LFB7
 4368      00000000 
 4369 25e7 01       		.uleb128 0x1
 4370 25e8 9C       		.byte	0x9c
 4371 25e9 68260000 		.long	0x2668
 4372 25ed 1F       		.uleb128 0x1f
 4373 25ee 4648616E 		.ascii "FHand\0"
 4373      6400
 4374 25f4 6F01     		.word	0x16f
 4375 25f6 1D       		.byte	0x1d
 4376 25f7 1D0E0000 		.long	0xe1d
 4377 25fb A7010000 		.secrel32	.LLST22
 4378 25ff A1010000 		.secrel32	.LVUS22
 4379 2603 0E       		.uleb128 0xe
 4380 2604 44000000 		.secrel32	.LASF6
 4381 2608 7201     		.word	0x172
 4382 260a 1D       		.byte	0x1d
 4383 260b 4C030000 		.long	0x34c
 4384 260f 02       		.uleb128 0x2
 4385 2610 91       		.byte	0x91
 4386 2611 68       		.sleb128 -24
 4387 2612 0E       		.uleb128 0xe
 4388 2613 06000000 		.secrel32	.LASF8
 4389 2617 7301     		.word	0x173
 4390 2619 1E       		.byte	0x1e
 4391 261a 68260000 		.long	0x2668
 4392 261e 02       		.uleb128 0x2
 4393 261f 91       		.byte	0x91
 4394 2620 60       		.sleb128 -32
 4395 2621 0E       		.uleb128 0xe
 4396 2622 58000000 		.secrel32	.LASF7
 4397 2626 7401     		.word	0x174
 4398 2628 1D       		.byte	0x1d
 4399 2629 25030000 		.long	0x325
 4400 262d 02       		.uleb128 0x2
 4401 262e 91       		.byte	0x91
 4402 262f 58       		.sleb128 -40
 4403 2630 0D       		.uleb128 0xd
 4404 2631 3D050000 		.quad	.LVL87
 4404      00000000 
 4405 2639 4D260000 		.long	0x264d
 4406 263d 07       		.uleb128 0x7
 4407 263e 01       		.uleb128 0x1
 4408 263f 52       		.byte	0x52
 4409 2640 02       		.uleb128 0x2
 4410 2641 73       		.byte	0x73
 4411 2642 00       		.sleb128 0
 4412 2643 10       		.uleb128 0x10
 4413 2644 01       		.uleb128 0x1
 4414 2645 51       		.byte	0x51
 4415 2646 07       		.uleb128 0x7
 4416 2647 01       		.uleb128 0x1
 4417 2648 58       		.byte	0x58
 4418 2649 02       		.uleb128 0x2
 4419 264a 91       		.byte	0x91
 4420 264b 58       		.sleb128 -40
 4421 264c 00       		.byte	0
 4422 264d 20       		.uleb128 0x20
 4423 264e 56050000 		.quad	.LVL88
 4423      00000000 
 4424 2656 0B220000 		.long	0x220b
 4425 265a 07       		.uleb128 0x7
 4426 265b 01       		.uleb128 0x1
 4427 265c 52       		.byte	0x52
 4428 265d 02       		.uleb128 0x2
 4429 265e 91       		.byte	0x91
 4430 265f 68       		.sleb128 -24
 4431 2660 07       		.uleb128 0x7
 4432 2661 01       		.uleb128 0x1
 4433 2662 51       		.byte	0x51
 4434 2663 02       		.uleb128 0x2
 4435 2664 91       		.byte	0x91
 4436 2665 60       		.sleb128 -32
 4437 2666 00       		.byte	0
 4438 2667 00       		.byte	0
 4439 2668 02       		.uleb128 0x2
 4440 2669 710F0000 		.long	0xf71
 4441 266d 15       		.uleb128 0x15
 4442 266e 4C696246 		.ascii "LibFileInfo\0"
 4442      696C6549 
 4442      6E666F00 
 4443 267a 4A01     		.word	0x14a
 4444 267c F4200000 		.long	0x20f4
 4445 2680 9D040000 		.quad	.LFB6
 4445      00000000 
 4446 2688 64000000 		.quad	.LFE6-.LFB6
 4446      00000000 
 4447 2690 01       		.uleb128 0x1
 4448 2691 9C       		.byte	0x9c
 4449 2692 11270000 		.long	0x2711
 4450 2696 1F       		.uleb128 0x1f
 4451 2697 4648616E 		.ascii "FHand\0"
 4451      6400
 4452 269d 4B01     		.word	0x14b
 4453 269f 1D       		.byte	0x1d
 4454 26a0 1D0E0000 		.long	0xe1d
 4455 26a4 C6010000 		.secrel32	.LLST21
 4456 26a8 C0010000 		.secrel32	.LVUS21
 4457 26ac 0E       		.uleb128 0xe
 4458 26ad 44000000 		.secrel32	.LASF6
 4459 26b1 4E01     		.word	0x14e
 4460 26b3 1D       		.byte	0x1d
 4461 26b4 4C030000 		.long	0x34c
 4462 26b8 02       		.uleb128 0x2
 4463 26b9 91       		.byte	0x91
 4464 26ba 68       		.sleb128 -24
 4465 26bb 0E       		.uleb128 0xe
 4466 26bc 06000000 		.secrel32	.LASF8
 4467 26c0 4F01     		.word	0x14f
 4468 26c2 1E       		.byte	0x1e
 4469 26c3 F4200000 		.long	0x20f4
 4470 26c7 02       		.uleb128 0x2
 4471 26c8 91       		.byte	0x91
 4472 26c9 60       		.sleb128 -32
 4473 26ca 0E       		.uleb128 0xe
 4474 26cb 58000000 		.secrel32	.LASF7
 4475 26cf 5001     		.word	0x150
 4476 26d1 1D       		.byte	0x1d
 4477 26d2 25030000 		.long	0x325
 4478 26d6 02       		.uleb128 0x2
 4479 26d7 91       		.byte	0x91
 4480 26d8 58       		.sleb128 -40
 4481 26d9 0D       		.uleb128 0xd
 4482 26da D9040000 		.quad	.LVL82
 4482      00000000 
 4483 26e2 F6260000 		.long	0x26f6
 4484 26e6 07       		.uleb128 0x7
 4485 26e7 01       		.uleb128 0x1
 4486 26e8 52       		.byte	0x52
 4487 26e9 02       		.uleb128 0x2
 4488 26ea 73       		.byte	0x73
 4489 26eb 00       		.sleb128 0
 4490 26ec 10       		.uleb128 0x10
 4491 26ed 01       		.uleb128 0x1
 4492 26ee 51       		.byte	0x51
 4493 26ef 07       		.uleb128 0x7
 4494 26f0 01       		.uleb128 0x1
 4495 26f1 58       		.byte	0x58
 4496 26f2 02       		.uleb128 0x2
 4497 26f3 91       		.byte	0x91
 4498 26f4 58       		.sleb128 -40
 4499 26f5 00       		.byte	0
 4500 26f6 20       		.uleb128 0x20
 4501 26f7 F2040000 		.quad	.LVL83
 4501      00000000 
 4502 26ff 0B220000 		.long	0x220b
 4503 2703 07       		.uleb128 0x7
 4504 2704 01       		.uleb128 0x1
 4505 2705 52       		.byte	0x52
 4506 2706 02       		.uleb128 0x2
 4507 2707 91       		.byte	0x91
 4508 2708 68       		.sleb128 -24
 4509 2709 07       		.uleb128 0x7
 4510 270a 01       		.uleb128 0x1
 4511 270b 51       		.byte	0x51
 4512 270c 02       		.uleb128 0x2
 4513 270d 91       		.byte	0x91
 4514 270e 60       		.sleb128 -32
 4515 270f 00       		.byte	0
 4516 2710 00       		.byte	0
 4517 2711 15       		.uleb128 0x15
 4518 2712 4C69624F 		.ascii "LibOpenRoot\0"
 4518      70656E52 
 4518      6F6F7400 
 4519 271e 2B01     		.word	0x12b
 4520 2720 1D0E0000 		.long	0xe1d
 4521 2724 4B040000 		.quad	.LFB5
 4521      00000000 
 4522 272c 52000000 		.quad	.LFE5-.LFB5
 4522      00000000 
 4523 2734 01       		.uleb128 0x1
 4524 2735 9C       		.byte	0x9c
 4525 2736 BC270000 		.long	0x27bc
 4526 273a 1F       		.uleb128 0x1f
 4527 273b 44657669 		.ascii "DeviceHandle\0"
 4527      63654861 
 4527      6E646C65 
 4527      00
 4528 2748 2C01     		.word	0x12c
 4529 274a 21       		.byte	0x21
 4530 274b 6F030000 		.long	0x36f
 4531 274f E3010000 		.secrel32	.LLST19
 4532 2753 DF010000 		.secrel32	.LVUS19
 4533 2757 17       		.uleb128 0x17
 4534 2758 44000000 		.secrel32	.LASF6
 4535 275c 2F01     		.word	0x12f
 4536 275e 21       		.byte	0x21
 4537 275f 4C030000 		.long	0x34c
 4538 2763 FD010000 		.secrel32	.LLST20
 4539 2767 F5010000 		.secrel32	.LVUS20
 4540 276b 16       		.uleb128 0x16
 4541 276c 566F6C75 		.ascii "Volume\0"
 4541      6D6500
 4542 2773 3001     		.word	0x130
 4543 2775 22       		.byte	0x22
 4544 2776 BC270000 		.long	0x27bc
 4545 277a 02       		.uleb128 0x2
 4546 277b 91       		.byte	0x91
 4547 277c 68       		.sleb128 -24
 4548 277d 16       		.uleb128 0x16
 4549 277e 46696C65 		.ascii "File\0"
 4549      00
 4550 2783 3101     		.word	0x131
 4551 2785 21       		.byte	0x21
 4552 2786 1D0E0000 		.long	0xe1d
 4553 278a 02       		.uleb128 0x2
 4554 278b 91       		.byte	0x91
 4555 278c 60       		.sleb128 -32
 4556 278d 0D       		.uleb128 0xd
 4557 278e 6B040000 		.quad	.LVL72
 4557      00000000 
 4558 2796 AB270000 		.long	0x27ab
 4559 279a 07       		.uleb128 0x7
 4560 279b 01       		.uleb128 0x1
 4561 279c 52       		.byte	0x52
 4562 279d 03       		.uleb128 0x3
 4563 279e A3       		.byte	0xa3
 4564 279f 01       		.uleb128 0x1
 4565 27a0 52       		.byte	0x52
 4566 27a1 10       		.uleb128 0x10
 4567 27a2 01       		.uleb128 0x1
 4568 27a3 51       		.byte	0x51
 4569 27a4 07       		.uleb128 0x7
 4570 27a5 01       		.uleb128 0x1
 4571 27a6 58       		.byte	0x58
 4572 27a7 02       		.uleb128 0x2
 4573 27a8 91       		.byte	0x91
 4574 27a9 68       		.sleb128 -24
 4575 27aa 00       		.byte	0
 4576 27ab 1E       		.uleb128 0x1e
 4577 27ac 80040000 		.quad	.LVL74
 4577      00000000 
 4578 27b4 07       		.uleb128 0x7
 4579 27b5 01       		.uleb128 0x1
 4580 27b6 51       		.byte	0x51
 4581 27b7 02       		.uleb128 0x2
 4582 27b8 91       		.byte	0x91
 4583 27b9 60       		.sleb128 -32
 4584 27ba 00       		.byte	0
 4585 27bb 00       		.byte	0
 4586 27bc 02       		.uleb128 0x2
 4587 27bd 100B0000 		.long	0xb10
 4588 27c1 2E       		.uleb128 0x2e
 4589 27c2 4C69624C 		.ascii "LibLocateHandleByDiskSignature\0"
 4589      6F636174 
 4589      6548616E 
 4589      646C6542 
 4589      79446973 
 4590 27e1 69       		.byte	0x69
 4591 27e2 4C030000 		.long	0x34c
 4592 27e6 3D010000 		.quad	.LFB4
 4592      00000000 
 4593 27ee 0E030000 		.quad	.LFE4-.LFB4
 4593      00000000 
 4594 27f6 01       		.uleb128 0x1
 4595 27f7 9C       		.byte	0x9c
 4596 27f8 352A0000 		.long	0x2a35
 4597 27fc 21       		.uleb128 0x21
 4598 27fd 4D425254 		.ascii "MBRType\0"
 4598      79706500 
 4599 2805 6A       		.byte	0x6a
 4600 2806 25       		.byte	0x25
 4601 2807 FC020000 		.long	0x2fc
 4602 280b 1E020000 		.secrel32	.LLST8
 4603 280f 1A020000 		.secrel32	.LVUS8
 4604 2813 11       		.uleb128 0x11
 4605 2814 21000000 		.secrel32	.LASF4
 4606 2818 6B       		.byte	0x6b
 4607 2819 25       		.byte	0x25
 4608 281a FC020000 		.long	0x2fc
 4609 281e 33020000 		.secrel32	.LLST9
 4610 2822 2F020000 		.secrel32	.LVUS9
 4611 2826 11       		.uleb128 0x11
 4612 2827 0D000000 		.secrel32	.LASF3
 4613 282b 6C       		.byte	0x6c
 4614 282c 26       		.byte	0x26
 4615 282d 82030000 		.long	0x382
 4616 2831 48020000 		.secrel32	.LLST10
 4617 2835 44020000 		.secrel32	.LVUS10
 4618 2839 11       		.uleb128 0x11
 4619 283a 6D000000 		.secrel32	.LASF16
 4620 283e 6D       		.byte	0x6d
 4621 283f 26       		.byte	0x26
 4622 2840 26090000 		.long	0x926
 4623 2844 60020000 		.secrel32	.LLST11
 4624 2848 58020000 		.secrel32	.LVUS11
 4625 284c 2F       		.uleb128 0x2f
 4626 284d 06000000 		.secrel32	.LASF8
 4627 2851 6E       		.byte	0x6e
 4628 2852 53170000 		.long	0x1753
 4629 2856 02       		.uleb128 0x2
 4630 2857 91       		.byte	0x91
 4631 2858 20       		.sleb128 32
 4632 2859 22       		.uleb128 0x22
 4633 285a 44000000 		.secrel32	.LASF6
 4634 285e 72       		.byte	0x72
 4635 285f 1B       		.byte	0x1b
 4636 2860 4C030000 		.long	0x34c
 4637 2864 03       		.uleb128 0x3
 4638 2865 91       		.byte	0x91
 4639 2866 A87F     		.sleb128 -88
 4640 2868 22       		.uleb128 0x22
 4641 2869 58000000 		.secrel32	.LASF7
 4642 286d 73       		.byte	0x73
 4643 286e 1B       		.byte	0x1b
 4644 286f 25030000 		.long	0x325
 4645 2873 03       		.uleb128 0x3
 4646 2874 91       		.byte	0x91
 4647 2875 A07F     		.sleb128 -96
 4648 2877 12       		.uleb128 0x12
 4649 2878 4E6F426C 		.ascii "NoBlockIoHandles\0"
 4649      6F636B49 
 4649      6F48616E 
 4649      646C6573 
 4649      00
 4650 2889 74       		.byte	0x74
 4651 288a 1B       		.byte	0x1b
 4652 288b 25030000 		.long	0x325
 4653 288f 84020000 		.secrel32	.LLST12
 4654 2893 80020000 		.secrel32	.LVUS12
 4655 2897 23       		.uleb128 0x23
 4656 2898 426C6F63 		.ascii "BlockIoBuffer\0"
 4656      6B496F42 
 4656      75666665 
 4656      7200
 4657 28a6 75       		.byte	0x75
 4658 28a7 1C       		.byte	0x1c
 4659 28a8 DC0F0000 		.long	0xfdc
 4660 28ac 03       		.uleb128 0x3
 4661 28ad 91       		.byte	0x91
 4662 28ae 987F     		.sleb128 -104
 4663 28b0 23       		.uleb128 0x23
 4664 28b1 44657669 		.ascii "DevicePath\0"
 4664      63655061 
 4664      746800
 4665 28bc 76       		.byte	0x76
 4666 28bd 1C       		.byte	0x1c
 4667 28be CD0F0000 		.long	0xfcd
 4668 28c2 03       		.uleb128 0x3
 4669 28c3 91       		.byte	0x91
 4670 28c4 907F     		.sleb128 -112
 4671 28c6 29       		.uleb128 0x29
 4672 28c7 00000000 		.secrel32	.LASF13
 4673 28cb 77       		.byte	0x77
 4674 28cc 1B       		.byte	0x1b
 4675 28cd 25030000 		.long	0x325
 4676 28d1 9D020000 		.secrel32	.LLST13
 4677 28d5 93020000 		.secrel32	.LVUS13
 4678 28d9 12       		.uleb128 0x12
 4679 28da 4E657874 		.ascii "Next\0"
 4679      00
 4680 28df 78       		.byte	0x78
 4681 28e0 1C       		.byte	0x1c
 4682 28e1 CD0F0000 		.long	0xfcd
 4683 28e5 DF020000 		.secrel32	.LLST14
 4684 28e9 C3020000 		.secrel32	.LVUS14
 4685 28ed 12       		.uleb128 0x12
 4686 28ee 44657650 		.ascii "DevPath\0"
 4686      61746800 
 4687 28f6 78       		.byte	0x78
 4688 28f7 23       		.byte	0x23
 4689 28f8 CD0F0000 		.long	0xfcd
 4690 28fc 73040000 		.secrel32	.LLST15
 4691 2900 6F040000 		.secrel32	.LVUS15
 4692 2904 12       		.uleb128 0x12
 4693 2905 48617264 		.ascii "HardDriveDevicePath\0"
 4693      44726976 
 4693      65446576 
 4693      69636550 
 4693      61746800 
 4694 2919 79       		.byte	0x79
 4695 291a 1C       		.byte	0x1c
 4696 291b 1C090000 		.long	0x91c
 4697 291f 84040000 		.secrel32	.LLST16
 4698 2923 82040000 		.secrel32	.LVUS16
 4699 2927 12       		.uleb128 0x12
 4700 2928 4D617463 		.ascii "Match\0"
 4700      6800
 4701 292e 7A       		.byte	0x7a
 4702 292f 1B       		.byte	0x1b
 4703 2930 33030000 		.long	0x333
 4704 2934 96040000 		.secrel32	.LLST17
 4705 2938 8C040000 		.secrel32	.LVUS17
 4706 293c 12       		.uleb128 0x12
 4707 293d 50726576 		.ascii "PreviousNodeIsHardDriveDevicePath\0"
 4707      696F7573 
 4707      4E6F6465 
 4707      49734861 
 4707      72644472 
 4708 295f 7B       		.byte	0x7b
 4709 2960 1B       		.byte	0x1b
 4710 2961 33030000 		.long	0x333
 4711 2965 C3040000 		.secrel32	.LLST18
 4712 2969 BB040000 		.secrel32	.LVUS18
 4713 296d 0D       		.uleb128 0xd
 4714 296e B9010000 		.quad	.LVL25
 4714      00000000 
 4715 2976 8F290000 		.long	0x298f
 4716 297a 07       		.uleb128 0x7
 4717 297b 01       		.uleb128 0x1
 4718 297c 52       		.byte	0x52
 4719 297d 01       		.uleb128 0x1
 4720 297e 32       		.byte	0x32
 4721 297f 10       		.uleb128 0x10
 4722 2980 01       		.uleb128 0x1
 4723 2981 51       		.byte	0x51
 4724 2982 07       		.uleb128 0x7
 4725 2983 01       		.uleb128 0x1
 4726 2984 58       		.byte	0x58
 4727 2985 01       		.uleb128 0x1
 4728 2986 30       		.byte	0x30
 4729 2987 07       		.uleb128 0x7
 4730 2988 01       		.uleb128 0x1
 4731 2989 59       		.byte	0x59
 4732 298a 03       		.uleb128 0x3
 4733 298b 91       		.byte	0x91
 4734 298c A07F     		.sleb128 -96
 4735 298e 00       		.byte	0
 4736 298f 24       		.uleb128 0x24
 4737 2990 D2010000 		.quad	.LVL26
 4737      00000000 
 4738 2998 0B220000 		.long	0x220b
 4739 299c AF290000 		.long	0x29af
 4740 29a0 07       		.uleb128 0x7
 4741 29a1 01       		.uleb128 0x1
 4742 29a2 52       		.byte	0x52
 4743 29a3 03       		.uleb128 0x3
 4744 29a4 91       		.byte	0x91
 4745 29a5 A87F     		.sleb128 -88
 4746 29a7 07       		.uleb128 0x7
 4747 29a8 01       		.uleb128 0x1
 4748 29a9 51       		.byte	0x51
 4749 29aa 03       		.uleb128 0x3
 4750 29ab 91       		.byte	0x91
 4751 29ac 987F     		.sleb128 -104
 4752 29ae 00       		.byte	0
 4753 29af 19       		.uleb128 0x19
 4754 29b0 0E020000 		.quad	.LVL30
 4754      00000000 
 4755 29b8 31220000 		.long	0x2231
 4756 29bc 24       		.uleb128 0x24
 4757 29bd C9020000 		.quad	.LVL49
 4757      00000000 
 4758 29c5 E9210000 		.long	0x21e9
 4759 29c9 DB290000 		.long	0x29db
 4760 29cd 07       		.uleb128 0x7
 4761 29ce 01       		.uleb128 0x1
 4762 29cf 52       		.byte	0x52
 4763 29d0 03       		.uleb128 0x3
 4764 29d1 91       		.byte	0x91
 4765 29d2 10       		.sleb128 16
 4766 29d3 06       		.byte	0x6
 4767 29d4 07       		.uleb128 0x7
 4768 29d5 01       		.uleb128 0x1
 4769 29d6 51       		.byte	0x51
 4770 29d7 02       		.uleb128 0x2
 4771 29d8 73       		.byte	0x73
 4772 29d9 18       		.sleb128 24
 4773 29da 00       		.byte	0
 4774 29db 0D       		.uleb128 0xd
 4775 29dc 69030000 		.quad	.LVL59
 4775      00000000 
 4776 29e4 F3290000 		.long	0x29f3
 4777 29e8 10       		.uleb128 0x10
 4778 29e9 01       		.uleb128 0x1
 4779 29ea 51       		.byte	0x51
 4780 29eb 07       		.uleb128 0x7
 4781 29ec 01       		.uleb128 0x1
 4782 29ed 58       		.byte	0x58
 4783 29ee 03       		.uleb128 0x3
 4784 29ef 91       		.byte	0x91
 4785 29f0 907F     		.sleb128 -112
 4786 29f2 00       		.byte	0
 4787 29f3 24       		.uleb128 0x24
 4788 29f4 A3030000 		.quad	.LVL63
 4788      00000000 
 4789 29fc D2210000 		.long	0x21d2
 4790 2a00 0D2A0000 		.long	0x2a0d
 4791 2a04 07       		.uleb128 0x7
 4792 2a05 01       		.uleb128 0x1
 4793 2a06 52       		.byte	0x52
 4794 2a07 04       		.uleb128 0x4
 4795 2a08 73       		.byte	0x73
 4796 2a09 00       		.sleb128 0
 4797 2a0a 33       		.byte	0x33
 4798 2a0b 24       		.byte	0x24
 4799 2a0c 00       		.byte	0
 4800 2a0d 19       		.uleb128 0x19
 4801 2a0e C4030000 		.quad	.LVL66
 4801      00000000 
 4802 2a16 31220000 		.long	0x2231
 4803 2a1a 19       		.uleb128 0x19
 4804 2a1b E2030000 		.quad	.LVL67
 4804      00000000 
 4805 2a23 31220000 		.long	0x2231
 4806 2a27 19       		.uleb128 0x19
 4807 2a28 41040000 		.quad	.LVL70
 4807      00000000 
 4808 2a30 31220000 		.long	0x2231
 4809 2a34 00       		.byte	0
 4810 2a35 2E       		.uleb128 0x2e
 4811 2a36 4C69624C 		.ascii "LibLocateHandle\0"
 4811      6F636174 
 4811      6548616E 
 4811      646C6500 
 4812 2a46 3A       		.byte	0x3a
 4813 2a47 4C030000 		.long	0x34c
 4814 2a4b 00000000 		.quad	.LFB3
 4814      00000000 
 4815 2a53 AA000000 		.quad	.LFE3-.LFB3
 4815      00000000 
 4816 2a5b 01       		.uleb128 0x1
 4817 2a5c 9C       		.byte	0x9c
 4818 2a5d 242B0000 		.long	0x2b24
 4819 2a61 21       		.uleb128 0x21
 4820 2a62 53656172 		.ascii "SearchType\0"
 4820      63685479 
 4820      706500
 4821 2a6d 3B       		.byte	0x3b
 4822 2a6e 25       		.byte	0x25
 4823 2a6f E9160000 		.long	0x16e9
 4824 2a73 E8040000 		.secrel32	.LLST0
 4825 2a77 E0040000 		.secrel32	.LVUS0
 4826 2a7b 11       		.uleb128 0x11
 4827 2a7c 87000000 		.secrel32	.LASF12
 4828 2a80 3C       		.byte	0x3c
 4829 2a81 26       		.byte	0x26
 4830 2a82 AE0C0000 		.long	0xcae
 4831 2a86 0D050000 		.secrel32	.LLST1
 4832 2a8a 05050000 		.secrel32	.LVUS1
 4833 2a8e 21       		.uleb128 0x21
 4834 2a8f 53656172 		.ascii "SearchKey\0"
 4834      63684B65 
 4834      7900
 4835 2a99 3D       		.byte	0x3d
 4836 2a9a 26       		.byte	0x26
 4837 2a9b 82030000 		.long	0x382
 4838 2a9f 32050000 		.secrel32	.LLST2
 4839 2aa3 2A050000 		.secrel32	.LVUS2
 4840 2aa7 11       		.uleb128 0x11
 4841 2aa8 6D000000 		.secrel32	.LASF16
 4842 2aac 3E       		.byte	0x3e
 4843 2aad 26       		.byte	0x26
 4844 2aae 26090000 		.long	0x926
 4845 2ab2 57050000 		.secrel32	.LLST3
 4846 2ab6 4F050000 		.secrel32	.LVUS3
 4847 2aba 2F       		.uleb128 0x2f
 4848 2abb 06000000 		.secrel32	.LASF8
 4849 2abf 3F       		.byte	0x3f
 4850 2ac0 53170000 		.long	0x1753
 4851 2ac4 02       		.uleb128 0x2
 4852 2ac5 91       		.byte	0x91
 4853 2ac6 20       		.sleb128 32
 4854 2ac7 22       		.uleb128 0x22
 4855 2ac8 44000000 		.secrel32	.LASF6
 4856 2acc 43       		.byte	0x43
 4857 2acd 19       		.byte	0x19
 4858 2ace 4C030000 		.long	0x34c
 4859 2ad2 02       		.uleb128 0x2
 4860 2ad3 91       		.byte	0x91
 4861 2ad4 48       		.sleb128 -56
 4862 2ad5 22       		.uleb128 0x22
 4863 2ad6 58000000 		.secrel32	.LASF7
 4864 2ada 44       		.byte	0x44
 4865 2adb 19       		.byte	0x19
 4866 2adc 25030000 		.long	0x325
 4867 2ae0 02       		.uleb128 0x2
 4868 2ae1 91       		.byte	0x91
 4869 2ae2 40       		.sleb128 -64
 4870 2ae3 0D       		.uleb128 0xd
 4871 2ae4 60000000 		.quad	.LVL2
 4871      00000000 
 4872 2aec 092B0000 		.long	0x2b09
 4873 2af0 07       		.uleb128 0x7
 4874 2af1 01       		.uleb128 0x1
 4875 2af2 52       		.byte	0x52
 4876 2af3 02       		.uleb128 0x2
 4877 2af4 76       		.byte	0x76
 4878 2af5 00       		.sleb128 0
 4879 2af6 07       		.uleb128 0x7
 4880 2af7 01       		.uleb128 0x1
 4881 2af8 51       		.byte	0x51
 4882 2af9 02       		.uleb128 0x2
 4883 2afa 75       		.byte	0x75
 4884 2afb 00       		.sleb128 0
 4885 2afc 07       		.uleb128 0x7
 4886 2afd 01       		.uleb128 0x1
 4887 2afe 58       		.byte	0x58
 4888 2aff 02       		.uleb128 0x2
 4889 2b00 74       		.byte	0x74
 4890 2b01 00       		.sleb128 0
 4891 2b02 07       		.uleb128 0x7
 4892 2b03 01       		.uleb128 0x1
 4893 2b04 59       		.byte	0x59
 4894 2b05 02       		.uleb128 0x2
 4895 2b06 91       		.byte	0x91
 4896 2b07 40       		.sleb128 -64
 4897 2b08 00       		.byte	0
 4898 2b09 20       		.uleb128 0x20
 4899 2b0a 77000000 		.quad	.LVL3
 4899      00000000 
 4900 2b12 0B220000 		.long	0x220b
 4901 2b16 07       		.uleb128 0x7
 4902 2b17 01       		.uleb128 0x1
 4903 2b18 52       		.byte	0x52
 4904 2b19 02       		.uleb128 0x2
 4905 2b1a 91       		.byte	0x91
 4906 2b1b 48       		.sleb128 -56
 4907 2b1c 07       		.uleb128 0x7
 4908 2b1d 01       		.uleb128 0x1
 4909 2b1e 51       		.byte	0x51
 4910 2b1f 02       		.uleb128 0x2
 4911 2b20 73       		.byte	0x73
 4912 2b21 00       		.sleb128 0
 4913 2b22 00       		.byte	0
 4914 2b23 00       		.byte	0
 4915 2b24 3A       		.uleb128 0x3a
 4916 2b25 4C69624C 		.ascii "LibLocateProtocol\0"
 4916      6F636174 
 4916      6550726F 
 4916      746F636F 
 4916      6C00
 4917 2b37 01       		.byte	0x1
 4918 2b38 17       		.byte	0x17
 4919 2b39 01       		.byte	0x1
 4920 2b3a 4C030000 		.long	0x34c
 4921 2b3e AA000000 		.quad	.LFB2
 4921      00000000 
 4922 2b46 93000000 		.quad	.LFE2-.LFB2
 4922      00000000 
 4923 2b4e 01       		.uleb128 0x1
 4924 2b4f 9C       		.byte	0x9c
 4925 2b50 21       		.uleb128 0x21
 4926 2b51 50726F74 		.ascii "ProtocolGuid\0"
 4926      6F636F6C 
 4926      47756964 
 4926      00
 4927 2b5e 18       		.byte	0x18
 4928 2b5f 16       		.byte	0x16
 4929 2b60 AE0C0000 		.long	0xcae
 4930 2b64 7C050000 		.secrel32	.LLST4
 4931 2b68 74050000 		.secrel32	.LVUS4
 4932 2b6c 11       		.uleb128 0x11
 4933 2b6d 63000000 		.secrel32	.LASF15
 4934 2b71 19       		.byte	0x19
 4935 2b72 17       		.byte	0x17
 4936 2b73 30090000 		.long	0x930
 4937 2b77 A2050000 		.secrel32	.LLST5
 4938 2b7b 9C050000 		.secrel32	.LVUS5
 4939 2b7f 29       		.uleb128 0x29
 4940 2b80 44000000 		.secrel32	.LASF6
 4941 2b84 1F       		.byte	0x1f
 4942 2b85 15       		.byte	0x15
 4943 2b86 4C030000 		.long	0x34c
 4944 2b8a C5050000 		.secrel32	.LLST6
 4945 2b8e BB050000 		.secrel32	.LVUS6
 4946 2b92 23       		.uleb128 0x23
 4947 2b93 4E756D62 		.ascii "NumberHandles\0"
 4947      65724861 
 4947      6E646C65 
 4947      7300
 4948 2ba1 20       		.byte	0x20
 4949 2ba2 15       		.byte	0x15
 4950 2ba3 25030000 		.long	0x325
 4951 2ba7 02       		.uleb128 0x2
 4952 2ba8 91       		.byte	0x91
 4953 2ba9 48       		.sleb128 -56
 4954 2baa 29       		.uleb128 0x29
 4955 2bab 00000000 		.secrel32	.LASF13
 4956 2baf 20       		.byte	0x20
 4957 2bb0 24       		.byte	0x24
 4958 2bb1 25030000 		.long	0x325
 4959 2bb5 EB050000 		.secrel32	.LLST7
 4960 2bb9 E9050000 		.secrel32	.LVUS7
 4961 2bbd 23       		.uleb128 0x23
 4962 2bbe 48616E64 		.ascii "Handles\0"
 4962      6C657300 
 4963 2bc6 21       		.byte	0x21
 4964 2bc7 16       		.byte	0x16
 4965 2bc8 DC0F0000 		.long	0xfdc
 4966 2bcc 02       		.uleb128 0x2
 4967 2bcd 91       		.byte	0x91
 4968 2bce 40       		.sleb128 -64
 4969 2bcf 24       		.uleb128 0x24
 4970 2bd0 E1000000 		.quad	.LVL12
 4970      00000000 
 4971 2bd8 352A0000 		.long	0x2a35
 4972 2bdc FE2B0000 		.long	0x2bfe
 4973 2be0 07       		.uleb128 0x7
 4974 2be1 01       		.uleb128 0x1
 4975 2be2 52       		.byte	0x52
 4976 2be3 01       		.uleb128 0x1
 4977 2be4 32       		.byte	0x32
 4978 2be5 07       		.uleb128 0x7
 4979 2be6 01       		.uleb128 0x1
 4980 2be7 51       		.byte	0x51
 4981 2be8 02       		.uleb128 0x2
 4982 2be9 75       		.byte	0x75
 4983 2bea 00       		.sleb128 0
 4984 2beb 07       		.uleb128 0x7
 4985 2bec 01       		.uleb128 0x1
 4986 2bed 58       		.byte	0x58
 4987 2bee 01       		.uleb128 0x1
 4988 2bef 30       		.byte	0x30
 4989 2bf0 07       		.uleb128 0x7
 4990 2bf1 01       		.uleb128 0x1
 4991 2bf2 59       		.byte	0x59
 4992 2bf3 02       		.uleb128 0x2
 4993 2bf4 91       		.byte	0x91
 4994 2bf5 48       		.sleb128 -56
 4995 2bf6 07       		.uleb128 0x7
 4996 2bf7 02       		.uleb128 0x2
 4997 2bf8 77       		.byte	0x77
 4998 2bf9 20       		.sleb128 32
 4999 2bfa 02       		.uleb128 0x2
 5000 2bfb 91       		.byte	0x91
 5001 2bfc 40       		.sleb128 -64
 5002 2bfd 00       		.byte	0
 5003 2bfe 0D       		.uleb128 0xd
 5004 2bff 14010000 		.quad	.LVL16
 5004      00000000 
 5005 2c07 182C0000 		.long	0x2c18
 5006 2c0b 07       		.uleb128 0x7
 5007 2c0c 01       		.uleb128 0x1
 5008 2c0d 51       		.byte	0x51
 5009 2c0e 02       		.uleb128 0x2
 5010 2c0f 75       		.byte	0x75
 5011 2c10 00       		.sleb128 0
 5012 2c11 07       		.uleb128 0x7
 5013 2c12 01       		.uleb128 0x1
 5014 2c13 58       		.byte	0x58
 5015 2c14 02       		.uleb128 0x2
 5016 2c15 76       		.byte	0x76
 5017 2c16 00       		.sleb128 0
 5018 2c17 00       		.byte	0
 5019 2c18 19       		.uleb128 0x19
 5020 2c19 31010000 		.quad	.LVL19
 5020      00000000 
 5021 2c21 31220000 		.long	0x2231
 5022 2c25 00       		.byte	0
 5023 2c26 00       		.byte	0
 5024              		.section	.debug_abbrev,"dr"
 5025              	.Ldebug_abbrev0:
 5026 0000 01       		.uleb128 0x1
 5027 0001 05       		.uleb128 0x5
 5028 0002 00       		.byte	0
 5029 0003 49       		.uleb128 0x49
 5030 0004 13       		.uleb128 0x13
 5031 0005 00       		.byte	0
 5032 0006 00       		.byte	0
 5033 0007 02       		.uleb128 0x2
 5034 0008 0F       		.uleb128 0xf
 5035 0009 00       		.byte	0
 5036 000a 0B       		.uleb128 0xb
 5037 000b 21       		.uleb128 0x21
 5038 000c 08       		.sleb128 8
 5039 000d 49       		.uleb128 0x49
 5040 000e 13       		.uleb128 0x13
 5041 000f 00       		.byte	0
 5042 0010 00       		.byte	0
 5043 0011 03       		.uleb128 0x3
 5044 0012 0D       		.uleb128 0xd
 5045 0013 00       		.byte	0
 5046 0014 03       		.uleb128 0x3
 5047 0015 08       		.uleb128 0x8
 5048 0016 3A       		.uleb128 0x3a
 5049 0017 0B       		.uleb128 0xb
 5050 0018 3B       		.uleb128 0x3b
 5051 0019 05       		.uleb128 0x5
 5052 001a 39       		.uleb128 0x39
 5053 001b 0B       		.uleb128 0xb
 5054 001c 49       		.uleb128 0x49
 5055 001d 13       		.uleb128 0x13
 5056 001e 38       		.uleb128 0x38
 5057 001f 0B       		.uleb128 0xb
 5058 0020 00       		.byte	0
 5059 0021 00       		.byte	0
 5060 0022 04       		.uleb128 0x4
 5061 0023 16       		.uleb128 0x16
 5062 0024 00       		.byte	0
 5063 0025 03       		.uleb128 0x3
 5064 0026 08       		.uleb128 0x8
 5065 0027 3A       		.uleb128 0x3a
 5066 0028 0B       		.uleb128 0xb
 5067 0029 3B       		.uleb128 0x3b
 5068 002a 05       		.uleb128 0x5
 5069 002b 39       		.uleb128 0x39
 5070 002c 0B       		.uleb128 0xb
 5071 002d 49       		.uleb128 0x49
 5072 002e 13       		.uleb128 0x13
 5073 002f 00       		.byte	0
 5074 0030 00       		.byte	0
 5075 0031 05       		.uleb128 0x5
 5076 0032 15       		.uleb128 0x15
 5077 0033 01       		.byte	0x1
 5078 0034 27       		.uleb128 0x27
 5079 0035 19       		.uleb128 0x19
 5080 0036 49       		.uleb128 0x49
 5081 0037 13       		.uleb128 0x13
 5082 0038 01       		.uleb128 0x1
 5083 0039 13       		.uleb128 0x13
 5084 003a 00       		.byte	0
 5085 003b 00       		.byte	0
 5086 003c 06       		.uleb128 0x6
 5087 003d 16       		.uleb128 0x16
 5088 003e 00       		.byte	0
 5089 003f 03       		.uleb128 0x3
 5090 0040 08       		.uleb128 0x8
 5091 0041 3A       		.uleb128 0x3a
 5092 0042 0B       		.uleb128 0xb
 5093 0043 3B       		.uleb128 0x3b
 5094 0044 0B       		.uleb128 0xb
 5095 0045 39       		.uleb128 0x39
 5096 0046 0B       		.uleb128 0xb
 5097 0047 49       		.uleb128 0x49
 5098 0048 13       		.uleb128 0x13
 5099 0049 00       		.byte	0
 5100 004a 00       		.byte	0
 5101 004b 07       		.uleb128 0x7
 5102 004c 49       		.uleb128 0x49
 5103 004d 00       		.byte	0
 5104 004e 02       		.uleb128 0x2
 5105 004f 18       		.uleb128 0x18
 5106 0050 7E       		.uleb128 0x7e
 5107 0051 18       		.uleb128 0x18
 5108 0052 00       		.byte	0
 5109 0053 00       		.byte	0
 5110 0054 08       		.uleb128 0x8
 5111 0055 28       		.uleb128 0x28
 5112 0056 00       		.byte	0
 5113 0057 03       		.uleb128 0x3
 5114 0058 08       		.uleb128 0x8
 5115 0059 1C       		.uleb128 0x1c
 5116 005a 0B       		.uleb128 0xb
 5117 005b 00       		.byte	0
 5118 005c 00       		.byte	0
 5119 005d 09       		.uleb128 0x9
 5120 005e 0D       		.uleb128 0xd
 5121 005f 00       		.byte	0
 5122 0060 03       		.uleb128 0x3
 5123 0061 08       		.uleb128 0x8
 5124 0062 3A       		.uleb128 0x3a
 5125 0063 0B       		.uleb128 0xb
 5126 0064 3B       		.uleb128 0x3b
 5127 0065 0B       		.uleb128 0xb
 5128 0066 39       		.uleb128 0x39
 5129 0067 0B       		.uleb128 0xb
 5130 0068 49       		.uleb128 0x49
 5131 0069 13       		.uleb128 0x13
 5132 006a 38       		.uleb128 0x38
 5133 006b 0B       		.uleb128 0xb
 5134 006c 00       		.byte	0
 5135 006d 00       		.byte	0
 5136 006e 0A       		.uleb128 0xa
 5137 006f 0D       		.uleb128 0xd
 5138 0070 00       		.byte	0
 5139 0071 03       		.uleb128 0x3
 5140 0072 08       		.uleb128 0x8
 5141 0073 3A       		.uleb128 0x3a
 5142 0074 21       		.uleb128 0x21
 5143 0075 09       		.sleb128 9
 5144 0076 3B       		.uleb128 0x3b
 5145 0077 05       		.uleb128 0x5
 5146 0078 39       		.uleb128 0x39
 5147 0079 0B       		.uleb128 0xb
 5148 007a 49       		.uleb128 0x49
 5149 007b 13       		.uleb128 0x13
 5150 007c 38       		.uleb128 0x38
 5151 007d 05       		.uleb128 0x5
 5152 007e 00       		.byte	0
 5153 007f 00       		.byte	0
 5154 0080 0B       		.uleb128 0xb
 5155 0081 0D       		.uleb128 0xd
 5156 0082 00       		.byte	0
 5157 0083 03       		.uleb128 0x3
 5158 0084 0E       		.uleb128 0xe
 5159 0085 3A       		.uleb128 0x3a
 5160 0086 0B       		.uleb128 0xb
 5161 0087 3B       		.uleb128 0x3b
 5162 0088 05       		.uleb128 0x5
 5163 0089 39       		.uleb128 0x39
 5164 008a 0B       		.uleb128 0xb
 5165 008b 49       		.uleb128 0x49
 5166 008c 13       		.uleb128 0x13
 5167 008d 38       		.uleb128 0x38
 5168 008e 0B       		.uleb128 0xb
 5169 008f 00       		.byte	0
 5170 0090 00       		.byte	0
 5171 0091 0C       		.uleb128 0xc
 5172 0092 24       		.uleb128 0x24
 5173 0093 00       		.byte	0
 5174 0094 0B       		.uleb128 0xb
 5175 0095 0B       		.uleb128 0xb
 5176 0096 3E       		.uleb128 0x3e
 5177 0097 0B       		.uleb128 0xb
 5178 0098 03       		.uleb128 0x3
 5179 0099 08       		.uleb128 0x8
 5180 009a 00       		.byte	0
 5181 009b 00       		.byte	0
 5182 009c 0D       		.uleb128 0xd
 5183 009d 48       		.uleb128 0x48
 5184 009e 01       		.byte	0x1
 5185 009f 7D       		.uleb128 0x7d
 5186 00a0 01       		.uleb128 0x1
 5187 00a1 01       		.uleb128 0x1
 5188 00a2 13       		.uleb128 0x13
 5189 00a3 00       		.byte	0
 5190 00a4 00       		.byte	0
 5191 00a5 0E       		.uleb128 0xe
 5192 00a6 34       		.uleb128 0x34
 5193 00a7 00       		.byte	0
 5194 00a8 03       		.uleb128 0x3
 5195 00a9 0E       		.uleb128 0xe
 5196 00aa 3A       		.uleb128 0x3a
 5197 00ab 21       		.uleb128 0x21
 5198 00ac 01       		.sleb128 1
 5199 00ad 3B       		.uleb128 0x3b
 5200 00ae 05       		.uleb128 0x5
 5201 00af 39       		.uleb128 0x39
 5202 00b0 0B       		.uleb128 0xb
 5203 00b1 49       		.uleb128 0x49
 5204 00b2 13       		.uleb128 0x13
 5205 00b3 02       		.uleb128 0x2
 5206 00b4 18       		.uleb128 0x18
 5207 00b5 00       		.byte	0
 5208 00b6 00       		.byte	0
 5209 00b7 0F       		.uleb128 0xf
 5210 00b8 34       		.uleb128 0x34
 5211 00b9 00       		.byte	0
 5212 00ba 03       		.uleb128 0x3
 5213 00bb 08       		.uleb128 0x8
 5214 00bc 3A       		.uleb128 0x3a
 5215 00bd 21       		.uleb128 0x21
 5216 00be 0A       		.sleb128 10
 5217 00bf 3B       		.uleb128 0x3b
 5218 00c0 0B       		.uleb128 0xb
 5219 00c1 39       		.uleb128 0x39
 5220 00c2 0B       		.uleb128 0xb
 5221 00c3 49       		.uleb128 0x49
 5222 00c4 13       		.uleb128 0x13
 5223 00c5 3F       		.uleb128 0x3f
 5224 00c6 19       		.uleb128 0x19
 5225 00c7 3C       		.uleb128 0x3c
 5226 00c8 19       		.uleb128 0x19
 5227 00c9 00       		.byte	0
 5228 00ca 00       		.byte	0
 5229 00cb 10       		.uleb128 0x10
 5230 00cc 49       		.uleb128 0x49
 5231 00cd 00       		.byte	0
 5232 00ce 02       		.uleb128 0x2
 5233 00cf 18       		.uleb128 0x18
 5234 00d0 00       		.byte	0
 5235 00d1 00       		.byte	0
 5236 00d2 11       		.uleb128 0x11
 5237 00d3 05       		.uleb128 0x5
 5238 00d4 00       		.byte	0
 5239 00d5 03       		.uleb128 0x3
 5240 00d6 0E       		.uleb128 0xe
 5241 00d7 3A       		.uleb128 0x3a
 5242 00d8 21       		.uleb128 0x21
 5243 00d9 01       		.sleb128 1
 5244 00da 3B       		.uleb128 0x3b
 5245 00db 0B       		.uleb128 0xb
 5246 00dc 39       		.uleb128 0x39
 5247 00dd 0B       		.uleb128 0xb
 5248 00de 49       		.uleb128 0x49
 5249 00df 13       		.uleb128 0x13
 5250 00e0 02       		.uleb128 0x2
 5251 00e1 17       		.uleb128 0x17
 5252 00e2 B742     		.uleb128 0x2137
 5253 00e4 17       		.uleb128 0x17
 5254 00e5 00       		.byte	0
 5255 00e6 00       		.byte	0
 5256 00e7 12       		.uleb128 0x12
 5257 00e8 34       		.uleb128 0x34
 5258 00e9 00       		.byte	0
 5259 00ea 03       		.uleb128 0x3
 5260 00eb 08       		.uleb128 0x8
 5261 00ec 3A       		.uleb128 0x3a
 5262 00ed 21       		.uleb128 0x21
 5263 00ee 01       		.sleb128 1
 5264 00ef 3B       		.uleb128 0x3b
 5265 00f0 0B       		.uleb128 0xb
 5266 00f1 39       		.uleb128 0x39
 5267 00f2 0B       		.uleb128 0xb
 5268 00f3 49       		.uleb128 0x49
 5269 00f4 13       		.uleb128 0x13
 5270 00f5 02       		.uleb128 0x2
 5271 00f6 17       		.uleb128 0x17
 5272 00f7 B742     		.uleb128 0x2137
 5273 00f9 17       		.uleb128 0x17
 5274 00fa 00       		.byte	0
 5275 00fb 00       		.byte	0
 5276 00fc 13       		.uleb128 0x13
 5277 00fd 13       		.uleb128 0x13
 5278 00fe 01       		.byte	0x1
 5279 00ff 0B       		.uleb128 0xb
 5280 0100 0B       		.uleb128 0xb
 5281 0101 3A       		.uleb128 0x3a
 5282 0102 0B       		.uleb128 0xb
 5283 0103 3B       		.uleb128 0x3b
 5284 0104 05       		.uleb128 0x5
 5285 0105 39       		.uleb128 0x39
 5286 0106 21       		.uleb128 0x21
 5287 0107 09       		.sleb128 9
 5288 0108 01       		.uleb128 0x1
 5289 0109 13       		.uleb128 0x13
 5290 010a 00       		.byte	0
 5291 010b 00       		.byte	0
 5292 010c 14       		.uleb128 0x14
 5293 010d 18       		.uleb128 0x18
 5294 010e 00       		.byte	0
 5295 010f 00       		.byte	0
 5296 0110 00       		.byte	0
 5297 0111 15       		.uleb128 0x15
 5298 0112 2E       		.uleb128 0x2e
 5299 0113 01       		.byte	0x1
 5300 0114 3F       		.uleb128 0x3f
 5301 0115 19       		.uleb128 0x19
 5302 0116 03       		.uleb128 0x3
 5303 0117 08       		.uleb128 0x8
 5304 0118 3A       		.uleb128 0x3a
 5305 0119 21       		.uleb128 0x21
 5306 011a 01       		.sleb128 1
 5307 011b 3B       		.uleb128 0x3b
 5308 011c 05       		.uleb128 0x5
 5309 011d 39       		.uleb128 0x39
 5310 011e 21       		.uleb128 0x21
 5311 011f 01       		.sleb128 1
 5312 0120 27       		.uleb128 0x27
 5313 0121 19       		.uleb128 0x19
 5314 0122 49       		.uleb128 0x49
 5315 0123 13       		.uleb128 0x13
 5316 0124 11       		.uleb128 0x11
 5317 0125 01       		.uleb128 0x1
 5318 0126 12       		.uleb128 0x12
 5319 0127 07       		.uleb128 0x7
 5320 0128 40       		.uleb128 0x40
 5321 0129 18       		.uleb128 0x18
 5322 012a 7A       		.uleb128 0x7a
 5323 012b 19       		.uleb128 0x19
 5324 012c 01       		.uleb128 0x1
 5325 012d 13       		.uleb128 0x13
 5326 012e 00       		.byte	0
 5327 012f 00       		.byte	0
 5328 0130 16       		.uleb128 0x16
 5329 0131 34       		.uleb128 0x34
 5330 0132 00       		.byte	0
 5331 0133 03       		.uleb128 0x3
 5332 0134 08       		.uleb128 0x8
 5333 0135 3A       		.uleb128 0x3a
 5334 0136 21       		.uleb128 0x21
 5335 0137 01       		.sleb128 1
 5336 0138 3B       		.uleb128 0x3b
 5337 0139 05       		.uleb128 0x5
 5338 013a 39       		.uleb128 0x39
 5339 013b 0B       		.uleb128 0xb
 5340 013c 49       		.uleb128 0x49
 5341 013d 13       		.uleb128 0x13
 5342 013e 02       		.uleb128 0x2
 5343 013f 18       		.uleb128 0x18
 5344 0140 00       		.byte	0
 5345 0141 00       		.byte	0
 5346 0142 17       		.uleb128 0x17
 5347 0143 34       		.uleb128 0x34
 5348 0144 00       		.byte	0
 5349 0145 03       		.uleb128 0x3
 5350 0146 0E       		.uleb128 0xe
 5351 0147 3A       		.uleb128 0x3a
 5352 0148 21       		.uleb128 0x21
 5353 0149 01       		.sleb128 1
 5354 014a 3B       		.uleb128 0x3b
 5355 014b 05       		.uleb128 0x5
 5356 014c 39       		.uleb128 0x39
 5357 014d 0B       		.uleb128 0xb
 5358 014e 49       		.uleb128 0x49
 5359 014f 13       		.uleb128 0x13
 5360 0150 02       		.uleb128 0x2
 5361 0151 17       		.uleb128 0x17
 5362 0152 B742     		.uleb128 0x2137
 5363 0154 17       		.uleb128 0x17
 5364 0155 00       		.byte	0
 5365 0156 00       		.byte	0
 5366 0157 18       		.uleb128 0x18
 5367 0158 34       		.uleb128 0x34
 5368 0159 00       		.byte	0
 5369 015a 03       		.uleb128 0x3
 5370 015b 0E       		.uleb128 0xe
 5371 015c 3A       		.uleb128 0x3a
 5372 015d 21       		.uleb128 0x21
 5373 015e 01       		.sleb128 1
 5374 015f 3B       		.uleb128 0x3b
 5375 0160 05       		.uleb128 0x5
 5376 0161 39       		.uleb128 0x39
 5377 0162 0B       		.uleb128 0xb
 5378 0163 49       		.uleb128 0x49
 5379 0164 13       		.uleb128 0x13
 5380 0165 00       		.byte	0
 5381 0166 00       		.byte	0
 5382 0167 19       		.uleb128 0x19
 5383 0168 48       		.uleb128 0x48
 5384 0169 00       		.byte	0
 5385 016a 7D       		.uleb128 0x7d
 5386 016b 01       		.uleb128 0x1
 5387 016c 7F       		.uleb128 0x7f
 5388 016d 13       		.uleb128 0x13
 5389 016e 00       		.byte	0
 5390 016f 00       		.byte	0
 5391 0170 1A       		.uleb128 0x1a
 5392 0171 01       		.uleb128 0x1
 5393 0172 01       		.byte	0x1
 5394 0173 49       		.uleb128 0x49
 5395 0174 13       		.uleb128 0x13
 5396 0175 01       		.uleb128 0x1
 5397 0176 13       		.uleb128 0x13
 5398 0177 00       		.byte	0
 5399 0178 00       		.byte	0
 5400 0179 1B       		.uleb128 0x1b
 5401 017a 21       		.uleb128 0x21
 5402 017b 00       		.byte	0
 5403 017c 49       		.uleb128 0x49
 5404 017d 13       		.uleb128 0x13
 5405 017e 2F       		.uleb128 0x2f
 5406 017f 0B       		.uleb128 0xb
 5407 0180 00       		.byte	0
 5408 0181 00       		.byte	0
 5409 0182 1C       		.uleb128 0x1c
 5410 0183 13       		.uleb128 0x13
 5411 0184 01       		.byte	0x1
 5412 0185 03       		.uleb128 0x3
 5413 0186 08       		.uleb128 0x8
 5414 0187 0B       		.uleb128 0xb
 5415 0188 0B       		.uleb128 0xb
 5416 0189 3A       		.uleb128 0x3a
 5417 018a 0B       		.uleb128 0xb
 5418 018b 3B       		.uleb128 0x3b
 5419 018c 05       		.uleb128 0x5
 5420 018d 39       		.uleb128 0x39
 5421 018e 21       		.uleb128 0x21
 5422 018f 10       		.sleb128 16
 5423 0190 01       		.uleb128 0x1
 5424 0191 13       		.uleb128 0x13
 5425 0192 00       		.byte	0
 5426 0193 00       		.byte	0
 5427 0194 1D       		.uleb128 0x1d
 5428 0195 15       		.uleb128 0x15
 5429 0196 01       		.byte	0x1
 5430 0197 27       		.uleb128 0x27
 5431 0198 19       		.uleb128 0x19
 5432 0199 01       		.uleb128 0x1
 5433 019a 13       		.uleb128 0x13
 5434 019b 00       		.byte	0
 5435 019c 00       		.byte	0
 5436 019d 1E       		.uleb128 0x1e
 5437 019e 48       		.uleb128 0x48
 5438 019f 01       		.byte	0x1
 5439 01a0 7D       		.uleb128 0x7d
 5440 01a1 01       		.uleb128 0x1
 5441 01a2 00       		.byte	0
 5442 01a3 00       		.byte	0
 5443 01a4 1F       		.uleb128 0x1f
 5444 01a5 05       		.uleb128 0x5
 5445 01a6 00       		.byte	0
 5446 01a7 03       		.uleb128 0x3
 5447 01a8 08       		.uleb128 0x8
 5448 01a9 3A       		.uleb128 0x3a
 5449 01aa 21       		.uleb128 0x21
 5450 01ab 01       		.sleb128 1
 5451 01ac 3B       		.uleb128 0x3b
 5452 01ad 05       		.uleb128 0x5
 5453 01ae 39       		.uleb128 0x39
 5454 01af 0B       		.uleb128 0xb
 5455 01b0 49       		.uleb128 0x49
 5456 01b1 13       		.uleb128 0x13
 5457 01b2 02       		.uleb128 0x2
 5458 01b3 17       		.uleb128 0x17
 5459 01b4 B742     		.uleb128 0x2137
 5460 01b6 17       		.uleb128 0x17
 5461 01b7 00       		.byte	0
 5462 01b8 00       		.byte	0
 5463 01b9 20       		.uleb128 0x20
 5464 01ba 48       		.uleb128 0x48
 5465 01bb 01       		.byte	0x1
 5466 01bc 7D       		.uleb128 0x7d
 5467 01bd 01       		.uleb128 0x1
 5468 01be 7F       		.uleb128 0x7f
 5469 01bf 13       		.uleb128 0x13
 5470 01c0 00       		.byte	0
 5471 01c1 00       		.byte	0
 5472 01c2 21       		.uleb128 0x21
 5473 01c3 05       		.uleb128 0x5
 5474 01c4 00       		.byte	0
 5475 01c5 03       		.uleb128 0x3
 5476 01c6 08       		.uleb128 0x8
 5477 01c7 3A       		.uleb128 0x3a
 5478 01c8 21       		.uleb128 0x21
 5479 01c9 01       		.sleb128 1
 5480 01ca 3B       		.uleb128 0x3b
 5481 01cb 0B       		.uleb128 0xb
 5482 01cc 39       		.uleb128 0x39
 5483 01cd 0B       		.uleb128 0xb
 5484 01ce 49       		.uleb128 0x49
 5485 01cf 13       		.uleb128 0x13
 5486 01d0 02       		.uleb128 0x2
 5487 01d1 17       		.uleb128 0x17
 5488 01d2 B742     		.uleb128 0x2137
 5489 01d4 17       		.uleb128 0x17
 5490 01d5 00       		.byte	0
 5491 01d6 00       		.byte	0
 5492 01d7 22       		.uleb128 0x22
 5493 01d8 34       		.uleb128 0x34
 5494 01d9 00       		.byte	0
 5495 01da 03       		.uleb128 0x3
 5496 01db 0E       		.uleb128 0xe
 5497 01dc 3A       		.uleb128 0x3a
 5498 01dd 21       		.uleb128 0x21
 5499 01de 01       		.sleb128 1
 5500 01df 3B       		.uleb128 0x3b
 5501 01e0 0B       		.uleb128 0xb
 5502 01e1 39       		.uleb128 0x39
 5503 01e2 0B       		.uleb128 0xb
 5504 01e3 49       		.uleb128 0x49
 5505 01e4 13       		.uleb128 0x13
 5506 01e5 02       		.uleb128 0x2
 5507 01e6 18       		.uleb128 0x18
 5508 01e7 00       		.byte	0
 5509 01e8 00       		.byte	0
 5510 01e9 23       		.uleb128 0x23
 5511 01ea 34       		.uleb128 0x34
 5512 01eb 00       		.byte	0
 5513 01ec 03       		.uleb128 0x3
 5514 01ed 08       		.uleb128 0x8
 5515 01ee 3A       		.uleb128 0x3a
 5516 01ef 21       		.uleb128 0x21
 5517 01f0 01       		.sleb128 1
 5518 01f1 3B       		.uleb128 0x3b
 5519 01f2 0B       		.uleb128 0xb
 5520 01f3 39       		.uleb128 0x39
 5521 01f4 0B       		.uleb128 0xb
 5522 01f5 49       		.uleb128 0x49
 5523 01f6 13       		.uleb128 0x13
 5524 01f7 02       		.uleb128 0x2
 5525 01f8 18       		.uleb128 0x18
 5526 01f9 00       		.byte	0
 5527 01fa 00       		.byte	0
 5528 01fb 24       		.uleb128 0x24
 5529 01fc 48       		.uleb128 0x48
 5530 01fd 01       		.byte	0x1
 5531 01fe 7D       		.uleb128 0x7d
 5532 01ff 01       		.uleb128 0x1
 5533 0200 7F       		.uleb128 0x7f
 5534 0201 13       		.uleb128 0x13
 5535 0202 01       		.uleb128 0x1
 5536 0203 13       		.uleb128 0x13
 5537 0204 00       		.byte	0
 5538 0205 00       		.byte	0
 5539 0206 25       		.uleb128 0x25
 5540 0207 13       		.uleb128 0x13
 5541 0208 01       		.byte	0x1
 5542 0209 0B       		.uleb128 0xb
 5543 020a 0B       		.uleb128 0xb
 5544 020b 3A       		.uleb128 0x3a
 5545 020c 21       		.uleb128 0x21
 5546 020d 06       		.sleb128 6
 5547 020e 3B       		.uleb128 0x3b
 5548 020f 0B       		.uleb128 0xb
 5549 0210 39       		.uleb128 0x39
 5550 0211 21       		.uleb128 0x21
 5551 0212 09       		.sleb128 9
 5552 0213 01       		.uleb128 0x1
 5553 0214 13       		.uleb128 0x13
 5554 0215 00       		.byte	0
 5555 0216 00       		.byte	0
 5556 0217 26       		.uleb128 0x26
 5557 0218 04       		.uleb128 0x4
 5558 0219 01       		.byte	0x1
 5559 021a 3E       		.uleb128 0x3e
 5560 021b 21       		.uleb128 0x21
 5561 021c 07       		.sleb128 7
 5562 021d 0B       		.uleb128 0xb
 5563 021e 21       		.uleb128 0x21
 5564 021f 04       		.sleb128 4
 5565 0220 49       		.uleb128 0x49
 5566 0221 13       		.uleb128 0x13
 5567 0222 3A       		.uleb128 0x3a
 5568 0223 0B       		.uleb128 0xb
 5569 0224 3B       		.uleb128 0x3b
 5570 0225 0B       		.uleb128 0xb
 5571 0226 39       		.uleb128 0x39
 5572 0227 21       		.uleb128 0x21
 5573 0228 0E       		.sleb128 14
 5574 0229 01       		.uleb128 0x1
 5575 022a 13       		.uleb128 0x13
 5576 022b 00       		.byte	0
 5577 022c 00       		.byte	0
 5578 022d 27       		.uleb128 0x27
 5579 022e 05       		.uleb128 0x5
 5580 022f 00       		.byte	0
 5581 0230 03       		.uleb128 0x3
 5582 0231 0E       		.uleb128 0xe
 5583 0232 3A       		.uleb128 0x3a
 5584 0233 21       		.uleb128 0x21
 5585 0234 01       		.sleb128 1
 5586 0235 3B       		.uleb128 0x3b
 5587 0236 05       		.uleb128 0x5
 5588 0237 39       		.uleb128 0x39
 5589 0238 0B       		.uleb128 0xb
 5590 0239 49       		.uleb128 0x49
 5591 023a 13       		.uleb128 0x13
 5592 023b 02       		.uleb128 0x2
 5593 023c 17       		.uleb128 0x17
 5594 023d B742     		.uleb128 0x2137
 5595 023f 17       		.uleb128 0x17
 5596 0240 00       		.byte	0
 5597 0241 00       		.byte	0
 5598 0242 28       		.uleb128 0x28
 5599 0243 34       		.uleb128 0x34
 5600 0244 00       		.byte	0
 5601 0245 03       		.uleb128 0x3
 5602 0246 08       		.uleb128 0x8
 5603 0247 3A       		.uleb128 0x3a
 5604 0248 21       		.uleb128 0x21
 5605 0249 01       		.sleb128 1
 5606 024a 3B       		.uleb128 0x3b
 5607 024b 05       		.uleb128 0x5
 5608 024c 39       		.uleb128 0x39
 5609 024d 21       		.uleb128 0x21
 5610 024e 15       		.sleb128 21
 5611 024f 49       		.uleb128 0x49
 5612 0250 13       		.uleb128 0x13
 5613 0251 02       		.uleb128 0x2
 5614 0252 17       		.uleb128 0x17
 5615 0253 B742     		.uleb128 0x2137
 5616 0255 17       		.uleb128 0x17
 5617 0256 00       		.byte	0
 5618 0257 00       		.byte	0
 5619 0258 29       		.uleb128 0x29
 5620 0259 34       		.uleb128 0x34
 5621 025a 00       		.byte	0
 5622 025b 03       		.uleb128 0x3
 5623 025c 0E       		.uleb128 0xe
 5624 025d 3A       		.uleb128 0x3a
 5625 025e 21       		.uleb128 0x21
 5626 025f 01       		.sleb128 1
 5627 0260 3B       		.uleb128 0x3b
 5628 0261 0B       		.uleb128 0xb
 5629 0262 39       		.uleb128 0x39
 5630 0263 0B       		.uleb128 0xb
 5631 0264 49       		.uleb128 0x49
 5632 0265 13       		.uleb128 0x13
 5633 0266 02       		.uleb128 0x2
 5634 0267 17       		.uleb128 0x17
 5635 0268 B742     		.uleb128 0x2137
 5636 026a 17       		.uleb128 0x17
 5637 026b 00       		.byte	0
 5638 026c 00       		.byte	0
 5639 026d 2A       		.uleb128 0x2a
 5640 026e 26       		.uleb128 0x26
 5641 026f 00       		.byte	0
 5642 0270 49       		.uleb128 0x49
 5643 0271 13       		.uleb128 0x13
 5644 0272 00       		.byte	0
 5645 0273 00       		.byte	0
 5646 0274 2B       		.uleb128 0x2b
 5647 0275 04       		.uleb128 0x4
 5648 0276 01       		.byte	0x1
 5649 0277 3E       		.uleb128 0x3e
 5650 0278 21       		.uleb128 0x21
 5651 0279 07       		.sleb128 7
 5652 027a 0B       		.uleb128 0xb
 5653 027b 21       		.uleb128 0x21
 5654 027c 04       		.sleb128 4
 5655 027d 49       		.uleb128 0x49
 5656 027e 13       		.uleb128 0x13
 5657 027f 3A       		.uleb128 0x3a
 5658 0280 21       		.uleb128 0x21
 5659 0281 09       		.sleb128 9
 5660 0282 3B       		.uleb128 0x3b
 5661 0283 05       		.uleb128 0x5
 5662 0284 39       		.uleb128 0x39
 5663 0285 21       		.uleb128 0x21
 5664 0286 0E       		.sleb128 14
 5665 0287 01       		.uleb128 0x1
 5666 0288 13       		.uleb128 0x13
 5667 0289 00       		.byte	0
 5668 028a 00       		.byte	0
 5669 028b 2C       		.uleb128 0x2c
 5670 028c 2E       		.uleb128 0x2e
 5671 028d 01       		.byte	0x1
 5672 028e 3F       		.uleb128 0x3f
 5673 028f 19       		.uleb128 0x19
 5674 0290 03       		.uleb128 0x3
 5675 0291 08       		.uleb128 0x8
 5676 0292 3A       		.uleb128 0x3a
 5677 0293 21       		.uleb128 0x21
 5678 0294 0A       		.sleb128 10
 5679 0295 3B       		.uleb128 0x3b
 5680 0296 05       		.uleb128 0x5
 5681 0297 39       		.uleb128 0x39
 5682 0298 21       		.uleb128 0x21
 5683 0299 01       		.sleb128 1
 5684 029a 27       		.uleb128 0x27
 5685 029b 19       		.uleb128 0x19
 5686 029c 49       		.uleb128 0x49
 5687 029d 13       		.uleb128 0x13
 5688 029e 3C       		.uleb128 0x3c
 5689 029f 19       		.uleb128 0x19
 5690 02a0 01       		.uleb128 0x1
 5691 02a1 13       		.uleb128 0x13
 5692 02a2 00       		.byte	0
 5693 02a3 00       		.byte	0
 5694 02a4 2D       		.uleb128 0x2d
 5695 02a5 34       		.uleb128 0x34
 5696 02a6 00       		.byte	0
 5697 02a7 03       		.uleb128 0x3
 5698 02a8 08       		.uleb128 0x8
 5699 02a9 3A       		.uleb128 0x3a
 5700 02aa 21       		.uleb128 0x21
 5701 02ab 01       		.sleb128 1
 5702 02ac 3B       		.uleb128 0x3b
 5703 02ad 21       		.uleb128 0x21
 5704 02ae BA04     		.sleb128 570
 5705 02b0 39       		.uleb128 0x39
 5706 02b1 0B       		.uleb128 0xb
 5707 02b2 49       		.uleb128 0x49
 5708 02b3 13       		.uleb128 0x13
 5709 02b4 00       		.byte	0
 5710 02b5 00       		.byte	0
 5711 02b6 2E       		.uleb128 0x2e
 5712 02b7 2E       		.uleb128 0x2e
 5713 02b8 01       		.byte	0x1
 5714 02b9 3F       		.uleb128 0x3f
 5715 02ba 19       		.uleb128 0x19
 5716 02bb 03       		.uleb128 0x3
 5717 02bc 08       		.uleb128 0x8
 5718 02bd 3A       		.uleb128 0x3a
 5719 02be 21       		.uleb128 0x21
 5720 02bf 01       		.sleb128 1
 5721 02c0 3B       		.uleb128 0x3b
 5722 02c1 0B       		.uleb128 0xb
 5723 02c2 39       		.uleb128 0x39
 5724 02c3 21       		.uleb128 0x21
 5725 02c4 01       		.sleb128 1
 5726 02c5 27       		.uleb128 0x27
 5727 02c6 19       		.uleb128 0x19
 5728 02c7 49       		.uleb128 0x49
 5729 02c8 13       		.uleb128 0x13
 5730 02c9 11       		.uleb128 0x11
 5731 02ca 01       		.uleb128 0x1
 5732 02cb 12       		.uleb128 0x12
 5733 02cc 07       		.uleb128 0x7
 5734 02cd 40       		.uleb128 0x40
 5735 02ce 18       		.uleb128 0x18
 5736 02cf 7A       		.uleb128 0x7a
 5737 02d0 19       		.uleb128 0x19
 5738 02d1 01       		.uleb128 0x1
 5739 02d2 13       		.uleb128 0x13
 5740 02d3 00       		.byte	0
 5741 02d4 00       		.byte	0
 5742 02d5 2F       		.uleb128 0x2f
 5743 02d6 05       		.uleb128 0x5
 5744 02d7 00       		.byte	0
 5745 02d8 03       		.uleb128 0x3
 5746 02d9 0E       		.uleb128 0xe
 5747 02da 3A       		.uleb128 0x3a
 5748 02db 21       		.uleb128 0x21
 5749 02dc 01       		.sleb128 1
 5750 02dd 3B       		.uleb128 0x3b
 5751 02de 0B       		.uleb128 0xb
 5752 02df 39       		.uleb128 0x39
 5753 02e0 21       		.uleb128 0x21
 5754 02e1 27       		.sleb128 39
 5755 02e2 49       		.uleb128 0x49
 5756 02e3 13       		.uleb128 0x13
 5757 02e4 02       		.uleb128 0x2
 5758 02e5 18       		.uleb128 0x18
 5759 02e6 00       		.byte	0
 5760 02e7 00       		.byte	0
 5761 02e8 30       		.uleb128 0x30
 5762 02e9 11       		.uleb128 0x11
 5763 02ea 01       		.byte	0x1
 5764 02eb 25       		.uleb128 0x25
 5765 02ec 08       		.uleb128 0x8
 5766 02ed 13       		.uleb128 0x13
 5767 02ee 0B       		.uleb128 0xb
 5768 02ef 03       		.uleb128 0x3
 5769 02f0 1F       		.uleb128 0x1f
 5770 02f1 1B       		.uleb128 0x1b
 5771 02f2 1F       		.uleb128 0x1f
 5772 02f3 11       		.uleb128 0x11
 5773 02f4 01       		.uleb128 0x1
 5774 02f5 12       		.uleb128 0x12
 5775 02f6 07       		.uleb128 0x7
 5776 02f7 10       		.uleb128 0x10
 5777 02f8 17       		.uleb128 0x17
 5778 02f9 79       		.uleb128 0x79
 5779 02fa 17       		.uleb128 0x17
 5780 02fb 00       		.byte	0
 5781 02fc 00       		.byte	0
 5782 02fd 31       		.uleb128 0x31
 5783 02fe 0F       		.uleb128 0xf
 5784 02ff 00       		.byte	0
 5785 0300 0B       		.uleb128 0xb
 5786 0301 0B       		.uleb128 0xb
 5787 0302 03       		.uleb128 0x3
 5788 0303 08       		.uleb128 0x8
 5789 0304 49       		.uleb128 0x49
 5790 0305 13       		.uleb128 0x13
 5791 0306 00       		.byte	0
 5792 0307 00       		.byte	0
 5793 0308 32       		.uleb128 0x32
 5794 0309 16       		.uleb128 0x16
 5795 030a 00       		.byte	0
 5796 030b 03       		.uleb128 0x3
 5797 030c 08       		.uleb128 0x8
 5798 030d 3A       		.uleb128 0x3a
 5799 030e 0B       		.uleb128 0xb
 5800 030f 3B       		.uleb128 0x3b
 5801 0310 0B       		.uleb128 0xb
 5802 0311 39       		.uleb128 0x39
 5803 0312 0B       		.uleb128 0xb
 5804 0313 00       		.byte	0
 5805 0314 00       		.byte	0
 5806 0315 33       		.uleb128 0x33
 5807 0316 0D       		.uleb128 0xd
 5808 0317 00       		.byte	0
 5809 0318 03       		.uleb128 0x3
 5810 0319 0E       		.uleb128 0xe
 5811 031a 3A       		.uleb128 0x3a
 5812 031b 0B       		.uleb128 0xb
 5813 031c 3B       		.uleb128 0x3b
 5814 031d 0B       		.uleb128 0xb
 5815 031e 39       		.uleb128 0x39
 5816 031f 0B       		.uleb128 0xb
 5817 0320 49       		.uleb128 0x49
 5818 0321 13       		.uleb128 0x13
 5819 0322 38       		.uleb128 0x38
 5820 0323 0B       		.uleb128 0xb
 5821 0324 00       		.byte	0
 5822 0325 00       		.byte	0
 5823 0326 34       		.uleb128 0x34
 5824 0327 13       		.uleb128 0x13
 5825 0328 01       		.byte	0x1
 5826 0329 03       		.uleb128 0x3
 5827 032a 08       		.uleb128 0x8
 5828 032b 0B       		.uleb128 0xb
 5829 032c 0B       		.uleb128 0xb
 5830 032d 3A       		.uleb128 0x3a
 5831 032e 0B       		.uleb128 0xb
 5832 032f 3B       		.uleb128 0x3b
 5833 0330 0B       		.uleb128 0xb
 5834 0331 39       		.uleb128 0x39
 5835 0332 0B       		.uleb128 0xb
 5836 0333 01       		.uleb128 0x1
 5837 0334 13       		.uleb128 0x13
 5838 0335 00       		.byte	0
 5839 0336 00       		.byte	0
 5840 0337 35       		.uleb128 0x35
 5841 0338 13       		.uleb128 0x13
 5842 0339 01       		.byte	0x1
 5843 033a 03       		.uleb128 0x3
 5844 033b 08       		.uleb128 0x8
 5845 033c 0B       		.uleb128 0xb
 5846 033d 05       		.uleb128 0x5
 5847 033e 3A       		.uleb128 0x3a
 5848 033f 0B       		.uleb128 0xb
 5849 0340 3B       		.uleb128 0x3b
 5850 0341 05       		.uleb128 0x5
 5851 0342 39       		.uleb128 0x39
 5852 0343 0B       		.uleb128 0xb
 5853 0344 01       		.uleb128 0x1
 5854 0345 13       		.uleb128 0x13
 5855 0346 00       		.byte	0
 5856 0347 00       		.byte	0
 5857 0348 36       		.uleb128 0x36
 5858 0349 2E       		.uleb128 0x2e
 5859 034a 01       		.byte	0x1
 5860 034b 3F       		.uleb128 0x3f
 5861 034c 19       		.uleb128 0x19
 5862 034d 03       		.uleb128 0x3
 5863 034e 0E       		.uleb128 0xe
 5864 034f 3A       		.uleb128 0x3a
 5865 0350 0B       		.uleb128 0xb
 5866 0351 3B       		.uleb128 0x3b
 5867 0352 05       		.uleb128 0x5
 5868 0353 39       		.uleb128 0x39
 5869 0354 0B       		.uleb128 0xb
 5870 0355 27       		.uleb128 0x27
 5871 0356 19       		.uleb128 0x19
 5872 0357 49       		.uleb128 0x49
 5873 0358 13       		.uleb128 0x13
 5874 0359 3C       		.uleb128 0x3c
 5875 035a 19       		.uleb128 0x19
 5876 035b 01       		.uleb128 0x1
 5877 035c 13       		.uleb128 0x13
 5878 035d 00       		.byte	0
 5879 035e 00       		.byte	0
 5880 035f 37       		.uleb128 0x37
 5881 0360 2E       		.uleb128 0x2e
 5882 0361 01       		.byte	0x1
 5883 0362 3F       		.uleb128 0x3f
 5884 0363 19       		.uleb128 0x19
 5885 0364 03       		.uleb128 0x3
 5886 0365 0E       		.uleb128 0xe
 5887 0366 3A       		.uleb128 0x3a
 5888 0367 0B       		.uleb128 0xb
 5889 0368 3B       		.uleb128 0x3b
 5890 0369 05       		.uleb128 0x5
 5891 036a 39       		.uleb128 0x39
 5892 036b 0B       		.uleb128 0xb
 5893 036c 27       		.uleb128 0x27
 5894 036d 19       		.uleb128 0x19
 5895 036e 3C       		.uleb128 0x3c
 5896 036f 19       		.uleb128 0x19
 5897 0370 01       		.uleb128 0x1
 5898 0371 13       		.uleb128 0x13
 5899 0372 00       		.byte	0
 5900 0373 00       		.byte	0
 5901 0374 38       		.uleb128 0x38
 5902 0375 2E       		.uleb128 0x2e
 5903 0376 01       		.byte	0x1
 5904 0377 3F       		.uleb128 0x3f
 5905 0378 19       		.uleb128 0x19
 5906 0379 03       		.uleb128 0x3
 5907 037a 08       		.uleb128 0x8
 5908 037b 3A       		.uleb128 0x3a
 5909 037c 0B       		.uleb128 0xb
 5910 037d 3B       		.uleb128 0x3b
 5911 037e 05       		.uleb128 0x5
 5912 037f 39       		.uleb128 0x39
 5913 0380 0B       		.uleb128 0xb
 5914 0381 27       		.uleb128 0x27
 5915 0382 19       		.uleb128 0x19
 5916 0383 11       		.uleb128 0x11
 5917 0384 01       		.uleb128 0x1
 5918 0385 12       		.uleb128 0x12
 5919 0386 07       		.uleb128 0x7
 5920 0387 40       		.uleb128 0x40
 5921 0388 18       		.uleb128 0x18
 5922 0389 7A       		.uleb128 0x7a
 5923 038a 19       		.uleb128 0x19
 5924 038b 01       		.uleb128 0x1
 5925 038c 13       		.uleb128 0x13
 5926 038d 00       		.byte	0
 5927 038e 00       		.byte	0
 5928 038f 39       		.uleb128 0x39
 5929 0390 2E       		.uleb128 0x2e
 5930 0391 01       		.byte	0x1
 5931 0392 3F       		.uleb128 0x3f
 5932 0393 19       		.uleb128 0x19
 5933 0394 03       		.uleb128 0x3
 5934 0395 08       		.uleb128 0x8
 5935 0396 3A       		.uleb128 0x3a
 5936 0397 0B       		.uleb128 0xb
 5937 0398 3B       		.uleb128 0x3b
 5938 0399 05       		.uleb128 0x5
 5939 039a 39       		.uleb128 0x39
 5940 039b 0B       		.uleb128 0xb
 5941 039c 27       		.uleb128 0x27
 5942 039d 19       		.uleb128 0x19
 5943 039e 49       		.uleb128 0x49
 5944 039f 13       		.uleb128 0x13
 5945 03a0 11       		.uleb128 0x11
 5946 03a1 01       		.uleb128 0x1
 5947 03a2 12       		.uleb128 0x12
 5948 03a3 07       		.uleb128 0x7
 5949 03a4 40       		.uleb128 0x40
 5950 03a5 18       		.uleb128 0x18
 5951 03a6 7C       		.uleb128 0x7c
 5952 03a7 19       		.uleb128 0x19
 5953 03a8 01       		.uleb128 0x1
 5954 03a9 13       		.uleb128 0x13
 5955 03aa 00       		.byte	0
 5956 03ab 00       		.byte	0
 5957 03ac 3A       		.uleb128 0x3a
 5958 03ad 2E       		.uleb128 0x2e
 5959 03ae 01       		.byte	0x1
 5960 03af 3F       		.uleb128 0x3f
 5961 03b0 19       		.uleb128 0x19
 5962 03b1 03       		.uleb128 0x3
 5963 03b2 08       		.uleb128 0x8
 5964 03b3 3A       		.uleb128 0x3a
 5965 03b4 0B       		.uleb128 0xb
 5966 03b5 3B       		.uleb128 0x3b
 5967 03b6 0B       		.uleb128 0xb
 5968 03b7 39       		.uleb128 0x39
 5969 03b8 0B       		.uleb128 0xb
 5970 03b9 27       		.uleb128 0x27
 5971 03ba 19       		.uleb128 0x19
 5972 03bb 49       		.uleb128 0x49
 5973 03bc 13       		.uleb128 0x13
 5974 03bd 11       		.uleb128 0x11
 5975 03be 01       		.uleb128 0x1
 5976 03bf 12       		.uleb128 0x12
 5977 03c0 07       		.uleb128 0x7
 5978 03c1 40       		.uleb128 0x40
 5979 03c2 18       		.uleb128 0x18
 5980 03c3 7A       		.uleb128 0x7a
 5981 03c4 19       		.uleb128 0x19
 5982 03c5 00       		.byte	0
 5983 03c6 00       		.byte	0
 5984 03c7 00       		.byte	0
 5985              		.section	.debug_loclists,"dr"
 5986 0000 EF050000 		.long	.Ldebug_loc3-.Ldebug_loc2
 5987              	.Ldebug_loc2:
 5988 0004 0500     		.word	0x5
 5989 0006 08       		.byte	0x8
 5990 0007 00       		.byte	0
 5991 0008 00000000 		.long	0
 5992              	.Ldebug_loc0:
 5993              	.LVUS30:
 5994 000c 00       		.uleb128 0
 5995 000d 00       		.uleb128 .LVU392
 5996 000e 00       		.uleb128 .LVU392
 5997 000f 00       		.uleb128 .LVU424
 5998 0010 00       		.uleb128 .LVU424
 5999 0011 00       		.uleb128 .LVU426
 6000 0012 00       		.uleb128 .LVU426
 6001 0013 00       		.uleb128 0
 6002              	.LLST30:
 6003 0014 04       		.byte	0x4
 6004 0015 B80E     		.uleb128 .LVL119-.Ltext0
 6005 0017 E10E     		.uleb128 .LVL120-.Ltext0
 6006 0019 01       		.uleb128 0x1
 6007 001a 52       		.byte	0x52
 6008 001b 04       		.byte	0x4
 6009 001c E10E     		.uleb128 .LVL120-.Ltext0
 6010 001e F50F     		.uleb128 .LVL132-.Ltext0
 6011 0020 01       		.uleb128 0x1
 6012 0021 55       		.byte	0x55
 6013 0022 04       		.byte	0x4
 6014 0023 F50F     		.uleb128 .LVL132-.Ltext0
 6015 0025 F70F     		.uleb128 .LVL134-.Ltext0
 6016 0027 04       		.uleb128 0x4
 6017 0028 A3       		.byte	0xa3
 6018 0029 01       		.uleb128 0x1
 6019 002a 52       		.byte	0x52
 6020 002b 9F       		.byte	0x9f
 6021 002c 04       		.byte	0x4
 6022 002d F70F     		.uleb128 .LVL134-.Ltext0
 6023 002f CB10     		.uleb128 .LFE11-.Ltext0
 6024 0031 01       		.uleb128 0x1
 6025 0032 55       		.byte	0x55
 6026 0033 00       		.byte	0
 6027              	.LVUS31:
 6028 0034 02       		.uleb128 .LVU395
 6029 0035 00       		.uleb128 .LVU401
 6030 0036 00       		.uleb128 .LVU401
 6031 0037 00       		.uleb128 .LVU403
 6032 0038 00       		.uleb128 .LVU403
 6033 0039 00       		.uleb128 .LVU414
 6034 003a 00       		.uleb128 .LVU414
 6035 003b 00       		.uleb128 .LVU416
 6036 003c 00       		.uleb128 .LVU416
 6037 003d 00       		.uleb128 .LVU422
 6038 003e 00       		.uleb128 .LVU422
 6039 003f 00       		.uleb128 .LVU426
 6040 0040 00       		.uleb128 .LVU426
 6041 0041 00       		.uleb128 0
 6042              	.LLST31:
 6043 0042 04       		.byte	0x4
 6044 0043 E70E     		.uleb128 .LVL122-.Ltext0
 6045 0045 FD0E     		.uleb128 .LVL124-.Ltext0
 6046 0047 02       		.uleb128 0x2
 6047 0048 30       		.byte	0x30
 6048 0049 9F       		.byte	0x9f
 6049 004a 04       		.byte	0x4
 6050 004b FD0E     		.uleb128 .LVL124-.Ltext0
 6051 004d 810F     		.uleb128 .LVL125-.Ltext0
 6052 004f 01       		.uleb128 0x1
 6053 0050 50       		.byte	0x50
 6054 0051 04       		.byte	0x4
 6055 0052 810F     		.uleb128 .LVL125-.Ltext0
 6056 0054 D10F     		.uleb128 .LVL127-.Ltext0
 6057 0056 01       		.uleb128 0x1
 6058 0057 53       		.byte	0x53
 6059 0058 04       		.byte	0x4
 6060 0059 D10F     		.uleb128 .LVL127-.Ltext0
 6061 005b D60F     		.uleb128 .LVL128-.Ltext0
 6062 005d 01       		.uleb128 0x1
 6063 005e 50       		.byte	0x50
 6064 005f 04       		.byte	0x4
 6065 0060 D60F     		.uleb128 .LVL128-.Ltext0
 6066 0062 F30F     		.uleb128 .LVL130-.Ltext0
 6067 0064 01       		.uleb128 0x1
 6068 0065 53       		.byte	0x53
 6069 0066 04       		.byte	0x4
 6070 0067 F30F     		.uleb128 .LVL130-.Ltext0
 6071 0069 F70F     		.uleb128 .LVL134-.Ltext0
 6072 006b 01       		.uleb128 0x1
 6073 006c 50       		.byte	0x50
 6074 006d 04       		.byte	0x4
 6075 006e F70F     		.uleb128 .LVL134-.Ltext0
 6076 0070 CB10     		.uleb128 .LFE11-.Ltext0
 6077 0072 01       		.uleb128 0x1
 6078 0073 53       		.byte	0x53
 6079 0074 00       		.byte	0
 6080              	.LVUS32:
 6081 0075 00       		.uleb128 .LVU393
 6082 0076 00       		.uleb128 .LVU396
 6083 0077 00       		.uleb128 .LVU396
 6084 0078 00       		.uleb128 .LVU425
 6085 0079 00       		.uleb128 .LVU426
 6086 007a 00       		.uleb128 0
 6087              	.LLST32:
 6088 007b 04       		.byte	0x4
 6089 007c E70E     		.uleb128 .LVL122-.Ltext0
 6090 007e EC0E     		.uleb128 .LVL123-.Ltext0
 6091 0080 01       		.uleb128 0x1
 6092 0081 50       		.byte	0x50
 6093 0082 04       		.byte	0x4
 6094 0083 EC0E     		.uleb128 .LVL123-.Ltext0
 6095 0085 F60F     		.uleb128 .LVL133-.Ltext0
 6096 0087 01       		.uleb128 0x1
 6097 0088 56       		.byte	0x56
 6098 0089 04       		.byte	0x4
 6099 008a F70F     		.uleb128 .LVL134-.Ltext0
 6100 008c CB10     		.uleb128 .LFE11-.Ltext0
 6101 008e 01       		.uleb128 0x1
 6102 008f 56       		.byte	0x56
 6103 0090 00       		.byte	0
 6104              	.LVUS33:
 6105 0091 01       		.uleb128 .LVU394
 6106 0092 00       		.uleb128 .LVU401
 6107 0093 00       		.uleb128 .LVU401
 6108 0094 00       		.uleb128 .LVU423
 6109 0095 00       		.uleb128 .LVU426
 6110 0096 00       		.uleb128 0
 6111              	.LLST33:
 6112 0097 04       		.byte	0x4
 6113 0098 E70E     		.uleb128 .LVL122-.Ltext0
 6114 009a FD0E     		.uleb128 .LVL124-.Ltext0
 6115 009c 02       		.uleb128 0x2
 6116 009d 30       		.byte	0x30
 6117 009e 9F       		.byte	0x9f
 6118 009f 04       		.byte	0x4
 6119 00a0 FD0E     		.uleb128 .LVL124-.Ltext0
 6120 00a2 F40F     		.uleb128 .LVL131-.Ltext0
 6121 00a4 01       		.uleb128 0x1
 6122 00a5 54       		.byte	0x54
 6123 00a6 04       		.byte	0x4
 6124 00a7 F70F     		.uleb128 .LVL134-.Ltext0
 6125 00a9 CB10     		.uleb128 .LFE11-.Ltext0
 6126 00ab 01       		.uleb128 0x1
 6127 00ac 54       		.byte	0x54
 6128 00ad 00       		.byte	0
 6129              	.LVUS29:
 6130 00ae 00       		.uleb128 0
 6131 00af 00       		.uleb128 .LVU368
 6132 00b0 00       		.uleb128 .LVU368
 6133 00b1 00       		.uleb128 .LVU381
 6134 00b2 00       		.uleb128 .LVU381
 6135 00b3 00       		.uleb128 0
 6136              	.LLST29:
 6137 00b4 04       		.byte	0x4
 6138 00b5 D40D     		.uleb128 .LVL115-.Ltext0
 6139 00b7 F70D     		.uleb128 .LVL116-.Ltext0
 6140 00b9 01       		.uleb128 0x1
 6141 00ba 52       		.byte	0x52
 6142 00bb 04       		.byte	0x4
 6143 00bc F70D     		.uleb128 .LVL116-.Ltext0
 6144 00be B70E     		.uleb128 .LVL118-.Ltext0
 6145 00c0 01       		.uleb128 0x1
 6146 00c1 53       		.byte	0x53
 6147 00c2 04       		.byte	0x4
 6148 00c3 B70E     		.uleb128 .LVL118-.Ltext0
 6149 00c5 B80E     		.uleb128 .LFE10-.Ltext0
 6150 00c7 04       		.uleb128 0x4
 6151 00c8 A3       		.byte	0xa3
 6152 00c9 01       		.uleb128 0x1
 6153 00ca 52       		.byte	0x52
 6154 00cb 9F       		.byte	0x9f
 6155 00cc 00       		.byte	0
 6156              	.LVUS24:
 6157 00cd 00       		.uleb128 0
 6158 00ce 00       		.uleb128 .LVU311
 6159 00cf 00       		.uleb128 .LVU311
 6160 00d0 00       		.uleb128 .LVU344
 6161 00d1 00       		.uleb128 .LVU344
 6162 00d2 00       		.uleb128 .LVU347
 6163 00d3 00       		.uleb128 .LVU347
 6164 00d4 00       		.uleb128 0
 6165              	.LLST24:
 6166 00d5 04       		.byte	0x4
 6167 00d6 C90B     		.uleb128 .LVL95-.Ltext0
 6168 00d8 F40B     		.uleb128 .LVL96-.Ltext0
 6169 00da 01       		.uleb128 0x1
 6170 00db 52       		.byte	0x52
 6171 00dc 04       		.byte	0x4
 6172 00dd F40B     		.uleb128 .LVL96-.Ltext0
 6173 00df 840D     		.uleb128 .LVL109-.Ltext0
 6174 00e1 01       		.uleb128 0x1
 6175 00e2 55       		.byte	0x55
 6176 00e3 04       		.byte	0x4
 6177 00e4 840D     		.uleb128 .LVL109-.Ltext0
 6178 00e6 880D     		.uleb128 .LVL112-.Ltext0
 6179 00e8 04       		.uleb128 0x4
 6180 00e9 A3       		.byte	0xa3
 6181 00ea 01       		.uleb128 0x1
 6182 00eb 52       		.byte	0x52
 6183 00ec 9F       		.byte	0x9f
 6184 00ed 04       		.byte	0x4
 6185 00ee 880D     		.uleb128 .LVL112-.Ltext0
 6186 00f0 D40D     		.uleb128 .LFE9-.Ltext0
 6187 00f2 01       		.uleb128 0x1
 6188 00f3 55       		.byte	0x55
 6189 00f4 00       		.byte	0
 6190              	.LVUS25:
 6191 00f5 02       		.uleb128 .LVU316
 6192 00f6 00       		.uleb128 .LVU322
 6193 00f7 00       		.uleb128 .LVU322
 6194 00f8 00       		.uleb128 .LVU324
 6195 00f9 00       		.uleb128 .LVU324
 6196 00fa 00       		.uleb128 .LVU334
 6197 00fb 00       		.uleb128 .LVU334
 6198 00fc 00       		.uleb128 .LVU336
 6199 00fd 00       		.uleb128 .LVU336
 6200 00fe 00       		.uleb128 .LVU342
 6201 00ff 00       		.uleb128 .LVU342
 6202 0100 00       		.uleb128 .LVU347
 6203 0101 00       		.uleb128 .LVU347
 6204 0102 00       		.uleb128 0
 6205              	.LLST25:
 6206 0103 04       		.byte	0x4
 6207 0104 FD0B     		.uleb128 .LVL99-.Ltext0
 6208 0106 930C     		.uleb128 .LVL101-.Ltext0
 6209 0108 02       		.uleb128 0x2
 6210 0109 30       		.byte	0x30
 6211 010a 9F       		.byte	0x9f
 6212 010b 04       		.byte	0x4
 6213 010c 930C     		.uleb128 .LVL101-.Ltext0
 6214 010e 970C     		.uleb128 .LVL102-.Ltext0
 6215 0110 01       		.uleb128 0x1
 6216 0111 50       		.byte	0x50
 6217 0112 04       		.byte	0x4
 6218 0113 970C     		.uleb128 .LVL102-.Ltext0
 6219 0115 E00C     		.uleb128 .LVL104-.Ltext0
 6220 0117 01       		.uleb128 0x1
 6221 0118 53       		.byte	0x53
 6222 0119 04       		.byte	0x4
 6223 011a E00C     		.uleb128 .LVL104-.Ltext0
 6224 011c E50C     		.uleb128 .LVL105-.Ltext0
 6225 011e 01       		.uleb128 0x1
 6226 011f 50       		.byte	0x50
 6227 0120 04       		.byte	0x4
 6228 0121 E50C     		.uleb128 .LVL105-.Ltext0
 6229 0123 820D     		.uleb128 .LVL107-.Ltext0
 6230 0125 01       		.uleb128 0x1
 6231 0126 53       		.byte	0x53
 6232 0127 04       		.byte	0x4
 6233 0128 820D     		.uleb128 .LVL107-.Ltext0
 6234 012a 880D     		.uleb128 .LVL112-.Ltext0
 6235 012c 01       		.uleb128 0x1
 6236 012d 50       		.byte	0x50
 6237 012e 04       		.byte	0x4
 6238 012f 880D     		.uleb128 .LVL112-.Ltext0
 6239 0131 D40D     		.uleb128 .LFE9-.Ltext0
 6240 0133 01       		.uleb128 0x1
 6241 0134 53       		.byte	0x53
 6242 0135 00       		.byte	0
 6243              	.LVUS26:
 6244 0136 00       		.uleb128 .LVU312
 6245 0137 00       		.uleb128 .LVU317
 6246 0138 00       		.uleb128 .LVU317
 6247 0139 00       		.uleb128 .LVU345
 6248 013a 00       		.uleb128 .LVU347
 6249 013b 00       		.uleb128 0
 6250              	.LLST26:
 6251 013c 04       		.byte	0x4
 6252 013d FA0B     		.uleb128 .LVL98-.Ltext0
 6253 013f 820C     		.uleb128 .LVL100-.Ltext0
 6254 0141 01       		.uleb128 0x1
 6255 0142 50       		.byte	0x50
 6256 0143 04       		.byte	0x4
 6257 0144 820C     		.uleb128 .LVL100-.Ltext0
 6258 0146 850D     		.uleb128 .LVL110-.Ltext0
 6259 0148 01       		.uleb128 0x1
 6260 0149 56       		.byte	0x56
 6261 014a 04       		.byte	0x4
 6262 014b 880D     		.uleb128 .LVL112-.Ltext0
 6263 014d D40D     		.uleb128 .LFE9-.Ltext0
 6264 014f 01       		.uleb128 0x1
 6265 0150 56       		.byte	0x56
 6266 0151 00       		.byte	0
 6267              	.LVUS27:
 6268 0152 01       		.uleb128 .LVU315
 6269 0153 00       		.uleb128 .LVU322
 6270 0154 00       		.uleb128 .LVU322
 6271 0155 00       		.uleb128 .LVU343
 6272 0156 00       		.uleb128 .LVU347
 6273 0157 00       		.uleb128 0
 6274              	.LLST27:
 6275 0158 04       		.byte	0x4
 6276 0159 FD0B     		.uleb128 .LVL99-.Ltext0
 6277 015b 930C     		.uleb128 .LVL101-.Ltext0
 6278 015d 02       		.uleb128 0x2
 6279 015e 30       		.byte	0x30
 6280 015f 9F       		.byte	0x9f
 6281 0160 04       		.byte	0x4
 6282 0161 930C     		.uleb128 .LVL101-.Ltext0
 6283 0163 830D     		.uleb128 .LVL108-.Ltext0
 6284 0165 01       		.uleb128 0x1
 6285 0166 54       		.byte	0x54
 6286 0167 04       		.byte	0x4
 6287 0168 880D     		.uleb128 .LVL112-.Ltext0
 6288 016a D40D     		.uleb128 .LFE9-.Ltext0
 6289 016c 01       		.uleb128 0x1
 6290 016d 54       		.byte	0x54
 6291 016e 00       		.byte	0
 6292              	.LVUS28:
 6293 016f 00       		.uleb128 .LVU314
 6294 0170 00       		.uleb128 .LVU346
 6295 0171 00       		.uleb128 .LVU347
 6296 0172 00       		.uleb128 0
 6297              	.LLST28:
 6298 0173 04       		.byte	0x4
 6299 0174 FD0B     		.uleb128 .LVL99-.Ltext0
 6300 0176 870D     		.uleb128 .LVL111-.Ltext0
 6301 0178 01       		.uleb128 0x1
 6302 0179 5C       		.byte	0x5c
 6303 017a 04       		.byte	0x4
 6304 017b 880D     		.uleb128 .LVL112-.Ltext0
 6305 017d D40D     		.uleb128 .LFE9-.Ltext0
 6306 017f 01       		.uleb128 0x1
 6307 0180 5C       		.byte	0x5c
 6308 0181 00       		.byte	0
 6309              	.LVUS23:
 6310 0182 00       		.uleb128 0
 6311 0183 00       		.uleb128 .LVU292
 6312 0184 00       		.uleb128 .LVU292
 6313 0185 00       		.uleb128 .LVU299
 6314 0186 00       		.uleb128 .LVU299
 6315 0187 00       		.uleb128 0
 6316              	.LLST23:
 6317 0188 04       		.byte	0x4
 6318 0189 E50A     		.uleb128 .LVL90-.Ltext0
 6319 018b 8A0B     		.uleb128 .LVL91-.Ltext0
 6320 018d 01       		.uleb128 0x1
 6321 018e 52       		.byte	0x52
 6322 018f 04       		.byte	0x4
 6323 0190 8A0B     		.uleb128 .LVL91-.Ltext0
 6324 0192 C80B     		.uleb128 .LVL94-.Ltext0
 6325 0194 01       		.uleb128 0x1
 6326 0195 53       		.byte	0x53
 6327 0196 04       		.byte	0x4
 6328 0197 C80B     		.uleb128 .LVL94-.Ltext0
 6329 0199 C90B     		.uleb128 .LFE8-.Ltext0
 6330 019b 04       		.uleb128 0x4
 6331 019c A3       		.byte	0xa3
 6332 019d 01       		.uleb128 0x1
 6333 019e 52       		.byte	0x52
 6334 019f 9F       		.byte	0x9f
 6335 01a0 00       		.byte	0
 6336              	.LVUS22:
 6337 01a1 00       		.uleb128 0
 6338 01a2 00       		.uleb128 .LVU271
 6339 01a3 00       		.uleb128 .LVU271
 6340 01a4 00       		.uleb128 .LVU278
 6341 01a5 00       		.uleb128 .LVU278
 6342 01a6 00       		.uleb128 0
 6343              	.LLST22:
 6344 01a7 04       		.byte	0x4
 6345 01a8 810A     		.uleb128 .LVL85-.Ltext0
 6346 01aa A60A     		.uleb128 .LVL86-.Ltext0
 6347 01ac 01       		.uleb128 0x1
 6348 01ad 52       		.byte	0x52
 6349 01ae 04       		.byte	0x4
 6350 01af A60A     		.uleb128 .LVL86-.Ltext0
 6351 01b1 E40A     		.uleb128 .LVL89-.Ltext0
 6352 01b3 01       		.uleb128 0x1
 6353 01b4 53       		.byte	0x53
 6354 01b5 04       		.byte	0x4
 6355 01b6 E40A     		.uleb128 .LVL89-.Ltext0
 6356 01b8 E50A     		.uleb128 .LFE7-.Ltext0
 6357 01ba 04       		.uleb128 0x4
 6358 01bb A3       		.byte	0xa3
 6359 01bc 01       		.uleb128 0x1
 6360 01bd 52       		.byte	0x52
 6361 01be 9F       		.byte	0x9f
 6362 01bf 00       		.byte	0
 6363              	.LVUS21:
 6364 01c0 00       		.uleb128 0
 6365 01c1 00       		.uleb128 .LVU250
 6366 01c2 00       		.uleb128 .LVU250
 6367 01c3 00       		.uleb128 .LVU257
 6368 01c4 00       		.uleb128 .LVU257
 6369 01c5 00       		.uleb128 0
 6370              	.LLST21:
 6371 01c6 04       		.byte	0x4
 6372 01c7 9D09     		.uleb128 .LVL80-.Ltext0
 6373 01c9 C209     		.uleb128 .LVL81-.Ltext0
 6374 01cb 01       		.uleb128 0x1
 6375 01cc 52       		.byte	0x52
 6376 01cd 04       		.byte	0x4
 6377 01ce C209     		.uleb128 .LVL81-.Ltext0
 6378 01d0 800A     		.uleb128 .LVL84-.Ltext0
 6379 01d2 01       		.uleb128 0x1
 6380 01d3 53       		.byte	0x53
 6381 01d4 04       		.byte	0x4
 6382 01d5 800A     		.uleb128 .LVL84-.Ltext0
 6383 01d7 810A     		.uleb128 .LFE6-.Ltext0
 6384 01d9 04       		.uleb128 0x4
 6385 01da A3       		.byte	0xa3
 6386 01db 01       		.uleb128 0x1
 6387 01dc 52       		.byte	0x52
 6388 01dd 9F       		.byte	0x9f
 6389 01de 00       		.byte	0
 6390              	.LVUS19:
 6391 01df 00       		.uleb128 0
 6392 01e0 00       		.uleb128 .LVU224
 6393 01e1 00       		.uleb128 .LVU224
 6394 01e2 00       		.uleb128 0
 6395              	.LLST19:
 6396 01e3 04       		.byte	0x4
 6397 01e4 CB08     		.uleb128 .LVL71-.Ltext0
 6398 01e6 EA08     		.uleb128 .LVL72-1-.Ltext0
 6399 01e8 01       		.uleb128 0x1
 6400 01e9 52       		.byte	0x52
 6401 01ea 04       		.byte	0x4
 6402 01eb EA08     		.uleb128 .LVL72-1-.Ltext0
 6403 01ed 9D09     		.uleb128 .LFE5-.Ltext0
 6404 01ef 04       		.uleb128 0x4
 6405 01f0 A3       		.byte	0xa3
 6406 01f1 01       		.uleb128 0x1
 6407 01f2 52       		.byte	0x52
 6408 01f3 9F       		.byte	0x9f
 6409 01f4 00       		.byte	0
 6410              	.LVUS20:
 6411 01f5 00       		.uleb128 .LVU224
 6412 01f6 00       		.uleb128 .LVU228
 6413 01f7 00       		.uleb128 .LVU229
 6414 01f8 00       		.uleb128 .LVU232
 6415 01f9 00       		.uleb128 .LVU233
 6416 01fa 00       		.uleb128 .LVU234
 6417 01fb 00       		.uleb128 .LVU235
 6418 01fc 00       		.uleb128 .LVU236
 6419              	.LLST20:
 6420 01fd 04       		.byte	0x4
 6421 01fe EB08     		.uleb128 .LVL72-.Ltext0
 6422 0200 F508     		.uleb128 .LVL73-.Ltext0
 6423 0202 01       		.uleb128 0x1
 6424 0203 50       		.byte	0x50
 6425 0204 04       		.byte	0x4
 6426 0205 8009     		.uleb128 .LVL74-.Ltext0
 6427 0207 8A09     		.uleb128 .LVL75-.Ltext0
 6428 0209 01       		.uleb128 0x1
 6429 020a 50       		.byte	0x50
 6430 020b 04       		.byte	0x4
 6431 020c 8F09     		.uleb128 .LVL76-.Ltext0
 6432 020e 9409     		.uleb128 .LVL77-.Ltext0
 6433 0210 01       		.uleb128 0x1
 6434 0211 50       		.byte	0x50
 6435 0212 04       		.byte	0x4
 6436 0213 9609     		.uleb128 .LVL78-.Ltext0
 6437 0215 9B09     		.uleb128 .LVL79-.Ltext0
 6438 0217 01       		.uleb128 0x1
 6439 0218 50       		.byte	0x50
 6440 0219 00       		.byte	0
 6441              	.LVUS8:
 6442 021a 00       		.uleb128 0
 6443 021b 00       		.uleb128 .LVU81
 6444 021c 00       		.uleb128 .LVU81
 6445 021d 00       		.uleb128 0
 6446              	.LLST8:
 6447 021e 04       		.byte	0x4
 6448 021f BD02     		.uleb128 .LVL23-.Ltext0
 6449 0221 8503     		.uleb128 .LVL24-.Ltext0
 6450 0223 01       		.uleb128 0x1
 6451 0224 52       		.byte	0x52
 6452 0225 04       		.byte	0x4
 6453 0226 8503     		.uleb128 .LVL24-.Ltext0
 6454 0228 CB08     		.uleb128 .LFE4-.Ltext0
 6455 022a 03       		.uleb128 0x3
 6456 022b 91       		.byte	0x91
 6457 022c 8E7F     		.sleb128 -114
 6458 022e 00       		.byte	0
 6459              	.LVUS9:
 6460 022f 00       		.uleb128 0
 6461 0230 00       		.uleb128 .LVU81
 6462 0231 00       		.uleb128 .LVU81
 6463 0232 00       		.uleb128 0
 6464              	.LLST9:
 6465 0233 04       		.byte	0x4
 6466 0234 BD02     		.uleb128 .LVL23-.Ltext0
 6467 0236 8503     		.uleb128 .LVL24-.Ltext0
 6468 0238 01       		.uleb128 0x1
 6469 0239 51       		.byte	0x51
 6470 023a 04       		.byte	0x4
 6471 023b 8503     		.uleb128 .LVL24-.Ltext0
 6472 023d CB08     		.uleb128 .LFE4-.Ltext0
 6473 023f 03       		.uleb128 0x3
 6474 0240 91       		.byte	0x91
 6475 0241 8F7F     		.sleb128 -113
 6476 0243 00       		.byte	0
 6477              	.LVUS10:
 6478 0244 00       		.uleb128 0
 6479 0245 00       		.uleb128 .LVU81
 6480 0246 00       		.uleb128 .LVU81
 6481 0247 00       		.uleb128 0
 6482              	.LLST10:
 6483 0248 04       		.byte	0x4
 6484 0249 BD02     		.uleb128 .LVL23-.Ltext0
 6485 024b 8503     		.uleb128 .LVL24-.Ltext0
 6486 024d 01       		.uleb128 0x1
 6487 024e 58       		.byte	0x58
 6488 024f 04       		.byte	0x4
 6489 0250 8503     		.uleb128 .LVL24-.Ltext0
 6490 0252 CB08     		.uleb128 .LFE4-.Ltext0
 6491 0254 02       		.uleb128 0x2
 6492 0255 91       		.byte	0x91
 6493 0256 10       		.sleb128 16
 6494 0257 00       		.byte	0
 6495              	.LVUS11:
 6496 0258 00       		.uleb128 0
 6497 0259 00       		.uleb128 .LVU81
 6498 025a 00       		.uleb128 .LVU81
 6499 025b 00       		.uleb128 .LVU106
 6500 025c 00       		.uleb128 .LVU106
 6501 025d 00       		.uleb128 .LVU107
 6502 025e 00       		.uleb128 .LVU107
 6503 025f 00       		.uleb128 0
 6504              	.LLST11:
 6505 0260 04       		.byte	0x4
 6506 0261 BD02     		.uleb128 .LVL23-.Ltext0
 6507 0263 8503     		.uleb128 .LVL24-.Ltext0
 6508 0265 01       		.uleb128 0x1
 6509 0266 59       		.byte	0x59
 6510 0267 04       		.byte	0x4
 6511 0268 8503     		.uleb128 .LVL24-.Ltext0
 6512 026a AF04     		.uleb128 .LVL31-.Ltext0
 6513 026c 01       		.uleb128 0x1
 6514 026d 5C       		.byte	0x5c
 6515 026e 04       		.byte	0x4
 6516 026f AF04     		.uleb128 .LVL31-.Ltext0
 6517 0271 B604     		.uleb128 .LVL32-.Ltext0
 6518 0273 04       		.uleb128 0x4
 6519 0274 A3       		.byte	0xa3
 6520 0275 01       		.uleb128 0x1
 6521 0276 59       		.byte	0x59
 6522 0277 9F       		.byte	0x9f
 6523 0278 04       		.byte	0x4
 6524 0279 B604     		.uleb128 .LVL32-.Ltext0
 6525 027b CB08     		.uleb128 .LFE4-.Ltext0
 6526 027d 01       		.uleb128 0x1
 6527 027e 5C       		.byte	0x5c
 6528 027f 00       		.byte	0
 6529              	.LVUS12:
 6530 0280 00       		.uleb128 .LVU89
 6531 0281 00       		.uleb128 .LVU98
 6532 0282 00       		.uleb128 .LVU107
 6533 0283 00       		.uleb128 0
 6534              	.LLST12:
 6535 0284 04       		.byte	0x4
 6536 0285 E403     		.uleb128 .LVL27-.Ltext0
 6537 0287 8404     		.uleb128 .LVL29-.Ltext0
 6538 0289 01       		.uleb128 0x1
 6539 028a 5D       		.byte	0x5d
 6540 028b 04       		.byte	0x4
 6541 028c B604     		.uleb128 .LVL32-.Ltext0
 6542 028e CB08     		.uleb128 .LFE4-.Ltext0
 6543 0290 01       		.uleb128 0x1
 6544 0291 5D       		.byte	0x5d
 6545 0292 00       		.byte	0
 6546              	.LVUS13:
 6547 0293 01       		.uleb128 .LVU96
 6548 0294 00       		.uleb128 .LVU98
 6549 0295 00       		.uleb128 .LVU107
 6550 0296 01       		.uleb128 .LVU187
 6551 0297 01       		.uleb128 .LVU187
 6552 0298 00       		.uleb128 .LVU189
 6553 0299 00       		.uleb128 .LVU189
 6554 029a 00       		.uleb128 .LVU203
 6555 029b 00       		.uleb128 .LVU203
 6556 029c 00       		.uleb128 .LVU215
 6557              	.LLST13:
 6558 029d 04       		.byte	0x4
 6559 029e FA03     		.uleb128 .LVL28-.Ltext0
 6560 02a0 8404     		.uleb128 .LVL29-.Ltext0
 6561 02a2 02       		.uleb128 0x2
 6562 02a3 30       		.byte	0x30
 6563 02a4 9F       		.byte	0x9f
 6564 02a5 04       		.byte	0x4
 6565 02a6 B604     		.uleb128 .LVL32-.Ltext0
 6566 02a8 B307     		.uleb128 .LVL64-.Ltext0
 6567 02aa 01       		.uleb128 0x1
 6568 02ab 56       		.byte	0x56
 6569 02ac 04       		.byte	0x4
 6570 02ad B307     		.uleb128 .LVL64-.Ltext0
 6571 02af BA07     		.uleb128 .LVL65-.Ltext0
 6572 02b1 02       		.uleb128 0x2
 6573 02b2 30       		.byte	0x30
 6574 02b3 9F       		.byte	0x9f
 6575 02b4 04       		.byte	0x4
 6576 02b5 BA07     		.uleb128 .LVL65-.Ltext0
 6577 02b7 8008     		.uleb128 .LVL68-.Ltext0
 6578 02b9 01       		.uleb128 0x1
 6579 02ba 56       		.byte	0x56
 6580 02bb 04       		.byte	0x4
 6581 02bc 8008     		.uleb128 .LVL68-.Ltext0
 6582 02be C008     		.uleb128 .LVL70-1-.Ltext0
 6583 02c0 01       		.uleb128 0x1
 6584 02c1 50       		.byte	0x50
 6585 02c2 00       		.byte	0
 6586              	.LVUS14:
 6587 02c3 00       		.uleb128 .LVU116
 6588 02c4 00       		.uleb128 .LVU118
 6589 02c5 00       		.uleb128 .LVU118
 6590 02c6 00       		.uleb128 .LVU120
 6591 02c7 00       		.uleb128 .LVU120
 6592 02c8 00       		.uleb128 .LVU121
 6593 02c9 00       		.uleb128 .LVU121
 6594 02ca 00       		.uleb128 .LVU124
 6595 02cb 00       		.uleb128 .LVU124
 6596 02cc 00       		.uleb128 .LVU125
 6597 02cd 00       		.uleb128 .LVU125
 6598 02ce 00       		.uleb128 .LVU127
 6599 02cf 00       		.uleb128 .LVU127
 6600 02d0 00       		.uleb128 .LVU128
 6601 02d1 00       		.uleb128 .LVU128
 6602 02d2 00       		.uleb128 .LVU129
 6603 02d3 00       		.uleb128 .LVU129
 6604 02d4 00       		.uleb128 .LVU130
 6605 02d5 00       		.uleb128 .LVU130
 6606 02d6 00       		.uleb128 .LVU132
 6607 02d7 00       		.uleb128 .LVU132
 6608 02d8 00       		.uleb128 .LVU134
 6609 02d9 00       		.uleb128 .LVU134
 6610 02da 00       		.uleb128 .LVU136
 6611 02db 00       		.uleb128 .LVU136
 6612 02dc 00       		.uleb128 .LVU137
 6613 02dd 00       		.uleb128 .LVU139
 6614 02de 00       		.uleb128 .LVU142
 6615              	.LLST14:
 6616 02df 04       		.byte	0x4
 6617 02e0 DA04     		.uleb128 .LVL36-.Ltext0
 6618 02e2 DE04     		.uleb128 .LVL37-.Ltext0
 6619 02e4 06       		.uleb128 0x6
 6620 02e5 73       		.byte	0x73
 6621 02e6 00       		.sleb128 0
 6622 02e7 70       		.byte	0x70
 6623 02e8 00       		.sleb128 0
 6624 02e9 22       		.byte	0x22
 6625 02ea 9F       		.byte	0x9f
 6626 02eb 04       		.byte	0x4
 6627 02ec DE04     		.uleb128 .LVL37-.Ltext0
 6628 02ee E904     		.uleb128 .LVL38-.Ltext0
 6629 02f0 14       		.uleb128 0x14
 6630 02f1 73       		.byte	0x73
 6631 02f2 02       		.sleb128 2
 6632 02f3 94       		.byte	0x94
 6633 02f4 01       		.byte	0x1
 6634 02f5 08       		.byte	0x8
 6635 02f6 FF       		.byte	0xff
 6636 02f7 1A       		.byte	0x1a
 6637 02f8 71       		.byte	0x71
 6638 02f9 00       		.sleb128 0
 6639 02fa 21       		.byte	0x21
 6640 02fb 08       		.byte	0x8
 6641 02fc 20       		.byte	0x20
 6642 02fd 24       		.byte	0x24
 6643 02fe 08       		.byte	0x8
 6644 02ff 20       		.byte	0x20
 6645 0300 26       		.byte	0x26
 6646 0301 73       		.byte	0x73
 6647 0302 00       		.sleb128 0
 6648 0303 22       		.byte	0x22
 6649 0304 9F       		.byte	0x9f
 6650 0305 04       		.byte	0x4
 6651 0306 E904     		.uleb128 .LVL38-.Ltext0
 6652 0308 EE04     		.uleb128 .LVL39-.Ltext0
 6653 030a 1B       		.uleb128 0x1b
 6654 030b 73       		.byte	0x73
 6655 030c 03       		.sleb128 3
 6656 030d 94       		.byte	0x94
 6657 030e 01       		.byte	0x1
 6658 030f 08       		.byte	0x8
 6659 0310 FF       		.byte	0xff
 6660 0311 1A       		.byte	0x1a
 6661 0312 38       		.byte	0x38
 6662 0313 24       		.byte	0x24
 6663 0314 73       		.byte	0x73
 6664 0315 02       		.sleb128 2
 6665 0316 94       		.byte	0x94
 6666 0317 01       		.byte	0x1
 6667 0318 08       		.byte	0x8
 6668 0319 FF       		.byte	0xff
 6669 031a 1A       		.byte	0x1a
 6670 031b 21       		.byte	0x21
 6671 031c 0C       		.byte	0xc
 6672 031d FFFFFFFF 		.long	0xffffffff
 6673 0321 1A       		.byte	0x1a
 6674 0322 73       		.byte	0x73
 6675 0323 00       		.sleb128 0
 6676 0324 22       		.byte	0x22
 6677 0325 9F       		.byte	0x9f
 6678 0326 04       		.byte	0x4
 6679 0327 EE04     		.uleb128 .LVL39-.Ltext0
 6680 0329 FD04     		.uleb128 .LVL40-.Ltext0
 6681 032b 14       		.uleb128 0x14
 6682 032c 73       		.byte	0x73
 6683 032d 02       		.sleb128 2
 6684 032e 94       		.byte	0x94
 6685 032f 01       		.byte	0x1
 6686 0330 08       		.byte	0x8
 6687 0331 FF       		.byte	0xff
 6688 0332 1A       		.byte	0x1a
 6689 0333 71       		.byte	0x71
 6690 0334 00       		.sleb128 0
 6691 0335 21       		.byte	0x21
 6692 0336 08       		.byte	0x8
 6693 0337 20       		.byte	0x20
 6694 0338 24       		.byte	0x24
 6695 0339 08       		.byte	0x8
 6696 033a 20       		.byte	0x20
 6697 033b 26       		.byte	0x26
 6698 033c 73       		.byte	0x73
 6699 033d 00       		.sleb128 0
 6700 033e 22       		.byte	0x22
 6701 033f 9F       		.byte	0x9f
 6702 0340 04       		.byte	0x4
 6703 0341 FD04     		.uleb128 .LVL40-.Ltext0
 6704 0343 8205     		.uleb128 .LVL41-.Ltext0
 6705 0345 1B       		.uleb128 0x1b
 6706 0346 73       		.byte	0x73
 6707 0347 03       		.sleb128 3
 6708 0348 94       		.byte	0x94
 6709 0349 01       		.byte	0x1
 6710 034a 08       		.byte	0x8
 6711 034b FF       		.byte	0xff
 6712 034c 1A       		.byte	0x1a
 6713 034d 38       		.byte	0x38
 6714 034e 24       		.byte	0x24
 6715 034f 73       		.byte	0x73
 6716 0350 02       		.sleb128 2
 6717 0351 94       		.byte	0x94
 6718 0352 01       		.byte	0x1
 6719 0353 08       		.byte	0x8
 6720 0354 FF       		.byte	0xff
 6721 0355 1A       		.byte	0x1a
 6722 0356 21       		.byte	0x21
 6723 0357 0C       		.byte	0xc
 6724 0358 FFFFFFFF 		.long	0xffffffff
 6725 035c 1A       		.byte	0x1a
 6726 035d 73       		.byte	0x73
 6727 035e 00       		.sleb128 0
 6728 035f 22       		.byte	0x22
 6729 0360 9F       		.byte	0x9f
 6730 0361 04       		.byte	0x4
 6731 0362 8205     		.uleb128 .LVL41-.Ltext0
 6732 0364 9105     		.uleb128 .LVL42-.Ltext0
 6733 0366 14       		.uleb128 0x14
 6734 0367 73       		.byte	0x73
 6735 0368 02       		.sleb128 2
 6736 0369 94       		.byte	0x94
 6737 036a 01       		.byte	0x1
 6738 036b 08       		.byte	0x8
 6739 036c FF       		.byte	0xff
 6740 036d 1A       		.byte	0x1a
 6741 036e 71       		.byte	0x71
 6742 036f 00       		.sleb128 0
 6743 0370 21       		.byte	0x21
 6744 0371 08       		.byte	0x8
 6745 0372 20       		.byte	0x20
 6746 0373 24       		.byte	0x24
 6747 0374 08       		.byte	0x8
 6748 0375 20       		.byte	0x20
 6749 0376 26       		.byte	0x26
 6750 0377 73       		.byte	0x73
 6751 0378 00       		.sleb128 0
 6752 0379 22       		.byte	0x22
 6753 037a 9F       		.byte	0x9f
 6754 037b 04       		.byte	0x4
 6755 037c 9105     		.uleb128 .LVL42-.Ltext0
 6756 037e 9305     		.uleb128 .LVL43-.Ltext0
 6757 0380 1B       		.uleb128 0x1b
 6758 0381 73       		.byte	0x73
 6759 0382 03       		.sleb128 3
 6760 0383 94       		.byte	0x94
 6761 0384 01       		.byte	0x1
 6762 0385 08       		.byte	0x8
 6763 0386 FF       		.byte	0xff
 6764 0387 1A       		.byte	0x1a
 6765 0388 38       		.byte	0x38
 6766 0389 24       		.byte	0x24
 6767 038a 73       		.byte	0x73
 6768 038b 02       		.sleb128 2
 6769 038c 94       		.byte	0x94
 6770 038d 01       		.byte	0x1
 6771 038e 08       		.byte	0x8
 6772 038f FF       		.byte	0xff
 6773 0390 1A       		.byte	0x1a
 6774 0391 21       		.byte	0x21
 6775 0392 0C       		.byte	0xc
 6776 0393 FFFFFFFF 		.long	0xffffffff
 6777 0397 1A       		.byte	0x1a
 6778 0398 73       		.byte	0x73
 6779 0399 00       		.sleb128 0
 6780 039a 22       		.byte	0x22
 6781 039b 9F       		.byte	0x9f
 6782 039c 04       		.byte	0x4
 6783 039d 9305     		.uleb128 .LVL43-.Ltext0
 6784 039f A005     		.uleb128 .LVL44-.Ltext0
 6785 03a1 14       		.uleb128 0x14
 6786 03a2 73       		.byte	0x73
 6787 03a3 02       		.sleb128 2
 6788 03a4 94       		.byte	0x94
 6789 03a5 01       		.byte	0x1
 6790 03a6 08       		.byte	0x8
 6791 03a7 FF       		.byte	0xff
 6792 03a8 1A       		.byte	0x1a
 6793 03a9 71       		.byte	0x71
 6794 03aa 00       		.sleb128 0
 6795 03ab 21       		.byte	0x21
 6796 03ac 08       		.byte	0x8
 6797 03ad 20       		.byte	0x20
 6798 03ae 24       		.byte	0x24
 6799 03af 08       		.byte	0x8
 6800 03b0 20       		.byte	0x20
 6801 03b1 26       		.byte	0x26
 6802 03b2 73       		.byte	0x73
 6803 03b3 00       		.sleb128 0
 6804 03b4 22       		.byte	0x22
 6805 03b5 9F       		.byte	0x9f
 6806 03b6 04       		.byte	0x4
 6807 03b7 A005     		.uleb128 .LVL44-.Ltext0
 6808 03b9 A205     		.uleb128 .LVL45-.Ltext0
 6809 03bb 1B       		.uleb128 0x1b
 6810 03bc 73       		.byte	0x73
 6811 03bd 03       		.sleb128 3
 6812 03be 94       		.byte	0x94
 6813 03bf 01       		.byte	0x1
 6814 03c0 08       		.byte	0x8
 6815 03c1 FF       		.byte	0xff
 6816 03c2 1A       		.byte	0x1a
 6817 03c3 38       		.byte	0x38
 6818 03c4 24       		.byte	0x24
 6819 03c5 73       		.byte	0x73
 6820 03c6 02       		.sleb128 2
 6821 03c7 94       		.byte	0x94
 6822 03c8 01       		.byte	0x1
 6823 03c9 08       		.byte	0x8
 6824 03ca FF       		.byte	0xff
 6825 03cb 1A       		.byte	0x1a
 6826 03cc 21       		.byte	0x21
 6827 03cd 0C       		.byte	0xc
 6828 03ce FFFFFFFF 		.long	0xffffffff
 6829 03d2 1A       		.byte	0x1a
 6830 03d3 73       		.byte	0x73
 6831 03d4 00       		.sleb128 0
 6832 03d5 22       		.byte	0x22
 6833 03d6 9F       		.byte	0x9f
 6834 03d7 04       		.byte	0x4
 6835 03d8 A205     		.uleb128 .LVL45-.Ltext0
 6836 03da AD05     		.uleb128 .LVL46-.Ltext0
 6837 03dc 14       		.uleb128 0x14
 6838 03dd 73       		.byte	0x73
 6839 03de 02       		.sleb128 2
 6840 03df 94       		.byte	0x94
 6841 03e0 01       		.byte	0x1
 6842 03e1 08       		.byte	0x8
 6843 03e2 FF       		.byte	0xff
 6844 03e3 1A       		.byte	0x1a
 6845 03e4 71       		.byte	0x71
 6846 03e5 00       		.sleb128 0
 6847 03e6 21       		.byte	0x21
 6848 03e7 08       		.byte	0x8
 6849 03e8 20       		.byte	0x20
 6850 03e9 24       		.byte	0x24
 6851 03ea 08       		.byte	0x8
 6852 03eb 20       		.byte	0x20
 6853 03ec 26       		.byte	0x26
 6854 03ed 73       		.byte	0x73
 6855 03ee 00       		.sleb128 0
 6856 03ef 22       		.byte	0x22
 6857 03f0 9F       		.byte	0x9f
 6858 03f1 04       		.byte	0x4
 6859 03f2 AD05     		.uleb128 .LVL46-.Ltext0
 6860 03f4 B805     		.uleb128 .LVL47-.Ltext0
 6861 03f6 1B       		.uleb128 0x1b
 6862 03f7 73       		.byte	0x73
 6863 03f8 03       		.sleb128 3
 6864 03f9 94       		.byte	0x94
 6865 03fa 01       		.byte	0x1
 6866 03fb 08       		.byte	0x8
 6867 03fc FF       		.byte	0xff
 6868 03fd 1A       		.byte	0x1a
 6869 03fe 38       		.byte	0x38
 6870 03ff 24       		.byte	0x24
 6871 0400 73       		.byte	0x73
 6872 0401 02       		.sleb128 2
 6873 0402 94       		.byte	0x94
 6874 0403 01       		.byte	0x1
 6875 0404 08       		.byte	0x8
 6876 0405 FF       		.byte	0xff
 6877 0406 1A       		.byte	0x1a
 6878 0407 21       		.byte	0x21
 6879 0408 0C       		.byte	0xc
 6880 0409 FFFFFFFF 		.long	0xffffffff
 6881 040d 1A       		.byte	0x1a
 6882 040e 73       		.byte	0x73
 6883 040f 00       		.sleb128 0
 6884 0410 22       		.byte	0x22
 6885 0411 9F       		.byte	0x9f
 6886 0412 04       		.byte	0x4
 6887 0413 B805     		.uleb128 .LVL47-.Ltext0
 6888 0415 BC05     		.uleb128 .LVL48-.Ltext0
 6889 0417 14       		.uleb128 0x14
 6890 0418 73       		.byte	0x73
 6891 0419 02       		.sleb128 2
 6892 041a 94       		.byte	0x94
 6893 041b 01       		.byte	0x1
 6894 041c 08       		.byte	0x8
 6895 041d FF       		.byte	0xff
 6896 041e 1A       		.byte	0x1a
 6897 041f 71       		.byte	0x71
 6898 0420 00       		.sleb128 0
 6899 0421 21       		.byte	0x21
 6900 0422 08       		.byte	0x8
 6901 0423 20       		.byte	0x20
 6902 0424 24       		.byte	0x24
 6903 0425 08       		.byte	0x8
 6904 0426 20       		.byte	0x20
 6905 0427 26       		.byte	0x26
 6906 0428 73       		.byte	0x73
 6907 0429 00       		.sleb128 0
 6908 042a 22       		.byte	0x22
 6909 042b 9F       		.byte	0x9f
 6910 042c 04       		.byte	0x4
 6911 042d BC05     		.uleb128 .LVL48-.Ltext0
 6912 042f C805     		.uleb128 .LVL49-1-.Ltext0
 6913 0431 1B       		.uleb128 0x1b
 6914 0432 73       		.byte	0x73
 6915 0433 03       		.sleb128 3
 6916 0434 94       		.byte	0x94
 6917 0435 01       		.byte	0x1
 6918 0436 08       		.byte	0x8
 6919 0437 FF       		.byte	0xff
 6920 0438 1A       		.byte	0x1a
 6921 0439 38       		.byte	0x38
 6922 043a 24       		.byte	0x24
 6923 043b 73       		.byte	0x73
 6924 043c 02       		.sleb128 2
 6925 043d 94       		.byte	0x94
 6926 043e 01       		.byte	0x1
 6927 043f 08       		.byte	0x8
 6928 0440 FF       		.byte	0xff
 6929 0441 1A       		.byte	0x1a
 6930 0442 21       		.byte	0x21
 6931 0443 0C       		.byte	0xc
 6932 0444 FFFFFFFF 		.long	0xffffffff
 6933 0448 1A       		.byte	0x1a
 6934 0449 73       		.byte	0x73
 6935 044a 00       		.sleb128 0
 6936 044b 22       		.byte	0x22
 6937 044c 9F       		.byte	0x9f
 6938 044d 04       		.byte	0x4
 6939 044e D505     		.uleb128 .LVL50-.Ltext0
 6940 0450 E205     		.uleb128 .LVL52-.Ltext0
 6941 0452 1B       		.uleb128 0x1b
 6942 0453 73       		.byte	0x73
 6943 0454 03       		.sleb128 3
 6944 0455 94       		.byte	0x94
 6945 0456 01       		.byte	0x1
 6946 0457 08       		.byte	0x8
 6947 0458 FF       		.byte	0xff
 6948 0459 1A       		.byte	0x1a
 6949 045a 38       		.byte	0x38
 6950 045b 24       		.byte	0x24
 6951 045c 73       		.byte	0x73
 6952 045d 02       		.sleb128 2
 6953 045e 94       		.byte	0x94
 6954 045f 01       		.byte	0x1
 6955 0460 08       		.byte	0x8
 6956 0461 FF       		.byte	0xff
 6957 0462 1A       		.byte	0x1a
 6958 0463 21       		.byte	0x21
 6959 0464 0C       		.byte	0xc
 6960 0465 FFFFFFFF 		.long	0xffffffff
 6961 0469 1A       		.byte	0x1a
 6962 046a 73       		.byte	0x73
 6963 046b 00       		.sleb128 0
 6964 046c 22       		.byte	0x22
 6965 046d 9F       		.byte	0x9f
 6966 046e 00       		.byte	0
 6967              	.LVUS15:
 6968 046f 00       		.uleb128 .LVU107
 6969 0470 00       		.uleb128 .LVU159
 6970 0471 00       		.uleb128 .LVU173
 6971 0472 00       		.uleb128 .LVU176
 6972              	.LLST15:
 6973 0473 04       		.byte	0x4
 6974 0474 B604     		.uleb128 .LVL32-.Ltext0
 6975 0476 A506     		.uleb128 .LVL57-.Ltext0
 6976 0478 01       		.uleb128 0x1
 6977 0479 53       		.byte	0x53
 6978 047a 04       		.byte	0x4
 6979 047b FF06     		.uleb128 .LVL61-.Ltext0
 6980 047d 8D07     		.uleb128 .LVL62-.Ltext0
 6981 047f 01       		.uleb128 0x1
 6982 0480 53       		.byte	0x53
 6983 0481 00       		.byte	0
 6984              	.LVUS16:
 6985 0482 01       		.uleb128 .LVU111
 6986 0483 00       		.uleb128 .LVU145
 6987              	.LLST16:
 6988 0484 04       		.byte	0x4
 6989 0485 C304     		.uleb128 .LVL34-.Ltext0
 6990 0487 EF05     		.uleb128 .LVL54-.Ltext0
 6991 0489 01       		.uleb128 0x1
 6992 048a 53       		.byte	0x53
 6993 048b 00       		.byte	0
 6994              	.LVUS17:
 6995 048c 00       		.uleb128 .LVU107
 6996 048d 00       		.uleb128 .LVU141
 6997 048e 00       		.uleb128 .LVU142
 6998 048f 00       		.uleb128 .LVU144
 6999 0490 00       		.uleb128 .LVU145
 7000 0491 00       		.uleb128 .LVU159
 7001 0492 01       		.uleb128 .LVU168
 7002 0493 00       		.uleb128 .LVU173
 7003 0494 00       		.uleb128 .LVU173
 7004 0495 00       		.uleb128 .LVU176
 7005              	.LLST17:
 7006 0496 04       		.byte	0x4
 7007 0497 B604     		.uleb128 .LVL32-.Ltext0
 7008 0499 E005     		.uleb128 .LVL51-.Ltext0
 7009 049b 01       		.uleb128 0x1
 7010 049c 5E       		.byte	0x5e
 7011 049d 04       		.byte	0x4
 7012 049e E205     		.uleb128 .LVL52-.Ltext0
 7013 04a0 ED05     		.uleb128 .LVL53-.Ltext0
 7014 04a2 01       		.uleb128 0x1
 7015 04a3 5E       		.byte	0x5e
 7016 04a4 04       		.byte	0x4
 7017 04a5 EF05     		.uleb128 .LVL54-.Ltext0
 7018 04a7 A506     		.uleb128 .LVL57-.Ltext0
 7019 04a9 01       		.uleb128 0x1
 7020 04aa 5E       		.byte	0x5e
 7021 04ab 04       		.byte	0x4
 7022 04ac EE06     		.uleb128 .LVL60-.Ltext0
 7023 04ae FF06     		.uleb128 .LVL61-.Ltext0
 7024 04b0 02       		.uleb128 0x2
 7025 04b1 30       		.byte	0x30
 7026 04b2 9F       		.byte	0x9f
 7027 04b3 04       		.byte	0x4
 7028 04b4 FF06     		.uleb128 .LVL61-.Ltext0
 7029 04b6 8D07     		.uleb128 .LVL62-.Ltext0
 7030 04b8 01       		.uleb128 0x1
 7031 04b9 5E       		.byte	0x5e
 7032 04ba 00       		.byte	0
 7033              	.LVUS18:
 7034 04bb 00       		.uleb128 .LVU107
 7035 04bc 00       		.uleb128 .LVU109
 7036 04bd 00       		.uleb128 .LVU110
 7037 04be 00       		.uleb128 .LVU115
 7038 04bf 00       		.uleb128 .LVU145
 7039 04c0 00       		.uleb128 .LVU159
 7040 04c1 00       		.uleb128 .LVU173
 7041 04c2 00       		.uleb128 .LVU176
 7042              	.LLST18:
 7043 04c3 04       		.byte	0x4
 7044 04c4 B604     		.uleb128 .LVL32-.Ltext0
 7045 04c6 BE04     		.uleb128 .LVL33-.Ltext0
 7046 04c8 01       		.uleb128 0x1
 7047 04c9 51       		.byte	0x51
 7048 04ca 04       		.byte	0x4
 7049 04cb C304     		.uleb128 .LVL34-.Ltext0
 7050 04cd D304     		.uleb128 .LVL35-.Ltext0
 7051 04cf 01       		.uleb128 0x1
 7052 04d0 51       		.byte	0x51
 7053 04d1 04       		.byte	0x4
 7054 04d2 EF05     		.uleb128 .LVL54-.Ltext0
 7055 04d4 A506     		.uleb128 .LVL57-.Ltext0
 7056 04d6 01       		.uleb128 0x1
 7057 04d7 51       		.byte	0x51
 7058 04d8 04       		.byte	0x4
 7059 04d9 FF06     		.uleb128 .LVL61-.Ltext0
 7060 04db 8D07     		.uleb128 .LVL62-.Ltext0
 7061 04dd 01       		.uleb128 0x1
 7062 04de 51       		.byte	0x51
 7063 04df 00       		.byte	0
 7064              	.LVUS0:
 7065 04e0 00       		.uleb128 0
 7066 04e1 00       		.uleb128 .LVU12
 7067 04e2 00       		.uleb128 .LVU12
 7068 04e3 00       		.uleb128 .LVU26
 7069 04e4 00       		.uleb128 .LVU26
 7070 04e5 00       		.uleb128 .LVU28
 7071 04e6 00       		.uleb128 .LVU28
 7072 04e7 00       		.uleb128 0
 7073              	.LLST0:
 7074 04e8 04       		.byte	0x4
 7075 04e9 00       		.uleb128 .LVL0-.Ltext0
 7076 04ea 38       		.uleb128 .LVL1-.Ltext0
 7077 04eb 01       		.uleb128 0x1
 7078 04ec 52       		.byte	0x52
 7079 04ed 04       		.byte	0x4
 7080 04ee 38       		.uleb128 .LVL1-.Ltext0
 7081 04ef 9D01     		.uleb128 .LVL6-.Ltext0
 7082 04f1 01       		.uleb128 0x1
 7083 04f2 56       		.byte	0x56
 7084 04f3 04       		.byte	0x4
 7085 04f4 9D01     		.uleb128 .LVL6-.Ltext0
 7086 04f6 A001     		.uleb128 .LVL8-.Ltext0
 7087 04f8 04       		.uleb128 0x4
 7088 04f9 A3       		.byte	0xa3
 7089 04fa 01       		.uleb128 0x1
 7090 04fb 52       		.byte	0x52
 7091 04fc 9F       		.byte	0x9f
 7092 04fd 04       		.byte	0x4
 7093 04fe A001     		.uleb128 .LVL8-.Ltext0
 7094 0500 AA01     		.uleb128 .LFE3-.Ltext0
 7095 0502 01       		.uleb128 0x1
 7096 0503 56       		.byte	0x56
 7097 0504 00       		.byte	0
 7098              	.LVUS1:
 7099 0505 00       		.uleb128 0
 7100 0506 00       		.uleb128 .LVU12
 7101 0507 00       		.uleb128 .LVU12
 7102 0508 00       		.uleb128 .LVU25
 7103 0509 00       		.uleb128 .LVU25
 7104 050a 00       		.uleb128 .LVU28
 7105 050b 00       		.uleb128 .LVU28
 7106 050c 00       		.uleb128 0
 7107              	.LLST1:
 7108 050d 04       		.byte	0x4
 7109 050e 00       		.uleb128 .LVL0-.Ltext0
 7110 050f 38       		.uleb128 .LVL1-.Ltext0
 7111 0510 01       		.uleb128 0x1
 7112 0511 51       		.byte	0x51
 7113 0512 04       		.byte	0x4
 7114 0513 38       		.uleb128 .LVL1-.Ltext0
 7115 0514 9C01     		.uleb128 .LVL5-.Ltext0
 7116 0516 01       		.uleb128 0x1
 7117 0517 55       		.byte	0x55
 7118 0518 04       		.byte	0x4
 7119 0519 9C01     		.uleb128 .LVL5-.Ltext0
 7120 051b A001     		.uleb128 .LVL8-.Ltext0
 7121 051d 04       		.uleb128 0x4
 7122 051e A3       		.byte	0xa3
 7123 051f 01       		.uleb128 0x1
 7124 0520 51       		.byte	0x51
 7125 0521 9F       		.byte	0x9f
 7126 0522 04       		.byte	0x4
 7127 0523 A001     		.uleb128 .LVL8-.Ltext0
 7128 0525 AA01     		.uleb128 .LFE3-.Ltext0
 7129 0527 01       		.uleb128 0x1
 7130 0528 55       		.byte	0x55
 7131 0529 00       		.byte	0
 7132              	.LVUS2:
 7133 052a 00       		.uleb128 0
 7134 052b 00       		.uleb128 .LVU12
 7135 052c 00       		.uleb128 .LVU12
 7136 052d 00       		.uleb128 .LVU24
 7137 052e 00       		.uleb128 .LVU24
 7138 052f 00       		.uleb128 .LVU28
 7139 0530 00       		.uleb128 .LVU28
 7140 0531 00       		.uleb128 0
 7141              	.LLST2:
 7142 0532 04       		.byte	0x4
 7143 0533 00       		.uleb128 .LVL0-.Ltext0
 7144 0534 38       		.uleb128 .LVL1-.Ltext0
 7145 0535 01       		.uleb128 0x1
 7146 0536 58       		.byte	0x58
 7147 0537 04       		.byte	0x4
 7148 0538 38       		.uleb128 .LVL1-.Ltext0
 7149 0539 9B01     		.uleb128 .LVL4-.Ltext0
 7150 053b 01       		.uleb128 0x1
 7151 053c 54       		.byte	0x54
 7152 053d 04       		.byte	0x4
 7153 053e 9B01     		.uleb128 .LVL4-.Ltext0
 7154 0540 A001     		.uleb128 .LVL8-.Ltext0
 7155 0542 04       		.uleb128 0x4
 7156 0543 A3       		.byte	0xa3
 7157 0544 01       		.uleb128 0x1
 7158 0545 58       		.byte	0x58
 7159 0546 9F       		.byte	0x9f
 7160 0547 04       		.byte	0x4
 7161 0548 A001     		.uleb128 .LVL8-.Ltext0
 7162 054a AA01     		.uleb128 .LFE3-.Ltext0
 7163 054c 01       		.uleb128 0x1
 7164 054d 54       		.byte	0x54
 7165 054e 00       		.byte	0
 7166              	.LVUS3:
 7167 054f 00       		.uleb128 0
 7168 0550 00       		.uleb128 .LVU12
 7169 0551 00       		.uleb128 .LVU12
 7170 0552 00       		.uleb128 .LVU27
 7171 0553 00       		.uleb128 .LVU27
 7172 0554 00       		.uleb128 .LVU28
 7173 0555 00       		.uleb128 .LVU28
 7174 0556 00       		.uleb128 0
 7175              	.LLST3:
 7176 0557 04       		.byte	0x4
 7177 0558 00       		.uleb128 .LVL0-.Ltext0
 7178 0559 38       		.uleb128 .LVL1-.Ltext0
 7179 055a 01       		.uleb128 0x1
 7180 055b 59       		.byte	0x59
 7181 055c 04       		.byte	0x4
 7182 055d 38       		.uleb128 .LVL1-.Ltext0
 7183 055e 9F01     		.uleb128 .LVL7-.Ltext0
 7184 0560 01       		.uleb128 0x1
 7185 0561 5C       		.byte	0x5c
 7186 0562 04       		.byte	0x4
 7187 0563 9F01     		.uleb128 .LVL7-.Ltext0
 7188 0565 A001     		.uleb128 .LVL8-.Ltext0
 7189 0567 04       		.uleb128 0x4
 7190 0568 A3       		.byte	0xa3
 7191 0569 01       		.uleb128 0x1
 7192 056a 59       		.byte	0x59
 7193 056b 9F       		.byte	0x9f
 7194 056c 04       		.byte	0x4
 7195 056d A001     		.uleb128 .LVL8-.Ltext0
 7196 056f AA01     		.uleb128 .LFE3-.Ltext0
 7197 0571 01       		.uleb128 0x1
 7198 0572 5C       		.byte	0x5c
 7199 0573 00       		.byte	0
 7200              	.LVUS4:
 7201 0574 00       		.uleb128 0
 7202 0575 00       		.uleb128 .LVU40
 7203 0576 00       		.uleb128 .LVU40
 7204 0577 00       		.uleb128 .LVU41
 7205 0578 00       		.uleb128 .LVU41
 7206 0579 00       		.uleb128 .LVU59
 7207 057a 00       		.uleb128 .LVU59
 7208 057b 00       		.uleb128 0
 7209              	.LLST4:
 7210 057c 04       		.byte	0x4
 7211 057d AA01     		.uleb128 .LVL9-.Ltext0
 7212 057f DC01     		.uleb128 .LVL11-.Ltext0
 7213 0581 01       		.uleb128 0x1
 7214 0582 52       		.byte	0x52
 7215 0583 04       		.byte	0x4
 7216 0584 DC01     		.uleb128 .LVL11-.Ltext0
 7217 0586 E001     		.uleb128 .LVL12-1-.Ltext0
 7218 0588 01       		.uleb128 0x1
 7219 0589 51       		.byte	0x51
 7220 058a 04       		.byte	0x4
 7221 058b E001     		.uleb128 .LVL12-1-.Ltext0
 7222 058d BB02     		.uleb128 .LVL21-.Ltext0
 7223 058f 01       		.uleb128 0x1
 7224 0590 55       		.byte	0x55
 7225 0591 04       		.byte	0x4
 7226 0592 BB02     		.uleb128 .LVL21-.Ltext0
 7227 0594 BD02     		.uleb128 .LFE2-.Ltext0
 7228 0596 04       		.uleb128 0x4
 7229 0597 A3       		.byte	0xa3
 7230 0598 01       		.uleb128 0x1
 7231 0599 52       		.byte	0x52
 7232 059a 9F       		.byte	0x9f
 7233 059b 00       		.byte	0
 7234              	.LVUS5:
 7235 059c 00       		.uleb128 0
 7236 059d 00       		.uleb128 .LVU39
 7237 059e 00       		.uleb128 .LVU39
 7238 059f 00       		.uleb128 .LVU60
 7239 05a0 00       		.uleb128 .LVU60
 7240 05a1 00       		.uleb128 0
 7241              	.LLST5:
 7242 05a2 04       		.byte	0x4
 7243 05a3 AA01     		.uleb128 .LVL9-.Ltext0
 7244 05a5 D701     		.uleb128 .LVL10-.Ltext0
 7245 05a7 01       		.uleb128 0x1
 7246 05a8 51       		.byte	0x51
 7247 05a9 04       		.byte	0x4
 7248 05aa D701     		.uleb128 .LVL10-.Ltext0
 7249 05ac BC02     		.uleb128 .LVL22-.Ltext0
 7250 05ae 01       		.uleb128 0x1
 7251 05af 56       		.byte	0x56
 7252 05b0 04       		.byte	0x4
 7253 05b1 BC02     		.uleb128 .LVL22-.Ltext0
 7254 05b3 BD02     		.uleb128 .LFE2-.Ltext0
 7255 05b5 04       		.uleb128 0x4
 7256 05b6 A3       		.byte	0xa3
 7257 05b7 01       		.uleb128 0x1
 7258 05b8 51       		.byte	0x51
 7259 05b9 9F       		.byte	0x9f
 7260 05ba 00       		.byte	0
 7261              	.LVUS6:
 7262 05bb 00       		.uleb128 .LVU42
 7263 05bc 00       		.uleb128 .LVU48
 7264 05bd 00       		.uleb128 .LVU48
 7265 05be 00       		.uleb128 .LVU49
 7266 05bf 00       		.uleb128 .LVU49
 7267 05c0 00       		.uleb128 .LVU57
 7268 05c1 00       		.uleb128 .LVU57
 7269 05c2 00       		.uleb128 .LVU58
 7270 05c3 00       		.uleb128 .LVU58
 7271 05c4 00       		.uleb128 0
 7272              	.LLST6:
 7273 05c5 04       		.byte	0x4
 7274 05c6 E401     		.uleb128 .LVL13-.Ltext0
 7275 05c8 FC01     		.uleb128 .LVL15-.Ltext0
 7276 05ca 01       		.uleb128 0x1
 7277 05cb 50       		.byte	0x50
 7278 05cc 04       		.byte	0x4
 7279 05cd FC01     		.uleb128 .LVL15-.Ltext0
 7280 05cf 9702     		.uleb128 .LVL17-.Ltext0
 7281 05d1 01       		.uleb128 0x1
 7282 05d2 53       		.byte	0x53
 7283 05d3 04       		.byte	0x4
 7284 05d4 9702     		.uleb128 .LVL17-.Ltext0
 7285 05d6 B002     		.uleb128 .LVL19-1-.Ltext0
 7286 05d8 01       		.uleb128 0x1
 7287 05d9 50       		.byte	0x50
 7288 05da 04       		.byte	0x4
 7289 05db B002     		.uleb128 .LVL19-1-.Ltext0
 7290 05dd B902     		.uleb128 .LVL20-.Ltext0
 7291 05df 01       		.uleb128 0x1
 7292 05e0 53       		.byte	0x53
 7293 05e1 04       		.byte	0x4
 7294 05e2 B902     		.uleb128 .LVL20-.Ltext0
 7295 05e4 BD02     		.uleb128 .LFE2-.Ltext0
 7296 05e6 01       		.uleb128 0x1
 7297 05e7 50       		.byte	0x50
 7298 05e8 00       		.byte	0
 7299              	.LVUS7:
 7300 05e9 00       		.uleb128 .LVU45
 7301 05ea 00       		.uleb128 .LVU57
 7302              	.LLST7:
 7303 05eb 04       		.byte	0x4
 7304 05ec EE01     		.uleb128 .LVL14-.Ltext0
 7305 05ee B102     		.uleb128 .LVL19-.Ltext0
 7306 05f0 01       		.uleb128 0x1
 7307 05f1 54       		.byte	0x54
 7308 05f2 00       		.byte	0
 7309              	.Ldebug_loc3:
 7310              		.section	.debug_aranges,"dr"
 7311 0000 2C000000 		.long	0x2c
 7312 0004 0200     		.word	0x2
 7313 0006 00000000 		.secrel32	.Ldebug_info0
 7314 000a 08       		.byte	0x8
 7315 000b 00       		.byte	0
 7316 000c 0000     		.word	0
 7317 000e 0000     		.word	0
 7318 0010 00000000 		.quad	.Ltext0
 7318      00000000 
 7319 0018 4B080000 		.quad	.Letext0-.Ltext0
 7319      00000000 
 7320 0020 00000000 		.quad	0
 7320      00000000 
 7321 0028 00000000 		.quad	0
 7321      00000000 
 7322              		.section	.debug_macro,"dr"
 7323              	.Ldebug_macro0:
 7324 0000 0500     		.word	0x5
 7325 0002 02       		.byte	0x2
 7326 0003 00000000 		.secrel32	.Ldebug_line0
 7327 0007 01       		.byte	0x1
 7328 0008 00       		.uleb128 0
 7329 0009 5F5F5354 		.ascii "__STDC__ 1\0"
 7329      44435F5F 
 7329      203100
 7330 0014 01       		.byte	0x1
 7331 0015 00       		.uleb128 0
 7332 0016 5F5F5354 		.ascii "__STDC_VERSION__ 201112L\0"
 7332      44435F56 
 7332      45525349 
 7332      4F4E5F5F 
 7332      20323031 
 7333 002f 01       		.byte	0x1
 7334 0030 00       		.uleb128 0
 7335 0031 5F5F5354 		.ascii "__STDC_UTF_16__ 1\0"
 7335      44435F55 
 7335      54465F31 
 7335      365F5F20 
 7335      3100
 7336 0043 01       		.byte	0x1
 7337 0044 00       		.uleb128 0
 7338 0045 5F5F5354 		.ascii "__STDC_UTF_32__ 1\0"
 7338      44435F55 
 7338      54465F33 
 7338      325F5F20 
 7338      3100
 7339 0057 01       		.byte	0x1
 7340 0058 00       		.uleb128 0
 7341 0059 5F5F5354 		.ascii "__STDC_HOSTED__ 0\0"
 7341      44435F48 
 7341      4F535445 
 7341      445F5F20 
 7341      3000
 7342 006b 01       		.byte	0x1
 7343 006c 00       		.uleb128 0
 7344 006d 5F5F474E 		.ascii "__GNUC__ 13\0"
 7344      55435F5F 
 7344      20313300 
 7345 0079 01       		.byte	0x1
 7346 007a 00       		.uleb128 0
 7347 007b 5F5F474E 		.ascii "__GNUC_MINOR__ 2\0"
 7347      55435F4D 
 7347      494E4F52 
 7347      5F5F2032 
 7347      00
 7348 008c 01       		.byte	0x1
 7349 008d 00       		.uleb128 0
 7350 008e 5F5F474E 		.ascii "__GNUC_PATCHLEVEL__ 0\0"
 7350      55435F50 
 7350      41544348 
 7350      4C455645 
 7350      4C5F5F20 
 7351 00a4 01       		.byte	0x1
 7352 00a5 00       		.uleb128 0
 7353 00a6 5F5F5645 		.ascii "__VERSION__ \"13.2.0\"\0"
 7353      5253494F 
 7353      4E5F5F20 
 7353      2231332E 
 7353      322E3022 
 7354 00bb 01       		.byte	0x1
 7355 00bc 00       		.uleb128 0
 7356 00bd 5F5F4154 		.ascii "__ATOMIC_RELAXED 0\0"
 7356      4F4D4943 
 7356      5F52454C 
 7356      41584544 
 7356      203000
 7357 00d0 01       		.byte	0x1
 7358 00d1 00       		.uleb128 0
 7359 00d2 5F5F4154 		.ascii "__ATOMIC_SEQ_CST 5\0"
 7359      4F4D4943 
 7359      5F534551 
 7359      5F435354 
 7359      203500
 7360 00e5 01       		.byte	0x1
 7361 00e6 00       		.uleb128 0
 7362 00e7 5F5F4154 		.ascii "__ATOMIC_ACQUIRE 2\0"
 7362      4F4D4943 
 7362      5F414351 
 7362      55495245 
 7362      203200
 7363 00fa 01       		.byte	0x1
 7364 00fb 00       		.uleb128 0
 7365 00fc 5F5F4154 		.ascii "__ATOMIC_RELEASE 3\0"
 7365      4F4D4943 
 7365      5F52454C 
 7365      45415345 
 7365      203300
 7366 010f 01       		.byte	0x1
 7367 0110 00       		.uleb128 0
 7368 0111 5F5F4154 		.ascii "__ATOMIC_ACQ_REL 4\0"
 7368      4F4D4943 
 7368      5F414351 
 7368      5F52454C 
 7368      203400
 7369 0124 01       		.byte	0x1
 7370 0125 00       		.uleb128 0
 7371 0126 5F5F4154 		.ascii "__ATOMIC_CONSUME 1\0"
 7371      4F4D4943 
 7371      5F434F4E 
 7371      53554D45 
 7371      203100
 7372 0139 01       		.byte	0x1
 7373 013a 00       		.uleb128 0
 7374 013b 5F5F7069 		.ascii "__pic__ 1\0"
 7374      635F5F20 
 7374      3100
 7375 0145 01       		.byte	0x1
 7376 0146 00       		.uleb128 0
 7377 0147 5F5F5049 		.ascii "__PIC__ 1\0"
 7377      435F5F20 
 7377      3100
 7378 0151 01       		.byte	0x1
 7379 0152 00       		.uleb128 0
 7380 0153 5F5F4F50 		.ascii "__OPTIMIZE__ 1\0"
 7380      54494D49 
 7380      5A455F5F 
 7380      203100
 7381 0162 01       		.byte	0x1
 7382 0163 00       		.uleb128 0
 7383 0164 5F5F4649 		.ascii "__FINITE_MATH_ONLY__ 0\0"
 7383      4E495445 
 7383      5F4D4154 
 7383      485F4F4E 
 7383      4C595F5F 
 7384 017b 01       		.byte	0x1
 7385 017c 00       		.uleb128 0
 7386 017d 5F5F5349 		.ascii "__SIZEOF_INT__ 4\0"
 7386      5A454F46 
 7386      5F494E54 
 7386      5F5F2034 
 7386      00
 7387 018e 01       		.byte	0x1
 7388 018f 00       		.uleb128 0
 7389 0190 5F5F5349 		.ascii "__SIZEOF_LONG__ 4\0"
 7389      5A454F46 
 7389      5F4C4F4E 
 7389      475F5F20 
 7389      3400
 7390 01a2 01       		.byte	0x1
 7391 01a3 00       		.uleb128 0
 7392 01a4 5F5F5349 		.ascii "__SIZEOF_LONG_LONG__ 8\0"
 7392      5A454F46 
 7392      5F4C4F4E 
 7392      475F4C4F 
 7392      4E475F5F 
 7393 01bb 01       		.byte	0x1
 7394 01bc 00       		.uleb128 0
 7395 01bd 5F5F5349 		.ascii "__SIZEOF_SHORT__ 2\0"
 7395      5A454F46 
 7395      5F53484F 
 7395      52545F5F 
 7395      203200
 7396 01d0 01       		.byte	0x1
 7397 01d1 00       		.uleb128 0
 7398 01d2 5F5F5349 		.ascii "__SIZEOF_FLOAT__ 4\0"
 7398      5A454F46 
 7398      5F464C4F 
 7398      41545F5F 
 7398      203400
 7399 01e5 01       		.byte	0x1
 7400 01e6 00       		.uleb128 0
 7401 01e7 5F5F5349 		.ascii "__SIZEOF_DOUBLE__ 8\0"
 7401      5A454F46 
 7401      5F444F55 
 7401      424C455F 
 7401      5F203800 
 7402 01fb 01       		.byte	0x1
 7403 01fc 00       		.uleb128 0
 7404 01fd 5F5F5349 		.ascii "__SIZEOF_LONG_DOUBLE__ 16\0"
 7404      5A454F46 
 7404      5F4C4F4E 
 7404      475F444F 
 7404      55424C45 
 7405 0217 01       		.byte	0x1
 7406 0218 00       		.uleb128 0
 7407 0219 5F5F5349 		.ascii "__SIZEOF_SIZE_T__ 8\0"
 7407      5A454F46 
 7407      5F53495A 
 7407      455F545F 
 7407      5F203800 
 7408 022d 01       		.byte	0x1
 7409 022e 00       		.uleb128 0
 7410 022f 5F5F4348 		.ascii "__CHAR_BIT__ 8\0"
 7410      41525F42 
 7410      49545F5F 
 7410      203800
 7411 023e 01       		.byte	0x1
 7412 023f 00       		.uleb128 0
 7413 0240 5F5F4249 		.ascii "__BIGGEST_ALIGNMENT__ 16\0"
 7413      47474553 
 7413      545F414C 
 7413      49474E4D 
 7413      454E545F 
 7414 0259 01       		.byte	0x1
 7415 025a 00       		.uleb128 0
 7416 025b 5F5F4F52 		.ascii "__ORDER_LITTLE_ENDIAN__ 1234\0"
 7416      4445525F 
 7416      4C495454 
 7416      4C455F45 
 7416      4E444941 
 7417 0278 01       		.byte	0x1
 7418 0279 00       		.uleb128 0
 7419 027a 5F5F4F52 		.ascii "__ORDER_BIG_ENDIAN__ 4321\0"
 7419      4445525F 
 7419      4249475F 
 7419      454E4449 
 7419      414E5F5F 
 7420 0294 01       		.byte	0x1
 7421 0295 00       		.uleb128 0
 7422 0296 5F5F4F52 		.ascii "__ORDER_PDP_ENDIAN__ 3412\0"
 7422      4445525F 
 7422      5044505F 
 7422      454E4449 
 7422      414E5F5F 
 7423 02b0 01       		.byte	0x1
 7424 02b1 00       		.uleb128 0
 7425 02b2 5F5F4259 		.ascii "__BYTE_ORDER__ __ORDER_LITTLE_ENDIAN__\0"
 7425      54455F4F 
 7425      52444552 
 7425      5F5F205F 
 7425      5F4F5244 
 7426 02d9 01       		.byte	0x1
 7427 02da 00       		.uleb128 0
 7428 02db 5F5F464C 		.ascii "__FLOAT_WORD_ORDER__ __ORDER_LITTLE_ENDIAN__\0"
 7428      4F41545F 
 7428      574F5244 
 7428      5F4F5244 
 7428      45525F5F 
 7429 0308 01       		.byte	0x1
 7430 0309 00       		.uleb128 0
 7431 030a 5F5F5349 		.ascii "__SIZEOF_POINTER__ 8\0"
 7431      5A454F46 
 7431      5F504F49 
 7431      4E544552 
 7431      5F5F2038 
 7432 031f 01       		.byte	0x1
 7433 0320 00       		.uleb128 0
 7434 0321 5F5F474E 		.ascii "__GNUC_EXECUTION_CHARSET_NAME \"UTF-8\"\0"
 7434      55435F45 
 7434      58454355 
 7434      54494F4E 
 7434      5F434841 
 7435 0347 01       		.byte	0x1
 7436 0348 00       		.uleb128 0
 7437 0349 5F5F474E 		.ascii "__GNUC_WIDE_EXECUTION_CHARSET_NAME \"UTF-16LE\"\0"
 7437      55435F57 
 7437      4944455F 
 7437      45584543 
 7437      5554494F 
 7438 0377 01       		.byte	0x1
 7439 0378 00       		.uleb128 0
 7440 0379 5F5F5349 		.ascii "__SIZE_TYPE__ long long unsigned int\0"
 7440      5A455F54 
 7440      5950455F 
 7440      5F206C6F 
 7440      6E67206C 
 7441 039e 01       		.byte	0x1
 7442 039f 00       		.uleb128 0
 7443 03a0 5F5F5054 		.ascii "__PTRDIFF_TYPE__ long long int\0"
 7443      52444946 
 7443      465F5459 
 7443      50455F5F 
 7443      206C6F6E 
 7444 03bf 01       		.byte	0x1
 7445 03c0 00       		.uleb128 0
 7446 03c1 5F5F5743 		.ascii "__WCHAR_TYPE__ short unsigned int\0"
 7446      4841525F 
 7446      54595045 
 7446      5F5F2073 
 7446      686F7274 
 7447 03e3 01       		.byte	0x1
 7448 03e4 00       		.uleb128 0
 7449 03e5 5F5F5749 		.ascii "__WINT_TYPE__ short unsigned int\0"
 7449      4E545F54 
 7449      5950455F 
 7449      5F207368 
 7449      6F727420 
 7450 0406 01       		.byte	0x1
 7451 0407 00       		.uleb128 0
 7452 0408 5F5F494E 		.ascii "__INTMAX_TYPE__ long long int\0"
 7452      544D4158 
 7452      5F545950 
 7452      455F5F20 
 7452      6C6F6E67 
 7453 0426 01       		.byte	0x1
 7454 0427 00       		.uleb128 0
 7455 0428 5F5F5549 		.ascii "__UINTMAX_TYPE__ long long unsigned int\0"
 7455      4E544D41 
 7455      585F5459 
 7455      50455F5F 
 7455      206C6F6E 
 7456 0450 01       		.byte	0x1
 7457 0451 00       		.uleb128 0
 7458 0452 5F5F4348 		.ascii "__CHAR16_TYPE__ short unsigned int\0"
 7458      41523136 
 7458      5F545950 
 7458      455F5F20 
 7458      73686F72 
 7459 0475 01       		.byte	0x1
 7460 0476 00       		.uleb128 0
 7461 0477 5F5F4348 		.ascii "__CHAR32_TYPE__ unsigned int\0"
 7461      41523332 
 7461      5F545950 
 7461      455F5F20 
 7461      756E7369 
 7462 0494 01       		.byte	0x1
 7463 0495 00       		.uleb128 0
 7464 0496 5F5F5349 		.ascii "__SIG_ATOMIC_TYPE__ int\0"
 7464      475F4154 
 7464      4F4D4943 
 7464      5F545950 
 7464      455F5F20 
 7465 04ae 01       		.byte	0x1
 7466 04af 00       		.uleb128 0
 7467 04b0 5F5F494E 		.ascii "__INT8_TYPE__ signed char\0"
 7467      54385F54 
 7467      5950455F 
 7467      5F207369 
 7467      676E6564 
 7468 04ca 01       		.byte	0x1
 7469 04cb 00       		.uleb128 0
 7470 04cc 5F5F494E 		.ascii "__INT16_TYPE__ short int\0"
 7470      5431365F 
 7470      54595045 
 7470      5F5F2073 
 7470      686F7274 
 7471 04e5 01       		.byte	0x1
 7472 04e6 00       		.uleb128 0
 7473 04e7 5F5F494E 		.ascii "__INT32_TYPE__ int\0"
 7473      5433325F 
 7473      54595045 
 7473      5F5F2069 
 7473      6E7400
 7474 04fa 01       		.byte	0x1
 7475 04fb 00       		.uleb128 0
 7476 04fc 5F5F494E 		.ascii "__INT64_TYPE__ long long int\0"
 7476      5436345F 
 7476      54595045 
 7476      5F5F206C 
 7476      6F6E6720 
 7477 0519 01       		.byte	0x1
 7478 051a 00       		.uleb128 0
 7479 051b 5F5F5549 		.ascii "__UINT8_TYPE__ unsigned char\0"
 7479      4E54385F 
 7479      54595045 
 7479      5F5F2075 
 7479      6E736967 
 7480 0538 01       		.byte	0x1
 7481 0539 00       		.uleb128 0
 7482 053a 5F5F5549 		.ascii "__UINT16_TYPE__ short unsigned int\0"
 7482      4E543136 
 7482      5F545950 
 7482      455F5F20 
 7482      73686F72 
 7483 055d 01       		.byte	0x1
 7484 055e 00       		.uleb128 0
 7485 055f 5F5F5549 		.ascii "__UINT32_TYPE__ unsigned int\0"
 7485      4E543332 
 7485      5F545950 
 7485      455F5F20 
 7485      756E7369 
 7486 057c 01       		.byte	0x1
 7487 057d 00       		.uleb128 0
 7488 057e 5F5F5549 		.ascii "__UINT64_TYPE__ long long unsigned int\0"
 7488      4E543634 
 7488      5F545950 
 7488      455F5F20 
 7488      6C6F6E67 
 7489 05a5 01       		.byte	0x1
 7490 05a6 00       		.uleb128 0
 7491 05a7 5F5F494E 		.ascii "__INT_LEAST8_TYPE__ signed char\0"
 7491      545F4C45 
 7491      41535438 
 7491      5F545950 
 7491      455F5F20 
 7492 05c7 01       		.byte	0x1
 7493 05c8 00       		.uleb128 0
 7494 05c9 5F5F494E 		.ascii "__INT_LEAST16_TYPE__ short int\0"
 7494      545F4C45 
 7494      41535431 
 7494      365F5459 
 7494      50455F5F 
 7495 05e8 01       		.byte	0x1
 7496 05e9 00       		.uleb128 0
 7497 05ea 5F5F494E 		.ascii "__INT_LEAST32_TYPE__ int\0"
 7497      545F4C45 
 7497      41535433 
 7497      325F5459 
 7497      50455F5F 
 7498 0603 01       		.byte	0x1
 7499 0604 00       		.uleb128 0
 7500 0605 5F5F494E 		.ascii "__INT_LEAST64_TYPE__ long long int\0"
 7500      545F4C45 
 7500      41535436 
 7500      345F5459 
 7500      50455F5F 
 7501 0628 01       		.byte	0x1
 7502 0629 00       		.uleb128 0
 7503 062a 5F5F5549 		.ascii "__UINT_LEAST8_TYPE__ unsigned char\0"
 7503      4E545F4C 
 7503      45415354 
 7503      385F5459 
 7503      50455F5F 
 7504 064d 01       		.byte	0x1
 7505 064e 00       		.uleb128 0
 7506 064f 5F5F5549 		.ascii "__UINT_LEAST16_TYPE__ short unsigned int\0"
 7506      4E545F4C 
 7506      45415354 
 7506      31365F54 
 7506      5950455F 
 7507 0678 01       		.byte	0x1
 7508 0679 00       		.uleb128 0
 7509 067a 5F5F5549 		.ascii "__UINT_LEAST32_TYPE__ unsigned int\0"
 7509      4E545F4C 
 7509      45415354 
 7509      33325F54 
 7509      5950455F 
 7510 069d 01       		.byte	0x1
 7511 069e 00       		.uleb128 0
 7512 069f 5F5F5549 		.ascii "__UINT_LEAST64_TYPE__ long long unsigned int\0"
 7512      4E545F4C 
 7512      45415354 
 7512      36345F54 
 7512      5950455F 
 7513 06cc 01       		.byte	0x1
 7514 06cd 00       		.uleb128 0
 7515 06ce 5F5F494E 		.ascii "__INT_FAST8_TYPE__ signed char\0"
 7515      545F4641 
 7515      5354385F 
 7515      54595045 
 7515      5F5F2073 
 7516 06ed 01       		.byte	0x1
 7517 06ee 00       		.uleb128 0
 7518 06ef 5F5F494E 		.ascii "__INT_FAST16_TYPE__ short int\0"
 7518      545F4641 
 7518      53543136 
 7518      5F545950 
 7518      455F5F20 
 7519 070d 01       		.byte	0x1
 7520 070e 00       		.uleb128 0
 7521 070f 5F5F494E 		.ascii "__INT_FAST32_TYPE__ int\0"
 7521      545F4641 
 7521      53543332 
 7521      5F545950 
 7521      455F5F20 
 7522 0727 01       		.byte	0x1
 7523 0728 00       		.uleb128 0
 7524 0729 5F5F494E 		.ascii "__INT_FAST64_TYPE__ long long int\0"
 7524      545F4641 
 7524      53543634 
 7524      5F545950 
 7524      455F5F20 
 7525 074b 01       		.byte	0x1
 7526 074c 00       		.uleb128 0
 7527 074d 5F5F5549 		.ascii "__UINT_FAST8_TYPE__ unsigned char\0"
 7527      4E545F46 
 7527      41535438 
 7527      5F545950 
 7527      455F5F20 
 7528 076f 01       		.byte	0x1
 7529 0770 00       		.uleb128 0
 7530 0771 5F5F5549 		.ascii "__UINT_FAST16_TYPE__ short unsigned int\0"
 7530      4E545F46 
 7530      41535431 
 7530      365F5459 
 7530      50455F5F 
 7531 0799 01       		.byte	0x1
 7532 079a 00       		.uleb128 0
 7533 079b 5F5F5549 		.ascii "__UINT_FAST32_TYPE__ unsigned int\0"
 7533      4E545F46 
 7533      41535433 
 7533      325F5459 
 7533      50455F5F 
 7534 07bd 01       		.byte	0x1
 7535 07be 00       		.uleb128 0
 7536 07bf 5F5F5549 		.ascii "__UINT_FAST64_TYPE__ long long unsigned int\0"
 7536      4E545F46 
 7536      41535436 
 7536      345F5459 
 7536      50455F5F 
 7537 07eb 01       		.byte	0x1
 7538 07ec 00       		.uleb128 0
 7539 07ed 5F5F494E 		.ascii "__INTPTR_TYPE__ long long int\0"
 7539      54505452 
 7539      5F545950 
 7539      455F5F20 
 7539      6C6F6E67 
 7540 080b 01       		.byte	0x1
 7541 080c 00       		.uleb128 0
 7542 080d 5F5F5549 		.ascii "__UINTPTR_TYPE__ long long unsigned int\0"
 7542      4E545054 
 7542      525F5459 
 7542      50455F5F 
 7542      206C6F6E 
 7543 0835 01       		.byte	0x1
 7544 0836 00       		.uleb128 0
 7545 0837 5F5F4758 		.ascii "__GXX_ABI_VERSION 1018\0"
 7545      585F4142 
 7545      495F5645 
 7545      5253494F 
 7545      4E203130 
 7546 084e 01       		.byte	0x1
 7547 084f 00       		.uleb128 0
 7548 0850 5F5F5343 		.ascii "__SCHAR_MAX__ 0x7f\0"
 7548      4841525F 
 7548      4D41585F 
 7548      5F203078 
 7548      376600
 7549 0863 01       		.byte	0x1
 7550 0864 00       		.uleb128 0
 7551 0865 5F5F5348 		.ascii "__SHRT_MAX__ 0x7fff\0"
 7551      52545F4D 
 7551      41585F5F 
 7551      20307837 
 7551      66666600 
 7552 0879 01       		.byte	0x1
 7553 087a 00       		.uleb128 0
 7554 087b 5F5F494E 		.ascii "__INT_MAX__ 0x7fffffff\0"
 7554      545F4D41 
 7554      585F5F20 
 7554      30783766 
 7554      66666666 
 7555 0892 01       		.byte	0x1
 7556 0893 00       		.uleb128 0
 7557 0894 5F5F4C4F 		.ascii "__LONG_MAX__ 0x7fffffffL\0"
 7557      4E475F4D 
 7557      41585F5F 
 7557      20307837 
 7557      66666666 
 7558 08ad 01       		.byte	0x1
 7559 08ae 00       		.uleb128 0
 7560 08af 5F5F4C4F 		.ascii "__LONG_LONG_MAX__ 0x7fffffffffffffffLL\0"
 7560      4E475F4C 
 7560      4F4E475F 
 7560      4D41585F 
 7560      5F203078 
 7561 08d6 01       		.byte	0x1
 7562 08d7 00       		.uleb128 0
 7563 08d8 5F5F5743 		.ascii "__WCHAR_MAX__ 0xffff\0"
 7563      4841525F 
 7563      4D41585F 
 7563      5F203078 
 7563      66666666 
 7564 08ed 01       		.byte	0x1
 7565 08ee 00       		.uleb128 0
 7566 08ef 5F5F5743 		.ascii "__WCHAR_MIN__ 0\0"
 7566      4841525F 
 7566      4D494E5F 
 7566      5F203000 
 7567 08ff 01       		.byte	0x1
 7568 0900 00       		.uleb128 0
 7569 0901 5F5F5749 		.ascii "__WINT_MAX__ 0xffff\0"
 7569      4E545F4D 
 7569      41585F5F 
 7569      20307866 
 7569      66666600 
 7570 0915 01       		.byte	0x1
 7571 0916 00       		.uleb128 0
 7572 0917 5F5F5749 		.ascii "__WINT_MIN__ 0\0"
 7572      4E545F4D 
 7572      494E5F5F 
 7572      203000
 7573 0926 01       		.byte	0x1
 7574 0927 00       		.uleb128 0
 7575 0928 5F5F5054 		.ascii "__PTRDIFF_MAX__ 0x7fffffffffffffffLL\0"
 7575      52444946 
 7575      465F4D41 
 7575      585F5F20 
 7575      30783766 
 7576 094d 01       		.byte	0x1
 7577 094e 00       		.uleb128 0
 7578 094f 5F5F5349 		.ascii "__SIZE_MAX__ 0xffffffffffffffffULL\0"
 7578      5A455F4D 
 7578      41585F5F 
 7578      20307866 
 7578      66666666 
 7579 0972 01       		.byte	0x1
 7580 0973 00       		.uleb128 0
 7581 0974 5F5F5343 		.ascii "__SCHAR_WIDTH__ 8\0"
 7581      4841525F 
 7581      57494454 
 7581      485F5F20 
 7581      3800
 7582 0986 01       		.byte	0x1
 7583 0987 00       		.uleb128 0
 7584 0988 5F5F5348 		.ascii "__SHRT_WIDTH__ 16\0"
 7584      52545F57 
 7584      49445448 
 7584      5F5F2031 
 7584      3600
 7585 099a 01       		.byte	0x1
 7586 099b 00       		.uleb128 0
 7587 099c 5F5F494E 		.ascii "__INT_WIDTH__ 32\0"
 7587      545F5749 
 7587      4454485F 
 7587      5F203332 
 7587      00
 7588 09ad 01       		.byte	0x1
 7589 09ae 00       		.uleb128 0
 7590 09af 5F5F4C4F 		.ascii "__LONG_WIDTH__ 32\0"
 7590      4E475F57 
 7590      49445448 
 7590      5F5F2033 
 7590      3200
 7591 09c1 01       		.byte	0x1
 7592 09c2 00       		.uleb128 0
 7593 09c3 5F5F4C4F 		.ascii "__LONG_LONG_WIDTH__ 64\0"
 7593      4E475F4C 
 7593      4F4E475F 
 7593      57494454 
 7593      485F5F20 
 7594 09da 01       		.byte	0x1
 7595 09db 00       		.uleb128 0
 7596 09dc 5F5F5743 		.ascii "__WCHAR_WIDTH__ 16\0"
 7596      4841525F 
 7596      57494454 
 7596      485F5F20 
 7596      313600
 7597 09ef 01       		.byte	0x1
 7598 09f0 00       		.uleb128 0
 7599 09f1 5F5F5749 		.ascii "__WINT_WIDTH__ 16\0"
 7599      4E545F57 
 7599      49445448 
 7599      5F5F2031 
 7599      3600
 7600 0a03 01       		.byte	0x1
 7601 0a04 00       		.uleb128 0
 7602 0a05 5F5F5054 		.ascii "__PTRDIFF_WIDTH__ 64\0"
 7602      52444946 
 7602      465F5749 
 7602      4454485F 
 7602      5F203634 
 7603 0a1a 01       		.byte	0x1
 7604 0a1b 00       		.uleb128 0
 7605 0a1c 5F5F5349 		.ascii "__SIZE_WIDTH__ 64\0"
 7605      5A455F57 
 7605      49445448 
 7605      5F5F2036 
 7605      3400
 7606 0a2e 01       		.byte	0x1
 7607 0a2f 00       		.uleb128 0
 7608 0a30 5F5F494E 		.ascii "__INTMAX_MAX__ 0x7fffffffffffffffLL\0"
 7608      544D4158 
 7608      5F4D4158 
 7608      5F5F2030 
 7608      78376666 
 7609 0a54 01       		.byte	0x1
 7610 0a55 00       		.uleb128 0
 7611 0a56 5F5F494E 		.ascii "__INTMAX_C(c) c ## LL\0"
 7611      544D4158 
 7611      5F432863 
 7611      29206320 
 7611      2323204C 
 7612 0a6c 01       		.byte	0x1
 7613 0a6d 00       		.uleb128 0
 7614 0a6e 5F5F5549 		.ascii "__UINTMAX_MAX__ 0xffffffffffffffffULL\0"
 7614      4E544D41 
 7614      585F4D41 
 7614      585F5F20 
 7614      30786666 
 7615 0a94 01       		.byte	0x1
 7616 0a95 00       		.uleb128 0
 7617 0a96 5F5F5549 		.ascii "__UINTMAX_C(c) c ## ULL\0"
 7617      4E544D41 
 7617      585F4328 
 7617      63292063 
 7617      20232320 
 7618 0aae 01       		.byte	0x1
 7619 0aaf 00       		.uleb128 0
 7620 0ab0 5F5F494E 		.ascii "__INTMAX_WIDTH__ 64\0"
 7620      544D4158 
 7620      5F574944 
 7620      54485F5F 
 7620      20363400 
 7621 0ac4 01       		.byte	0x1
 7622 0ac5 00       		.uleb128 0
 7623 0ac6 5F5F5349 		.ascii "__SIG_ATOMIC_MAX__ 0x7fffffff\0"
 7623      475F4154 
 7623      4F4D4943 
 7623      5F4D4158 
 7623      5F5F2030 
 7624 0ae4 01       		.byte	0x1
 7625 0ae5 00       		.uleb128 0
 7626 0ae6 5F5F5349 		.ascii "__SIG_ATOMIC_MIN__ (-__SIG_ATOMIC_MAX__ - 1)\0"
 7626      475F4154 
 7626      4F4D4943 
 7626      5F4D494E 
 7626      5F5F2028 
 7627 0b13 01       		.byte	0x1
 7628 0b14 00       		.uleb128 0
 7629 0b15 5F5F5349 		.ascii "__SIG_ATOMIC_WIDTH__ 32\0"
 7629      475F4154 
 7629      4F4D4943 
 7629      5F574944 
 7629      54485F5F 
 7630 0b2d 01       		.byte	0x1
 7631 0b2e 00       		.uleb128 0
 7632 0b2f 5F5F494E 		.ascii "__INT8_MAX__ 0x7f\0"
 7632      54385F4D 
 7632      41585F5F 
 7632      20307837 
 7632      6600
 7633 0b41 01       		.byte	0x1
 7634 0b42 00       		.uleb128 0
 7635 0b43 5F5F494E 		.ascii "__INT16_MAX__ 0x7fff\0"
 7635      5431365F 
 7635      4D41585F 
 7635      5F203078 
 7635      37666666 
 7636 0b58 01       		.byte	0x1
 7637 0b59 00       		.uleb128 0
 7638 0b5a 5F5F494E 		.ascii "__INT32_MAX__ 0x7fffffff\0"
 7638      5433325F 
 7638      4D41585F 
 7638      5F203078 
 7638      37666666 
 7639 0b73 01       		.byte	0x1
 7640 0b74 00       		.uleb128 0
 7641 0b75 5F5F494E 		.ascii "__INT64_MAX__ 0x7fffffffffffffffLL\0"
 7641      5436345F 
 7641      4D41585F 
 7641      5F203078 
 7641      37666666 
 7642 0b98 01       		.byte	0x1
 7643 0b99 00       		.uleb128 0
 7644 0b9a 5F5F5549 		.ascii "__UINT8_MAX__ 0xff\0"
 7644      4E54385F 
 7644      4D41585F 
 7644      5F203078 
 7644      666600
 7645 0bad 01       		.byte	0x1
 7646 0bae 00       		.uleb128 0
 7647 0baf 5F5F5549 		.ascii "__UINT16_MAX__ 0xffff\0"
 7647      4E543136 
 7647      5F4D4158 
 7647      5F5F2030 
 7647      78666666 
 7648 0bc5 01       		.byte	0x1
 7649 0bc6 00       		.uleb128 0
 7650 0bc7 5F5F5549 		.ascii "__UINT32_MAX__ 0xffffffffU\0"
 7650      4E543332 
 7650      5F4D4158 
 7650      5F5F2030 
 7650      78666666 
 7651 0be2 01       		.byte	0x1
 7652 0be3 00       		.uleb128 0
 7653 0be4 5F5F5549 		.ascii "__UINT64_MAX__ 0xffffffffffffffffULL\0"
 7653      4E543634 
 7653      5F4D4158 
 7653      5F5F2030 
 7653      78666666 
 7654 0c09 01       		.byte	0x1
 7655 0c0a 00       		.uleb128 0
 7656 0c0b 5F5F494E 		.ascii "__INT_LEAST8_MAX__ 0x7f\0"
 7656      545F4C45 
 7656      41535438 
 7656      5F4D4158 
 7656      5F5F2030 
 7657 0c23 01       		.byte	0x1
 7658 0c24 00       		.uleb128 0
 7659 0c25 5F5F494E 		.ascii "__INT8_C(c) c\0"
 7659      54385F43 
 7659      28632920 
 7659      6300
 7660 0c33 01       		.byte	0x1
 7661 0c34 00       		.uleb128 0
 7662 0c35 5F5F494E 		.ascii "__INT_LEAST8_WIDTH__ 8\0"
 7662      545F4C45 
 7662      41535438 
 7662      5F574944 
 7662      54485F5F 
 7663 0c4c 01       		.byte	0x1
 7664 0c4d 00       		.uleb128 0
 7665 0c4e 5F5F494E 		.ascii "__INT_LEAST16_MAX__ 0x7fff\0"
 7665      545F4C45 
 7665      41535431 
 7665      365F4D41 
 7665      585F5F20 
 7666 0c69 01       		.byte	0x1
 7667 0c6a 00       		.uleb128 0
 7668 0c6b 5F5F494E 		.ascii "__INT16_C(c) c\0"
 7668      5431365F 
 7668      43286329 
 7668      206300
 7669 0c7a 01       		.byte	0x1
 7670 0c7b 00       		.uleb128 0
 7671 0c7c 5F5F494E 		.ascii "__INT_LEAST16_WIDTH__ 16\0"
 7671      545F4C45 
 7671      41535431 
 7671      365F5749 
 7671      4454485F 
 7672 0c95 01       		.byte	0x1
 7673 0c96 00       		.uleb128 0
 7674 0c97 5F5F494E 		.ascii "__INT_LEAST32_MAX__ 0x7fffffff\0"
 7674      545F4C45 
 7674      41535433 
 7674      325F4D41 
 7674      585F5F20 
 7675 0cb6 01       		.byte	0x1
 7676 0cb7 00       		.uleb128 0
 7677 0cb8 5F5F494E 		.ascii "__INT32_C(c) c\0"
 7677      5433325F 
 7677      43286329 
 7677      206300
 7678 0cc7 01       		.byte	0x1
 7679 0cc8 00       		.uleb128 0
 7680 0cc9 5F5F494E 		.ascii "__INT_LEAST32_WIDTH__ 32\0"
 7680      545F4C45 
 7680      41535433 
 7680      325F5749 
 7680      4454485F 
 7681 0ce2 01       		.byte	0x1
 7682 0ce3 00       		.uleb128 0
 7683 0ce4 5F5F494E 		.ascii "__INT_LEAST64_MAX__ 0x7fffffffffffffffLL\0"
 7683      545F4C45 
 7683      41535436 
 7683      345F4D41 
 7683      585F5F20 
 7684 0d0d 01       		.byte	0x1
 7685 0d0e 00       		.uleb128 0
 7686 0d0f 5F5F494E 		.ascii "__INT64_C(c) c ## LL\0"
 7686      5436345F 
 7686      43286329 
 7686      20632023 
 7686      23204C4C 
 7687 0d24 01       		.byte	0x1
 7688 0d25 00       		.uleb128 0
 7689 0d26 5F5F494E 		.ascii "__INT_LEAST64_WIDTH__ 64\0"
 7689      545F4C45 
 7689      41535436 
 7689      345F5749 
 7689      4454485F 
 7690 0d3f 01       		.byte	0x1
 7691 0d40 00       		.uleb128 0
 7692 0d41 5F5F5549 		.ascii "__UINT_LEAST8_MAX__ 0xff\0"
 7692      4E545F4C 
 7692      45415354 
 7692      385F4D41 
 7692      585F5F20 
 7693 0d5a 01       		.byte	0x1
 7694 0d5b 00       		.uleb128 0
 7695 0d5c 5F5F5549 		.ascii "__UINT8_C(c) c\0"
 7695      4E54385F 
 7695      43286329 
 7695      206300
 7696 0d6b 01       		.byte	0x1
 7697 0d6c 00       		.uleb128 0
 7698 0d6d 5F5F5549 		.ascii "__UINT_LEAST16_MAX__ 0xffff\0"
 7698      4E545F4C 
 7698      45415354 
 7698      31365F4D 
 7698      41585F5F 
 7699 0d89 01       		.byte	0x1
 7700 0d8a 00       		.uleb128 0
 7701 0d8b 5F5F5549 		.ascii "__UINT16_C(c) c\0"
 7701      4E543136 
 7701      5F432863 
 7701      29206300 
 7702 0d9b 01       		.byte	0x1
 7703 0d9c 00       		.uleb128 0
 7704 0d9d 5F5F5549 		.ascii "__UINT_LEAST32_MAX__ 0xffffffffU\0"
 7704      4E545F4C 
 7704      45415354 
 7704      33325F4D 
 7704      41585F5F 
 7705 0dbe 01       		.byte	0x1
 7706 0dbf 00       		.uleb128 0
 7707 0dc0 5F5F5549 		.ascii "__UINT32_C(c) c ## U\0"
 7707      4E543332 
 7707      5F432863 
 7707      29206320 
 7707      23232055 
 7708 0dd5 01       		.byte	0x1
 7709 0dd6 00       		.uleb128 0
 7710 0dd7 5F5F5549 		.ascii "__UINT_LEAST64_MAX__ 0xffffffffffffffffULL\0"
 7710      4E545F4C 
 7710      45415354 
 7710      36345F4D 
 7710      41585F5F 
 7711 0e02 01       		.byte	0x1
 7712 0e03 00       		.uleb128 0
 7713 0e04 5F5F5549 		.ascii "__UINT64_C(c) c ## ULL\0"
 7713      4E543634 
 7713      5F432863 
 7713      29206320 
 7713      23232055 
 7714 0e1b 01       		.byte	0x1
 7715 0e1c 00       		.uleb128 0
 7716 0e1d 5F5F494E 		.ascii "__INT_FAST8_MAX__ 0x7f\0"
 7716      545F4641 
 7716      5354385F 
 7716      4D41585F 
 7716      5F203078 
 7717 0e34 01       		.byte	0x1
 7718 0e35 00       		.uleb128 0
 7719 0e36 5F5F494E 		.ascii "__INT_FAST8_WIDTH__ 8\0"
 7719      545F4641 
 7719      5354385F 
 7719      57494454 
 7719      485F5F20 
 7720 0e4c 01       		.byte	0x1
 7721 0e4d 00       		.uleb128 0
 7722 0e4e 5F5F494E 		.ascii "__INT_FAST16_MAX__ 0x7fff\0"
 7722      545F4641 
 7722      53543136 
 7722      5F4D4158 
 7722      5F5F2030 
 7723 0e68 01       		.byte	0x1
 7724 0e69 00       		.uleb128 0
 7725 0e6a 5F5F494E 		.ascii "__INT_FAST16_WIDTH__ 16\0"
 7725      545F4641 
 7725      53543136 
 7725      5F574944 
 7725      54485F5F 
 7726 0e82 01       		.byte	0x1
 7727 0e83 00       		.uleb128 0
 7728 0e84 5F5F494E 		.ascii "__INT_FAST32_MAX__ 0x7fffffff\0"
 7728      545F4641 
 7728      53543332 
 7728      5F4D4158 
 7728      5F5F2030 
 7729 0ea2 01       		.byte	0x1
 7730 0ea3 00       		.uleb128 0
 7731 0ea4 5F5F494E 		.ascii "__INT_FAST32_WIDTH__ 32\0"
 7731      545F4641 
 7731      53543332 
 7731      5F574944 
 7731      54485F5F 
 7732 0ebc 01       		.byte	0x1
 7733 0ebd 00       		.uleb128 0
 7734 0ebe 5F5F494E 		.ascii "__INT_FAST64_MAX__ 0x7fffffffffffffffLL\0"
 7734      545F4641 
 7734      53543634 
 7734      5F4D4158 
 7734      5F5F2030 
 7735 0ee6 01       		.byte	0x1
 7736 0ee7 00       		.uleb128 0
 7737 0ee8 5F5F494E 		.ascii "__INT_FAST64_WIDTH__ 64\0"
 7737      545F4641 
 7737      53543634 
 7737      5F574944 
 7737      54485F5F 
 7738 0f00 01       		.byte	0x1
 7739 0f01 00       		.uleb128 0
 7740 0f02 5F5F5549 		.ascii "__UINT_FAST8_MAX__ 0xff\0"
 7740      4E545F46 
 7740      41535438 
 7740      5F4D4158 
 7740      5F5F2030 
 7741 0f1a 01       		.byte	0x1
 7742 0f1b 00       		.uleb128 0
 7743 0f1c 5F5F5549 		.ascii "__UINT_FAST16_MAX__ 0xffff\0"
 7743      4E545F46 
 7743      41535431 
 7743      365F4D41 
 7743      585F5F20 
 7744 0f37 01       		.byte	0x1
 7745 0f38 00       		.uleb128 0
 7746 0f39 5F5F5549 		.ascii "__UINT_FAST32_MAX__ 0xffffffffU\0"
 7746      4E545F46 
 7746      41535433 
 7746      325F4D41 
 7746      585F5F20 
 7747 0f59 01       		.byte	0x1
 7748 0f5a 00       		.uleb128 0
 7749 0f5b 5F5F5549 		.ascii "__UINT_FAST64_MAX__ 0xffffffffffffffffULL\0"
 7749      4E545F46 
 7749      41535436 
 7749      345F4D41 
 7749      585F5F20 
 7750 0f85 01       		.byte	0x1
 7751 0f86 00       		.uleb128 0
 7752 0f87 5F5F494E 		.ascii "__INTPTR_MAX__ 0x7fffffffffffffffLL\0"
 7752      54505452 
 7752      5F4D4158 
 7752      5F5F2030 
 7752      78376666 
 7753 0fab 01       		.byte	0x1
 7754 0fac 00       		.uleb128 0
 7755 0fad 5F5F494E 		.ascii "__INTPTR_WIDTH__ 64\0"
 7755      54505452 
 7755      5F574944 
 7755      54485F5F 
 7755      20363400 
 7756 0fc1 01       		.byte	0x1
 7757 0fc2 00       		.uleb128 0
 7758 0fc3 5F5F5549 		.ascii "__UINTPTR_MAX__ 0xffffffffffffffffULL\0"
 7758      4E545054 
 7758      525F4D41 
 7758      585F5F20 
 7758      30786666 
 7759 0fe9 01       		.byte	0x1
 7760 0fea 00       		.uleb128 0
 7761 0feb 5F5F4743 		.ascii "__GCC_IEC_559 2\0"
 7761      435F4945 
 7761      435F3535 
 7761      39203200 
 7762 0ffb 01       		.byte	0x1
 7763 0ffc 00       		.uleb128 0
 7764 0ffd 5F5F4743 		.ascii "__GCC_IEC_559_COMPLEX 2\0"
 7764      435F4945 
 7764      435F3535 
 7764      395F434F 
 7764      4D504C45 
 7765 1015 01       		.byte	0x1
 7766 1016 00       		.uleb128 0
 7767 1017 5F5F464C 		.ascii "__FLT_EVAL_METHOD__ 0\0"
 7767      545F4556 
 7767      414C5F4D 
 7767      4554484F 
 7767      445F5F20 
 7768 102d 01       		.byte	0x1
 7769 102e 00       		.uleb128 0
 7770 102f 5F5F464C 		.ascii "__FLT_EVAL_METHOD_TS_18661_3__ 0\0"
 7770      545F4556 
 7770      414C5F4D 
 7770      4554484F 
 7770      445F5453 
 7771 1050 01       		.byte	0x1
 7772 1051 00       		.uleb128 0
 7773 1052 5F5F4445 		.ascii "__DEC_EVAL_METHOD__ 2\0"
 7773      435F4556 
 7773      414C5F4D 
 7773      4554484F 
 7773      445F5F20 
 7774 1068 01       		.byte	0x1
 7775 1069 00       		.uleb128 0
 7776 106a 5F5F464C 		.ascii "__FLT_RADIX__ 2\0"
 7776      545F5241 
 7776      4449585F 
 7776      5F203200 
 7777 107a 01       		.byte	0x1
 7778 107b 00       		.uleb128 0
 7779 107c 5F5F464C 		.ascii "__FLT_MANT_DIG__ 24\0"
 7779      545F4D41 
 7779      4E545F44 
 7779      49475F5F 
 7779      20323400 
 7780 1090 01       		.byte	0x1
 7781 1091 00       		.uleb128 0
 7782 1092 5F5F464C 		.ascii "__FLT_DIG__ 6\0"
 7782      545F4449 
 7782      475F5F20 
 7782      3600
 7783 10a0 01       		.byte	0x1
 7784 10a1 00       		.uleb128 0
 7785 10a2 5F5F464C 		.ascii "__FLT_MIN_EXP__ (-125)\0"
 7785      545F4D49 
 7785      4E5F4558 
 7785      505F5F20 
 7785      282D3132 
 7786 10b9 01       		.byte	0x1
 7787 10ba 00       		.uleb128 0
 7788 10bb 5F5F464C 		.ascii "__FLT_MIN_10_EXP__ (-37)\0"
 7788      545F4D49 
 7788      4E5F3130 
 7788      5F455850 
 7788      5F5F2028 
 7789 10d4 01       		.byte	0x1
 7790 10d5 00       		.uleb128 0
 7791 10d6 5F5F464C 		.ascii "__FLT_MAX_EXP__ 128\0"
 7791      545F4D41 
 7791      585F4558 
 7791      505F5F20 
 7791      31323800 
 7792 10ea 01       		.byte	0x1
 7793 10eb 00       		.uleb128 0
 7794 10ec 5F5F464C 		.ascii "__FLT_MAX_10_EXP__ 38\0"
 7794      545F4D41 
 7794      585F3130 
 7794      5F455850 
 7794      5F5F2033 
 7795 1102 01       		.byte	0x1
 7796 1103 00       		.uleb128 0
 7797 1104 5F5F464C 		.ascii "__FLT_DECIMAL_DIG__ 9\0"
 7797      545F4445 
 7797      43494D41 
 7797      4C5F4449 
 7797      475F5F20 
 7798 111a 01       		.byte	0x1
 7799 111b 00       		.uleb128 0
 7800 111c 5F5F464C 		.ascii "__FLT_MAX__ 3.40282346638528859811704183484516925e+38F\0"
 7800      545F4D41 
 7800      585F5F20 
 7800      332E3430 
 7800      32383233 
 7801 1153 01       		.byte	0x1
 7802 1154 00       		.uleb128 0
 7803 1155 5F5F464C 		.ascii "__FLT_NORM_MAX__ 3.40282346638528859811704183484516925e+38F\0"
 7803      545F4E4F 
 7803      524D5F4D 
 7803      41585F5F 
 7803      20332E34 
 7804 1191 01       		.byte	0x1
 7805 1192 00       		.uleb128 0
 7806 1193 5F5F464C 		.ascii "__FLT_MIN__ 1.17549435082228750796873653722224568e-38F\0"
 7806      545F4D49 
 7806      4E5F5F20 
 7806      312E3137 
 7806      35343934 
 7807 11ca 01       		.byte	0x1
 7808 11cb 00       		.uleb128 0
 7809 11cc 5F5F464C 		.ascii "__FLT_EPSILON__ 1.19209289550781250000000000000000000e-7F\0"
 7809      545F4550 
 7809      53494C4F 
 7809      4E5F5F20 
 7809      312E3139 
 7810 1206 01       		.byte	0x1
 7811 1207 00       		.uleb128 0
 7812 1208 5F5F464C 		.ascii "__FLT_DENORM_MIN__ 1.40129846432481707092372958328991613e-45F\0"
 7812      545F4445 
 7812      4E4F524D 
 7812      5F4D494E 
 7812      5F5F2031 
 7813 1246 01       		.byte	0x1
 7814 1247 00       		.uleb128 0
 7815 1248 5F5F464C 		.ascii "__FLT_HAS_DENORM__ 1\0"
 7815      545F4841 
 7815      535F4445 
 7815      4E4F524D 
 7815      5F5F2031 
 7816 125d 01       		.byte	0x1
 7817 125e 00       		.uleb128 0
 7818 125f 5F5F464C 		.ascii "__FLT_HAS_INFINITY__ 1\0"
 7818      545F4841 
 7818      535F494E 
 7818      46494E49 
 7818      54595F5F 
 7819 1276 01       		.byte	0x1
 7820 1277 00       		.uleb128 0
 7821 1278 5F5F464C 		.ascii "__FLT_HAS_QUIET_NAN__ 1\0"
 7821      545F4841 
 7821      535F5155 
 7821      4945545F 
 7821      4E414E5F 
 7822 1290 01       		.byte	0x1
 7823 1291 00       		.uleb128 0
 7824 1292 5F5F464C 		.ascii "__FLT_IS_IEC_60559__ 1\0"
 7824      545F4953 
 7824      5F494543 
 7824      5F363035 
 7824      35395F5F 
 7825 12a9 01       		.byte	0x1
 7826 12aa 00       		.uleb128 0
 7827 12ab 5F5F4442 		.ascii "__DBL_MANT_DIG__ 53\0"
 7827      4C5F4D41 
 7827      4E545F44 
 7827      49475F5F 
 7827      20353300 
 7828 12bf 01       		.byte	0x1
 7829 12c0 00       		.uleb128 0
 7830 12c1 5F5F4442 		.ascii "__DBL_DIG__ 15\0"
 7830      4C5F4449 
 7830      475F5F20 
 7830      313500
 7831 12d0 01       		.byte	0x1
 7832 12d1 00       		.uleb128 0
 7833 12d2 5F5F4442 		.ascii "__DBL_MIN_EXP__ (-1021)\0"
 7833      4C5F4D49 
 7833      4E5F4558 
 7833      505F5F20 
 7833      282D3130 
 7834 12ea 01       		.byte	0x1
 7835 12eb 00       		.uleb128 0
 7836 12ec 5F5F4442 		.ascii "__DBL_MIN_10_EXP__ (-307)\0"
 7836      4C5F4D49 
 7836      4E5F3130 
 7836      5F455850 
 7836      5F5F2028 
 7837 1306 01       		.byte	0x1
 7838 1307 00       		.uleb128 0
 7839 1308 5F5F4442 		.ascii "__DBL_MAX_EXP__ 1024\0"
 7839      4C5F4D41 
 7839      585F4558 
 7839      505F5F20 
 7839      31303234 
 7840 131d 01       		.byte	0x1
 7841 131e 00       		.uleb128 0
 7842 131f 5F5F4442 		.ascii "__DBL_MAX_10_EXP__ 308\0"
 7842      4C5F4D41 
 7842      585F3130 
 7842      5F455850 
 7842      5F5F2033 
 7843 1336 01       		.byte	0x1
 7844 1337 00       		.uleb128 0
 7845 1338 5F5F4442 		.ascii "__DBL_DECIMAL_DIG__ 17\0"
 7845      4C5F4445 
 7845      43494D41 
 7845      4C5F4449 
 7845      475F5F20 
 7846 134f 01       		.byte	0x1
 7847 1350 00       		.uleb128 0
 7848 1351 5F5F4442 		.ascii "__DBL_MAX__ ((double)1.79769313486231570814527423731704357e+308L)\0"
 7848      4C5F4D41 
 7848      585F5F20 
 7848      2828646F 
 7848      75626C65 
 7849 1393 01       		.byte	0x1
 7850 1394 00       		.uleb128 0
 7851 1395 5F5F4442 		.ascii "__DBL_NORM_MAX__ ((double)1.79769313486231570814527423731704357e+308L)\0"
 7851      4C5F4E4F 
 7851      524D5F4D 
 7851      41585F5F 
 7851      20282864 
 7852 13dc 01       		.byte	0x1
 7853 13dd 00       		.uleb128 0
 7854 13de 5F5F4442 		.ascii "__DBL_MIN__ ((double)2.22507385850720138309023271733240406e-308L)\0"
 7854      4C5F4D49 
 7854      4E5F5F20 
 7854      2828646F 
 7854      75626C65 
 7855 1420 01       		.byte	0x1
 7856 1421 00       		.uleb128 0
 7857 1422 5F5F4442 		.ascii "__DBL_EPSILON__ ((double)2.22044604925031308084726333618164062e-16L)\0"
 7857      4C5F4550 
 7857      53494C4F 
 7857      4E5F5F20 
 7857      2828646F 
 7858 1467 01       		.byte	0x1
 7859 1468 00       		.uleb128 0
 7860 1469 5F5F4442 		.ascii "__DBL_DENORM_MIN__ ((double)4.94065645841246544176568792868221372e-324L)\0"
 7860      4C5F4445 
 7860      4E4F524D 
 7860      5F4D494E 
 7860      5F5F2028 
 7861 14b2 01       		.byte	0x1
 7862 14b3 00       		.uleb128 0
 7863 14b4 5F5F4442 		.ascii "__DBL_HAS_DENORM__ 1\0"
 7863      4C5F4841 
 7863      535F4445 
 7863      4E4F524D 
 7863      5F5F2031 
 7864 14c9 01       		.byte	0x1
 7865 14ca 00       		.uleb128 0
 7866 14cb 5F5F4442 		.ascii "__DBL_HAS_INFINITY__ 1\0"
 7866      4C5F4841 
 7866      535F494E 
 7866      46494E49 
 7866      54595F5F 
 7867 14e2 01       		.byte	0x1
 7868 14e3 00       		.uleb128 0
 7869 14e4 5F5F4442 		.ascii "__DBL_HAS_QUIET_NAN__ 1\0"
 7869      4C5F4841 
 7869      535F5155 
 7869      4945545F 
 7869      4E414E5F 
 7870 14fc 01       		.byte	0x1
 7871 14fd 00       		.uleb128 0
 7872 14fe 5F5F4442 		.ascii "__DBL_IS_IEC_60559__ 1\0"
 7872      4C5F4953 
 7872      5F494543 
 7872      5F363035 
 7872      35395F5F 
 7873 1515 01       		.byte	0x1
 7874 1516 00       		.uleb128 0
 7875 1517 5F5F4C44 		.ascii "__LDBL_MANT_DIG__ 64\0"
 7875      424C5F4D 
 7875      414E545F 
 7875      4449475F 
 7875      5F203634 
 7876 152c 01       		.byte	0x1
 7877 152d 00       		.uleb128 0
 7878 152e 5F5F4C44 		.ascii "__LDBL_DIG__ 18\0"
 7878      424C5F44 
 7878      49475F5F 
 7878      20313800 
 7879 153e 01       		.byte	0x1
 7880 153f 00       		.uleb128 0
 7881 1540 5F5F4C44 		.ascii "__LDBL_MIN_EXP__ (-16381)\0"
 7881      424C5F4D 
 7881      494E5F45 
 7881      58505F5F 
 7881      20282D31 
 7882 155a 01       		.byte	0x1
 7883 155b 00       		.uleb128 0
 7884 155c 5F5F4C44 		.ascii "__LDBL_MIN_10_EXP__ (-4931)\0"
 7884      424C5F4D 
 7884      494E5F31 
 7884      305F4558 
 7884      505F5F20 
 7885 1578 01       		.byte	0x1
 7886 1579 00       		.uleb128 0
 7887 157a 5F5F4C44 		.ascii "__LDBL_MAX_EXP__ 16384\0"
 7887      424C5F4D 
 7887      41585F45 
 7887      58505F5F 
 7887      20313633 
 7888 1591 01       		.byte	0x1
 7889 1592 00       		.uleb128 0
 7890 1593 5F5F4C44 		.ascii "__LDBL_MAX_10_EXP__ 4932\0"
 7890      424C5F4D 
 7890      41585F31 
 7890      305F4558 
 7890      505F5F20 
 7891 15ac 01       		.byte	0x1
 7892 15ad 00       		.uleb128 0
 7893 15ae 5F5F4445 		.ascii "__DECIMAL_DIG__ 21\0"
 7893      43494D41 
 7893      4C5F4449 
 7893      475F5F20 
 7893      323100
 7894 15c1 01       		.byte	0x1
 7895 15c2 00       		.uleb128 0
 7896 15c3 5F5F4C44 		.ascii "__LDBL_DECIMAL_DIG__ 21\0"
 7896      424C5F44 
 7896      4543494D 
 7896      414C5F44 
 7896      49475F5F 
 7897 15db 01       		.byte	0x1
 7898 15dc 00       		.uleb128 0
 7899 15dd 5F5F4C44 		.ascii "__LDBL_MAX__ 1.18973149535723176502126385303097021e+4932L\0"
 7899      424C5F4D 
 7899      41585F5F 
 7899      20312E31 
 7899      38393733 
 7900 1617 01       		.byte	0x1
 7901 1618 00       		.uleb128 0
 7902 1619 5F5F4C44 		.ascii "__LDBL_NORM_MAX__ 1.18973149535723176502126385303097021e+4932L\0"
 7902      424C5F4E 
 7902      4F524D5F 
 7902      4D41585F 
 7902      5F20312E 
 7903 1658 01       		.byte	0x1
 7904 1659 00       		.uleb128 0
 7905 165a 5F5F4C44 		.ascii "__LDBL_MIN__ 3.36210314311209350626267781732175260e-4932L\0"
 7905      424C5F4D 
 7905      494E5F5F 
 7905      20332E33 
 7905      36323130 
 7906 1694 01       		.byte	0x1
 7907 1695 00       		.uleb128 0
 7908 1696 5F5F4C44 		.ascii "__LDBL_EPSILON__ 1.08420217248550443400745280086994171e-19L\0"
 7908      424C5F45 
 7908      5053494C 
 7908      4F4E5F5F 
 7908      20312E30 
 7909 16d2 01       		.byte	0x1
 7910 16d3 00       		.uleb128 0
 7911 16d4 5F5F4C44 		.ascii "__LDBL_DENORM_MIN__ 3.64519953188247460252840593361941982e-4951L\0"
 7911      424C5F44 
 7911      454E4F52 
 7911      4D5F4D49 
 7911      4E5F5F20 
 7912 1715 01       		.byte	0x1
 7913 1716 00       		.uleb128 0
 7914 1717 5F5F4C44 		.ascii "__LDBL_HAS_DENORM__ 1\0"
 7914      424C5F48 
 7914      41535F44 
 7914      454E4F52 
 7914      4D5F5F20 
 7915 172d 01       		.byte	0x1
 7916 172e 00       		.uleb128 0
 7917 172f 5F5F4C44 		.ascii "__LDBL_HAS_INFINITY__ 1\0"
 7917      424C5F48 
 7917      41535F49 
 7917      4E46494E 
 7917      4954595F 
 7918 1747 01       		.byte	0x1
 7919 1748 00       		.uleb128 0
 7920 1749 5F5F4C44 		.ascii "__LDBL_HAS_QUIET_NAN__ 1\0"
 7920      424C5F48 
 7920      41535F51 
 7920      55494554 
 7920      5F4E414E 
 7921 1762 01       		.byte	0x1
 7922 1763 00       		.uleb128 0
 7923 1764 5F5F4C44 		.ascii "__LDBL_IS_IEC_60559__ 1\0"
 7923      424C5F49 
 7923      535F4945 
 7923      435F3630 
 7923      3535395F 
 7924 177c 01       		.byte	0x1
 7925 177d 00       		.uleb128 0
 7926 177e 5F5F464C 		.ascii "__FLT16_MANT_DIG__ 11\0"
 7926      5431365F 
 7926      4D414E54 
 7926      5F444947 
 7926      5F5F2031 
 7927 1794 01       		.byte	0x1
 7928 1795 00       		.uleb128 0
 7929 1796 5F5F464C 		.ascii "__FLT16_DIG__ 3\0"
 7929      5431365F 
 7929      4449475F 
 7929      5F203300 
 7930 17a6 01       		.byte	0x1
 7931 17a7 00       		.uleb128 0
 7932 17a8 5F5F464C 		.ascii "__FLT16_MIN_EXP__ (-13)\0"
 7932      5431365F 
 7932      4D494E5F 
 7932      4558505F 
 7932      5F20282D 
 7933 17c0 01       		.byte	0x1
 7934 17c1 00       		.uleb128 0
 7935 17c2 5F5F464C 		.ascii "__FLT16_MIN_10_EXP__ (-4)\0"
 7935      5431365F 
 7935      4D494E5F 
 7935      31305F45 
 7935      58505F5F 
 7936 17dc 01       		.byte	0x1
 7937 17dd 00       		.uleb128 0
 7938 17de 5F5F464C 		.ascii "__FLT16_MAX_EXP__ 16\0"
 7938      5431365F 
 7938      4D41585F 
 7938      4558505F 
 7938      5F203136 
 7939 17f3 01       		.byte	0x1
 7940 17f4 00       		.uleb128 0
 7941 17f5 5F5F464C 		.ascii "__FLT16_MAX_10_EXP__ 4\0"
 7941      5431365F 
 7941      4D41585F 
 7941      31305F45 
 7941      58505F5F 
 7942 180c 01       		.byte	0x1
 7943 180d 00       		.uleb128 0
 7944 180e 5F5F464C 		.ascii "__FLT16_DECIMAL_DIG__ 5\0"
 7944      5431365F 
 7944      44454349 
 7944      4D414C5F 
 7944      4449475F 
 7945 1826 01       		.byte	0x1
 7946 1827 00       		.uleb128 0
 7947 1828 5F5F464C 		.ascii "__FLT16_MAX__ 6.55040000000000000000000000000000000e+4F16\0"
 7947      5431365F 
 7947      4D41585F 
 7947      5F20362E 
 7947      35353034 
 7948 1862 01       		.byte	0x1
 7949 1863 00       		.uleb128 0
 7950 1864 5F5F464C 		.ascii "__FLT16_NORM_MAX__ 6.55040000000000000000000000000000000e+4F16\0"
 7950      5431365F 
 7950      4E4F524D 
 7950      5F4D4158 
 7950      5F5F2036 
 7951 18a3 01       		.byte	0x1
 7952 18a4 00       		.uleb128 0
 7953 18a5 5F5F464C 		.ascii "__FLT16_MIN__ 6.10351562500000000000000000000000000e-5F16\0"
 7953      5431365F 
 7953      4D494E5F 
 7953      5F20362E 
 7953      31303335 
 7954 18df 01       		.byte	0x1
 7955 18e0 00       		.uleb128 0
 7956 18e1 5F5F464C 		.ascii "__FLT16_EPSILON__ 9.76562500000000000000000000000000000e-4F16\0"
 7956      5431365F 
 7956      45505349 
 7956      4C4F4E5F 
 7956      5F20392E 
 7957 191f 01       		.byte	0x1
 7958 1920 00       		.uleb128 0
 7959 1921 5F5F464C 		.ascii "__FLT16_DENORM_MIN__ 5.96046447753906250000000000000000000e-8F16\0"
 7959      5431365F 
 7959      44454E4F 
 7959      524D5F4D 
 7959      494E5F5F 
 7960 1962 01       		.byte	0x1
 7961 1963 00       		.uleb128 0
 7962 1964 5F5F464C 		.ascii "__FLT16_HAS_DENORM__ 1\0"
 7962      5431365F 
 7962      4841535F 
 7962      44454E4F 
 7962      524D5F5F 
 7963 197b 01       		.byte	0x1
 7964 197c 00       		.uleb128 0
 7965 197d 5F5F464C 		.ascii "__FLT16_HAS_INFINITY__ 1\0"
 7965      5431365F 
 7965      4841535F 
 7965      494E4649 
 7965      4E495459 
 7966 1996 01       		.byte	0x1
 7967 1997 00       		.uleb128 0
 7968 1998 5F5F464C 		.ascii "__FLT16_HAS_QUIET_NAN__ 1\0"
 7968      5431365F 
 7968      4841535F 
 7968      51554945 
 7968      545F4E41 
 7969 19b2 01       		.byte	0x1
 7970 19b3 00       		.uleb128 0
 7971 19b4 5F5F464C 		.ascii "__FLT16_IS_IEC_60559__ 1\0"
 7971      5431365F 
 7971      49535F49 
 7971      45435F36 
 7971      30353539 
 7972 19cd 01       		.byte	0x1
 7973 19ce 00       		.uleb128 0
 7974 19cf 5F5F464C 		.ascii "__FLT32_MANT_DIG__ 24\0"
 7974      5433325F 
 7974      4D414E54 
 7974      5F444947 
 7974      5F5F2032 
 7975 19e5 01       		.byte	0x1
 7976 19e6 00       		.uleb128 0
 7977 19e7 5F5F464C 		.ascii "__FLT32_DIG__ 6\0"
 7977      5433325F 
 7977      4449475F 
 7977      5F203600 
 7978 19f7 01       		.byte	0x1
 7979 19f8 00       		.uleb128 0
 7980 19f9 5F5F464C 		.ascii "__FLT32_MIN_EXP__ (-125)\0"
 7980      5433325F 
 7980      4D494E5F 
 7980      4558505F 
 7980      5F20282D 
 7981 1a12 01       		.byte	0x1
 7982 1a13 00       		.uleb128 0
 7983 1a14 5F5F464C 		.ascii "__FLT32_MIN_10_EXP__ (-37)\0"
 7983      5433325F 
 7983      4D494E5F 
 7983      31305F45 
 7983      58505F5F 
 7984 1a2f 01       		.byte	0x1
 7985 1a30 00       		.uleb128 0
 7986 1a31 5F5F464C 		.ascii "__FLT32_MAX_EXP__ 128\0"
 7986      5433325F 
 7986      4D41585F 
 7986      4558505F 
 7986      5F203132 
 7987 1a47 01       		.byte	0x1
 7988 1a48 00       		.uleb128 0
 7989 1a49 5F5F464C 		.ascii "__FLT32_MAX_10_EXP__ 38\0"
 7989      5433325F 
 7989      4D41585F 
 7989      31305F45 
 7989      58505F5F 
 7990 1a61 01       		.byte	0x1
 7991 1a62 00       		.uleb128 0
 7992 1a63 5F5F464C 		.ascii "__FLT32_DECIMAL_DIG__ 9\0"
 7992      5433325F 
 7992      44454349 
 7992      4D414C5F 
 7992      4449475F 
 7993 1a7b 01       		.byte	0x1
 7994 1a7c 00       		.uleb128 0
 7995 1a7d 5F5F464C 		.ascii "__FLT32_MAX__ 3.40282346638528859811704183484516925e+38F32\0"
 7995      5433325F 
 7995      4D41585F 
 7995      5F20332E 
 7995      34303238 
 7996 1ab8 01       		.byte	0x1
 7997 1ab9 00       		.uleb128 0
 7998 1aba 5F5F464C 		.ascii "__FLT32_NORM_MAX__ 3.40282346638528859811704183484516925e+38F32\0"
 7998      5433325F 
 7998      4E4F524D 
 7998      5F4D4158 
 7998      5F5F2033 
 7999 1afa 01       		.byte	0x1
 8000 1afb 00       		.uleb128 0
 8001 1afc 5F5F464C 		.ascii "__FLT32_MIN__ 1.17549435082228750796873653722224568e-38F32\0"
 8001      5433325F 
 8001      4D494E5F 
 8001      5F20312E 
 8001      31373534 
 8002 1b37 01       		.byte	0x1
 8003 1b38 00       		.uleb128 0
 8004 1b39 5F5F464C 		.ascii "__FLT32_EPSILON__ 1.19209289550781250000000000000000000e-7F32\0"
 8004      5433325F 
 8004      45505349 
 8004      4C4F4E5F 
 8004      5F20312E 
 8005 1b77 01       		.byte	0x1
 8006 1b78 00       		.uleb128 0
 8007 1b79 5F5F464C 		.ascii "__FLT32_DENORM_MIN__ 1.40129846432481707092372958328991613e-45F32\0"
 8007      5433325F 
 8007      44454E4F 
 8007      524D5F4D 
 8007      494E5F5F 
 8008 1bbb 01       		.byte	0x1
 8009 1bbc 00       		.uleb128 0
 8010 1bbd 5F5F464C 		.ascii "__FLT32_HAS_DENORM__ 1\0"
 8010      5433325F 
 8010      4841535F 
 8010      44454E4F 
 8010      524D5F5F 
 8011 1bd4 01       		.byte	0x1
 8012 1bd5 00       		.uleb128 0
 8013 1bd6 5F5F464C 		.ascii "__FLT32_HAS_INFINITY__ 1\0"
 8013      5433325F 
 8013      4841535F 
 8013      494E4649 
 8013      4E495459 
 8014 1bef 01       		.byte	0x1
 8015 1bf0 00       		.uleb128 0
 8016 1bf1 5F5F464C 		.ascii "__FLT32_HAS_QUIET_NAN__ 1\0"
 8016      5433325F 
 8016      4841535F 
 8016      51554945 
 8016      545F4E41 
 8017 1c0b 01       		.byte	0x1
 8018 1c0c 00       		.uleb128 0
 8019 1c0d 5F5F464C 		.ascii "__FLT32_IS_IEC_60559__ 1\0"
 8019      5433325F 
 8019      49535F49 
 8019      45435F36 
 8019      30353539 
 8020 1c26 01       		.byte	0x1
 8021 1c27 00       		.uleb128 0
 8022 1c28 5F5F464C 		.ascii "__FLT64_MANT_DIG__ 53\0"
 8022      5436345F 
 8022      4D414E54 
 8022      5F444947 
 8022      5F5F2035 
 8023 1c3e 01       		.byte	0x1
 8024 1c3f 00       		.uleb128 0
 8025 1c40 5F5F464C 		.ascii "__FLT64_DIG__ 15\0"
 8025      5436345F 
 8025      4449475F 
 8025      5F203135 
 8025      00
 8026 1c51 01       		.byte	0x1
 8027 1c52 00       		.uleb128 0
 8028 1c53 5F5F464C 		.ascii "__FLT64_MIN_EXP__ (-1021)\0"
 8028      5436345F 
 8028      4D494E5F 
 8028      4558505F 
 8028      5F20282D 
 8029 1c6d 01       		.byte	0x1
 8030 1c6e 00       		.uleb128 0
 8031 1c6f 5F5F464C 		.ascii "__FLT64_MIN_10_EXP__ (-307)\0"
 8031      5436345F 
 8031      4D494E5F 
 8031      31305F45 
 8031      58505F5F 
 8032 1c8b 01       		.byte	0x1
 8033 1c8c 00       		.uleb128 0
 8034 1c8d 5F5F464C 		.ascii "__FLT64_MAX_EXP__ 1024\0"
 8034      5436345F 
 8034      4D41585F 
 8034      4558505F 
 8034      5F203130 
 8035 1ca4 01       		.byte	0x1
 8036 1ca5 00       		.uleb128 0
 8037 1ca6 5F5F464C 		.ascii "__FLT64_MAX_10_EXP__ 308\0"
 8037      5436345F 
 8037      4D41585F 
 8037      31305F45 
 8037      58505F5F 
 8038 1cbf 01       		.byte	0x1
 8039 1cc0 00       		.uleb128 0
 8040 1cc1 5F5F464C 		.ascii "__FLT64_DECIMAL_DIG__ 17\0"
 8040      5436345F 
 8040      44454349 
 8040      4D414C5F 
 8040      4449475F 
 8041 1cda 01       		.byte	0x1
 8042 1cdb 00       		.uleb128 0
 8043 1cdc 5F5F464C 		.ascii "__FLT64_MAX__ 1.79769313486231570814527423731704357e+308F64\0"
 8043      5436345F 
 8043      4D41585F 
 8043      5F20312E 
 8043      37393736 
 8044 1d18 01       		.byte	0x1
 8045 1d19 00       		.uleb128 0
 8046 1d1a 5F5F464C 		.ascii "__FLT64_NORM_MAX__ 1.79769313486231570814527423731704357e+308F64\0"
 8046      5436345F 
 8046      4E4F524D 
 8046      5F4D4158 
 8046      5F5F2031 
 8047 1d5b 01       		.byte	0x1
 8048 1d5c 00       		.uleb128 0
 8049 1d5d 5F5F464C 		.ascii "__FLT64_MIN__ 2.22507385850720138309023271733240406e-308F64\0"
 8049      5436345F 
 8049      4D494E5F 
 8049      5F20322E 
 8049      32323530 
 8050 1d99 01       		.byte	0x1
 8051 1d9a 00       		.uleb128 0
 8052 1d9b 5F5F464C 		.ascii "__FLT64_EPSILON__ 2.22044604925031308084726333618164062e-16F64\0"
 8052      5436345F 
 8052      45505349 
 8052      4C4F4E5F 
 8052      5F20322E 
 8053 1dda 01       		.byte	0x1
 8054 1ddb 00       		.uleb128 0
 8055 1ddc 5F5F464C 		.ascii "__FLT64_DENORM_MIN__ 4.94065645841246544176568792868221372e-324F64\0"
 8055      5436345F 
 8055      44454E4F 
 8055      524D5F4D 
 8055      494E5F5F 
 8056 1e1f 01       		.byte	0x1
 8057 1e20 00       		.uleb128 0
 8058 1e21 5F5F464C 		.ascii "__FLT64_HAS_DENORM__ 1\0"
 8058      5436345F 
 8058      4841535F 
 8058      44454E4F 
 8058      524D5F5F 
 8059 1e38 01       		.byte	0x1
 8060 1e39 00       		.uleb128 0
 8061 1e3a 5F5F464C 		.ascii "__FLT64_HAS_INFINITY__ 1\0"
 8061      5436345F 
 8061      4841535F 
 8061      494E4649 
 8061      4E495459 
 8062 1e53 01       		.byte	0x1
 8063 1e54 00       		.uleb128 0
 8064 1e55 5F5F464C 		.ascii "__FLT64_HAS_QUIET_NAN__ 1\0"
 8064      5436345F 
 8064      4841535F 
 8064      51554945 
 8064      545F4E41 
 8065 1e6f 01       		.byte	0x1
 8066 1e70 00       		.uleb128 0
 8067 1e71 5F5F464C 		.ascii "__FLT64_IS_IEC_60559__ 1\0"
 8067      5436345F 
 8067      49535F49 
 8067      45435F36 
 8067      30353539 
 8068 1e8a 01       		.byte	0x1
 8069 1e8b 00       		.uleb128 0
 8070 1e8c 5F5F464C 		.ascii "__FLT128_MANT_DIG__ 113\0"
 8070      54313238 
 8070      5F4D414E 
 8070      545F4449 
 8070      475F5F20 
 8071 1ea4 01       		.byte	0x1
 8072 1ea5 00       		.uleb128 0
 8073 1ea6 5F5F464C 		.ascii "__FLT128_DIG__ 33\0"
 8073      54313238 
 8073      5F444947 
 8073      5F5F2033 
 8073      3300
 8074 1eb8 01       		.byte	0x1
 8075 1eb9 00       		.uleb128 0
 8076 1eba 5F5F464C 		.ascii "__FLT128_MIN_EXP__ (-16381)\0"
 8076      54313238 
 8076      5F4D494E 
 8076      5F455850 
 8076      5F5F2028 
 8077 1ed6 01       		.byte	0x1
 8078 1ed7 00       		.uleb128 0
 8079 1ed8 5F5F464C 		.ascii "__FLT128_MIN_10_EXP__ (-4931)\0"
 8079      54313238 
 8079      5F4D494E 
 8079      5F31305F 
 8079      4558505F 
 8080 1ef6 01       		.byte	0x1
 8081 1ef7 00       		.uleb128 0
 8082 1ef8 5F5F464C 		.ascii "__FLT128_MAX_EXP__ 16384\0"
 8082      54313238 
 8082      5F4D4158 
 8082      5F455850 
 8082      5F5F2031 
 8083 1f11 01       		.byte	0x1
 8084 1f12 00       		.uleb128 0
 8085 1f13 5F5F464C 		.ascii "__FLT128_MAX_10_EXP__ 4932\0"
 8085      54313238 
 8085      5F4D4158 
 8085      5F31305F 
 8085      4558505F 
 8086 1f2e 01       		.byte	0x1
 8087 1f2f 00       		.uleb128 0
 8088 1f30 5F5F464C 		.ascii "__FLT128_DECIMAL_DIG__ 36\0"
 8088      54313238 
 8088      5F444543 
 8088      494D414C 
 8088      5F444947 
 8089 1f4a 01       		.byte	0x1
 8090 1f4b 00       		.uleb128 0
 8091 1f4c 5F5F464C 		.ascii "__FLT128_MAX__ 1.18973149535723176508575932662800702e+4932F128\0"
 8091      54313238 
 8091      5F4D4158 
 8091      5F5F2031 
 8091      2E313839 
 8092 1f8b 01       		.byte	0x1
 8093 1f8c 00       		.uleb128 0
 8094 1f8d 5F5F464C 		.ascii "__FLT128_NORM_MAX__ 1.18973149535723176508575932662800702e+4932F128\0"
 8094      54313238 
 8094      5F4E4F52 
 8094      4D5F4D41 
 8094      585F5F20 
 8095 1fd1 01       		.byte	0x1
 8096 1fd2 00       		.uleb128 0
 8097 1fd3 5F5F464C 		.ascii "__FLT128_MIN__ 3.36210314311209350626267781732175260e-4932F128\0"
 8097      54313238 
 8097      5F4D494E 
 8097      5F5F2033 
 8097      2E333632 
 8098 2012 01       		.byte	0x1
 8099 2013 00       		.uleb128 0
 8100 2014 5F5F464C 		.ascii "__FLT128_EPSILON__ 1.92592994438723585305597794258492732e-34F128\0"
 8100      54313238 
 8100      5F455053 
 8100      494C4F4E 
 8100      5F5F2031 
 8101 2055 01       		.byte	0x1
 8102 2056 00       		.uleb128 0
 8103 2057 5F5F464C 		.ascii "__FLT128_DENORM_MIN__ 6.47517511943802511092443895822764655e-4966F128\0"
 8103      54313238 
 8103      5F44454E 
 8103      4F524D5F 
 8103      4D494E5F 
 8104 209d 01       		.byte	0x1
 8105 209e 00       		.uleb128 0
 8106 209f 5F5F464C 		.ascii "__FLT128_HAS_DENORM__ 1\0"
 8106      54313238 
 8106      5F484153 
 8106      5F44454E 
 8106      4F524D5F 
 8107 20b7 01       		.byte	0x1
 8108 20b8 00       		.uleb128 0
 8109 20b9 5F5F464C 		.ascii "__FLT128_HAS_INFINITY__ 1\0"
 8109      54313238 
 8109      5F484153 
 8109      5F494E46 
 8109      494E4954 
 8110 20d3 01       		.byte	0x1
 8111 20d4 00       		.uleb128 0
 8112 20d5 5F5F464C 		.ascii "__FLT128_HAS_QUIET_NAN__ 1\0"
 8112      54313238 
 8112      5F484153 
 8112      5F515549 
 8112      45545F4E 
 8113 20f0 01       		.byte	0x1
 8114 20f1 00       		.uleb128 0
 8115 20f2 5F5F464C 		.ascii "__FLT128_IS_IEC_60559__ 1\0"
 8115      54313238 
 8115      5F49535F 
 8115      4945435F 
 8115      36303535 
 8116 210c 01       		.byte	0x1
 8117 210d 00       		.uleb128 0
 8118 210e 5F5F464C 		.ascii "__FLT32X_MANT_DIG__ 53\0"
 8118      54333258 
 8118      5F4D414E 
 8118      545F4449 
 8118      475F5F20 
 8119 2125 01       		.byte	0x1
 8120 2126 00       		.uleb128 0
 8121 2127 5F5F464C 		.ascii "__FLT32X_DIG__ 15\0"
 8121      54333258 
 8121      5F444947 
 8121      5F5F2031 
 8121      3500
 8122 2139 01       		.byte	0x1
 8123 213a 00       		.uleb128 0
 8124 213b 5F5F464C 		.ascii "__FLT32X_MIN_EXP__ (-1021)\0"
 8124      54333258 
 8124      5F4D494E 
 8124      5F455850 
 8124      5F5F2028 
 8125 2156 01       		.byte	0x1
 8126 2157 00       		.uleb128 0
 8127 2158 5F5F464C 		.ascii "__FLT32X_MIN_10_EXP__ (-307)\0"
 8127      54333258 
 8127      5F4D494E 
 8127      5F31305F 
 8127      4558505F 
 8128 2175 01       		.byte	0x1
 8129 2176 00       		.uleb128 0
 8130 2177 5F5F464C 		.ascii "__FLT32X_MAX_EXP__ 1024\0"
 8130      54333258 
 8130      5F4D4158 
 8130      5F455850 
 8130      5F5F2031 
 8131 218f 01       		.byte	0x1
 8132 2190 00       		.uleb128 0
 8133 2191 5F5F464C 		.ascii "__FLT32X_MAX_10_EXP__ 308\0"
 8133      54333258 
 8133      5F4D4158 
 8133      5F31305F 
 8133      4558505F 
 8134 21ab 01       		.byte	0x1
 8135 21ac 00       		.uleb128 0
 8136 21ad 5F5F464C 		.ascii "__FLT32X_DECIMAL_DIG__ 17\0"
 8136      54333258 
 8136      5F444543 
 8136      494D414C 
 8136      5F444947 
 8137 21c7 01       		.byte	0x1
 8138 21c8 00       		.uleb128 0
 8139 21c9 5F5F464C 		.ascii "__FLT32X_MAX__ 1.79769313486231570814527423731704357e+308F32x\0"
 8139      54333258 
 8139      5F4D4158 
 8139      5F5F2031 
 8139      2E373937 
 8140 2207 01       		.byte	0x1
 8141 2208 00       		.uleb128 0
 8142 2209 5F5F464C 		.ascii "__FLT32X_NORM_MAX__ 1.79769313486231570814527423731704357e+308F32x\0"
 8142      54333258 
 8142      5F4E4F52 
 8142      4D5F4D41 
 8142      585F5F20 
 8143 224c 01       		.byte	0x1
 8144 224d 00       		.uleb128 0
 8145 224e 5F5F464C 		.ascii "__FLT32X_MIN__ 2.22507385850720138309023271733240406e-308F32x\0"
 8145      54333258 
 8145      5F4D494E 
 8145      5F5F2032 
 8145      2E323235 
 8146 228c 01       		.byte	0x1
 8147 228d 00       		.uleb128 0
 8148 228e 5F5F464C 		.ascii "__FLT32X_EPSILON__ 2.22044604925031308084726333618164062e-16F32x\0"
 8148      54333258 
 8148      5F455053 
 8148      494C4F4E 
 8148      5F5F2032 
 8149 22cf 01       		.byte	0x1
 8150 22d0 00       		.uleb128 0
 8151 22d1 5F5F464C 		.ascii "__FLT32X_DENORM_MIN__ 4.94065645841246544176568792868221372e-324F32x\0"
 8151      54333258 
 8151      5F44454E 
 8151      4F524D5F 
 8151      4D494E5F 
 8152 2316 01       		.byte	0x1
 8153 2317 00       		.uleb128 0
 8154 2318 5F5F464C 		.ascii "__FLT32X_HAS_DENORM__ 1\0"
 8154      54333258 
 8154      5F484153 
 8154      5F44454E 
 8154      4F524D5F 
 8155 2330 01       		.byte	0x1
 8156 2331 00       		.uleb128 0
 8157 2332 5F5F464C 		.ascii "__FLT32X_HAS_INFINITY__ 1\0"
 8157      54333258 
 8157      5F484153 
 8157      5F494E46 
 8157      494E4954 
 8158 234c 01       		.byte	0x1
 8159 234d 00       		.uleb128 0
 8160 234e 5F5F464C 		.ascii "__FLT32X_HAS_QUIET_NAN__ 1\0"
 8160      54333258 
 8160      5F484153 
 8160      5F515549 
 8160      45545F4E 
 8161 2369 01       		.byte	0x1
 8162 236a 00       		.uleb128 0
 8163 236b 5F5F464C 		.ascii "__FLT32X_IS_IEC_60559__ 1\0"
 8163      54333258 
 8163      5F49535F 
 8163      4945435F 
 8163      36303535 
 8164 2385 01       		.byte	0x1
 8165 2386 00       		.uleb128 0
 8166 2387 5F5F464C 		.ascii "__FLT64X_MANT_DIG__ 64\0"
 8166      54363458 
 8166      5F4D414E 
 8166      545F4449 
 8166      475F5F20 
 8167 239e 01       		.byte	0x1
 8168 239f 00       		.uleb128 0
 8169 23a0 5F5F464C 		.ascii "__FLT64X_DIG__ 18\0"
 8169      54363458 
 8169      5F444947 
 8169      5F5F2031 
 8169      3800
 8170 23b2 01       		.byte	0x1
 8171 23b3 00       		.uleb128 0
 8172 23b4 5F5F464C 		.ascii "__FLT64X_MIN_EXP__ (-16381)\0"
 8172      54363458 
 8172      5F4D494E 
 8172      5F455850 
 8172      5F5F2028 
 8173 23d0 01       		.byte	0x1
 8174 23d1 00       		.uleb128 0
 8175 23d2 5F5F464C 		.ascii "__FLT64X_MIN_10_EXP__ (-4931)\0"
 8175      54363458 
 8175      5F4D494E 
 8175      5F31305F 
 8175      4558505F 
 8176 23f0 01       		.byte	0x1
 8177 23f1 00       		.uleb128 0
 8178 23f2 5F5F464C 		.ascii "__FLT64X_MAX_EXP__ 16384\0"
 8178      54363458 
 8178      5F4D4158 
 8178      5F455850 
 8178      5F5F2031 
 8179 240b 01       		.byte	0x1
 8180 240c 00       		.uleb128 0
 8181 240d 5F5F464C 		.ascii "__FLT64X_MAX_10_EXP__ 4932\0"
 8181      54363458 
 8181      5F4D4158 
 8181      5F31305F 
 8181      4558505F 
 8182 2428 01       		.byte	0x1
 8183 2429 00       		.uleb128 0
 8184 242a 5F5F464C 		.ascii "__FLT64X_DECIMAL_DIG__ 21\0"
 8184      54363458 
 8184      5F444543 
 8184      494D414C 
 8184      5F444947 
 8185 2444 01       		.byte	0x1
 8186 2445 00       		.uleb128 0
 8187 2446 5F5F464C 		.ascii "__FLT64X_MAX__ 1.18973149535723176502126385303097021e+4932F64x\0"
 8187      54363458 
 8187      5F4D4158 
 8187      5F5F2031 
 8187      2E313839 
 8188 2485 01       		.byte	0x1
 8189 2486 00       		.uleb128 0
 8190 2487 5F5F464C 		.ascii "__FLT64X_NORM_MAX__ 1.18973149535723176502126385303097021e+4932F64x\0"
 8190      54363458 
 8190      5F4E4F52 
 8190      4D5F4D41 
 8190      585F5F20 
 8191 24cb 01       		.byte	0x1
 8192 24cc 00       		.uleb128 0
 8193 24cd 5F5F464C 		.ascii "__FLT64X_MIN__ 3.36210314311209350626267781732175260e-4932F64x\0"
 8193      54363458 
 8193      5F4D494E 
 8193      5F5F2033 
 8193      2E333632 
 8194 250c 01       		.byte	0x1
 8195 250d 00       		.uleb128 0
 8196 250e 5F5F464C 		.ascii "__FLT64X_EPSILON__ 1.08420217248550443400745280086994171e-19F64x\0"
 8196      54363458 
 8196      5F455053 
 8196      494C4F4E 
 8196      5F5F2031 
 8197 254f 01       		.byte	0x1
 8198 2550 00       		.uleb128 0
 8199 2551 5F5F464C 		.ascii "__FLT64X_DENORM_MIN__ 3.64519953188247460252840593361941982e-4951F64x\0"
 8199      54363458 
 8199      5F44454E 
 8199      4F524D5F 
 8199      4D494E5F 
 8200 2597 01       		.byte	0x1
 8201 2598 00       		.uleb128 0
 8202 2599 5F5F464C 		.ascii "__FLT64X_HAS_DENORM__ 1\0"
 8202      54363458 
 8202      5F484153 
 8202      5F44454E 
 8202      4F524D5F 
 8203 25b1 01       		.byte	0x1
 8204 25b2 00       		.uleb128 0
 8205 25b3 5F5F464C 		.ascii "__FLT64X_HAS_INFINITY__ 1\0"
 8205      54363458 
 8205      5F484153 
 8205      5F494E46 
 8205      494E4954 
 8206 25cd 01       		.byte	0x1
 8207 25ce 00       		.uleb128 0
 8208 25cf 5F5F464C 		.ascii "__FLT64X_HAS_QUIET_NAN__ 1\0"
 8208      54363458 
 8208      5F484153 
 8208      5F515549 
 8208      45545F4E 
 8209 25ea 01       		.byte	0x1
 8210 25eb 00       		.uleb128 0
 8211 25ec 5F5F464C 		.ascii "__FLT64X_IS_IEC_60559__ 1\0"
 8211      54363458 
 8211      5F49535F 
 8211      4945435F 
 8211      36303535 
 8212 2606 01       		.byte	0x1
 8213 2607 00       		.uleb128 0
 8214 2608 5F5F4246 		.ascii "__BFLT16_MANT_DIG__ 8\0"
 8214      4C543136 
 8214      5F4D414E 
 8214      545F4449 
 8214      475F5F20 
 8215 261e 01       		.byte	0x1
 8216 261f 00       		.uleb128 0
 8217 2620 5F5F4246 		.ascii "__BFLT16_DIG__ 2\0"
 8217      4C543136 
 8217      5F444947 
 8217      5F5F2032 
 8217      00
 8218 2631 01       		.byte	0x1
 8219 2632 00       		.uleb128 0
 8220 2633 5F5F4246 		.ascii "__BFLT16_MIN_EXP__ (-125)\0"
 8220      4C543136 
 8220      5F4D494E 
 8220      5F455850 
 8220      5F5F2028 
 8221 264d 01       		.byte	0x1
 8222 264e 00       		.uleb128 0
 8223 264f 5F5F4246 		.ascii "__BFLT16_MIN_10_EXP__ (-37)\0"
 8223      4C543136 
 8223      5F4D494E 
 8223      5F31305F 
 8223      4558505F 
 8224 266b 01       		.byte	0x1
 8225 266c 00       		.uleb128 0
 8226 266d 5F5F4246 		.ascii "__BFLT16_MAX_EXP__ 128\0"
 8226      4C543136 
 8226      5F4D4158 
 8226      5F455850 
 8226      5F5F2031 
 8227 2684 01       		.byte	0x1
 8228 2685 00       		.uleb128 0
 8229 2686 5F5F4246 		.ascii "__BFLT16_MAX_10_EXP__ 38\0"
 8229      4C543136 
 8229      5F4D4158 
 8229      5F31305F 
 8229      4558505F 
 8230 269f 01       		.byte	0x1
 8231 26a0 00       		.uleb128 0
 8232 26a1 5F5F4246 		.ascii "__BFLT16_DECIMAL_DIG__ 4\0"
 8232      4C543136 
 8232      5F444543 
 8232      494D414C 
 8232      5F444947 
 8233 26ba 01       		.byte	0x1
 8234 26bb 00       		.uleb128 0
 8235 26bc 5F5F4246 		.ascii "__BFLT16_MAX__ 3.38953138925153547590470800371487867e+38BF16\0"
 8235      4C543136 
 8235      5F4D4158 
 8235      5F5F2033 
 8235      2E333839 
 8236 26f9 01       		.byte	0x1
 8237 26fa 00       		.uleb128 0
 8238 26fb 5F5F4246 		.ascii "__BFLT16_NORM_MAX__ 3.38953138925153547590470800371487867e+38BF16\0"
 8238      4C543136 
 8238      5F4E4F52 
 8238      4D5F4D41 
 8238      585F5F20 
 8239 273d 01       		.byte	0x1
 8240 273e 00       		.uleb128 0
 8241 273f 5F5F4246 		.ascii "__BFLT16_MIN__ 1.17549435082228750796873653722224568e-38BF16\0"
 8241      4C543136 
 8241      5F4D494E 
 8241      5F5F2031 
 8241      2E313735 
 8242 277c 01       		.byte	0x1
 8243 277d 00       		.uleb128 0
 8244 277e 5F5F4246 		.ascii "__BFLT16_EPSILON__ 7.81250000000000000000000000000000000e-3BF16\0"
 8244      4C543136 
 8244      5F455053 
 8244      494C4F4E 
 8244      5F5F2037 
 8245 27be 01       		.byte	0x1
 8246 27bf 00       		.uleb128 0
 8247 27c0 5F5F4246 		.ascii "__BFLT16_DENORM_MIN__ 9.18354961579912115600575419704879436e-41BF16\0"
 8247      4C543136 
 8247      5F44454E 
 8247      4F524D5F 
 8247      4D494E5F 
 8248 2804 01       		.byte	0x1
 8249 2805 00       		.uleb128 0
 8250 2806 5F5F4246 		.ascii "__BFLT16_HAS_DENORM__ 1\0"
 8250      4C543136 
 8250      5F484153 
 8250      5F44454E 
 8250      4F524D5F 
 8251 281e 01       		.byte	0x1
 8252 281f 00       		.uleb128 0
 8253 2820 5F5F4246 		.ascii "__BFLT16_HAS_INFINITY__ 1\0"
 8253      4C543136 
 8253      5F484153 
 8253      5F494E46 
 8253      494E4954 
 8254 283a 01       		.byte	0x1
 8255 283b 00       		.uleb128 0
 8256 283c 5F5F4246 		.ascii "__BFLT16_HAS_QUIET_NAN__ 1\0"
 8256      4C543136 
 8256      5F484153 
 8256      5F515549 
 8256      45545F4E 
 8257 2857 01       		.byte	0x1
 8258 2858 00       		.uleb128 0
 8259 2859 5F5F4246 		.ascii "__BFLT16_IS_IEC_60559__ 0\0"
 8259      4C543136 
 8259      5F49535F 
 8259      4945435F 
 8259      36303535 
 8260 2873 01       		.byte	0x1
 8261 2874 00       		.uleb128 0
 8262 2875 5F5F4445 		.ascii "__DEC32_MANT_DIG__ 7\0"
 8262      4333325F 
 8262      4D414E54 
 8262      5F444947 
 8262      5F5F2037 
 8263 288a 01       		.byte	0x1
 8264 288b 00       		.uleb128 0
 8265 288c 5F5F4445 		.ascii "__DEC32_MIN_EXP__ (-94)\0"
 8265      4333325F 
 8265      4D494E5F 
 8265      4558505F 
 8265      5F20282D 
 8266 28a4 01       		.byte	0x1
 8267 28a5 00       		.uleb128 0
 8268 28a6 5F5F4445 		.ascii "__DEC32_MAX_EXP__ 97\0"
 8268      4333325F 
 8268      4D41585F 
 8268      4558505F 
 8268      5F203937 
 8269 28bb 01       		.byte	0x1
 8270 28bc 00       		.uleb128 0
 8271 28bd 5F5F4445 		.ascii "__DEC32_MIN__ 1E-95DF\0"
 8271      4333325F 
 8271      4D494E5F 
 8271      5F203145 
 8271      2D393544 
 8272 28d3 01       		.byte	0x1
 8273 28d4 00       		.uleb128 0
 8274 28d5 5F5F4445 		.ascii "__DEC32_MAX__ 9.999999E96DF\0"
 8274      4333325F 
 8274      4D41585F 
 8274      5F20392E 
 8274      39393939 
 8275 28f1 01       		.byte	0x1
 8276 28f2 00       		.uleb128 0
 8277 28f3 5F5F4445 		.ascii "__DEC32_EPSILON__ 1E-6DF\0"
 8277      4333325F 
 8277      45505349 
 8277      4C4F4E5F 
 8277      5F203145 
 8278 290c 01       		.byte	0x1
 8279 290d 00       		.uleb128 0
 8280 290e 5F5F4445 		.ascii "__DEC32_SUBNORMAL_MIN__ 0.000001E-95DF\0"
 8280      4333325F 
 8280      5355424E 
 8280      4F524D41 
 8280      4C5F4D49 
 8281 2935 01       		.byte	0x1
 8282 2936 00       		.uleb128 0
 8283 2937 5F5F4445 		.ascii "__DEC64_MANT_DIG__ 16\0"
 8283      4336345F 
 8283      4D414E54 
 8283      5F444947 
 8283      5F5F2031 
 8284 294d 01       		.byte	0x1
 8285 294e 00       		.uleb128 0
 8286 294f 5F5F4445 		.ascii "__DEC64_MIN_EXP__ (-382)\0"
 8286      4336345F 
 8286      4D494E5F 
 8286      4558505F 
 8286      5F20282D 
 8287 2968 01       		.byte	0x1
 8288 2969 00       		.uleb128 0
 8289 296a 5F5F4445 		.ascii "__DEC64_MAX_EXP__ 385\0"
 8289      4336345F 
 8289      4D41585F 
 8289      4558505F 
 8289      5F203338 
 8290 2980 01       		.byte	0x1
 8291 2981 00       		.uleb128 0
 8292 2982 5F5F4445 		.ascii "__DEC64_MIN__ 1E-383DD\0"
 8292      4336345F 
 8292      4D494E5F 
 8292      5F203145 
 8292      2D333833 
 8293 2999 01       		.byte	0x1
 8294 299a 00       		.uleb128 0
 8295 299b 5F5F4445 		.ascii "__DEC64_MAX__ 9.999999999999999E384DD\0"
 8295      4336345F 
 8295      4D41585F 
 8295      5F20392E 
 8295      39393939 
 8296 29c1 01       		.byte	0x1
 8297 29c2 00       		.uleb128 0
 8298 29c3 5F5F4445 		.ascii "__DEC64_EPSILON__ 1E-15DD\0"
 8298      4336345F 
 8298      45505349 
 8298      4C4F4E5F 
 8298      5F203145 
 8299 29dd 01       		.byte	0x1
 8300 29de 00       		.uleb128 0
 8301 29df 5F5F4445 		.ascii "__DEC64_SUBNORMAL_MIN__ 0.000000000000001E-383DD\0"
 8301      4336345F 
 8301      5355424E 
 8301      4F524D41 
 8301      4C5F4D49 
 8302 2a10 01       		.byte	0x1
 8303 2a11 00       		.uleb128 0
 8304 2a12 5F5F4445 		.ascii "__DEC128_MANT_DIG__ 34\0"
 8304      43313238 
 8304      5F4D414E 
 8304      545F4449 
 8304      475F5F20 
 8305 2a29 01       		.byte	0x1
 8306 2a2a 00       		.uleb128 0
 8307 2a2b 5F5F4445 		.ascii "__DEC128_MIN_EXP__ (-6142)\0"
 8307      43313238 
 8307      5F4D494E 
 8307      5F455850 
 8307      5F5F2028 
 8308 2a46 01       		.byte	0x1
 8309 2a47 00       		.uleb128 0
 8310 2a48 5F5F4445 		.ascii "__DEC128_MAX_EXP__ 6145\0"
 8310      43313238 
 8310      5F4D4158 
 8310      5F455850 
 8310      5F5F2036 
 8311 2a60 01       		.byte	0x1
 8312 2a61 00       		.uleb128 0
 8313 2a62 5F5F4445 		.ascii "__DEC128_MIN__ 1E-6143DL\0"
 8313      43313238 
 8313      5F4D494E 
 8313      5F5F2031 
 8313      452D3631 
 8314 2a7b 01       		.byte	0x1
 8315 2a7c 00       		.uleb128 0
 8316 2a7d 5F5F4445 		.ascii "__DEC128_MAX__ 9.999999999999999999999999999999999E6144DL\0"
 8316      43313238 
 8316      5F4D4158 
 8316      5F5F2039 
 8316      2E393939 
 8317 2ab7 01       		.byte	0x1
 8318 2ab8 00       		.uleb128 0
 8319 2ab9 5F5F4445 		.ascii "__DEC128_EPSILON__ 1E-33DL\0"
 8319      43313238 
 8319      5F455053 
 8319      494C4F4E 
 8319      5F5F2031 
 8320 2ad4 01       		.byte	0x1
 8321 2ad5 00       		.uleb128 0
 8322 2ad6 5F5F4445 		.ascii "__DEC128_SUBNORMAL_MIN__ 0.000000000000000000000000000000001E-6143DL\0"
 8322      43313238 
 8322      5F535542 
 8322      4E4F524D 
 8322      414C5F4D 
 8323 2b1b 01       		.byte	0x1
 8324 2b1c 00       		.uleb128 0
 8325 2b1d 5F5F5245 		.ascii "__REGISTER_PREFIX__ \0"
 8325      47495354 
 8325      45525F50 
 8325      52454649 
 8325      585F5F20 
 8326 2b32 01       		.byte	0x1
 8327 2b33 00       		.uleb128 0
 8328 2b34 5F5F5553 		.ascii "__USER_LABEL_PREFIX__ \0"
 8328      45525F4C 
 8328      4142454C 
 8328      5F505245 
 8328      4649585F 
 8329 2b4b 01       		.byte	0x1
 8330 2b4c 00       		.uleb128 0
 8331 2b4d 5F5F474E 		.ascii "__GNUC_STDC_INLINE__ 1\0"
 8331      55435F53 
 8331      5444435F 
 8331      494E4C49 
 8331      4E455F5F 
 8332 2b64 01       		.byte	0x1
 8333 2b65 00       		.uleb128 0
 8334 2b66 5F5F5354 		.ascii "__STRICT_ANSI__ 1\0"
 8334      52494354 
 8334      5F414E53 
 8334      495F5F20 
 8334      3100
 8335 2b78 01       		.byte	0x1
 8336 2b79 00       		.uleb128 0
 8337 2b7a 5F5F4743 		.ascii "__GCC_HAVE_SYNC_COMPARE_AND_SWAP_1 1\0"
 8337      435F4841 
 8337      56455F53 
 8337      594E435F 
 8337      434F4D50 
 8338 2b9f 01       		.byte	0x1
 8339 2ba0 00       		.uleb128 0
 8340 2ba1 5F5F4743 		.ascii "__GCC_HAVE_SYNC_COMPARE_AND_SWAP_2 1\0"
 8340      435F4841 
 8340      56455F53 
 8340      594E435F 
 8340      434F4D50 
 8341 2bc6 01       		.byte	0x1
 8342 2bc7 00       		.uleb128 0
 8343 2bc8 5F5F4743 		.ascii "__GCC_HAVE_SYNC_COMPARE_AND_SWAP_4 1\0"
 8343      435F4841 
 8343      56455F53 
 8343      594E435F 
 8343      434F4D50 
 8344 2bed 01       		.byte	0x1
 8345 2bee 00       		.uleb128 0
 8346 2bef 5F5F4743 		.ascii "__GCC_HAVE_SYNC_COMPARE_AND_SWAP_8 1\0"
 8346      435F4841 
 8346      56455F53 
 8346      594E435F 
 8346      434F4D50 
 8347 2c14 01       		.byte	0x1
 8348 2c15 00       		.uleb128 0
 8349 2c16 5F5F4743 		.ascii "__GCC_HAVE_SYNC_COMPARE_AND_SWAP_16 1\0"
 8349      435F4841 
 8349      56455F53 
 8349      594E435F 
 8349      434F4D50 
 8350 2c3c 01       		.byte	0x1
 8351 2c3d 00       		.uleb128 0
 8352 2c3e 5F5F4743 		.ascii "__GCC_ATOMIC_BOOL_LOCK_FREE 2\0"
 8352      435F4154 
 8352      4F4D4943 
 8352      5F424F4F 
 8352      4C5F4C4F 
 8353 2c5c 01       		.byte	0x1
 8354 2c5d 00       		.uleb128 0
 8355 2c5e 5F5F4743 		.ascii "__GCC_ATOMIC_CHAR_LOCK_FREE 2\0"
 8355      435F4154 
 8355      4F4D4943 
 8355      5F434841 
 8355      525F4C4F 
 8356 2c7c 01       		.byte	0x1
 8357 2c7d 00       		.uleb128 0
 8358 2c7e 5F5F4743 		.ascii "__GCC_ATOMIC_CHAR16_T_LOCK_FREE 2\0"
 8358      435F4154 
 8358      4F4D4943 
 8358      5F434841 
 8358      5231365F 
 8359 2ca0 01       		.byte	0x1
 8360 2ca1 00       		.uleb128 0
 8361 2ca2 5F5F4743 		.ascii "__GCC_ATOMIC_CHAR32_T_LOCK_FREE 2\0"
 8361      435F4154 
 8361      4F4D4943 
 8361      5F434841 
 8361      5233325F 
 8362 2cc4 01       		.byte	0x1
 8363 2cc5 00       		.uleb128 0
 8364 2cc6 5F5F4743 		.ascii "__GCC_ATOMIC_WCHAR_T_LOCK_FREE 2\0"
 8364      435F4154 
 8364      4F4D4943 
 8364      5F574348 
 8364      41525F54 
 8365 2ce7 01       		.byte	0x1
 8366 2ce8 00       		.uleb128 0
 8367 2ce9 5F5F4743 		.ascii "__GCC_ATOMIC_SHORT_LOCK_FREE 2\0"
 8367      435F4154 
 8367      4F4D4943 
 8367      5F53484F 
 8367      52545F4C 
 8368 2d08 01       		.byte	0x1
 8369 2d09 00       		.uleb128 0
 8370 2d0a 5F5F4743 		.ascii "__GCC_ATOMIC_INT_LOCK_FREE 2\0"
 8370      435F4154 
 8370      4F4D4943 
 8370      5F494E54 
 8370      5F4C4F43 
 8371 2d27 01       		.byte	0x1
 8372 2d28 00       		.uleb128 0
 8373 2d29 5F5F4743 		.ascii "__GCC_ATOMIC_LONG_LOCK_FREE 2\0"
 8373      435F4154 
 8373      4F4D4943 
 8373      5F4C4F4E 
 8373      475F4C4F 
 8374 2d47 01       		.byte	0x1
 8375 2d48 00       		.uleb128 0
 8376 2d49 5F5F4743 		.ascii "__GCC_ATOMIC_LLONG_LOCK_FREE 2\0"
 8376      435F4154 
 8376      4F4D4943 
 8376      5F4C4C4F 
 8376      4E475F4C 
 8377 2d68 01       		.byte	0x1
 8378 2d69 00       		.uleb128 0
 8379 2d6a 5F5F4743 		.ascii "__GCC_ATOMIC_TEST_AND_SET_TRUEVAL 1\0"
 8379      435F4154 
 8379      4F4D4943 
 8379      5F544553 
 8379      545F414E 
 8380 2d8e 01       		.byte	0x1
 8381 2d8f 00       		.uleb128 0
 8382 2d90 5F5F4743 		.ascii "__GCC_DESTRUCTIVE_SIZE 64\0"
 8382      435F4445 
 8382      53545255 
 8382      43544956 
 8382      455F5349 
 8383 2daa 01       		.byte	0x1
 8384 2dab 00       		.uleb128 0
 8385 2dac 5F5F4743 		.ascii "__GCC_CONSTRUCTIVE_SIZE 64\0"
 8385      435F434F 
 8385      4E535452 
 8385      55435449 
 8385      56455F53 
 8386 2dc7 01       		.byte	0x1
 8387 2dc8 00       		.uleb128 0
 8388 2dc9 5F5F4743 		.ascii "__GCC_ATOMIC_POINTER_LOCK_FREE 2\0"
 8388      435F4154 
 8388      4F4D4943 
 8388      5F504F49 
 8388      4E544552 
 8389 2dea 01       		.byte	0x1
 8390 2deb 00       		.uleb128 0
 8391 2dec 5F5F4841 		.ascii "__HAVE_SPECULATION_SAFE_VALUE 1\0"
 8391      56455F53 
 8391      50454355 
 8391      4C415449 
 8391      4F4E5F53 
 8392 2e0c 01       		.byte	0x1
 8393 2e0d 00       		.uleb128 0
 8394 2e0e 5F5F4743 		.ascii "__GCC_HAVE_DWARF2_CFI_ASM 1\0"
 8394      435F4841 
 8394      56455F44 
 8394      57415246 
 8394      325F4346 
 8395 2e2a 01       		.byte	0x1
 8396 2e2b 00       		.uleb128 0
 8397 2e2c 5F5F5052 		.ascii "__PRAGMA_REDEFINE_EXTNAME 1\0"
 8397      41474D41 
 8397      5F524544 
 8397      4546494E 
 8397      455F4558 
 8398 2e48 01       		.byte	0x1
 8399 2e49 00       		.uleb128 0
 8400 2e4a 5F5F5349 		.ascii "__SIZEOF_INT128__ 16\0"
 8400      5A454F46 
 8400      5F494E54 
 8400      3132385F 
 8400      5F203136 
 8401 2e5f 01       		.byte	0x1
 8402 2e60 00       		.uleb128 0
 8403 2e61 5F5F5349 		.ascii "__SIZEOF_WCHAR_T__ 2\0"
 8403      5A454F46 
 8403      5F574348 
 8403      41525F54 
 8403      5F5F2032 
 8404 2e76 01       		.byte	0x1
 8405 2e77 00       		.uleb128 0
 8406 2e78 5F5F5349 		.ascii "__SIZEOF_WINT_T__ 2\0"
 8406      5A454F46 
 8406      5F57494E 
 8406      545F545F 
 8406      5F203200 
 8407 2e8c 01       		.byte	0x1
 8408 2e8d 00       		.uleb128 0
 8409 2e8e 5F5F5349 		.ascii "__SIZEOF_PTRDIFF_T__ 8\0"
 8409      5A454F46 
 8409      5F505452 
 8409      44494646 
 8409      5F545F5F 
 8410 2ea5 01       		.byte	0x1
 8411 2ea6 00       		.uleb128 0
 8412 2ea7 5F5F616D 		.ascii "__amd64 1\0"
 8412      64363420 
 8412      3100
 8413 2eb1 01       		.byte	0x1
 8414 2eb2 00       		.uleb128 0
 8415 2eb3 5F5F616D 		.ascii "__amd64__ 1\0"
 8415      6436345F 
 8415      5F203100 
 8416 2ebf 01       		.byte	0x1
 8417 2ec0 00       		.uleb128 0
 8418 2ec1 5F5F7838 		.ascii "__x86_64 1\0"
 8418      365F3634 
 8418      203100
 8419 2ecc 01       		.byte	0x1
 8420 2ecd 00       		.uleb128 0
 8421 2ece 5F5F7838 		.ascii "__x86_64__ 1\0"
 8421      365F3634 
 8421      5F5F2031 
 8421      00
 8422 2edb 01       		.byte	0x1
 8423 2edc 00       		.uleb128 0
 8424 2edd 5F5F5349 		.ascii "__SIZEOF_FLOAT80__ 16\0"
 8424      5A454F46 
 8424      5F464C4F 
 8424      41543830 
 8424      5F5F2031 
 8425 2ef3 01       		.byte	0x1
 8426 2ef4 00       		.uleb128 0
 8427 2ef5 5F5F5349 		.ascii "__SIZEOF_FLOAT128__ 16\0"
 8427      5A454F46 
 8427      5F464C4F 
 8427      41543132 
 8427      385F5F20 
 8428 2f0c 01       		.byte	0x1
 8429 2f0d 00       		.uleb128 0
 8430 2f0e 5F5F4154 		.ascii "__ATOMIC_HLE_ACQUIRE 65536\0"
 8430      4F4D4943 
 8430      5F484C45 
 8430      5F414351 
 8430      55495245 
 8431 2f29 01       		.byte	0x1
 8432 2f2a 00       		.uleb128 0
 8433 2f2b 5F5F4154 		.ascii "__ATOMIC_HLE_RELEASE 131072\0"
 8433      4F4D4943 
 8433      5F484C45 
 8433      5F52454C 
 8433      45415345 
 8434 2f47 01       		.byte	0x1
 8435 2f48 00       		.uleb128 0
 8436 2f49 5F5F4743 		.ascii "__GCC_ASM_FLAG_OUTPUTS__ 1\0"
 8436      435F4153 
 8436      4D5F464C 
 8436      41475F4F 
 8436      55545055 
 8437 2f64 01       		.byte	0x1
 8438 2f65 00       		.uleb128 0
 8439 2f66 5F5F6E6F 		.ascii "__nocona 1\0"
 8439      636F6E61 
 8439      203100
 8440 2f71 01       		.byte	0x1
 8441 2f72 00       		.uleb128 0
 8442 2f73 5F5F6E6F 		.ascii "__nocona__ 1\0"
 8442      636F6E61 
 8442      5F5F2031 
 8442      00
 8443 2f80 01       		.byte	0x1
 8444 2f81 00       		.uleb128 0
 8445 2f82 5F5F636F 		.ascii "__code_model_medium__ 1\0"
 8445      64655F6D 
 8445      6F64656C 
 8445      5F6D6564 
 8445      69756D5F 
 8446 2f9a 01       		.byte	0x1
 8447 2f9b 00       		.uleb128 0
 8448 2f9c 5F5F4D4D 		.ascii "__MMX__ 1\0"
 8448      585F5F20 
 8448      3100
 8449 2fa6 01       		.byte	0x1
 8450 2fa7 00       		.uleb128 0
 8451 2fa8 5F5F5353 		.ascii "__SSE__ 1\0"
 8451      455F5F20 
 8451      3100
 8452 2fb2 01       		.byte	0x1
 8453 2fb3 00       		.uleb128 0
 8454 2fb4 5F5F5353 		.ascii "__SSE2__ 1\0"
 8454      45325F5F 
 8454      203100
 8455 2fbf 01       		.byte	0x1
 8456 2fc0 00       		.uleb128 0
 8457 2fc1 5F5F5353 		.ascii "__SSE3__ 1\0"
 8457      45335F5F 
 8457      203100
 8458 2fcc 01       		.byte	0x1
 8459 2fcd 00       		.uleb128 0
 8460 2fce 5F5F4658 		.ascii "__FXSR__ 1\0"
 8460      53525F5F 
 8460      203100
 8461 2fd9 01       		.byte	0x1
 8462 2fda 00       		.uleb128 0
 8463 2fdb 5F5F5353 		.ascii "__SSE_MATH__ 1\0"
 8463      455F4D41 
 8463      54485F5F 
 8463      203100
 8464 2fea 01       		.byte	0x1
 8465 2feb 00       		.uleb128 0
 8466 2fec 5F5F5353 		.ascii "__SSE2_MATH__ 1\0"
 8466      45325F4D 
 8466      4154485F 
 8466      5F203100 
 8467 2ffc 01       		.byte	0x1
 8468 2ffd 00       		.uleb128 0
 8469 2ffe 5F5F4D4D 		.ascii "__MMX_WITH_SSE__ 1\0"
 8469      585F5749 
 8469      54485F53 
 8469      53455F5F 
 8469      203100
 8470 3011 01       		.byte	0x1
 8471 3012 00       		.uleb128 0
 8472 3013 5F5F5345 		.ascii "__SEG_FS 1\0"
 8472      475F4653 
 8472      203100
 8473 301e 01       		.byte	0x1
 8474 301f 00       		.uleb128 0
 8475 3020 5F5F5345 		.ascii "__SEG_GS 1\0"
 8475      475F4753 
 8475      203100
 8476 302b 01       		.byte	0x1
 8477 302c 00       		.uleb128 0
 8478 302d 5F5F5345 		.ascii "__SEH__ 1\0"
 8478      485F5F20 
 8478      3100
 8479 3037 01       		.byte	0x1
 8480 3038 00       		.uleb128 0
 8481 3039 5F5F7374 		.ascii "__stdcall __attribute__((__stdcall__))\0"
 8481      6463616C 
 8481      6C205F5F 
 8481      61747472 
 8481      69627574 
 8482 3060 01       		.byte	0x1
 8483 3061 00       		.uleb128 0
 8484 3062 5F5F6661 		.ascii "__fastcall __attribute__((__fastcall__))\0"
 8484      73746361 
 8484      6C6C205F 
 8484      5F617474 
 8484      72696275 
 8485 308b 01       		.byte	0x1
 8486 308c 00       		.uleb128 0
 8487 308d 5F5F7468 		.ascii "__thiscall __attribute__((__thiscall__))\0"
 8487      69736361 
 8487      6C6C205F 
 8487      5F617474 
 8487      72696275 
 8488 30b6 01       		.byte	0x1
 8489 30b7 00       		.uleb128 0
 8490 30b8 5F5F6364 		.ascii "__cdecl __attribute__((__cdecl__))\0"
 8490      65636C20 
 8490      5F5F6174 
 8490      74726962 
 8490      7574655F 
 8491 30db 01       		.byte	0x1
 8492 30dc 00       		.uleb128 0
 8493 30dd 5F5F4758 		.ascii "__GXX_MERGED_TYPEINFO_NAMES 0\0"
 8493      585F4D45 
 8493      52474544 
 8493      5F545950 
 8493      45494E46 
 8494 30fb 01       		.byte	0x1
 8495 30fc 00       		.uleb128 0
 8496 30fd 5F5F4758 		.ascii "__GXX_TYPEINFO_EQUALITY_INLINE 0\0"
 8496      585F5459 
 8496      5045494E 
 8496      464F5F45 
 8496      5155414C 
 8497 311e 01       		.byte	0x1
 8498 311f 00       		.uleb128 0
 8499 3120 5F5F4D53 		.ascii "__MSVCRT__ 1\0"
 8499      56435254 
 8499      5F5F2031 
 8499      00
 8500 312d 01       		.byte	0x1
 8501 312e 00       		.uleb128 0
 8502 312f 5F5F4D49 		.ascii "__MINGW32__ 1\0"
 8502      4E475733 
 8502      325F5F20 
 8502      3100
 8503 313d 01       		.byte	0x1
 8504 313e 00       		.uleb128 0
 8505 313f 5F57494E 		.ascii "_WIN32 1\0"
 8505      33322031 
 8505      00
 8506 3148 01       		.byte	0x1
 8507 3149 00       		.uleb128 0
 8508 314a 5F5F5749 		.ascii "__WIN32 1\0"
 8508      4E333220 
 8508      3100
 8509 3154 01       		.byte	0x1
 8510 3155 00       		.uleb128 0
 8511 3156 5F5F5749 		.ascii "__WIN32__ 1\0"
 8511      4E33325F 
 8511      5F203100 
 8512 3162 01       		.byte	0x1
 8513 3163 00       		.uleb128 0
 8514 3164 5F5F5749 		.ascii "__WINNT 1\0"
 8514      4E4E5420 
 8514      3100
 8515 316e 01       		.byte	0x1
 8516 316f 00       		.uleb128 0
 8517 3170 5F5F5749 		.ascii "__WINNT__ 1\0"
 8517      4E4E545F 
 8517      5F203100 
 8518 317c 01       		.byte	0x1
 8519 317d 00       		.uleb128 0
 8520 317e 5F494E54 		.ascii "_INTEGRAL_MAX_BITS 64\0"
 8520      45475241 
 8520      4C5F4D41 
 8520      585F4249 
 8520      54532036 
 8521 3194 01       		.byte	0x1
 8522 3195 00       		.uleb128 0
 8523 3196 5F5F4D49 		.ascii "__MINGW64__ 1\0"
 8523      4E475736 
 8523      345F5F20 
 8523      3100
 8524 31a4 01       		.byte	0x1
 8525 31a5 00       		.uleb128 0
 8526 31a6 5F5F5749 		.ascii "__WIN64 1\0"
 8526      4E363420 
 8526      3100
 8527 31b0 01       		.byte	0x1
 8528 31b1 00       		.uleb128 0
 8529 31b2 5F5F5749 		.ascii "__WIN64__ 1\0"
 8529      4E36345F 
 8529      5F203100 
 8530 31be 01       		.byte	0x1
 8531 31bf 00       		.uleb128 0
 8532 31c0 5F57494E 		.ascii "_WIN64 1\0"
 8532      36342031 
 8532      00
 8533 31c9 01       		.byte	0x1
 8534 31ca 00       		.uleb128 0
 8535 31cb 5F5F6465 		.ascii "__declspec(x) __attribute__((x))\0"
 8535      636C7370 
 8535      65632878 
 8535      29205F5F 
 8535      61747472 
 8536 31ec 01       		.byte	0x1
 8537 31ed 00       		.uleb128 0
 8538 31ee 5F5F4445 		.ascii "__DECIMAL_BID_FORMAT__ 1\0"
 8538      43494D41 
 8538      4C5F4249 
 8538      445F464F 
 8538      524D4154 
 8539 3207 01       		.byte	0x1
 8540 3208 00       		.uleb128 0
 8541 3209 5F524545 		.ascii "_REENTRANT 1\0"
 8541      4E545241 
 8541      4E542031 
 8541      00
 8542 3216 01       		.byte	0x1
 8543 3217 00       		.uleb128 0
 8544 3218 474E555F 		.ascii "GNU_EFI_USE_MS_ABI 1\0"
 8544      4546495F 
 8544      5553455F 
 8544      4D535F41 
 8544      42492031 
 8545 322d 03       		.byte	0x3
 8546 322e 00       		.uleb128 0
 8547 322f 01       		.uleb128 0x1
 8548              		.file 11 "gnu-efi-3.0.18/inc/lib.h"
 8549 3230 03       		.byte	0x3
 8550 3231 12       		.uleb128 0x12
 8551 3232 0B       		.uleb128 0xb
 8552              		.file 12 "gnu-efi-3.0.18/inc/efi.h"
 8553 3233 03       		.byte	0x3
 8554 3234 17       		.uleb128 0x17
 8555 3235 0C       		.uleb128 0xc
 8556 3236 01       		.byte	0x1
 8557 3237 16       		.uleb128 0x16
 8558 3238 5F474E55 		.ascii "_GNU_EFI \0"
 8558      5F454649 
 8558      2000
 8559 3242 01       		.byte	0x1
 8560 3243 22       		.uleb128 0x22
 8561 3244 5F454649 		.ascii "_EFI_INCLUDE_ \0"
 8561      5F494E43 
 8561      4C554445 
 8561      5F2000
 8562 3253 01       		.byte	0x1
 8563 3254 28       		.uleb128 0x28
 8564 3255 4546495F 		.ascii "EFI_FIRMWARE_VENDOR L\"INTEL\"\0"
 8564      4649524D 
 8564      57415245 
 8564      5F56454E 
 8564      444F5220 
 8565 3272 01       		.byte	0x1
 8566 3273 29       		.uleb128 0x29
 8567 3274 4546495F 		.ascii "EFI_FIRMWARE_MAJOR_REVISION 12\0"
 8567      4649524D 
 8567      57415245 
 8567      5F4D414A 
 8567      4F525F52 
 8568 3293 01       		.byte	0x1
 8569 3294 2A       		.uleb128 0x2a
 8570 3295 4546495F 		.ascii "EFI_FIRMWARE_MINOR_REVISION 33\0"
 8570      4649524D 
 8570      57415245 
 8570      5F4D494E 
 8570      4F525F52 
 8571 32b4 01       		.byte	0x1
 8572 32b5 2B       		.uleb128 0x2b
 8573 32b6 4546495F 		.ascii "EFI_FIRMWARE_REVISION ((EFI_FIRMWARE_MAJOR_REVISION <<16) | (EFI_FIRMWARE_MINOR_REVISION))
 8573      4649524D 
 8573      57415245 
 8573      5F524556 
 8573      4953494F 
 8574 3311 03       		.byte	0x3
 8575 3312 2E       		.uleb128 0x2e
 8576 3313 05       		.uleb128 0x5
 8577 3314 01       		.byte	0x1
 8578 3315 14       		.uleb128 0x14
 8579 3316 5838365F 		.ascii "X86_64_EFI_BIND \0"
 8579      36345F45 
 8579      46495F42 
 8579      494E4420 
 8579      00
 8580 3327 01       		.byte	0x1
 8581 3328 1D       		.uleb128 0x1d
 8582 3329 48415645 		.ascii "HAVE_USE_MS_ABI 1\0"
 8582      5F555345 
 8582      5F4D535F 
 8582      41424920 
 8582      3100
 8583              		.file 13 "C:/Users/victim/Desktop/dangerous/yuziakicin/UEFI/UEFI/Backend/mingw64/lib/gcc/x86_64-w6
 8584 333b 03       		.byte	0x3
 8585 333c 5C       		.uleb128 0x5c
 8586 333d 0D       		.uleb128 0xd
 8587 333e 03       		.byte	0x3
 8588 333f 0B       		.uleb128 0xb
 8589 3340 02       		.uleb128 0x2
 8590 3341 01       		.byte	0x1
 8591 3342 1D       		.uleb128 0x1d
 8592 3343 5F474343 		.ascii "_GCC_STDINT_H \0"
 8592      5F535444 
 8592      494E545F 
 8592      482000
 8593 3352 02       		.byte	0x2
 8594 3353 64       		.uleb128 0x64
 8595 3354 494E5438 		.ascii "INT8_MAX\0"
 8595      5F4D4158 
 8595      00
 8596 335d 01       		.byte	0x1
 8597 335e 65       		.uleb128 0x65
 8598 335f 494E5438 		.ascii "INT8_MAX __INT8_MAX__\0"
 8598      5F4D4158 
 8598      205F5F49 
 8598      4E54385F 
 8598      4D41585F 
 8599 3375 02       		.byte	0x2
 8600 3376 66       		.uleb128 0x66
 8601 3377 494E5438 		.ascii "INT8_MIN\0"
 8601      5F4D494E 
 8601      00
 8602 3380 01       		.byte	0x1
 8603 3381 67       		.uleb128 0x67
 8604 3382 494E5438 		.ascii "INT8_MIN (-INT8_MAX - 1)\0"
 8604      5F4D494E 
 8604      20282D49 
 8604      4E54385F 
 8604      4D415820 
 8605 339b 02       		.byte	0x2
 8606 339c 6A       		.uleb128 0x6a
 8607 339d 55494E54 		.ascii "UINT8_MAX\0"
 8607      385F4D41 
 8607      5800
 8608 33a7 01       		.byte	0x1
 8609 33a8 6B       		.uleb128 0x6b
 8610 33a9 55494E54 		.ascii "UINT8_MAX __UINT8_MAX__\0"
 8610      385F4D41 
 8610      58205F5F 
 8610      55494E54 
 8610      385F4D41 
 8611 33c1 02       		.byte	0x2
 8612 33c2 6E       		.uleb128 0x6e
 8613 33c3 494E5431 		.ascii "INT16_MAX\0"
 8613      365F4D41 
 8613      5800
 8614 33cd 01       		.byte	0x1
 8615 33ce 6F       		.uleb128 0x6f
 8616 33cf 494E5431 		.ascii "INT16_MAX __INT16_MAX__\0"
 8616      365F4D41 
 8616      58205F5F 
 8616      494E5431 
 8616      365F4D41 
 8617 33e7 02       		.byte	0x2
 8618 33e8 70       		.uleb128 0x70
 8619 33e9 494E5431 		.ascii "INT16_MIN\0"
 8619      365F4D49 
 8619      4E00
 8620 33f3 01       		.byte	0x1
 8621 33f4 71       		.uleb128 0x71
 8622 33f5 494E5431 		.ascii "INT16_MIN (-INT16_MAX - 1)\0"
 8622      365F4D49 
 8622      4E20282D 
 8622      494E5431 
 8622      365F4D41 
 8623 3410 02       		.byte	0x2
 8624 3411 74       		.uleb128 0x74
 8625 3412 55494E54 		.ascii "UINT16_MAX\0"
 8625      31365F4D 
 8625      415800
 8626 341d 01       		.byte	0x1
 8627 341e 75       		.uleb128 0x75
 8628 341f 55494E54 		.ascii "UINT16_MAX __UINT16_MAX__\0"
 8628      31365F4D 
 8628      4158205F 
 8628      5F55494E 
 8628      5431365F 
 8629 3439 02       		.byte	0x2
 8630 343a 78       		.uleb128 0x78
 8631 343b 494E5433 		.ascii "INT32_MAX\0"
 8631      325F4D41 
 8631      5800
 8632 3445 01       		.byte	0x1
 8633 3446 79       		.uleb128 0x79
 8634 3447 494E5433 		.ascii "INT32_MAX __INT32_MAX__\0"
 8634      325F4D41 
 8634      58205F5F 
 8634      494E5433 
 8634      325F4D41 
 8635 345f 02       		.byte	0x2
 8636 3460 7A       		.uleb128 0x7a
 8637 3461 494E5433 		.ascii "INT32_MIN\0"
 8637      325F4D49 
 8637      4E00
 8638 346b 01       		.byte	0x1
 8639 346c 7B       		.uleb128 0x7b
 8640 346d 494E5433 		.ascii "INT32_MIN (-INT32_MAX - 1)\0"
 8640      325F4D49 
 8640      4E20282D 
 8640      494E5433 
 8640      325F4D41 
 8641 3488 02       		.byte	0x2
 8642 3489 7E       		.uleb128 0x7e
 8643 348a 55494E54 		.ascii "UINT32_MAX\0"
 8643      33325F4D 
 8643      415800
 8644 3495 01       		.byte	0x1
 8645 3496 7F       		.uleb128 0x7f
 8646 3497 55494E54 		.ascii "UINT32_MAX __UINT32_MAX__\0"
 8646      33325F4D 
 8646      4158205F 
 8646      5F55494E 
 8646      5433325F 
 8647 34b1 02       		.byte	0x2
 8648 34b2 8201     		.uleb128 0x82
 8649 34b4 494E5436 		.ascii "INT64_MAX\0"
 8649      345F4D41 
 8649      5800
 8650 34be 01       		.byte	0x1
 8651 34bf 8301     		.uleb128 0x83
 8652 34c1 494E5436 		.ascii "INT64_MAX __INT64_MAX__\0"
 8652      345F4D41 
 8652      58205F5F 
 8652      494E5436 
 8652      345F4D41 
 8653 34d9 02       		.byte	0x2
 8654 34da 8401     		.uleb128 0x84
 8655 34dc 494E5436 		.ascii "INT64_MIN\0"
 8655      345F4D49 
 8655      4E00
 8656 34e6 01       		.byte	0x1
 8657 34e7 8501     		.uleb128 0x85
 8658 34e9 494E5436 		.ascii "INT64_MIN (-INT64_MAX - 1)\0"
 8658      345F4D49 
 8658      4E20282D 
 8658      494E5436 
 8658      345F4D41 
 8659 3504 02       		.byte	0x2
 8660 3505 8801     		.uleb128 0x88
 8661 3507 55494E54 		.ascii "UINT64_MAX\0"
 8661      36345F4D 
 8661      415800
 8662 3512 01       		.byte	0x1
 8663 3513 8901     		.uleb128 0x89
 8664 3515 55494E54 		.ascii "UINT64_MAX __UINT64_MAX__\0"
 8664      36345F4D 
 8664      4158205F 
 8664      5F55494E 
 8664      5436345F 
 8665 352f 02       		.byte	0x2
 8666 3530 8C01     		.uleb128 0x8c
 8667 3532 494E545F 		.ascii "INT_LEAST8_MAX\0"
 8667      4C454153 
 8667      54385F4D 
 8667      415800
 8668 3541 01       		.byte	0x1
 8669 3542 8D01     		.uleb128 0x8d
 8670 3544 494E545F 		.ascii "INT_LEAST8_MAX __INT_LEAST8_MAX__\0"
 8670      4C454153 
 8670      54385F4D 
 8670      4158205F 
 8670      5F494E54 
 8671 3566 02       		.byte	0x2
 8672 3567 8E01     		.uleb128 0x8e
 8673 3569 494E545F 		.ascii "INT_LEAST8_MIN\0"
 8673      4C454153 
 8673      54385F4D 
 8673      494E00
 8674 3578 01       		.byte	0x1
 8675 3579 8F01     		.uleb128 0x8f
 8676 357b 494E545F 		.ascii "INT_LEAST8_MIN (-INT_LEAST8_MAX - 1)\0"
 8676      4C454153 
 8676      54385F4D 
 8676      494E2028 
 8676      2D494E54 
 8677 35a0 02       		.byte	0x2
 8678 35a1 9001     		.uleb128 0x90
 8679 35a3 55494E54 		.ascii "UINT_LEAST8_MAX\0"
 8679      5F4C4541 
 8679      5354385F 
 8679      4D415800 
 8680 35b3 01       		.byte	0x1
 8681 35b4 9101     		.uleb128 0x91
 8682 35b6 55494E54 		.ascii "UINT_LEAST8_MAX __UINT_LEAST8_MAX__\0"
 8682      5F4C4541 
 8682      5354385F 
 8682      4D415820 
 8682      5F5F5549 
 8683 35da 02       		.byte	0x2
 8684 35db 9201     		.uleb128 0x92
 8685 35dd 494E545F 		.ascii "INT_LEAST16_MAX\0"
 8685      4C454153 
 8685      5431365F 
 8685      4D415800 
 8686 35ed 01       		.byte	0x1
 8687 35ee 9301     		.uleb128 0x93
 8688 35f0 494E545F 		.ascii "INT_LEAST16_MAX __INT_LEAST16_MAX__\0"
 8688      4C454153 
 8688      5431365F 
 8688      4D415820 
 8688      5F5F494E 
 8689 3614 02       		.byte	0x2
 8690 3615 9401     		.uleb128 0x94
 8691 3617 494E545F 		.ascii "INT_LEAST16_MIN\0"
 8691      4C454153 
 8691      5431365F 
 8691      4D494E00 
 8692 3627 01       		.byte	0x1
 8693 3628 9501     		.uleb128 0x95
 8694 362a 494E545F 		.ascii "INT_LEAST16_MIN (-INT_LEAST16_MAX - 1)\0"
 8694      4C454153 
 8694      5431365F 
 8694      4D494E20 
 8694      282D494E 
 8695 3651 02       		.byte	0x2
 8696 3652 9601     		.uleb128 0x96
 8697 3654 55494E54 		.ascii "UINT_LEAST16_MAX\0"
 8697      5F4C4541 
 8697      53543136 
 8697      5F4D4158 
 8697      00
 8698 3665 01       		.byte	0x1
 8699 3666 9701     		.uleb128 0x97
 8700 3668 55494E54 		.ascii "UINT_LEAST16_MAX __UINT_LEAST16_MAX__\0"
 8700      5F4C4541 
 8700      53543136 
 8700      5F4D4158 
 8700      205F5F55 
 8701 368e 02       		.byte	0x2
 8702 368f 9801     		.uleb128 0x98
 8703 3691 494E545F 		.ascii "INT_LEAST32_MAX\0"
 8703      4C454153 
 8703      5433325F 
 8703      4D415800 
 8704 36a1 01       		.byte	0x1
 8705 36a2 9901     		.uleb128 0x99
 8706 36a4 494E545F 		.ascii "INT_LEAST32_MAX __INT_LEAST32_MAX__\0"
 8706      4C454153 
 8706      5433325F 
 8706      4D415820 
 8706      5F5F494E 
 8707 36c8 02       		.byte	0x2
 8708 36c9 9A01     		.uleb128 0x9a
 8709 36cb 494E545F 		.ascii "INT_LEAST32_MIN\0"
 8709      4C454153 
 8709      5433325F 
 8709      4D494E00 
 8710 36db 01       		.byte	0x1
 8711 36dc 9B01     		.uleb128 0x9b
 8712 36de 494E545F 		.ascii "INT_LEAST32_MIN (-INT_LEAST32_MAX - 1)\0"
 8712      4C454153 
 8712      5433325F 
 8712      4D494E20 
 8712      282D494E 
 8713 3705 02       		.byte	0x2
 8714 3706 9C01     		.uleb128 0x9c
 8715 3708 55494E54 		.ascii "UINT_LEAST32_MAX\0"
 8715      5F4C4541 
 8715      53543332 
 8715      5F4D4158 
 8715      00
 8716 3719 01       		.byte	0x1
 8717 371a 9D01     		.uleb128 0x9d
 8718 371c 55494E54 		.ascii "UINT_LEAST32_MAX __UINT_LEAST32_MAX__\0"
 8718      5F4C4541 
 8718      53543332 
 8718      5F4D4158 
 8718      205F5F55 
 8719 3742 02       		.byte	0x2
 8720 3743 9E01     		.uleb128 0x9e
 8721 3745 494E545F 		.ascii "INT_LEAST64_MAX\0"
 8721      4C454153 
 8721      5436345F 
 8721      4D415800 
 8722 3755 01       		.byte	0x1
 8723 3756 9F01     		.uleb128 0x9f
 8724 3758 494E545F 		.ascii "INT_LEAST64_MAX __INT_LEAST64_MAX__\0"
 8724      4C454153 
 8724      5436345F 
 8724      4D415820 
 8724      5F5F494E 
 8725 377c 02       		.byte	0x2
 8726 377d A001     		.uleb128 0xa0
 8727 377f 494E545F 		.ascii "INT_LEAST64_MIN\0"
 8727      4C454153 
 8727      5436345F 
 8727      4D494E00 
 8728 378f 01       		.byte	0x1
 8729 3790 A101     		.uleb128 0xa1
 8730 3792 494E545F 		.ascii "INT_LEAST64_MIN (-INT_LEAST64_MAX - 1)\0"
 8730      4C454153 
 8730      5436345F 
 8730      4D494E20 
 8730      282D494E 
 8731 37b9 02       		.byte	0x2
 8732 37ba A201     		.uleb128 0xa2
 8733 37bc 55494E54 		.ascii "UINT_LEAST64_MAX\0"
 8733      5F4C4541 
 8733      53543634 
 8733      5F4D4158 
 8733      00
 8734 37cd 01       		.byte	0x1
 8735 37ce A301     		.uleb128 0xa3
 8736 37d0 55494E54 		.ascii "UINT_LEAST64_MAX __UINT_LEAST64_MAX__\0"
 8736      5F4C4541 
 8736      53543634 
 8736      5F4D4158 
 8736      205F5F55 
 8737 37f6 02       		.byte	0x2
 8738 37f7 A501     		.uleb128 0xa5
 8739 37f9 494E545F 		.ascii "INT_FAST8_MAX\0"
 8739      46415354 
 8739      385F4D41 
 8739      5800
 8740 3807 01       		.byte	0x1
 8741 3808 A601     		.uleb128 0xa6
 8742 380a 494E545F 		.ascii "INT_FAST8_MAX __INT_FAST8_MAX__\0"
 8742      46415354 
 8742      385F4D41 
 8742      58205F5F 
 8742      494E545F 
 8743 382a 02       		.byte	0x2
 8744 382b A701     		.uleb128 0xa7
 8745 382d 494E545F 		.ascii "INT_FAST8_MIN\0"
 8745      46415354 
 8745      385F4D49 
 8745      4E00
 8746 383b 01       		.byte	0x1
 8747 383c A801     		.uleb128 0xa8
 8748 383e 494E545F 		.ascii "INT_FAST8_MIN (-INT_FAST8_MAX - 1)\0"
 8748      46415354 
 8748      385F4D49 
 8748      4E20282D 
 8748      494E545F 
 8749 3861 02       		.byte	0x2
 8750 3862 A901     		.uleb128 0xa9
 8751 3864 55494E54 		.ascii "UINT_FAST8_MAX\0"
 8751      5F464153 
 8751      54385F4D 
 8751      415800
 8752 3873 01       		.byte	0x1
 8753 3874 AA01     		.uleb128 0xaa
 8754 3876 55494E54 		.ascii "UINT_FAST8_MAX __UINT_FAST8_MAX__\0"
 8754      5F464153 
 8754      54385F4D 
 8754      4158205F 
 8754      5F55494E 
 8755 3898 02       		.byte	0x2
 8756 3899 AB01     		.uleb128 0xab
 8757 389b 494E545F 		.ascii "INT_FAST16_MAX\0"
 8757      46415354 
 8757      31365F4D 
 8757      415800
 8758 38aa 01       		.byte	0x1
 8759 38ab AC01     		.uleb128 0xac
 8760 38ad 494E545F 		.ascii "INT_FAST16_MAX __INT_FAST16_MAX__\0"
 8760      46415354 
 8760      31365F4D 
 8760      4158205F 
 8760      5F494E54 
 8761 38cf 02       		.byte	0x2
 8762 38d0 AD01     		.uleb128 0xad
 8763 38d2 494E545F 		.ascii "INT_FAST16_MIN\0"
 8763      46415354 
 8763      31365F4D 
 8763      494E00
 8764 38e1 01       		.byte	0x1
 8765 38e2 AE01     		.uleb128 0xae
 8766 38e4 494E545F 		.ascii "INT_FAST16_MIN (-INT_FAST16_MAX - 1)\0"
 8766      46415354 
 8766      31365F4D 
 8766      494E2028 
 8766      2D494E54 
 8767 3909 02       		.byte	0x2
 8768 390a AF01     		.uleb128 0xaf
 8769 390c 55494E54 		.ascii "UINT_FAST16_MAX\0"
 8769      5F464153 
 8769      5431365F 
 8769      4D415800 
 8770 391c 01       		.byte	0x1
 8771 391d B001     		.uleb128 0xb0
 8772 391f 55494E54 		.ascii "UINT_FAST16_MAX __UINT_FAST16_MAX__\0"
 8772      5F464153 
 8772      5431365F 
 8772      4D415820 
 8772      5F5F5549 
 8773 3943 02       		.byte	0x2
 8774 3944 B101     		.uleb128 0xb1
 8775 3946 494E545F 		.ascii "INT_FAST32_MAX\0"
 8775      46415354 
 8775      33325F4D 
 8775      415800
 8776 3955 01       		.byte	0x1
 8777 3956 B201     		.uleb128 0xb2
 8778 3958 494E545F 		.ascii "INT_FAST32_MAX __INT_FAST32_MAX__\0"
 8778      46415354 
 8778      33325F4D 
 8778      4158205F 
 8778      5F494E54 
 8779 397a 02       		.byte	0x2
 8780 397b B301     		.uleb128 0xb3
 8781 397d 494E545F 		.ascii "INT_FAST32_MIN\0"
 8781      46415354 
 8781      33325F4D 
 8781      494E00
 8782 398c 01       		.byte	0x1
 8783 398d B401     		.uleb128 0xb4
 8784 398f 494E545F 		.ascii "INT_FAST32_MIN (-INT_FAST32_MAX - 1)\0"
 8784      46415354 
 8784      33325F4D 
 8784      494E2028 
 8784      2D494E54 
 8785 39b4 02       		.byte	0x2
 8786 39b5 B501     		.uleb128 0xb5
 8787 39b7 55494E54 		.ascii "UINT_FAST32_MAX\0"
 8787      5F464153 
 8787      5433325F 
 8787      4D415800 
 8788 39c7 01       		.byte	0x1
 8789 39c8 B601     		.uleb128 0xb6
 8790 39ca 55494E54 		.ascii "UINT_FAST32_MAX __UINT_FAST32_MAX__\0"
 8790      5F464153 
 8790      5433325F 
 8790      4D415820 
 8790      5F5F5549 
 8791 39ee 02       		.byte	0x2
 8792 39ef B701     		.uleb128 0xb7
 8793 39f1 494E545F 		.ascii "INT_FAST64_MAX\0"
 8793      46415354 
 8793      36345F4D 
 8793      415800
 8794 3a00 01       		.byte	0x1
 8795 3a01 B801     		.uleb128 0xb8
 8796 3a03 494E545F 		.ascii "INT_FAST64_MAX __INT_FAST64_MAX__\0"
 8796      46415354 
 8796      36345F4D 
 8796      4158205F 
 8796      5F494E54 
 8797 3a25 02       		.byte	0x2
 8798 3a26 B901     		.uleb128 0xb9
 8799 3a28 494E545F 		.ascii "INT_FAST64_MIN\0"
 8799      46415354 
 8799      36345F4D 
 8799      494E00
 8800 3a37 01       		.byte	0x1
 8801 3a38 BA01     		.uleb128 0xba
 8802 3a3a 494E545F 		.ascii "INT_FAST64_MIN (-INT_FAST64_MAX - 1)\0"
 8802      46415354 
 8802      36345F4D 
 8802      494E2028 
 8802      2D494E54 
 8803 3a5f 02       		.byte	0x2
 8804 3a60 BB01     		.uleb128 0xbb
 8805 3a62 55494E54 		.ascii "UINT_FAST64_MAX\0"
 8805      5F464153 
 8805      5436345F 
 8805      4D415800 
 8806 3a72 01       		.byte	0x1
 8807 3a73 BC01     		.uleb128 0xbc
 8808 3a75 55494E54 		.ascii "UINT_FAST64_MAX __UINT_FAST64_MAX__\0"
 8808      5F464153 
 8808      5436345F 
 8808      4D415820 
 8808      5F5F5549 
 8809 3a99 02       		.byte	0x2
 8810 3a9a BF01     		.uleb128 0xbf
 8811 3a9c 494E5450 		.ascii "INTPTR_MAX\0"
 8811      54525F4D 
 8811      415800
 8812 3aa7 01       		.byte	0x1
 8813 3aa8 C001     		.uleb128 0xc0
 8814 3aaa 494E5450 		.ascii "INTPTR_MAX __INTPTR_MAX__\0"
 8814      54525F4D 
 8814      4158205F 
 8814      5F494E54 
 8814      5054525F 
 8815 3ac4 02       		.byte	0x2
 8816 3ac5 C101     		.uleb128 0xc1
 8817 3ac7 494E5450 		.ascii "INTPTR_MIN\0"
 8817      54525F4D 
 8817      494E00
 8818 3ad2 01       		.byte	0x1
 8819 3ad3 C201     		.uleb128 0xc2
 8820 3ad5 494E5450 		.ascii "INTPTR_MIN (-INTPTR_MAX - 1)\0"
 8820      54525F4D 
 8820      494E2028 
 8820      2D494E54 
 8820      5054525F 
 8821 3af2 02       		.byte	0x2
 8822 3af3 C501     		.uleb128 0xc5
 8823 3af5 55494E54 		.ascii "UINTPTR_MAX\0"
 8823      5054525F 
 8823      4D415800 
 8824 3b01 01       		.byte	0x1
 8825 3b02 C601     		.uleb128 0xc6
 8826 3b04 55494E54 		.ascii "UINTPTR_MAX __UINTPTR_MAX__\0"
 8826      5054525F 
 8826      4D415820 
 8826      5F5F5549 
 8826      4E545054 
 8827 3b20 02       		.byte	0x2
 8828 3b21 C901     		.uleb128 0xc9
 8829 3b23 494E544D 		.ascii "INTMAX_MAX\0"
 8829      41585F4D 
 8829      415800
 8830 3b2e 01       		.byte	0x1
 8831 3b2f CA01     		.uleb128 0xca
 8832 3b31 494E544D 		.ascii "INTMAX_MAX __INTMAX_MAX__\0"
 8832      41585F4D 
 8832      4158205F 
 8832      5F494E54 
 8832      4D41585F 
 8833 3b4b 02       		.byte	0x2
 8834 3b4c CB01     		.uleb128 0xcb
 8835 3b4e 494E544D 		.ascii "INTMAX_MIN\0"
 8835      41585F4D 
 8835      494E00
 8836 3b59 01       		.byte	0x1
 8837 3b5a CC01     		.uleb128 0xcc
 8838 3b5c 494E544D 		.ascii "INTMAX_MIN (-INTMAX_MAX - 1)\0"
 8838      41585F4D 
 8838      494E2028 
 8838      2D494E54 
 8838      4D41585F 
 8839 3b79 02       		.byte	0x2
 8840 3b7a CD01     		.uleb128 0xcd
 8841 3b7c 55494E54 		.ascii "UINTMAX_MAX\0"
 8841      4D41585F 
 8841      4D415800 
 8842 3b88 01       		.byte	0x1
 8843 3b89 CE01     		.uleb128 0xce
 8844 3b8b 55494E54 		.ascii "UINTMAX_MAX __UINTMAX_MAX__\0"
 8844      4D41585F 
 8844      4D415820 
 8844      5F5F5549 
 8844      4E544D41 
 8845 3ba7 02       		.byte	0x2
 8846 3ba8 D201     		.uleb128 0xd2
 8847 3baa 50545244 		.ascii "PTRDIFF_MAX\0"
 8847      4946465F 
 8847      4D415800 
 8848 3bb6 01       		.byte	0x1
 8849 3bb7 D301     		.uleb128 0xd3
 8850 3bb9 50545244 		.ascii "PTRDIFF_MAX __PTRDIFF_MAX__\0"
 8850      4946465F 
 8850      4D415820 
 8850      5F5F5054 
 8850      52444946 
 8851 3bd5 02       		.byte	0x2
 8852 3bd6 D401     		.uleb128 0xd4
 8853 3bd8 50545244 		.ascii "PTRDIFF_MIN\0"
 8853      4946465F 
 8853      4D494E00 
 8854 3be4 01       		.byte	0x1
 8855 3be5 D501     		.uleb128 0xd5
 8856 3be7 50545244 		.ascii "PTRDIFF_MIN (-PTRDIFF_MAX - 1)\0"
 8856      4946465F 
 8856      4D494E20 
 8856      282D5054 
 8856      52444946 
 8857 3c06 02       		.byte	0x2
 8858 3c07 D701     		.uleb128 0xd7
 8859 3c09 5349475F 		.ascii "SIG_ATOMIC_MAX\0"
 8859      41544F4D 
 8859      49435F4D 
 8859      415800
 8860 3c18 01       		.byte	0x1
 8861 3c19 D801     		.uleb128 0xd8
 8862 3c1b 5349475F 		.ascii "SIG_ATOMIC_MAX __SIG_ATOMIC_MAX__\0"
 8862      41544F4D 
 8862      49435F4D 
 8862      4158205F 
 8862      5F534947 
 8863 3c3d 02       		.byte	0x2
 8864 3c3e D901     		.uleb128 0xd9
 8865 3c40 5349475F 		.ascii "SIG_ATOMIC_MIN\0"
 8865      41544F4D 
 8865      49435F4D 
 8865      494E00
 8866 3c4f 01       		.byte	0x1
 8867 3c50 DA01     		.uleb128 0xda
 8868 3c52 5349475F 		.ascii "SIG_ATOMIC_MIN __SIG_ATOMIC_MIN__\0"
 8868      41544F4D 
 8868      49435F4D 
 8868      494E205F 
 8868      5F534947 
 8869 3c74 02       		.byte	0x2
 8870 3c75 DC01     		.uleb128 0xdc
 8871 3c77 53495A45 		.ascii "SIZE_MAX\0"
 8871      5F4D4158 
 8871      00
 8872 3c80 01       		.byte	0x1
 8873 3c81 DD01     		.uleb128 0xdd
 8874 3c83 53495A45 		.ascii "SIZE_MAX __SIZE_MAX__\0"
 8874      5F4D4158 
 8874      205F5F53 
 8874      495A455F 
 8874      4D41585F 
 8875 3c99 02       		.byte	0x2
 8876 3c9a DF01     		.uleb128 0xdf
 8877 3c9c 57434841 		.ascii "WCHAR_MAX\0"
 8877      525F4D41 
 8877      5800
 8878 3ca6 01       		.byte	0x1
 8879 3ca7 E001     		.uleb128 0xe0
 8880 3ca9 57434841 		.ascii "WCHAR_MAX __WCHAR_MAX__\0"
 8880      525F4D41 
 8880      58205F5F 
 8880      57434841 
 8880      525F4D41 
 8881 3cc1 02       		.byte	0x2
 8882 3cc2 E101     		.uleb128 0xe1
 8883 3cc4 57434841 		.ascii "WCHAR_MIN\0"
 8883      525F4D49 
 8883      4E00
 8884 3cce 01       		.byte	0x1
 8885 3ccf E201     		.uleb128 0xe2
 8886 3cd1 57434841 		.ascii "WCHAR_MIN __WCHAR_MIN__\0"
 8886      525F4D49 
 8886      4E205F5F 
 8886      57434841 
 8886      525F4D49 
 8887 3ce9 02       		.byte	0x2
 8888 3cea E401     		.uleb128 0xe4
 8889 3cec 57494E54 		.ascii "WINT_MAX\0"
 8889      5F4D4158 
 8889      00
 8890 3cf5 01       		.byte	0x1
 8891 3cf6 E501     		.uleb128 0xe5
 8892 3cf8 57494E54 		.ascii "WINT_MAX __WINT_MAX__\0"
 8892      5F4D4158 
 8892      205F5F57 
 8892      494E545F 
 8892      4D41585F 
 8893 3d0e 02       		.byte	0x2
 8894 3d0f E601     		.uleb128 0xe6
 8895 3d11 57494E54 		.ascii "WINT_MIN\0"
 8895      5F4D494E 
 8895      00
 8896 3d1a 01       		.byte	0x1
 8897 3d1b E701     		.uleb128 0xe7
 8898 3d1d 57494E54 		.ascii "WINT_MIN __WINT_MIN__\0"
 8898      5F4D494E 
 8898      205F5F57 
 8898      494E545F 
 8898      4D494E5F 
 8899 3d33 02       		.byte	0x2
 8900 3d34 EF01     		.uleb128 0xef
 8901 3d36 494E5438 		.ascii "INT8_C\0"
 8901      5F4300
 8902 3d3d 01       		.byte	0x1
 8903 3d3e F001     		.uleb128 0xf0
 8904 3d40 494E5438 		.ascii "INT8_C(c) __INT8_C(c)\0"
 8904      5F432863 
 8904      29205F5F 
 8904      494E5438 
 8904      5F432863 
 8905 3d56 02       		.byte	0x2
 8906 3d57 F101     		.uleb128 0xf1
 8907 3d59 494E5431 		.ascii "INT16_C\0"
 8907      365F4300 
 8908 3d61 01       		.byte	0x1
 8909 3d62 F201     		.uleb128 0xf2
 8910 3d64 494E5431 		.ascii "INT16_C(c) __INT16_C(c)\0"
 8910      365F4328 
 8910      6329205F 
 8910      5F494E54 
 8910      31365F43 
 8911 3d7c 02       		.byte	0x2
 8912 3d7d F301     		.uleb128 0xf3
 8913 3d7f 494E5433 		.ascii "INT32_C\0"
 8913      325F4300 
 8914 3d87 01       		.byte	0x1
 8915 3d88 F401     		.uleb128 0xf4
 8916 3d8a 494E5433 		.ascii "INT32_C(c) __INT32_C(c)\0"
 8916      325F4328 
 8916      6329205F 
 8916      5F494E54 
 8916      33325F43 
 8917 3da2 02       		.byte	0x2
 8918 3da3 F501     		.uleb128 0xf5
 8919 3da5 494E5436 		.ascii "INT64_C\0"
 8919      345F4300 
 8920 3dad 01       		.byte	0x1
 8921 3dae F601     		.uleb128 0xf6
 8922 3db0 494E5436 		.ascii "INT64_C(c) __INT64_C(c)\0"
 8922      345F4328 
 8922      6329205F 
 8922      5F494E54 
 8922      36345F43 
 8923 3dc8 02       		.byte	0x2
 8924 3dc9 F701     		.uleb128 0xf7
 8925 3dcb 55494E54 		.ascii "UINT8_C\0"
 8925      385F4300 
 8926 3dd3 01       		.byte	0x1
 8927 3dd4 F801     		.uleb128 0xf8
 8928 3dd6 55494E54 		.ascii "UINT8_C(c) __UINT8_C(c)\0"
 8928      385F4328 
 8928      6329205F 
 8928      5F55494E 
 8928      54385F43 
 8929 3dee 02       		.byte	0x2
 8930 3def F901     		.uleb128 0xf9
 8931 3df1 55494E54 		.ascii "UINT16_C\0"
 8931      31365F43 
 8931      00
 8932 3dfa 01       		.byte	0x1
 8933 3dfb FA01     		.uleb128 0xfa
 8934 3dfd 55494E54 		.ascii "UINT16_C(c) __UINT16_C(c)\0"
 8934      31365F43 
 8934      28632920 
 8934      5F5F5549 
 8934      4E543136 
 8935 3e17 02       		.byte	0x2
 8936 3e18 FB01     		.uleb128 0xfb
 8937 3e1a 55494E54 		.ascii "UINT32_C\0"
 8937      33325F43 
 8937      00
 8938 3e23 01       		.byte	0x1
 8939 3e24 FC01     		.uleb128 0xfc
 8940 3e26 55494E54 		.ascii "UINT32_C(c) __UINT32_C(c)\0"
 8940      33325F43 
 8940      28632920 
 8940      5F5F5549 
 8940      4E543332 
 8941 3e40 02       		.byte	0x2
 8942 3e41 FD01     		.uleb128 0xfd
 8943 3e43 55494E54 		.ascii "UINT64_C\0"
 8943      36345F43 
 8943      00
 8944 3e4c 01       		.byte	0x1
 8945 3e4d FE01     		.uleb128 0xfe
 8946 3e4f 55494E54 		.ascii "UINT64_C(c) __UINT64_C(c)\0"
 8946      36345F43 
 8946      28632920 
 8946      5F5F5549 
 8946      4E543634 
 8947 3e69 02       		.byte	0x2
 8948 3e6a FF01     		.uleb128 0xff
 8949 3e6c 494E544D 		.ascii "INTMAX_C\0"
 8949      41585F43 
 8949      00
 8950 3e75 01       		.byte	0x1
 8951 3e76 8002     		.uleb128 0x100
 8952 3e78 494E544D 		.ascii "INTMAX_C(c) __INTMAX_C(c)\0"
 8952      41585F43 
 8952      28632920 
 8952      5F5F494E 
 8952      544D4158 
 8953 3e92 02       		.byte	0x2
 8954 3e93 8102     		.uleb128 0x101
 8955 3e95 55494E54 		.ascii "UINTMAX_C\0"
 8955      4D41585F 
 8955      4300
 8956 3e9f 01       		.byte	0x1
 8957 3ea0 8202     		.uleb128 0x102
 8958 3ea2 55494E54 		.ascii "UINTMAX_C(c) __UINTMAX_C(c)\0"
 8958      4D41585F 
 8958      43286329 
 8958      205F5F55 
 8958      494E544D 
 8959 3ebe 04       		.byte	0x4
 8960 3ebf 01       		.byte	0x1
 8961 3ec0 0D       		.uleb128 0xd
 8962 3ec1 5F474343 		.ascii "_GCC_WRAP_STDINT_H \0"
 8962      5F575241 
 8962      505F5354 
 8962      44494E54 
 8962      5F482000 
 8963 3ed5 04       		.byte	0x4
 8964              		.file 14 "C:/Users/victim/Desktop/dangerous/yuziakicin/UEFI/UEFI/Backend/mingw64/lib/gcc/x86_64-w6
 8965 3ed6 03       		.byte	0x3
 8966 3ed7 63       		.uleb128 0x63
 8967 3ed8 0E       		.uleb128 0xe
 8968              		.file 15 "C:/Users/victim/Desktop/dangerous/yuziakicin/UEFI/UEFI/Backend/mingw64/include/stddef.h"
 8969 3ed9 03       		.byte	0x3
 8970 3eda 01       		.uleb128 0x1
 8971 3edb 0F       		.uleb128 0xf
 8972              		.file 16 "C:/Users/victim/Desktop/dangerous/yuziakicin/UEFI/UEFI/Backend/mingw64/include/crtdefs.h
 8973 3edc 03       		.byte	0x3
 8974 3edd 07       		.uleb128 0x7
 8975 3ede 10       		.uleb128 0x10
 8976 3edf 01       		.byte	0x1
 8977 3ee0 08       		.uleb128 0x8
 8978 3ee1 5F494E43 		.ascii "_INC_CRTDEFS \0"
 8978      5F435254 
 8978      44454653 
 8978      2000
 8979 3eef 03       		.byte	0x3
 8980 3ef0 0A       		.uleb128 0xa
 8981 3ef1 04       		.uleb128 0x4
 8982 3ef2 01       		.byte	0x1
 8983 3ef3 08       		.uleb128 0x8
 8984 3ef4 5F494E43 		.ascii "_INC_CORECRT \0"
 8984      5F434F52 
 8984      45435254 
 8984      2000
 8985              		.file 17 "C:/Users/victim/Desktop/dangerous/yuziakicin/UEFI/UEFI/Backend/mingw64/include/_mingw.h"
 8986 3f02 03       		.byte	0x3
 8987 3f03 0A       		.uleb128 0xa
 8988 3f04 11       		.uleb128 0x11
 8989 3f05 01       		.byte	0x1
 8990 3f06 08       		.uleb128 0x8
 8991 3f07 5F494E43 		.ascii "_INC__MINGW_H \0"
 8991      5F5F4D49 
 8991      4E47575F 
 8991      482000
 8992              		.file 18 "C:/Users/victim/Desktop/dangerous/yuziakicin/UEFI/UEFI/Backend/mingw64/include/_mingw_ma
 8993 3f16 03       		.byte	0x3
 8994 3f17 0A       		.uleb128 0xa
 8995 3f18 12       		.uleb128 0x12
 8996 3f19 01       		.byte	0x1
 8997 3f1a 08       		.uleb128 0x8
 8998 3f1b 5F494E43 		.ascii "_INC_CRTDEFS_MACRO \0"
 8998      5F435254 
 8998      44454653 
 8998      5F4D4143 
 8998      524F2000 
 8999 3f2f 01       		.byte	0x1
 9000 3f30 0A       		.uleb128 0xa
 9001 3f31 5F5F5354 		.ascii "__STRINGIFY(x) #x\0"
 9001      52494E47 
 9001      49465928 
 9001      78292023 
 9001      7800
 9002 3f43 01       		.byte	0x1
 9003 3f44 0B       		.uleb128 0xb
 9004 3f45 5F5F4D49 		.ascii "__MINGW64_STRINGIFY(x) __STRINGIFY(x)\0"
 9004      4E475736 
 9004      345F5354 
 9004      52494E47 
 9004      49465928 
 9005 3f6b 01       		.byte	0x1
 9006 3f6c 0E       		.uleb128 0xe
 9007 3f6d 5F5F4D49 		.ascii "__MINGW64_VERSION_MAJOR 12\0"
 9007      4E475736 
 9007      345F5645 
 9007      5253494F 
 9007      4E5F4D41 
 9008 3f88 01       		.byte	0x1
 9009 3f89 0F       		.uleb128 0xf
 9010 3f8a 5F5F4D49 		.ascii "__MINGW64_VERSION_MINOR 0\0"
 9010      4E475736 
 9010      345F5645 
 9010      5253494F 
 9010      4E5F4D49 
 9011 3fa4 01       		.byte	0x1
 9012 3fa5 10       		.uleb128 0x10
 9013 3fa6 5F5F4D49 		.ascii "__MINGW64_VERSION_BUGFIX 0\0"
 9013      4E475736 
 9013      345F5645 
 9013      5253494F 
 9013      4E5F4255 
 9014 3fc1 01       		.byte	0x1
 9015 3fc2 18       		.uleb128 0x18
 9016 3fc3 5F5F4D49 		.ascii "__MINGW64_VERSION_RC 0\0"
 9016      4E475736 
 9016      345F5645 
 9016      5253494F 
 9016      4E5F5243 
 9017 3fda 01       		.byte	0x1
 9018 3fdb 1A       		.uleb128 0x1a
 9019 3fdc 5F5F4D49 		.ascii "__MINGW64_VERSION_STR __MINGW64_STRINGIFY(__MINGW64_VERSION_MAJOR) \".\" __MINGW64_STRINGI
 9019      4E475736 
 9019      345F5645 
 9019      5253494F 
 9019      4E5F5354 
 9020 4082 01       		.byte	0x1
 9021 4083 21       		.uleb128 0x21
 9022 4084 5F5F4D49 		.ascii "__MINGW64_VERSION_STATE \"alpha\"\0"
 9022      4E475736 
 9022      345F5645 
 9022      5253494F 
 9022      4E5F5354 
 9023 40a4 01       		.byte	0x1
 9024 40a5 27       		.uleb128 0x27
 9025 40a6 5F5F4D49 		.ascii "__MINGW32_MAJOR_VERSION 3\0"
 9025      4E475733 
 9025      325F4D41 
 9025      4A4F525F 
 9025      56455253 
 9026 40c0 01       		.byte	0x1
 9027 40c1 28       		.uleb128 0x28
 9028 40c2 5F5F4D49 		.ascii "__MINGW32_MINOR_VERSION 11\0"
 9028      4E475733 
 9028      325F4D49 
 9028      4E4F525F 
 9028      56455253 
 9029 40dd 01       		.byte	0x1
 9030 40de 3E       		.uleb128 0x3e
 9031 40df 5F4D5F41 		.ascii "_M_AMD64 100\0"
 9031      4D443634 
 9031      20313030 
 9031      00
 9032 40ec 01       		.byte	0x1
 9033 40ed 3F       		.uleb128 0x3f
 9034 40ee 5F4D5F58 		.ascii "_M_X64 100\0"
 9034      36342031 
 9034      303000
 9035 40f9 02       		.byte	0x2
 9036 40fa 63       		.uleb128 0x63
 9037 40fb 5F00     		.ascii "_\0"
 9038 40fd 01       		.byte	0x1
 9039 40fe 64       		.uleb128 0x64
 9040 40ff 5F203100 		.ascii "_ 1\0"
 9041 4103 01       		.byte	0x1
 9042 4104 68       		.uleb128 0x68
 9043 4105 5F5F4D49 		.ascii "__MINGW_USE_UNDERSCORE_PREFIX 0\0"
 9043      4E47575F 
 9043      5553455F 
 9043      554E4445 
 9043      5253434F 
 9044 4125 02       		.byte	0x2
 9045 4126 6A       		.uleb128 0x6a
 9046 4127 5F00     		.ascii "_\0"
 9047 4129 01       		.byte	0x1
 9048 412a 77       		.uleb128 0x77
 9049 412b 5F5F4D49 		.ascii "__MINGW_IMP_SYMBOL(sym) __imp_ ##sym\0"
 9049      4E47575F 
 9049      494D505F 
 9049      53594D42 
 9049      4F4C2873 
 9050 4150 01       		.byte	0x1
 9051 4151 78       		.uleb128 0x78
 9052 4152 5F5F4D49 		.ascii "__MINGW_IMP_LSYMBOL(sym) __imp_ ##sym\0"
 9052      4E47575F 
 9052      494D505F 
 9052      4C53594D 
 9052      424F4C28 
 9053 4178 01       		.byte	0x1
 9054 4179 79       		.uleb128 0x79
 9055 417a 5F5F4D49 		.ascii "__MINGW_USYMBOL(sym) sym\0"
 9055      4E47575F 
 9055      5553594D 
 9055      424F4C28 
 9055      73796D29 
 9056 4193 01       		.byte	0x1
 9057 4194 7A       		.uleb128 0x7a
 9058 4195 5F5F4D49 		.ascii "__MINGW_LSYMBOL(sym) _ ##sym\0"
 9058      4E47575F 
 9058      4C53594D 
 9058      424F4C28 
 9058      73796D29 
 9059 41b2 01       		.byte	0x1
 9060 41b3 8201     		.uleb128 0x82
 9061 41b5 5F5F4D49 		.ascii "__MINGW_ASM_CALL(func) __asm__(__MINGW64_STRINGIFY(__MINGW_USYMBOL(func)))\0"
 9061      4E47575F 
 9061      41534D5F 
 9061      43414C4C 
 9061      2866756E 
 9062 4200 01       		.byte	0x1
 9063 4201 8301     		.uleb128 0x83
 9064 4203 5F5F4D49 		.ascii "__MINGW_ASM_CRT_CALL(func) __asm__(__STRINGIFY(func))\0"
 9064      4E47575F 
 9064      41534D5F 
 9064      4352545F 
 9064      43414C4C 
 9065 4239 02       		.byte	0x2
 9066 423a 9D01     		.uleb128 0x9d
 9067 423c 5F5F4D49 		.ascii "__MINGW_EXTENSION\0"
 9067      4E47575F 
 9067      45585445 
 9067      4E53494F 
 9067      4E00
 9068 424e 01       		.byte	0x1
 9069 424f A301     		.uleb128 0xa3
 9070 4251 5F5F4D49 		.ascii "__MINGW_EXTENSION __extension__\0"
 9070      4E47575F 
 9070      45585445 
 9070      4E53494F 
 9070      4E205F5F 
 9071 4271 01       		.byte	0x1
 9072 4272 AB01     		.uleb128 0xab
 9073 4274 5F5F4338 		.ascii "__C89_NAMELESS __MINGW_EXTENSION\0"
 9073      395F4E41 
 9073      4D454C45 
 9073      5353205F 
 9073      5F4D494E 
 9074 4295 01       		.byte	0x1
 9075 4296 AC01     		.uleb128 0xac
 9076 4298 5F5F4338 		.ascii "__C89_NAMELESSSTRUCTNAME \0"
 9076      395F4E41 
 9076      4D454C45 
 9076      53535354 
 9076      52554354 
 9077 42b2 01       		.byte	0x1
 9078 42b3 AD01     		.uleb128 0xad
 9079 42b5 5F5F4338 		.ascii "__C89_NAMELESSSTRUCTNAME1 \0"
 9079      395F4E41 
 9079      4D454C45 
 9079      53535354 
 9079      52554354 
 9080 42d0 01       		.byte	0x1
 9081 42d1 AE01     		.uleb128 0xae
 9082 42d3 5F5F4338 		.ascii "__C89_NAMELESSSTRUCTNAME2 \0"
 9082      395F4E41 
 9082      4D454C45 
 9082      53535354 
 9082      52554354 
 9083 42ee 01       		.byte	0x1
 9084 42ef AF01     		.uleb128 0xaf
 9085 42f1 5F5F4338 		.ascii "__C89_NAMELESSSTRUCTNAME3 \0"
 9085      395F4E41 
 9085      4D454C45 
 9085      53535354 
 9085      52554354 
 9086 430c 01       		.byte	0x1
 9087 430d B001     		.uleb128 0xb0
 9088 430f 5F5F4338 		.ascii "__C89_NAMELESSSTRUCTNAME4 \0"
 9088      395F4E41 
 9088      4D454C45 
 9088      53535354 
 9088      52554354 
 9089 432a 01       		.byte	0x1
 9090 432b B101     		.uleb128 0xb1
 9091 432d 5F5F4338 		.ascii "__C89_NAMELESSSTRUCTNAME5 \0"
 9091      395F4E41 
 9091      4D454C45 
 9091      53535354 
 9091      52554354 
 9092 4348 01       		.byte	0x1
 9093 4349 B201     		.uleb128 0xb2
 9094 434b 5F5F4338 		.ascii "__C89_NAMELESSUNIONNAME \0"
 9094      395F4E41 
 9094      4D454C45 
 9094      5353554E 
 9094      494F4E4E 
 9095 4364 01       		.byte	0x1
 9096 4365 B301     		.uleb128 0xb3
 9097 4367 5F5F4338 		.ascii "__C89_NAMELESSUNIONNAME1 \0"
 9097      395F4E41 
 9097      4D454C45 
 9097      5353554E 
 9097      494F4E4E 
 9098 4381 01       		.byte	0x1
 9099 4382 B401     		.uleb128 0xb4
 9100 4384 5F5F4338 		.ascii "__C89_NAMELESSUNIONNAME2 \0"
 9100      395F4E41 
 9100      4D454C45 
 9100      5353554E 
 9100      494F4E4E 
 9101 439e 01       		.byte	0x1
 9102 439f B501     		.uleb128 0xb5
 9103 43a1 5F5F4338 		.ascii "__C89_NAMELESSUNIONNAME3 \0"
 9103      395F4E41 
 9103      4D454C45 
 9103      5353554E 
 9103      494F4E4E 
 9104 43bb 01       		.byte	0x1
 9105 43bc B601     		.uleb128 0xb6
 9106 43be 5F5F4338 		.ascii "__C89_NAMELESSUNIONNAME4 \0"
 9106      395F4E41 
 9106      4D454C45 
 9106      5353554E 
 9106      494F4E4E 
 9107 43d8 01       		.byte	0x1
 9108 43d9 B701     		.uleb128 0xb7
 9109 43db 5F5F4338 		.ascii "__C89_NAMELESSUNIONNAME5 \0"
 9109      395F4E41 
 9109      4D454C45 
 9109      5353554E 
 9109      494F4E4E 
 9110 43f5 01       		.byte	0x1
 9111 43f6 B801     		.uleb128 0xb8
 9112 43f8 5F5F4338 		.ascii "__C89_NAMELESSUNIONNAME6 \0"
 9112      395F4E41 
 9112      4D454C45 
 9112      5353554E 
 9112      494F4E4E 
 9113 4412 01       		.byte	0x1
 9114 4413 B901     		.uleb128 0xb9
 9115 4415 5F5F4338 		.ascii "__C89_NAMELESSUNIONNAME7 \0"
 9115      395F4E41 
 9115      4D454C45 
 9115      5353554E 
 9115      494F4E4E 
 9116 442f 01       		.byte	0x1
 9117 4430 BA01     		.uleb128 0xba
 9118 4432 5F5F4338 		.ascii "__C89_NAMELESSUNIONNAME8 \0"
 9118      395F4E41 
 9118      4D454C45 
 9118      5353554E 
 9118      494F4E4E 
 9119 444c 01       		.byte	0x1
 9120 444d BE01     		.uleb128 0xbe
 9121 444f 5F5F474E 		.ascii "__GNU_EXTENSION __MINGW_EXTENSION\0"
 9121      555F4558 
 9121      54454E53 
 9121      494F4E20 
 9121      5F5F4D49 
 9122 4471 01       		.byte	0x1
 9123 4472 C301     		.uleb128 0xc3
 9124 4474 5F5F4D49 		.ascii "__MINGW_HAVE_ANSI_C99_PRINTF 1\0"
 9124      4E47575F 
 9124      48415645 
 9124      5F414E53 
 9124      495F4339 
 9125 4493 01       		.byte	0x1
 9126 4494 C401     		.uleb128 0xc4
 9127 4496 5F5F4D49 		.ascii "__MINGW_HAVE_WIDE_C99_PRINTF 1\0"
 9127      4E47575F 
 9127      48415645 
 9127      5F574944 
 9127      455F4339 
 9128 44b5 01       		.byte	0x1
 9129 44b6 C501     		.uleb128 0xc5
 9130 44b8 5F5F4D49 		.ascii "__MINGW_HAVE_ANSI_C99_SCANF 1\0"
 9130      4E47575F 
 9130      48415645 
 9130      5F414E53 
 9130      495F4339 
 9131 44d6 01       		.byte	0x1
 9132 44d7 C601     		.uleb128 0xc6
 9133 44d9 5F5F4D49 		.ascii "__MINGW_HAVE_WIDE_C99_SCANF 1\0"
 9133      4E47575F 
 9133      48415645 
 9133      5F574944 
 9133      455F4339 
 9134 44f7 01       		.byte	0x1
 9135 44f8 CB01     		.uleb128 0xcb
 9136 44fa 5F5F4D49 		.ascii "__MINGW_POISON_NAME(__IFACE) __IFACE ##_layout_has_not_been_verified_and_its_declaration_i
 9136      4E47575F 
 9136      504F4953 
 9136      4F4E5F4E 
 9136      414D4528 
 9137 456c 01       		.byte	0x1
 9138 456d D101     		.uleb128 0xd1
 9139 456f 5F5F4D53 		.ascii "__MSABI_LONG(x) x ## l\0"
 9139      4142495F 
 9139      4C4F4E47 
 9139      28782920 
 9139      78202323 
 9140 4586 01       		.byte	0x1
 9141 4587 D801     		.uleb128 0xd8
 9142 4589 5F5F4D49 		.ascii "__MINGW_GCC_VERSION (__GNUC__ * 10000 + __GNUC_MINOR__ * 100 + __GNUC_PATCHLEVEL__)\0"
 9142      4E47575F 
 9142      4743435F 
 9142      56455253 
 9142      494F4E20 
 9143 45dd 01       		.byte	0x1
 9144 45de E001     		.uleb128 0xe0
 9145 45e0 5F5F4D49 		.ascii "__MINGW_GNUC_PREREQ(major,minor) (__GNUC__ > (major) || (__GNUC__ == (major) && __GNUC_MIN
 9145      4E47575F 
 9145      474E5543 
 9145      5F505245 
 9145      52455128 
 9146 464c 01       		.byte	0x1
 9147 464d EB01     		.uleb128 0xeb
 9148 464f 5F5F4D49 		.ascii "__MINGW_MSC_PREREQ(major,minor) 0\0"
 9148      4E47575F 
 9148      4D53435F 
 9148      50524552 
 9148      4551286D 
 9149 4671 01       		.byte	0x1
 9150 4672 F701     		.uleb128 0xf7
 9151 4674 5F5F4D49 		.ascii "__MINGW_ATTRIB_DEPRECATED_STR(X) \0"
 9151      4E47575F 
 9151      41545452 
 9151      49425F44 
 9151      45505245 
 9152 4696 01       		.byte	0x1
 9153 4697 FA01     		.uleb128 0xfa
 9154 4699 5F5F4D49 		.ascii "__MINGW_SEC_WARN_STR \"This function or variable may be unsafe, use _CRT_SECURE_NO_WARNING
 9154      4E47575F 
 9154      5345435F 
 9154      5741524E 
 9154      5F535452 
 9155 470c 01       		.byte	0x1
 9156 470d FD01     		.uleb128 0xfd
 9157 470f 5F5F4D49 		.ascii "__MINGW_MSVC2005_DEPREC_STR \"This POSIX function is deprecated beginning in Visual C++ 20
 9157      4E47575F 
 9157      4D535643 
 9157      32303035 
 9157      5F444550 
 9158 47a2 01       		.byte	0x1
 9159 47a3 8102     		.uleb128 0x101
 9160 47a5 5F5F4D49 		.ascii "__MINGW_ATTRIB_DEPRECATED_MSVC2005 __MINGW_ATTRIB_DEPRECATED_STR(__MINGW_MSVC2005_DEPREC_S
 9160      4E47575F 
 9160      41545452 
 9160      49425F44 
 9160      45505245 
 9161 4803 01       		.byte	0x1
 9162 4804 8802     		.uleb128 0x108
 9163 4806 5F5F4D49 		.ascii "__MINGW_ATTRIB_DEPRECATED_SEC_WARN __MINGW_ATTRIB_DEPRECATED_STR(__MINGW_SEC_WARN_STR)\0"
 9163      4E47575F 
 9163      41545452 
 9163      49425F44 
 9163      45505245 
 9164 485d 01       		.byte	0x1
 9165 485e 8E02     		.uleb128 0x10e
 9166 4860 5F5F4D49 		.ascii "__MINGW_MS_PRINTF(__format,__args) __attribute__((__format__(ms_printf, __format,__args)))
 9166      4E47575F 
 9166      4D535F50 
 9166      52494E54 
 9166      46285F5F 
 9167 48bb 01       		.byte	0x1
 9168 48bc 9102     		.uleb128 0x111
 9169 48be 5F5F4D49 		.ascii "__MINGW_MS_SCANF(__format,__args) __attribute__((__format__(ms_scanf, __format,__args)))\0
 9169      4E47575F 
 9169      4D535F53 
 9169      43414E46 
 9169      285F5F66 
 9170 4917 01       		.byte	0x1
 9171 4918 9402     		.uleb128 0x114
 9172 491a 5F5F4D49 		.ascii "__MINGW_GNU_PRINTF(__format,__args) __attribute__((__format__(gnu_printf,__format,__args))
 9172      4E47575F 
 9172      474E555F 
 9172      5052494E 
 9172      5446285F 
 9173 4976 01       		.byte	0x1
 9174 4977 9702     		.uleb128 0x117
 9175 4979 5F5F4D49 		.ascii "__MINGW_GNU_SCANF(__format,__args) __attribute__((__format__(gnu_scanf, __format,__args)))
 9175      4E47575F 
 9175      474E555F 
 9175      5343414E 
 9175      46285F5F 
 9176 49d4 02       		.byte	0x2
 9177 49d5 9A02     		.uleb128 0x11a
 9178 49d7 5F5F6D69 		.ascii "__mingw_ovr\0"
 9178      6E67775F 
 9178      6F767200 
 9179 49e3 02       		.byte	0x2
 9180 49e4 9B02     		.uleb128 0x11b
 9181 49e6 5F5F6D69 		.ascii "__mingw_static_ovr\0"
 9181      6E67775F 
 9181      73746174 
 9181      69635F6F 
 9181      767200
 9182 49f9 01       		.byte	0x1
 9183 49fa A102     		.uleb128 0x121
 9184 49fc 5F5F6D69 		.ascii "__mingw_ovr static __attribute__ ((__unused__)) __inline__ __cdecl\0"
 9184      6E67775F 
 9184      6F767220 
 9184      73746174 
 9184      6963205F 
 9185 4a3f 01       		.byte	0x1
 9186 4a40 A302     		.uleb128 0x123
 9187 4a42 5F5F6D69 		.ascii "__mingw_static_ovr __mingw_ovr\0"
 9187      6E67775F 
 9187      73746174 
 9187      69635F6F 
 9187      7672205F 
 9188 4a61 01       		.byte	0x1
 9189 4a62 AA02     		.uleb128 0x12a
 9190 4a64 5F5F6D69 		.ascii "__mingw_attribute_artificial __attribute__((__artificial__))\0"
 9190      6E67775F 
 9190      61747472 
 9190      69627574 
 9190      655F6172 
 9191 4aa1 01       		.byte	0x1
 9192 4aa2 B002     		.uleb128 0x130
 9193 4aa4 5F5F4D49 		.ascii "__MINGW_SELECTANY __attribute__((__selectany__))\0"
 9193      4E47575F 
 9193      53454C45 
 9193      4354414E 
 9193      59205F5F 
 9194 4ad5 01       		.byte	0x1
 9195 4ad6 C802     		.uleb128 0x148
 9196 4ad8 5F5F4D49 		.ascii "__MINGW_FORTIFY_LEVEL 0\0"
 9196      4E47575F 
 9196      464F5254 
 9196      4946595F 
 9196      4C455645 
 9197 4af0 01       		.byte	0x1
 9198 4af1 F002     		.uleb128 0x170
 9199 4af3 5F5F6D69 		.ascii "__mingw_bos_ovr __mingw_ovr\0"
 9199      6E67775F 
 9199      626F735F 
 9199      6F767220 
 9199      5F5F6D69 
 9200 4b0f 01       		.byte	0x1
 9201 4b10 FD02     		.uleb128 0x17d
 9202 4b12 5F5F4D49 		.ascii "__MINGW_FORTIFY_VA_ARG 0\0"
 9202      4E47575F 
 9202      464F5254 
 9202      4946595F 
 9202      56415F41 
 9203 4b2b 02       		.byte	0x2
 9204 4b2c 8003     		.uleb128 0x180
 9205 4b2e 5F5F6861 		.ascii "__has_builtin\0"
 9205      735F6275 
 9205      696C7469 
 9205      6E00
 9206 4b3c 04       		.byte	0x4
 9207              		.file 19 "C:/Users/victim/Desktop/dangerous/yuziakicin/UEFI/UEFI/Backend/mingw64/include/_mingw_se
 9208 4b3d 03       		.byte	0x3
 9209 4b3e 0B       		.uleb128 0xb
 9210 4b3f 13       		.uleb128 0x13
 9211 4b40 01       		.byte	0x1
 9212 4b41 08       		.uleb128 0x8
 9213 4b42 5F494E43 		.ascii "_INC_MINGW_SECAPI \0"
 9213      5F4D494E 
 9213      47575F53 
 9213      45434150 
 9213      492000
 9214 4b55 02       		.byte	0x2
 9215 4b56 1D       		.uleb128 0x1d
 9216 4b57 5F435254 		.ascii "_CRT_SECURE_CPP_OVERLOAD_SECURE_NAMES\0"
 9216      5F534543 
 9216      5552455F 
 9216      4350505F 
 9216      4F564552 
 9217 4b7d 02       		.byte	0x2
 9218 4b7e 1E       		.uleb128 0x1e
 9219 4b7f 5F435254 		.ascii "_CRT_SECURE_CPP_OVERLOAD_SECURE_NAMES_MEMORY\0"
 9219      5F534543 
 9219      5552455F 
 9219      4350505F 
 9219      4F564552 
 9220 4bac 02       		.byte	0x2
 9221 4bad 1F       		.uleb128 0x1f
 9222 4bae 5F435254 		.ascii "_CRT_SECURE_CPP_OVERLOAD_STANDARD_NAMES\0"
 9222      5F534543 
 9222      5552455F 
 9222      4350505F 
 9222      4F564552 
 9223 4bd6 02       		.byte	0x2
 9224 4bd7 20       		.uleb128 0x20
 9225 4bd8 5F435254 		.ascii "_CRT_SECURE_CPP_OVERLOAD_STANDARD_NAMES_COUNT\0"
 9225      5F534543 
 9225      5552455F 
 9225      4350505F 
 9225      4F564552 
 9226 4c06 02       		.byte	0x2
 9227 4c07 21       		.uleb128 0x21
 9228 4c08 5F435254 		.ascii "_CRT_SECURE_CPP_OVERLOAD_STANDARD_NAMES_MEMORY\0"
 9228      5F534543 
 9228      5552455F 
 9228      4350505F 
 9228      4F564552 
 9229 4c37 01       		.byte	0x1
 9230 4c38 22       		.uleb128 0x22
 9231 4c39 5F435254 		.ascii "_CRT_SECURE_CPP_OVERLOAD_SECURE_NAMES 0\0"
 9231      5F534543 
 9231      5552455F 
 9231      4350505F 
 9231      4F564552 
 9232 4c61 01       		.byte	0x1
 9233 4c62 23       		.uleb128 0x23
 9234 4c63 5F435254 		.ascii "_CRT_SECURE_CPP_OVERLOAD_SECURE_NAMES_MEMORY 0\0"
 9234      5F534543 
 9234      5552455F 
 9234      4350505F 
 9234      4F564552 
 9235 4c92 01       		.byte	0x1
 9236 4c93 24       		.uleb128 0x24
 9237 4c94 5F435254 		.ascii "_CRT_SECURE_CPP_OVERLOAD_STANDARD_NAMES 0\0"
 9237      5F534543 
 9237      5552455F 
 9237      4350505F 
 9237      4F564552 
 9238 4cbe 01       		.byte	0x1
 9239 4cbf 25       		.uleb128 0x25
 9240 4cc0 5F435254 		.ascii "_CRT_SECURE_CPP_OVERLOAD_STANDARD_NAMES_COUNT 0\0"
 9240      5F534543 
 9240      5552455F 
 9240      4350505F 
 9240      4F564552 
 9241 4cf0 01       		.byte	0x1
 9242 4cf1 26       		.uleb128 0x26
 9243 4cf2 5F435254 		.ascii "_CRT_SECURE_CPP_OVERLOAD_STANDARD_NAMES_MEMORY 0\0"
 9243      5F534543 
 9243      5552455F 
 9243      4350505F 
 9243      4F564552 
 9244 4d23 01       		.byte	0x1
 9245 4d24 29       		.uleb128 0x29
 9246 4d25 5F5F4D49 		.ascii "__MINGW_CRT_NAME_CONCAT2(sym) ::sym ##_s\0"
 9246      4E47575F 
 9246      4352545F 
 9246      4E414D45 
 9246      5F434F4E 
 9247 4d4e 01       		.byte	0x1
 9248 4d4f 45       		.uleb128 0x45
 9249 4d50 5F5F4352 		.ascii "__CRT_SECURE_CPP_OVERLOAD_STANDARD_NAMES_MEMORY_0_3_(__ret,__func,__type1,__attrib1,__arg1
 9249      545F5345 
 9249      43555245 
 9249      5F435050 
 9249      5F4F5645 
 9250 4e6f 04       		.byte	0x4
 9251 4e70 01       		.byte	0x1
 9252 4e71 18       		.uleb128 0x18
 9253 4e72 5F5F4C4F 		.ascii "__LONG32 long\0"
 9253      4E473332 
 9253      206C6F6E 
 9253      6700
 9254 4e80 01       		.byte	0x1
 9255 4e81 2C       		.uleb128 0x2c
 9256 4e82 5F5F4D49 		.ascii "__MINGW_IMPORT extern __attribute__ ((__dllimport__))\0"
 9256      4E47575F 
 9256      494D504F 
 9256      52542065 
 9256      78746572 
 9257 4eb8 02       		.byte	0x2
 9258 4eb9 2F       		.uleb128 0x2f
 9259 4eba 5F5F5553 		.ascii "__USE_CRTIMP\0"
 9259      455F4352 
 9259      54494D50 
 9259      00
 9260 4ec7 01       		.byte	0x1
 9261 4ec8 31       		.uleb128 0x31
 9262 4ec9 5F5F5553 		.ascii "__USE_CRTIMP 1\0"
 9262      455F4352 
 9262      54494D50 
 9262      203100
 9263 4ed8 01       		.byte	0x1
 9264 4ed9 34       		.uleb128 0x34
 9265 4eda 5F435254 		.ascii "_CRTIMP __attribute__ ((__dllimport__))\0"
 9265      494D5020 
 9265      5F5F6174 
 9265      74726962 
 9265      7574655F 
 9266 4f02 01       		.byte	0x1
 9267 4f03 39       		.uleb128 0x39
 9268 4f04 5F5F4445 		.ascii "__DECLSPEC_SUPPORTED \0"
 9268      434C5350 
 9268      45435F53 
 9268      5550504F 
 9268      52544544 
 9269 4f1a 01       		.byte	0x1
 9270 4f1b 46       		.uleb128 0x46
 9271 4f1c 5553455F 		.ascii "USE___UUIDOF 0\0"
 9271      5F5F5555 
 9271      49444F46 
 9271      203000
 9272 4f2b 01       		.byte	0x1
 9273 4f2c 4A       		.uleb128 0x4a
 9274 4f2d 5F696E6C 		.ascii "_inline __inline\0"
 9274      696E6520 
 9274      5F5F696E 
 9274      6C696E65 
 9274      00
 9275 4f3e 01       		.byte	0x1
 9276 4f3f 53       		.uleb128 0x53
 9277 4f40 5F5F4352 		.ascii "__CRT_INLINE extern inline __attribute__((__gnu_inline__))\0"
 9277      545F494E 
 9277      4C494E45 
 9277      20657874 
 9277      65726E20 
 9278 4f7b 01       		.byte	0x1
 9279 4f7c 5A       		.uleb128 0x5a
 9280 4f7d 5F5F4D49 		.ascii "__MINGW_INTRIN_INLINE extern __inline__ __attribute__((__always_inline__,__gnu_inline__))\
 9280      4E47575F 
 9280      494E5452 
 9280      494E5F49 
 9280      4E4C494E 
 9281 4fd7 01       		.byte	0x1
 9282 4fd8 68       		.uleb128 0x68
 9283 4fd9 5F5F554E 		.ascii "__UNUSED_PARAM(x) x __attribute__ ((__unused__))\0"
 9283      55534544 
 9283      5F504152 
 9283      414D2878 
 9283      29207820 
 9284 500a 01       		.byte	0x1
 9285 500b 77       		.uleb128 0x77
 9286 500c 5F5F7265 		.ascii "__restrict_arr __restrict\0"
 9286      73747269 
 9286      63745F61 
 9286      7272205F 
 9286      5F726573 
 9287 5026 01       		.byte	0x1
 9288 5027 8701     		.uleb128 0x87
 9289 5029 5F5F4D49 		.ascii "__MINGW_ATTRIB_NORETURN __attribute__ ((__noreturn__))\0"
 9289      4E47575F 
 9289      41545452 
 9289      49425F4E 
 9289      4F524554 
 9290 5060 01       		.byte	0x1
 9291 5061 8801     		.uleb128 0x88
 9292 5063 5F5F4D49 		.ascii "__MINGW_ATTRIB_CONST __attribute__ ((__const__))\0"
 9292      4E47575F 
 9292      41545452 
 9292      49425F43 
 9292      4F4E5354 
 9293 5094 01       		.byte	0x1
 9294 5095 9201     		.uleb128 0x92
 9295 5097 5F5F4D49 		.ascii "__MINGW_ATTRIB_MALLOC __attribute__ ((__malloc__))\0"
 9295      4E47575F 
 9295      41545452 
 9295      49425F4D 
 9295      414C4C4F 
 9296 50ca 01       		.byte	0x1
 9297 50cb 9301     		.uleb128 0x93
 9298 50cd 5F5F4D49 		.ascii "__MINGW_ATTRIB_PURE __attribute__ ((__pure__))\0"
 9298      4E47575F 
 9298      41545452 
 9298      49425F50 
 9298      55524520 
 9299 50fc 01       		.byte	0x1
 9300 50fd A001     		.uleb128 0xa0
 9301 50ff 5F5F4D49 		.ascii "__MINGW_ATTRIB_NONNULL(arg) __attribute__ ((__nonnull__ (arg)))\0"
 9301      4E47575F 
 9301      41545452 
 9301      49425F4E 
 9301      4F4E4E55 
 9302 513f 01       		.byte	0x1
 9303 5140 A601     		.uleb128 0xa6
 9304 5142 5F5F4D49 		.ascii "__MINGW_ATTRIB_UNUSED __attribute__ ((__unused__))\0"
 9304      4E47575F 
 9304      41545452 
 9304      49425F55 
 9304      4E555345 
 9305 5175 01       		.byte	0x1
 9306 5176 AC01     		.uleb128 0xac
 9307 5178 5F5F4D49 		.ascii "__MINGW_ATTRIB_USED __attribute__ ((__used__))\0"
 9307      4E47575F 
 9307      41545452 
 9307      49425F55 
 9307      53454420 
 9308 51a7 01       		.byte	0x1
 9309 51a8 AD01     		.uleb128 0xad
 9310 51aa 5F5F4D49 		.ascii "__MINGW_ATTRIB_DEPRECATED __attribute__ ((__deprecated__))\0"
 9310      4E47575F 
 9310      41545452 
 9310      49425F44 
 9310      45505245 
 9311 51e5 01       		.byte	0x1
 9312 51e6 AF01     		.uleb128 0xaf
 9313 51e8 5F5F4D49 		.ascii "__MINGW_ATTRIB_DEPRECATED_MSG(x) __attribute__ ((__deprecated__(x)))\0"
 9313      4E47575F 
 9313      41545452 
 9313      49425F44 
 9313      45505245 
 9314 522d 01       		.byte	0x1
 9315 522e BE01     		.uleb128 0xbe
 9316 5230 5F5F4D49 		.ascii "__MINGW_NOTHROW __attribute__ ((__nothrow__))\0"
 9316      4E47575F 
 9316      4E4F5448 
 9316      524F5720 
 9316      5F5F6174 
 9317 525e 01       		.byte	0x1
 9318 525f C601     		.uleb128 0xc6
 9319 5261 5F5F4D49 		.ascii "__MINGW_ATTRIB_NO_OPTIMIZE __attribute__((__optimize__ (\"0\")))\0"
 9319      4E47575F 
 9319      41545452 
 9319      49425F4E 
 9319      4F5F4F50 
 9320 52a0 01       		.byte	0x1
 9321 52a1 CC01     		.uleb128 0xcc
 9322 52a3 5F5F4D49 		.ascii "__MINGW_PRAGMA_PARAM(x) _Pragma (#x)\0"
 9322      4E47575F 
 9322      50524147 
 9322      4D415F50 
 9322      4152414D 
 9323 52c8 01       		.byte	0x1
 9324 52c9 D301     		.uleb128 0xd3
 9325 52cb 5F5F4D49 		.ascii "__MINGW_BROKEN_INTERFACE(x) __MINGW_PRAGMA_PARAM(message (\"Interface \" _CRT_STRINGIZE(x)
 9325      4E47575F 
 9325      42524F4B 
 9325      454E5F49 
 9325      4E544552 
 9326 5340 01       		.byte	0x1
 9327 5341 DE01     		.uleb128 0xde
 9328 5343 5F5F4D53 		.ascii "__MSVCRT_VERSION__ 0x700\0"
 9328      56435254 
 9328      5F564552 
 9328      53494F4E 
 9328      5F5F2030 
 9329 535c 01       		.byte	0x1
 9330 535d E801     		.uleb128 0xe8
 9331 535f 5F57494E 		.ascii "_WIN32_WINNT 0x601\0"
 9331      33325F57 
 9331      494E4E54 
 9331      20307836 
 9331      303100
 9332 5372 01       		.byte	0x1
 9333 5373 EC01     		.uleb128 0xec
 9334 5375 5F494E54 		.ascii "_INT128_DEFINED \0"
 9334      3132385F 
 9334      44454649 
 9334      4E454420 
 9334      00
 9335 5386 01       		.byte	0x1
 9336 5387 EE01     		.uleb128 0xee
 9337 5389 5F5F696E 		.ascii "__int8 char\0"
 9337      74382063 
 9337      68617200 
 9338 5395 01       		.byte	0x1
 9339 5396 EF01     		.uleb128 0xef
 9340 5398 5F5F696E 		.ascii "__int16 short\0"
 9340      74313620 
 9340      73686F72 
 9340      7400
 9341 53a6 01       		.byte	0x1
 9342 53a7 F001     		.uleb128 0xf0
 9343 53a9 5F5F696E 		.ascii "__int32 int\0"
 9343      74333220 
 9343      696E7400 
 9344 53b5 01       		.byte	0x1
 9345 53b6 F101     		.uleb128 0xf1
 9346 53b8 5F5F696E 		.ascii "__int64 long long\0"
 9346      74363420 
 9346      6C6F6E67 
 9346      206C6F6E 
 9346      6700
 9347 53ca 01       		.byte	0x1
 9348 53cb FF01     		.uleb128 0xff
 9349 53cd 5F5F7074 		.ascii "__ptr32 \0"
 9349      72333220 
 9349      00
 9350 53d6 01       		.byte	0x1
 9351 53d7 8002     		.uleb128 0x100
 9352 53d9 5F5F7074 		.ascii "__ptr64 \0"
 9352      72363420 
 9352      00
 9353 53e2 01       		.byte	0x1
 9354 53e3 8202     		.uleb128 0x102
 9355 53e5 5F5F756E 		.ascii "__unaligned \0"
 9355      616C6967 
 9355      6E656420 
 9355      00
 9356 53f2 01       		.byte	0x1
 9357 53f3 8502     		.uleb128 0x105
 9358 53f5 5F5F7736 		.ascii "__w64 \0"
 9358      342000
 9359 53fc 01       		.byte	0x1
 9360 53fd 8A02     		.uleb128 0x10a
 9361 53ff 5F5F666F 		.ascii "__forceinline extern __inline__ __attribute__((__always_inline__,__gnu_inline__))\0"
 9361      72636569 
 9361      6E6C696E 
 9361      65206578 
 9361      7465726E 
 9362 5451 01       		.byte	0x1
 9363 5452 9602     		.uleb128 0x116
 9364 5454 5F5F6E6F 		.ascii "__nothrow \0"
 9364      7468726F 
 9364      772000
 9365 545f 03       		.byte	0x3
 9366 5460 9A02     		.uleb128 0x11a
 9367 5462 03       		.uleb128 0x3
 9368 5463 01       		.byte	0x1
 9369 5464 07       		.uleb128 0x7
 9370 5465 5F494E43 		.ascii "_INC_VADEFS \0"
 9370      5F564144 
 9370      45465320 
 9370      00
 9371 5472 03       		.byte	0x3
 9372 5473 09       		.uleb128 0x9
 9373 5474 11       		.uleb128 0x11
 9374 5475 01       		.byte	0x1
 9375 5476 8A05     		.uleb128 0x28a
 9376 5478 4D494E47 		.ascii "MINGW_SDK_INIT \0"
 9376      575F5344 
 9376      4B5F494E 
 9376      49542000 
 9377 5488 01       		.byte	0x1
 9378 5489 8E05     		.uleb128 0x28e
 9379 548b 4D494E47 		.ascii "MINGW_HAS_SECURE_API 1\0"
 9379      575F4841 
 9379      535F5345 
 9379      43555245 
 9379      5F415049 
 9380 54a2 01       		.byte	0x1
 9381 54a3 9105     		.uleb128 0x291
 9382 54a5 5F5F5354 		.ascii "__STDC_SECURE_LIB__ 200411L\0"
 9382      44435F53 
 9382      45435552 
 9382      455F4C49 
 9382      425F5F20 
 9383 54c1 01       		.byte	0x1
 9384 54c2 9205     		.uleb128 0x292
 9385 54c4 5F5F474F 		.ascii "__GOT_SECURE_LIB__ __STDC_SECURE_LIB__\0"
 9385      545F5345 
 9385      43555245 
 9385      5F4C4942 
 9385      5F5F205F 
 9386              		.file 20 "C:/Users/victim/Desktop/dangerous/yuziakicin/UEFI/UEFI/Backend/mingw64/include/sdks/_min
 9387 54eb 03       		.byte	0x3
 9388 54ec 9505     		.uleb128 0x295
 9389 54ee 14       		.uleb128 0x14
 9390 54ef 01       		.byte	0x1
 9391 54f0 02       		.uleb128 0x2
 9392 54f1 4D494E47 		.ascii "MINGW_DDK_H \0"
 9392      575F4444 
 9392      4B5F4820 
 9392      00
 9393 54fe 01       		.byte	0x1
 9394 54ff 04       		.uleb128 0x4
 9395 5500 4D494E47 		.ascii "MINGW_HAS_DDK_H 1\0"
 9395      575F4841 
 9395      535F4444 
 9395      4B5F4820 
 9395      3100
 9396 5512 04       		.byte	0x4
 9397 5513 04       		.byte	0x4
 9398 5514 02       		.byte	0x2
 9399 5515 0C       		.uleb128 0xc
 9400 5516 5F435254 		.ascii "_CRT_PACKING\0"
 9400      5F504143 
 9400      4B494E47 
 9400      00
 9401 5523 01       		.byte	0x1
 9402 5524 0D       		.uleb128 0xd
 9403 5525 5F435254 		.ascii "_CRT_PACKING 8\0"
 9403      5F504143 
 9403      4B494E47 
 9403      203800
 9404 5534 01       		.byte	0x1
 9405 5535 17       		.uleb128 0x17
 9406 5536 5F5F474E 		.ascii "__GNUC_VA_LIST \0"
 9406      55435F56 
 9406      415F4C49 
 9406      53542000 
 9407 5546 01       		.byte	0x1
 9408 5547 1D       		.uleb128 0x1d
 9409 5548 5F56415F 		.ascii "_VA_LIST_DEFINED \0"
 9409      4C495354 
 9409      5F444546 
 9409      494E4544 
 9409      2000
 9410 555a 01       		.byte	0x1
 9411 555b 2A       		.uleb128 0x2a
 9412 555c 5F414444 		.ascii "_ADDRESSOF(v) (&(v))\0"
 9412      52455353 
 9412      4F462876 
 9412      29202826 
 9412      28762929 
 9413 5571 01       		.byte	0x1
 9414 5572 30       		.uleb128 0x30
 9415 5573 5F637274 		.ascii "_crt_va_start(v,l) __builtin_va_start(v,l)\0"
 9415      5F76615F 
 9415      73746172 
 9415      7428762C 
 9415      6C29205F 
 9416 559e 01       		.byte	0x1
 9417 559f 31       		.uleb128 0x31
 9418 55a0 5F637274 		.ascii "_crt_va_arg(v,l) __builtin_va_arg(v,l)\0"
 9418      5F76615F 
 9418      61726728 
 9418      762C6C29 
 9418      205F5F62 
 9419 55c7 01       		.byte	0x1
 9420 55c8 32       		.uleb128 0x32
 9421 55c9 5F637274 		.ascii "_crt_va_end(v) __builtin_va_end(v)\0"
 9421      5F76615F 
 9421      656E6428 
 9421      7629205F 
 9421      5F627569 
 9422 55ec 01       		.byte	0x1
 9423 55ed 33       		.uleb128 0x33
 9424 55ee 5F637274 		.ascii "_crt_va_copy(d,s) __builtin_va_copy(d,s)\0"
 9424      5F76615F 
 9424      636F7079 
 9424      28642C73 
 9424      29205F5F 
 9425 5617 04       		.byte	0x4
 9426 5618 01       		.byte	0x1
 9427 5619 9D02     		.uleb128 0x11d
 9428 561b 5F5F4352 		.ascii "__CRT_STRINGIZE(_Value) #_Value\0"
 9428      545F5354 
 9428      52494E47 
 9428      495A4528 
 9428      5F56616C 
 9429 563b 01       		.byte	0x1
 9430 563c 9E02     		.uleb128 0x11e
 9431 563e 5F435254 		.ascii "_CRT_STRINGIZE(_Value) __CRT_STRINGIZE(_Value)\0"
 9431      5F535452 
 9431      494E4749 
 9431      5A45285F 
 9431      56616C75 
 9432 566d 01       		.byte	0x1
 9433 566e A202     		.uleb128 0x122
 9434 5670 5F5F4352 		.ascii "__CRT_WIDE(_String) L ## _String\0"
 9434      545F5749 
 9434      4445285F 
 9434      53747269 
 9434      6E672920 
 9435 5691 01       		.byte	0x1
 9436 5692 A302     		.uleb128 0x123
 9437 5694 5F435254 		.ascii "_CRT_WIDE(_String) __CRT_WIDE(_String)\0"
 9437      5F574944 
 9437      45285F53 
 9437      7472696E 
 9437      6729205F 
 9438 56bb 01       		.byte	0x1
 9439 56bc A702     		.uleb128 0x127
 9440 56be 5F573634 		.ascii "_W64 \0"
 9440      2000
 9441 56c4 01       		.byte	0x1
 9442 56c5 AE02     		.uleb128 0x12e
 9443 56c7 5F435254 		.ascii "_CRTIMP_NOIA64 _CRTIMP\0"
 9443      494D505F 
 9443      4E4F4941 
 9443      3634205F 
 9443      43525449 
 9444 56de 01       		.byte	0x1
 9445 56df B302     		.uleb128 0x133
 9446 56e1 5F435254 		.ascii "_CRTIMP2 _CRTIMP\0"
 9446      494D5032 
 9446      205F4352 
 9446      54494D50 
 9446      00
 9447 56f2 01       		.byte	0x1
 9448 56f3 B702     		.uleb128 0x137
 9449 56f5 5F435254 		.ascii "_CRTIMP_ALTERNATIVE _CRTIMP\0"
 9449      494D505F 
 9449      414C5445 
 9449      524E4154 
 9449      49564520 
 9450 5711 01       		.byte	0x1
 9451 5712 B802     		.uleb128 0x138
 9452 5714 5F435254 		.ascii "_CRT_ALTERNATIVE_IMPORTED \0"
 9452      5F414C54 
 9452      45524E41 
 9452      54495645 
 9452      5F494D50 
 9453 572f 01       		.byte	0x1
 9454 5730 BC02     		.uleb128 0x13c
 9455 5732 5F4D5254 		.ascii "_MRTIMP2 _CRTIMP\0"
 9455      494D5032 
 9455      205F4352 
 9455      54494D50 
 9455      00
 9456 5743 01       		.byte	0x1
 9457 5744 C502     		.uleb128 0x145
 9458 5746 5F444C4C 		.ascii "_DLL \0"
 9458      2000
 9459 574c 01       		.byte	0x1
 9460 574d C902     		.uleb128 0x149
 9461 574f 5F4D5420 		.ascii "_MT \0"
 9461      00
 9462 5754 01       		.byte	0x1
 9463 5755 CD02     		.uleb128 0x14d
 9464 5757 5F4D4352 		.ascii "_MCRTIMP _CRTIMP\0"
 9464      54494D50 
 9464      205F4352 
 9464      54494D50 
 9464      00
 9465 5768 01       		.byte	0x1
 9466 5769 D102     		.uleb128 0x151
 9467 576b 5F435254 		.ascii "_CRTIMP_PURE _CRTIMP\0"
 9467      494D505F 
 9467      50555245 
 9467      205F4352 
 9467      54494D50 
 9468 5780 01       		.byte	0x1
 9469 5781 D502     		.uleb128 0x155
 9470 5783 5F50474C 		.ascii "_PGLOBAL \0"
 9470      4F42414C 
 9470      2000
 9471 578d 01       		.byte	0x1
 9472 578e D902     		.uleb128 0x159
 9473 5790 5F41474C 		.ascii "_AGLOBAL \0"
 9473      4F42414C 
 9473      2000
 9474 579a 01       		.byte	0x1
 9475 579b DC02     		.uleb128 0x15c
 9476 579d 5F534543 		.ascii "_SECURECRT_FILL_BUFFER_PATTERN 0xFD\0"
 9476      55524543 
 9476      52545F46 
 9476      494C4C5F 
 9476      42554646 
 9477 57c1 01       		.byte	0x1
 9478 57c2 DD02     		.uleb128 0x15d
 9479 57c4 5F435254 		.ascii "_CRT_DEPRECATE_TEXT(_Text) __declspec(deprecated)\0"
 9479      5F444550 
 9479      52454341 
 9479      54455F54 
 9479      45585428 
 9480 57f6 01       		.byte	0x1
 9481 57f7 E002     		.uleb128 0x160
 9482 57f9 5F435254 		.ascii "_CRT_INSECURE_DEPRECATE_MEMORY(_Replacement) \0"
 9482      5F494E53 
 9482      45435552 
 9482      455F4445 
 9482      50524543 
 9483 5827 01       		.byte	0x1
 9484 5828 E402     		.uleb128 0x164
 9485 582a 5F435254 		.ascii "_CRT_INSECURE_DEPRECATE_GLOBALS(_Replacement) \0"
 9485      5F494E53 
 9485      45435552 
 9485      455F4445 
 9485      50524543 
 9486 5859 01       		.byte	0x1
 9487 585a E802     		.uleb128 0x168
 9488 585c 5F435254 		.ascii "_CRT_MANAGED_HEAP_DEPRECATE \0"
 9488      5F4D414E 
 9488      41474544 
 9488      5F484541 
 9488      505F4445 
 9489 5879 01       		.byte	0x1
 9490 587a EC02     		.uleb128 0x16c
 9491 587c 5F435254 		.ascii "_CRT_OBSOLETE(_NewItem) \0"
 9491      5F4F4253 
 9491      4F4C4554 
 9491      45285F4E 
 9491      65774974 
 9492 5895 01       		.byte	0x1
 9493 5896 F802     		.uleb128 0x178
 9494 5898 5F434F4E 		.ascii "_CONST_RETURN \0"
 9494      53545F52 
 9494      45545552 
 9494      4E2000
 9495 58a7 01       		.byte	0x1
 9496 58a8 FD02     		.uleb128 0x17d
 9497 58aa 554E414C 		.ascii "UNALIGNED __unaligned\0"
 9497      49474E45 
 9497      44205F5F 
 9497      756E616C 
 9497      69676E65 
 9498 58c0 01       		.byte	0x1
 9499 58c1 8703     		.uleb128 0x187
 9500 58c3 5F435254 		.ascii "_CRT_ALIGN(x) __attribute__ ((__aligned__ (x)))\0"
 9500      5F414C49 
 9500      474E2878 
 9500      29205F5F 
 9500      61747472 
 9501 58f3 01       		.byte	0x1
 9502 58f4 8E03     		.uleb128 0x18e
 9503 58f6 5F5F4352 		.ascii "__CRTDECL __cdecl\0"
 9503      54444543 
 9503      4C205F5F 
 9503      63646563 
 9503      6C00
 9504 5908 01       		.byte	0x1
 9505 5909 9103     		.uleb128 0x191
 9506 590b 5F415247 		.ascii "_ARGMAX 100\0"
 9506      4D415820 
 9506      31303000 
 9507 5917 01       		.byte	0x1
 9508 5918 9403     		.uleb128 0x194
 9509 591a 5F545255 		.ascii "_TRUNCATE ((size_t)-1)\0"
 9509      4E434154 
 9509      45202828 
 9509      73697A65 
 9509      5F74292D 
 9510 5931 01       		.byte	0x1
 9511 5932 9803     		.uleb128 0x198
 9512 5934 5F435254 		.ascii "_CRT_UNUSED(x) (void)x\0"
 9512      5F554E55 
 9512      53454428 
 9512      78292028 
 9512      766F6964 
 9513 594b 01       		.byte	0x1
 9514 594c AD03     		.uleb128 0x1ad
 9515 594e 5F5F5553 		.ascii "__USE_MINGW_ANSI_STDIO 1\0"
 9515      455F4D49 
 9515      4E47575F 
 9515      414E5349 
 9515      5F535444 
 9516 5967 01       		.byte	0x1
 9517 5968 B403     		.uleb128 0x1b4
 9518 596a 5F5F5553 		.ascii "__USE_MINGW_ANSI_STDIO 1\0"
 9518      455F4D49 
 9518      4E47575F 
 9518      414E5349 
 9518      5F535444 
 9519 5983 02       		.byte	0x2
 9520 5984 C603     		.uleb128 0x1c6
 9521 5986 5F435254 		.ascii "_CRT_glob\0"
 9521      5F676C6F 
 9521      6200
 9522 5990 01       		.byte	0x1
 9523 5991 C703     		.uleb128 0x1c7
 9524 5993 5F435254 		.ascii "_CRT_glob _dowildcard\0"
 9524      5F676C6F 
 9524      62205F64 
 9524      6F77696C 
 9524      64636172 
 9525 59a9 01       		.byte	0x1
 9526 59aa D703     		.uleb128 0x1d7
 9527 59ac 5F5F414E 		.ascii "__ANONYMOUS_DEFINED \0"
 9527      4F4E594D 
 9527      4F55535F 
 9527      44454649 
 9527      4E454420 
 9528 59c1 01       		.byte	0x1
 9529 59c2 D803     		.uleb128 0x1d8
 9530 59c4 5F414E4F 		.ascii "_ANONYMOUS_UNION __MINGW_EXTENSION\0"
 9530      4E594D4F 
 9530      55535F55 
 9530      4E494F4E 
 9530      205F5F4D 
 9531 59e7 01       		.byte	0x1
 9532 59e8 D903     		.uleb128 0x1d9
 9533 59ea 5F414E4F 		.ascii "_ANONYMOUS_STRUCT __MINGW_EXTENSION\0"
 9533      4E594D4F 
 9533      55535F53 
 9533      54525543 
 9533      54205F5F 
 9534 5a0e 01       		.byte	0x1
 9535 5a0f DB03     		.uleb128 0x1db
 9536 5a11 5F554E49 		.ascii "_UNION_NAME(x) \0"
 9536      4F4E5F4E 
 9536      414D4528 
 9536      78292000 
 9537 5a21 01       		.byte	0x1
 9538 5a22 DC03     		.uleb128 0x1dc
 9539 5a24 5F535452 		.ascii "_STRUCT_NAME(x) \0"
 9539      5543545F 
 9539      4E414D45 
 9539      28782920 
 9539      00
 9540 5a35 01       		.byte	0x1
 9541 5a36 F003     		.uleb128 0x1f0
 9542 5a38 44554D4D 		.ascii "DUMMYUNIONNAME \0"
 9542      59554E49 
 9542      4F4E4E41 
 9542      4D452000 
 9543 5a48 01       		.byte	0x1
 9544 5a49 F103     		.uleb128 0x1f1
 9545 5a4b 44554D4D 		.ascii "DUMMYUNIONNAME1 \0"
 9545      59554E49 
 9545      4F4E4E41 
 9545      4D453120 
 9545      00
 9546 5a5c 01       		.byte	0x1
 9547 5a5d F203     		.uleb128 0x1f2
 9548 5a5f 44554D4D 		.ascii "DUMMYUNIONNAME2 \0"
 9548      59554E49 
 9548      4F4E4E41 
 9548      4D453220 
 9548      00
 9549 5a70 01       		.byte	0x1
 9550 5a71 F303     		.uleb128 0x1f3
 9551 5a73 44554D4D 		.ascii "DUMMYUNIONNAME3 \0"
 9551      59554E49 
 9551      4F4E4E41 
 9551      4D453320 
 9551      00
 9552 5a84 01       		.byte	0x1
 9553 5a85 F403     		.uleb128 0x1f4
 9554 5a87 44554D4D 		.ascii "DUMMYUNIONNAME4 \0"
 9554      59554E49 
 9554      4F4E4E41 
 9554      4D453420 
 9554      00
 9555 5a98 01       		.byte	0x1
 9556 5a99 F503     		.uleb128 0x1f5
 9557 5a9b 44554D4D 		.ascii "DUMMYUNIONNAME5 \0"
 9557      59554E49 
 9557      4F4E4E41 
 9557      4D453520 
 9557      00
 9558 5aac 01       		.byte	0x1
 9559 5aad F603     		.uleb128 0x1f6
 9560 5aaf 44554D4D 		.ascii "DUMMYUNIONNAME6 \0"
 9560      59554E49 
 9560      4F4E4E41 
 9560      4D453620 
 9560      00
 9561 5ac0 01       		.byte	0x1
 9562 5ac1 F703     		.uleb128 0x1f7
 9563 5ac3 44554D4D 		.ascii "DUMMYUNIONNAME7 \0"
 9563      59554E49 
 9563      4F4E4E41 
 9563      4D453720 
 9563      00
 9564 5ad4 01       		.byte	0x1
 9565 5ad5 F803     		.uleb128 0x1f8
 9566 5ad7 44554D4D 		.ascii "DUMMYUNIONNAME8 \0"
 9566      59554E49 
 9566      4F4E4E41 
 9566      4D453820 
 9566      00
 9567 5ae8 01       		.byte	0x1
 9568 5ae9 F903     		.uleb128 0x1f9
 9569 5aeb 44554D4D 		.ascii "DUMMYUNIONNAME9 \0"
 9569      59554E49 
 9569      4F4E4E41 
 9569      4D453920 
 9569      00
 9570 5afc 01       		.byte	0x1
 9571 5afd 8604     		.uleb128 0x206
 9572 5aff 44554D4D 		.ascii "DUMMYSTRUCTNAME \0"
 9572      59535452 
 9572      5543544E 
 9572      414D4520 
 9572      00
 9573 5b10 01       		.byte	0x1
 9574 5b11 8704     		.uleb128 0x207
 9575 5b13 44554D4D 		.ascii "DUMMYSTRUCTNAME1 \0"
 9575      59535452 
 9575      5543544E 
 9575      414D4531 
 9575      2000
 9576 5b25 01       		.byte	0x1
 9577 5b26 8804     		.uleb128 0x208
 9578 5b28 44554D4D 		.ascii "DUMMYSTRUCTNAME2 \0"
 9578      59535452 
 9578      5543544E 
 9578      414D4532 
 9578      2000
 9579 5b3a 01       		.byte	0x1
 9580 5b3b 8904     		.uleb128 0x209
 9581 5b3d 44554D4D 		.ascii "DUMMYSTRUCTNAME3 \0"
 9581      59535452 
 9581      5543544E 
 9581      414D4533 
 9581      2000
 9582 5b4f 01       		.byte	0x1
 9583 5b50 8A04     		.uleb128 0x20a
 9584 5b52 44554D4D 		.ascii "DUMMYSTRUCTNAME4 \0"
 9584      59535452 
 9584      5543544E 
 9584      414D4534 
 9584      2000
 9585 5b64 01       		.byte	0x1
 9586 5b65 8B04     		.uleb128 0x20b
 9587 5b67 44554D4D 		.ascii "DUMMYSTRUCTNAME5 \0"
 9587      59535452 
 9587      5543544E 
 9587      414D4535 
 9587      2000
 9588 5b79 01       		.byte	0x1
 9589 5b7a B304     		.uleb128 0x233
 9590 5b7c 5F5F4352 		.ascii "__CRT_UUID_DECL(type,l,w1,w2,b1,b2,b3,b4,b5,b6,b7,b8) \0"
 9590      545F5555 
 9590      49445F44 
 9590      45434C28 
 9590      74797065 
 9591 5bb3 01       		.byte	0x1
 9592 5bb4 BF04     		.uleb128 0x23f
 9593 5bb6 5F5F4D49 		.ascii "__MINGW_DEBUGBREAK_IMPL !__has_builtin(__debugbreak)\0"
 9593      4E47575F 
 9593      44454255 
 9593      47425245 
 9593      414B5F49 
 9594 5beb 01       		.byte	0x1
 9595 5bec D404     		.uleb128 0x254
 9596 5bee 5F5F4D49 		.ascii "__MINGW_FASTFAIL_IMPL !__has_builtin(__fastfail)\0"
 9596      4E47575F 
 9596      46415354 
 9596      4641494C 
 9596      5F494D50 
 9597 5c1f 01       		.byte	0x1
 9598 5c20 EC04     		.uleb128 0x26c
 9599 5c22 5F5F4D49 		.ascii "__MINGW_PREFETCH_IMPL !__has_builtin(__prefetch)\0"
 9599      4E47575F 
 9599      50524546 
 9599      45544348 
 9599      5F494D50 
 9600 5c53 04       		.byte	0x4
 9601 5c54 02       		.byte	0x2
 9602 5c55 0D       		.uleb128 0xd
 9603 5c56 5F435254 		.ascii "_CRT_PACKING\0"
 9603      5F504143 
 9603      4B494E47 
 9603      00
 9604 5c63 01       		.byte	0x1
 9605 5c64 0E       		.uleb128 0xe
 9606 5c65 5F435254 		.ascii "_CRT_PACKING 8\0"
 9606      5F504143 
 9606      4B494E47 
 9606      203800
 9607 5c74 01       		.byte	0x1
 9608 5c75 18       		.uleb128 0x18
 9609 5c76 5F435254 		.ascii "_CRTNOALIAS \0"
 9609      4E4F414C 
 9609      49415320 
 9609      00
 9610 5c83 01       		.byte	0x1
 9611 5c84 1C       		.uleb128 0x1c
 9612 5c85 5F435254 		.ascii "_CRTRESTRICT \0"
 9612      52455354 
 9612      52494354 
 9612      2000
 9613 5c93 01       		.byte	0x1
 9614 5c94 20       		.uleb128 0x20
 9615 5c95 5F53495A 		.ascii "_SIZE_T_DEFINED \0"
 9615      455F545F 
 9615      44454649 
 9615      4E454420 
 9615      00
 9616 5ca6 02       		.byte	0x2
 9617 5ca7 21       		.uleb128 0x21
 9618 5ca8 73697A65 		.ascii "size_t\0"
 9618      5F7400
 9619 5caf 01       		.byte	0x1
 9620 5cb0 2A       		.uleb128 0x2a
 9621 5cb1 5F535349 		.ascii "_SSIZE_T_DEFINED \0"
 9621      5A455F54 
 9621      5F444546 
 9621      494E4544 
 9621      2000
 9622 5cc3 02       		.byte	0x2
 9623 5cc4 2B       		.uleb128 0x2b
 9624 5cc5 7373697A 		.ascii "ssize_t\0"
 9624      655F7400 
 9625 5ccd 01       		.byte	0x1
 9626 5cce 35       		.uleb128 0x35
 9627 5ccf 5F525349 		.ascii "_RSIZE_T_DEFINED \0"
 9627      5A455F54 
 9627      5F444546 
 9627      494E4544 
 9627      2000
 9628 5ce1 01       		.byte	0x1
 9629 5ce2 39       		.uleb128 0x39
 9630 5ce3 5F494E54 		.ascii "_INTPTR_T_DEFINED \0"
 9630      5054525F 
 9630      545F4445 
 9630      46494E45 
 9630      442000
 9631 5cf6 01       		.byte	0x1
 9632 5cf7 3B       		.uleb128 0x3b
 9633 5cf8 5F5F696E 		.ascii "__intptr_t_defined \0"
 9633      74707472 
 9633      5F745F64 
 9633      6566696E 
 9633      65642000 
 9634 5d0c 02       		.byte	0x2
 9635 5d0d 3C       		.uleb128 0x3c
 9636 5d0e 696E7470 		.ascii "intptr_t\0"
 9636      74725F74 
 9636      00
 9637 5d17 01       		.byte	0x1
 9638 5d18 46       		.uleb128 0x46
 9639 5d19 5F55494E 		.ascii "_UINTPTR_T_DEFINED \0"
 9639      54505452 
 9639      5F545F44 
 9639      4546494E 
 9639      45442000 
 9640 5d2d 01       		.byte	0x1
 9641 5d2e 48       		.uleb128 0x48
 9642 5d2f 5F5F7569 		.ascii "__uintptr_t_defined \0"
 9642      6E747074 
 9642      725F745F 
 9642      64656669 
 9642      6E656420 
 9643 5d44 02       		.byte	0x2
 9644 5d45 49       		.uleb128 0x49
 9645 5d46 75696E74 		.ascii "uintptr_t\0"
 9645      7074725F 
 9645      7400
 9646 5d50 01       		.byte	0x1
 9647 5d51 53       		.uleb128 0x53
 9648 5d52 5F505452 		.ascii "_PTRDIFF_T_DEFINED \0"
 9648      44494646 
 9648      5F545F44 
 9648      4546494E 
 9648      45442000 
 9649 5d66 01       		.byte	0x1
 9650 5d67 55       		.uleb128 0x55
 9651 5d68 5F505452 		.ascii "_PTRDIFF_T_ \0"
 9651      44494646 
 9651      5F545F20 
 9651      00
 9652 5d75 02       		.byte	0x2
 9653 5d76 56       		.uleb128 0x56
 9654 5d77 70747264 		.ascii "ptrdiff_t\0"
 9654      6966665F 
 9654      7400
 9655 5d81 01       		.byte	0x1
 9656 5d82 60       		.uleb128 0x60
 9657 5d83 5F574348 		.ascii "_WCHAR_T_DEFINED \0"
 9657      41525F54 
 9657      5F444546 
 9657      494E4544 
 9657      2000
 9658 5d95 01       		.byte	0x1
 9659 5d96 67       		.uleb128 0x67
 9660 5d97 5F574354 		.ascii "_WCTYPE_T_DEFINED \0"
 9660      5950455F 
 9660      545F4445 
 9660      46494E45 
 9660      442000
 9661 5daa 01       		.byte	0x1
 9662 5dab 69       		.uleb128 0x69
 9663 5dac 5F57494E 		.ascii "_WINT_T \0"
 9663      545F5420 
 9663      00
 9664 5db5 01       		.byte	0x1
 9665 5db6 70       		.uleb128 0x70
 9666 5db7 5F455252 		.ascii "_ERRCODE_DEFINED \0"
 9666      434F4445 
 9666      5F444546 
 9666      494E4544 
 9666      2000
 9667 5dc9 01       		.byte	0x1
 9668 5dca 75       		.uleb128 0x75
 9669 5dcb 5F54494D 		.ascii "_TIME32_T_DEFINED \0"
 9669      4533325F 
 9669      545F4445 
 9669      46494E45 
 9669      442000
 9670 5dde 01       		.byte	0x1
 9671 5ddf 7A       		.uleb128 0x7a
 9672 5de0 5F54494D 		.ascii "_TIME64_T_DEFINED \0"
 9672      4536345F 
 9672      545F4445 
 9672      46494E45 
 9672      442000
 9673 5df3 01       		.byte	0x1
 9674 5df4 8601     		.uleb128 0x86
 9675 5df6 5F54494D 		.ascii "_TIME_T_DEFINED \0"
 9675      455F545F 
 9675      44454649 
 9675      4E454420 
 9675      00
 9676 5e07 01       		.byte	0x1
 9677 5e08 8F01     		.uleb128 0x8f
 9678 5e0a 5F435254 		.ascii "_CRT_SECURE_CPP_NOTHROW throw()\0"
 9678      5F534543 
 9678      5552455F 
 9678      4350505F 
 9678      4E4F5448 
 9679 5e2a 01       		.byte	0x1
 9680 5e2b 8602     		.uleb128 0x106
 9681 5e2d 5F5F4445 		.ascii "__DEFINE_CPP_OVERLOAD_SECURE_FUNC_0_0(__ret,__func,__dsttype,__dst) \0"
 9681      46494E45 
 9681      5F435050 
 9681      5F4F5645 
 9681      524C4F41 
 9682 5e72 01       		.byte	0x1
 9683 5e73 8702     		.uleb128 0x107
 9684 5e75 5F5F4445 		.ascii "__DEFINE_CPP_OVERLOAD_SECURE_FUNC_0_1(__ret,__func,__dsttype,__dst,__type1,__arg1) \0"
 9684      46494E45 
 9684      5F435050 
 9684      5F4F5645 
 9684      524C4F41 
 9685 5ec9 01       		.byte	0x1
 9686 5eca 8802     		.uleb128 0x108
 9687 5ecc 5F5F4445 		.ascii "__DEFINE_CPP_OVERLOAD_SECURE_FUNC_0_2(__ret,__func,__dsttype,__dst,__type1,__arg1,__type2,
 9687      46494E45 
 9687      5F435050 
 9687      5F4F5645 
 9687      524C4F41 
 9688 5f2f 01       		.byte	0x1
 9689 5f30 8902     		.uleb128 0x109
 9690 5f32 5F5F4445 		.ascii "__DEFINE_CPP_OVERLOAD_SECURE_FUNC_0_3(__ret,__func,__dsttype,__dst,__type1,__arg1,__type2,
 9690      46494E45 
 9690      5F435050 
 9690      5F4F5645 
 9690      524C4F41 
 9691 5fa4 01       		.byte	0x1
 9692 5fa5 8A02     		.uleb128 0x10a
 9693 5fa7 5F5F4445 		.ascii "__DEFINE_CPP_OVERLOAD_SECURE_FUNC_0_4(__ret,__func,__dsttype,__dst,__type1,__arg1,__type2,
 9693      46494E45 
 9693      5F435050 
 9693      5F4F5645 
 9693      524C4F41 
 9694 6028 01       		.byte	0x1
 9695 6029 8B02     		.uleb128 0x10b
 9696 602b 5F5F4445 		.ascii "__DEFINE_CPP_OVERLOAD_SECURE_FUNC_1_1(__ret,__func,__type0,__arg0,__dsttype,__dst,__type1,
 9696      46494E45 
 9696      5F435050 
 9696      5F4F5645 
 9696      524C4F41 
 9697 608e 01       		.byte	0x1
 9698 608f 8C02     		.uleb128 0x10c
 9699 6091 5F5F4445 		.ascii "__DEFINE_CPP_OVERLOAD_SECURE_FUNC_1_2(__ret,__func,__type0,__arg0,__dsttype,__dst,__type1,
 9699      46494E45 
 9699      5F435050 
 9699      5F4F5645 
 9699      524C4F41 
 9700 6103 01       		.byte	0x1
 9701 6104 8D02     		.uleb128 0x10d
 9702 6106 5F5F4445 		.ascii "__DEFINE_CPP_OVERLOAD_SECURE_FUNC_1_3(__ret,__func,__type0,__arg0,__dsttype,__dst,__type1,
 9702      46494E45 
 9702      5F435050 
 9702      5F4F5645 
 9702      524C4F41 
 9703 6187 01       		.byte	0x1
 9704 6188 8E02     		.uleb128 0x10e
 9705 618a 5F5F4445 		.ascii "__DEFINE_CPP_OVERLOAD_SECURE_FUNC_2_0(__ret,__func,__type1,__arg1,__type2,__arg2,__dsttype
 9705      46494E45 
 9705      5F435050 
 9705      5F4F5645 
 9705      524C4F41 
 9706 61ed 01       		.byte	0x1
 9707 61ee 8F02     		.uleb128 0x10f
 9708 61f0 5F5F4445 		.ascii "__DEFINE_CPP_OVERLOAD_SECURE_FUNC_0_1_ARGLIST(__ret,__func,__vfunc,__dsttype,__dst,__type1
 9708      46494E45 
 9708      5F435050 
 9708      5F4F5645 
 9708      524C4F41 
 9709 6254 01       		.byte	0x1
 9710 6255 9002     		.uleb128 0x110
 9711 6257 5F5F4445 		.ascii "__DEFINE_CPP_OVERLOAD_SECURE_FUNC_0_2_ARGLIST(__ret,__func,__vfunc,__dsttype,__dst,__type1
 9711      46494E45 
 9711      5F435050 
 9711      5F4F5645 
 9711      524C4F41 
 9712 62ca 01       		.byte	0x1
 9713 62cb 9102     		.uleb128 0x111
 9714 62cd 5F5F4445 		.ascii "__DEFINE_CPP_OVERLOAD_SECURE_FUNC_SPLITPATH(__ret,__func,__dsttype,__src) \0"
 9714      46494E45 
 9714      5F435050 
 9714      5F4F5645 
 9714      524C4F41 
 9715 6318 01       		.byte	0x1
 9716 6319 9502     		.uleb128 0x115
 9717 631b 5F5F4445 		.ascii "__DEFINE_CPP_OVERLOAD_STANDARD_FUNC_0_0(__ret_type,__ret_policy,__decl_spec,__name,__dst_a
 9717      46494E45 
 9717      5F435050 
 9717      5F4F5645 
 9717      524C4F41 
 9718 641b 01       		.byte	0x1
 9719 641c 9702     		.uleb128 0x117
 9720 641e 5F5F4445 		.ascii "__DEFINE_CPP_OVERLOAD_STANDARD_FUNC_0_1(__ret_type,__ret_policy,__decl_spec,__name,__dst_a
 9720      46494E45 
 9720      5F435050 
 9720      5F4F5645 
 9720      524C4F41 
 9721 655b 01       		.byte	0x1
 9722 655c 9902     		.uleb128 0x119
 9723 655e 5F5F4445 		.ascii "__DEFINE_CPP_OVERLOAD_STANDARD_FUNC_0_2(__ret_type,__ret_policy,__decl_spec,__name,__dst_a
 9723      46494E45 
 9723      5F435050 
 9723      5F4F5645 
 9723      524C4F41 
 9724 66ae 01       		.byte	0x1
 9725 66af 9B02     		.uleb128 0x11b
 9726 66b1 5F5F4445 		.ascii "__DEFINE_CPP_OVERLOAD_STANDARD_FUNC_0_3(__ret_type,__ret_policy,__decl_spec,__name,__dst_a
 9726      46494E45 
 9726      5F435050 
 9726      5F4F5645 
 9726      524C4F41 
 9727 6829 01       		.byte	0x1
 9728 682a 9D02     		.uleb128 0x11d
 9729 682c 5F5F4445 		.ascii "__DEFINE_CPP_OVERLOAD_STANDARD_FUNC_0_4(__ret_type,__ret_policy,__decl_spec,__name,__dst_a
 9729      46494E45 
 9729      5F435050 
 9729      5F4F5645 
 9729      524C4F41 
 9730 69cc 01       		.byte	0x1
 9731 69cd A603     		.uleb128 0x1a6
 9732 69cf 5F5F4445 		.ascii "__DEFINE_CPP_OVERLOAD_STANDARD_FUNC_0_0_EX(__ret_type,__ret_policy,__decl_spec,__name,__se
 9732      46494E45 
 9732      5F435050 
 9732      5F4F5645 
 9732      524C4F41 
 9733 6a4e 01       		.byte	0x1
 9734 6a4f A703     		.uleb128 0x1a7
 9735 6a51 5F5F4445 		.ascii "__DEFINE_CPP_OVERLOAD_STANDARD_FUNC_0_1_EX(__ret_type,__ret_policy,__decl_spec,__name,__se
 9735      46494E45 
 9735      5F435050 
 9735      5F4F5645 
 9735      524C4F41 
 9736 6ae3 01       		.byte	0x1
 9737 6ae4 A803     		.uleb128 0x1a8
 9738 6ae6 5F5F4445 		.ascii "__DEFINE_CPP_OVERLOAD_STANDARD_FUNC_0_2_EX(__ret_type,__ret_policy,__decl_spec,__name,__se
 9738      46494E45 
 9738      5F435050 
 9738      5F4F5645 
 9738      524C4F41 
 9739 6b8b 01       		.byte	0x1
 9740 6b8c A903     		.uleb128 0x1a9
 9741 6b8e 5F5F4445 		.ascii "__DEFINE_CPP_OVERLOAD_STANDARD_FUNC_0_3_EX(__ret_type,__ret_policy,__decl_spec,__name,__se
 9741      46494E45 
 9741      5F435050 
 9741      5F4F5645 
 9741      524C4F41 
 9742 6c46 01       		.byte	0x1
 9743 6c47 AA03     		.uleb128 0x1aa
 9744 6c49 5F5F4445 		.ascii "__DEFINE_CPP_OVERLOAD_STANDARD_FUNC_0_4_EX(__ret_type,__ret_policy,__decl_spec,__name,__se
 9744      46494E45 
 9744      5F435050 
 9744      5F4F5645 
 9744      524C4F41 
 9745 6d14 01       		.byte	0x1
 9746 6d15 BA03     		.uleb128 0x1ba
 9747 6d17 5F544147 		.ascii "_TAGLC_ID_DEFINED \0"
 9747      4C435F49 
 9747      445F4445 
 9747      46494E45 
 9747      442000
 9748 6d2a 01       		.byte	0x1
 9749 6d2b C303     		.uleb128 0x1c3
 9750 6d2d 5F544852 		.ascii "_THREADLOCALEINFO \0"
 9750      4541444C 
 9750      4F43414C 
 9750      45494E46 
 9750      4F2000
 9751 6d40 01       		.byte	0x1
 9752 6d41 E603     		.uleb128 0x1e6
 9753 6d43 5F5F6372 		.ascii "__crt_typefix(ctype) \0"
 9753      745F7479 
 9753      70656669 
 9753      78286374 
 9753      79706529 
 9754 6d59 01       		.byte	0x1
 9755 6d5a F003     		.uleb128 0x1f0
 9756 6d5c 5F435254 		.ascii "_CRT_USE_WINAPI_FAMILY_DESKTOP_APP \0"
 9756      5F555345 
 9756      5F57494E 
 9756      4150495F 
 9756      46414D49 
 9757 6d80 04       		.byte	0x4
 9758 6d81 04       		.byte	0x4
 9759 6d82 01       		.byte	0x1
 9760 6d83 0A       		.uleb128 0xa
 9761 6d84 5F494E43 		.ascii "_INC_STDDEF \0"
 9761      5F535444 
 9761      44454620 
 9761      00
 9762 6d91 01       		.byte	0x1
 9763 6d92 11       		.uleb128 0x11
 9764 6d93 5F435254 		.ascii "_CRT_ERRNO_DEFINED \0"
 9764      5F455252 
 9764      4E4F5F44 
 9764      4546494E 
 9764      45442000 
 9765 6da7 01       		.byte	0x1
 9766 6da8 13       		.uleb128 0x13
 9767 6da9 6572726E 		.ascii "errno (*_errno())\0"
 9767      6F20282A 
 9767      5F657272 
 9767      6E6F2829 
 9767      2900
 9768 6dbb 01       		.byte	0x1
 9769 6dbc 19       		.uleb128 0x19
 9770 6dbd 5F746872 		.ascii "_threadid (__threadid())\0"
 9770      65616469 
 9770      6420285F 
 9770      5F746872 
 9770      65616469 
 9771 6dd6 01       		.byte	0x1
 9772 6dd7 31       		.uleb128 0x31
 9773 6dd8 5F535444 		.ascii "_STDDEF_H \0"
 9773      4445465F 
 9773      482000
 9774 6de3 01       		.byte	0x1
 9775 6de4 32       		.uleb128 0x32
 9776 6de5 5F535444 		.ascii "_STDDEF_H_ \0"
 9776      4445465F 
 9776      485F2000 
 9777 6df1 01       		.byte	0x1
 9778 6df2 34       		.uleb128 0x34
 9779 6df3 5F414E53 		.ascii "_ANSI_STDDEF_H \0"
 9779      495F5354 
 9779      44444546 
 9779      5F482000 
 9780 6e03 01       		.byte	0x1
 9781 6e04 36       		.uleb128 0x36
 9782 6e05 5F5F5354 		.ascii "__STDDEF_H__ \0"
 9782      44444546 
 9782      5F485F5F 
 9782      2000
 9783 6e13 02       		.byte	0x2
 9784 6e14 A301     		.uleb128 0xa3
 9785 6e16 5F5F6E65 		.ascii "__need_ptrdiff_t\0"
 9785      65645F70 
 9785      74726469 
 9785      66665F74 
 9785      00
 9786 6e27 02       		.byte	0x2
 9787 6e28 F001     		.uleb128 0xf0
 9788 6e2a 5F5F6E65 		.ascii "__need_size_t\0"
 9788      65645F73 
 9788      697A655F 
 9788      7400
 9789 6e38 02       		.byte	0x2
 9790 6e39 D102     		.uleb128 0x151
 9791 6e3b 5F5F6E65 		.ascii "__need_wchar_t\0"
 9791      65645F77 
 9791      63686172 
 9791      5F7400
 9792 6e4a 02       		.byte	0x2
 9793 6e4b 8A03     		.uleb128 0x18a
 9794 6e4d 4E554C4C 		.ascii "NULL\0"
 9794      00
 9795 6e52 01       		.byte	0x1
 9796 6e53 8F03     		.uleb128 0x18f
 9797 6e55 4E554C4C 		.ascii "NULL ((void *)0)\0"
 9797      20282876 
 9797      6F696420 
 9797      2A293029 
 9797      00
 9798 6e66 02       		.byte	0x2
 9799 6e67 9903     		.uleb128 0x199
 9800 6e69 5F5F6E65 		.ascii "__need_NULL\0"
 9800      65645F4E 
 9800      554C4C00 
 9801 6e75 01       		.byte	0x1
 9802 6e76 9E03     		.uleb128 0x19e
 9803 6e78 6F666673 		.ascii "offsetof(TYPE,MEMBER) __builtin_offsetof (TYPE, MEMBER)\0"
 9803      65746F66 
 9803      28545950 
 9803      452C4D45 
 9803      4D424552 
 9804 6eb0 01       		.byte	0x1
 9805 6eb1 A303     		.uleb128 0x1a3
 9806 6eb3 5F474343 		.ascii "_GCC_MAX_ALIGN_T \0"
 9806      5F4D4158 
 9806      5F414C49 
 9806      474E5F54 
 9806      2000
 9807 6ec5 01       		.byte	0x1
 9808 6ec6 A403     		.uleb128 0x1a4
 9809 6ec8 5F5F434C 		.ascii "__CLANG_MAX_ALIGN_T_DEFINED \0"
 9809      414E475F 
 9809      4D41585F 
 9809      414C4947 
 9809      4E5F545F 
 9810 6ee5 04       		.byte	0x4
 9811 6ee6 04       		.byte	0x4
 9812 6ee7 01       		.byte	0x1
 9813 6ee8 66       		.uleb128 0x66
 9814 6ee9 57434841 		.ascii "WCHAR CHAR16\0"
 9814      52204348 
 9814      41523136 
 9814      00
 9815 6ef6 02       		.byte	0x2
 9816 6ef7 77       		.uleb128 0x77
 9817 6ef8 564F4944 		.ascii "VOID\0"
 9817      00
 9818 6efd 01       		.byte	0x1
 9819 6efe 8401     		.uleb128 0x84
 9820 6f00 504F5354 		.ascii "POST_CODE(_Data) \0"
 9820      5F434F44 
 9820      45285F44 
 9820      61746129 
 9820      2000
 9821 6f12 01       		.byte	0x1
 9822 6f13 8801     		.uleb128 0x88
 9823 6f15 45464945 		.ascii "EFIERR(a) (0x8000000000000000 | a)\0"
 9823      52522861 
 9823      29202830 
 9823      78383030 
 9823      30303030 
 9824 6f38 01       		.byte	0x1
 9825 6f39 8901     		.uleb128 0x89
 9826 6f3b 4546495F 		.ascii "EFI_ERROR_MASK 0x8000000000000000\0"
 9826      4552524F 
 9826      525F4D41 
 9826      534B2030 
 9826      78383030 
 9827 6f5d 01       		.byte	0x1
 9828 6f5e 8A01     		.uleb128 0x8a
 9829 6f60 45464945 		.ascii "EFIERR_OEM(a) (0xc000000000000000 | a)\0"
 9829      52525F4F 
 9829      454D2861 
 9829      29202830 
 9829      78633030 
 9830 6f87 01       		.byte	0x1
 9831 6f88 8D01     		.uleb128 0x8d
 9832 6f8a 4241445F 		.ascii "BAD_POINTER 0xFBFBFBFBFBFBFBFB\0"
 9832      504F494E 
 9832      54455220 
 9832      30784642 
 9832      46424642 
 9833 6fa9 01       		.byte	0x1
 9834 6faa 8E01     		.uleb128 0x8e
 9835 6fac 4D41585F 		.ascii "MAX_ADDRESS 0xFFFFFFFFFFFFFFFF\0"
 9835      41444452 
 9835      45535320 
 9835      30784646 
 9835      46464646 
 9836 6fcb 01       		.byte	0x1
 9837 6fcc 9301     		.uleb128 0x93
 9838 6fce 42524541 		.ascii "BREAKPOINT() while (TRUE);\0"
 9838      4B504F49 
 9838      4E542829 
 9838      20776869 
 9838      6C652028 
 9839 6fe9 01       		.byte	0x1
 9840 6fea 9A01     		.uleb128 0x9a
 9841 6fec 4D494E5F 		.ascii "MIN_ALIGNMENT_SIZE 4\0"
 9841      414C4947 
 9841      4E4D454E 
 9841      545F5349 
 9841      5A452034 
 9842 7001 01       		.byte	0x1
 9843 7002 9C01     		.uleb128 0x9c
 9844 7004 414C4947 		.ascii "ALIGN_VARIABLE(Value,Adjustment) (UINTN)Adjustment = 0; if((UINTN)Value % MIN_ALIGNMENT_SI
 9844      4E5F5641 
 9844      52494142 
 9844      4C452856 
 9844      616C7565 
 9845 70d9 01       		.byte	0x1
 9846 70da A701     		.uleb128 0xa7
 9847 70dc 4546495F 		.ascii "EFI_SIGNATURE_16(A,B) ((A) | (B<<8))\0"
 9847      5349474E 
 9847      41545552 
 9847      455F3136 
 9847      28412C42 
 9848 7101 01       		.byte	0x1
 9849 7102 A801     		.uleb128 0xa8
 9850 7104 4546495F 		.ascii "EFI_SIGNATURE_32(A,B,C,D) (EFI_SIGNATURE_16(A,B) | (EFI_SIGNATURE_16(C,D) << 16))\0"
 9850      5349474E 
 9850      41545552 
 9850      455F3332 
 9850      28412C42 
 9851 7156 01       		.byte	0x1
 9852 7157 A901     		.uleb128 0xa9
 9853 7159 4546495F 		.ascii "EFI_SIGNATURE_64(A,B,C,D,E,F,G,H) (EFI_SIGNATURE_32(A,B,C,D) | ((UINT64)(EFI_SIGNATURE_32(
 9853      5349474E 
 9853      41545552 
 9853      455F3634 
 9853      28412C42 
 9854 71c5 01       		.byte	0x1
 9855 71c6 B101     		.uleb128 0xb1
 9856 71c8 4558504F 		.ascii "EXPORTAPI \0"
 9856      52544150 
 9856      492000
 9857 71d3 01       		.byte	0x1
 9858 71d4 C201     		.uleb128 0xc2
 9859 71d6 45464941 		.ascii "EFIAPI __attribute__((ms_abi))\0"
 9859      5049205F 
 9859      5F617474 
 9859      72696275 
 9859      74655F5F 
 9860 71f5 01       		.byte	0x1
 9861 71f6 C801     		.uleb128 0xc8
 9862 71f8 424F4F54 		.ascii "BOOTSERVICE \0"
 9862      53455256 
 9862      49434520 
 9862      00
 9863 7205 01       		.byte	0x1
 9864 7206 CB01     		.uleb128 0xcb
 9865 7208 52554E54 		.ascii "RUNTIMESERVICE \0"
 9865      494D4553 
 9865      45525649 
 9865      43452000 
 9866 7218 01       		.byte	0x1
 9867 7219 CC01     		.uleb128 0xcc
 9868 721b 52554E54 		.ascii "RUNTIMEFUNCTION \0"
 9868      494D4546 
 9868      554E4354 
 9868      494F4E20 
 9868      00
 9869 722c 01       		.byte	0x1
 9870 722d CF01     		.uleb128 0xcf
 9871 722f 52554E54 		.ascii "RUNTIME_CODE(a) alloc_text(\"rtcode\", a)\0"
 9871      494D455F 
 9871      434F4445 
 9871      28612920 
 9871      616C6C6F 
 9872 7257 01       		.byte	0x1
 9873 7258 D001     		.uleb128 0xd0
 9874 725a 42454749 		.ascii "BEGIN_RUNTIME_DATA() data_seg(\"rtdata\")\0"
 9874      4E5F5255 
 9874      4E54494D 
 9874      455F4441 
 9874      54412829 
 9875 7282 01       		.byte	0x1
 9876 7283 D101     		.uleb128 0xd1
 9877 7285 454E445F 		.ascii "END_RUNTIME_DATA() data_seg(\"\")\0"
 9877      52554E54 
 9877      494D455F 
 9877      44415441 
 9877      28292064 
 9878 72a5 01       		.byte	0x1
 9879 72a6 D301     		.uleb128 0xd3
 9880 72a8 564F4C41 		.ascii "VOLATILE volatile\0"
 9880      54494C45 
 9880      20766F6C 
 9880      6174696C 
 9880      6500
 9881 72ba 01       		.byte	0x1
 9882 72bb D501     		.uleb128 0xd5
 9883 72bd 4D454D4F 		.ascii "MEMORY_FENCE() \0"
 9883      52595F46 
 9883      454E4345 
 9883      28292000 
 9884 72cd 01       		.byte	0x1
 9885 72ce 8502     		.uleb128 0x105
 9886 72d0 4546495F 		.ascii "EFI_DRIVER_ENTRY_POINT(InitFunction) UINTN InitializeDriver ( VOID *ImageHandle, VOID *Sys
 9886      44524956 
 9886      45525F45 
 9886      4E545259 
 9886      5F504F49 
 9887 73dd 01       		.byte	0x1
 9888 73de 9702     		.uleb128 0x117
 9889 73e0 4C4F4144 		.ascii "LOAD_INTERNAL_DRIVER(_if,type,name,entry) (_if)->LoadInternal(type, name, entry)\0"
 9889      5F494E54 
 9889      45524E41 
 9889      4C5F4452 
 9889      49564552 
 9890 7431 01       		.byte	0x1
 9891 7432 A602     		.uleb128 0x126
 9892 7434 494E5445 		.ascii "INTERFACE_DECL(x) struct x\0"
 9892      52464143 
 9892      455F4445 
 9892      434C2878 
 9892      29207374 
 9893 744f 01       		.byte	0x1
 9894 7450 AE02     		.uleb128 0x12e
 9895 7452 75656669 		.ascii "uefi_call_wrapper(func,va_num,...) func(__VA_ARGS__)\0"
 9895      5F63616C 
 9895      6C5F7772 
 9895      61707065 
 9895      72286675 
 9896 7487 01       		.byte	0x1
 9897 7488 8303     		.uleb128 0x183
 9898 748a 4546495F 		.ascii "EFI_FUNCTION __attribute__((ms_abi))\0"
 9898      46554E43 
 9898      54494F4E 
 9898      205F5F61 
 9898      74747269 
 9899 74af 04       		.byte	0x4
 9900              		.file 21 "gnu-efi-3.0.18/inc/eficompiler.h"
 9901 74b0 03       		.byte	0x3
 9902 74b1 41       		.uleb128 0x41
 9903 74b2 15       		.uleb128 0x15
 9904 74b3 01       		.byte	0x1
 9905 74b4 12       		.uleb128 0x12
 9906 74b5 4546495F 		.ascii "EFI_UNUSED __attribute__((__unused__))\0"
 9906      554E5553 
 9906      4544205F 
 9906      5F617474 
 9906      72696275 
 9907 74dc 01       		.byte	0x1
 9908 74dd 1B       		.uleb128 0x1b
 9909 74de 4546495F 		.ascii "EFI_NO_TAIL_CALL __attribute__((optimize(\"no-optimize-sibling-calls\")))\0"
 9909      4E4F5F54 
 9909      41494C5F 
 9909      43414C4C 
 9909      205F5F61 
 9910 7526 01       		.byte	0x1
 9911 7527 25       		.uleb128 0x25
 9912 7528 4546495F 		.ascii "EFI_OPTNONE __attribute__((__optimize__(\"0\")))\0"
 9912      4F50544E 
 9912      4F4E4520 
 9912      5F5F6174 
 9912      74726962 
 9913 7557 01       		.byte	0x1
 9914 7558 2C       		.uleb128 0x2c
 9915 7559 4546495F 		.ascii "EFI_ALIGN(x) __attribute__((__aligned__(x)))\0"
 9915      414C4947 
 9915      4E287829 
 9915      205F5F61 
 9915      74747269 
 9916 7586 01       		.byte	0x1
 9917 7587 30       		.uleb128 0x30
 9918 7588 414C4947 		.ascii "ALIGN(x) EFI_ALIGN(x)\0"
 9918      4E287829 
 9918      20454649 
 9918      5F414C49 
 9918      474E2878 
 9919 759e 01       		.byte	0x1
 9920 759f 36       		.uleb128 0x36
 9921 75a0 4546495F 		.ascii "EFI_NORETURN __attribute__((noreturn))\0"
 9921      4E4F5245 
 9921      5455524E 
 9921      205F5F61 
 9921      74747269 
 9922 75c7 04       		.byte	0x4
 9923 75c8 03       		.byte	0x3
 9924 75c9 42       		.uleb128 0x42
 9925 75ca 06       		.uleb128 0x6
 9926 75cb 01       		.byte	0x1
 9927 75cc 02       		.uleb128 0x2
 9928 75cd 5F454649 		.ascii "_EFI_DEF_H \0"
 9928      5F444546 
 9928      5F482000 
 9929 75d9 01       		.byte	0x1
 9930 75da 22       		.uleb128 0x22
 9931 75db 434F4E53 		.ascii "CONST const\0"
 9931      5420636F 
 9931      6E737400 
 9932 75e7 01       		.byte	0x1
 9933 75e8 29       		.uleb128 0x29
 9934 75e9 54525545 		.ascii "TRUE ((BOOLEAN) 1)\0"
 9934      20282842 
 9934      4F4F4C45 
 9934      414E2920 
 9934      312900
 9935 75fc 01       		.byte	0x1
 9936 75fd 2A       		.uleb128 0x2a
 9937 75fe 46414C53 		.ascii "FALSE ((BOOLEAN) 0)\0"
 9937      45202828 
 9937      424F4F4C 
 9937      45414E29 
 9937      20302900 
 9938 7612 01       		.byte	0x1
 9939 7613 4B       		.uleb128 0x4b
 9940 7614 494E2000 		.ascii "IN \0"
 9941 7618 01       		.byte	0x1
 9942 7619 4C       		.uleb128 0x4c
 9943 761a 4F555420 		.ascii "OUT \0"
 9943      00
 9944 761f 01       		.byte	0x1
 9945 7620 4D       		.uleb128 0x4d
 9946 7621 4F505449 		.ascii "OPTIONAL \0"
 9946      4F4E414C 
 9946      2000
 9947 762b 01       		.byte	0x1
 9948 762c 70       		.uleb128 0x70
 9949 762d 4546495F 		.ascii "EFI_TIME_ADJUST_DAYLIGHT 0x01\0"
 9949      54494D45 
 9949      5F41444A 
 9949      5553545F 
 9949      4441594C 
 9950 764b 01       		.byte	0x1
 9951 764c 71       		.uleb128 0x71
 9952 764d 4546495F 		.ascii "EFI_TIME_IN_DAYLIGHT 0x02\0"
 9952      54494D45 
 9952      5F494E5F 
 9952      4441594C 
 9952      49474854 
 9953 7667 01       		.byte	0x1
 9954 7668 74       		.uleb128 0x74
 9955 7669 4546495F 		.ascii "EFI_UNSPECIFIED_TIMEZONE 0x07FF\0"
 9955      554E5350 
 9955      45434946 
 9955      4945445F 
 9955      54494D45 
 9956 7689 01       		.byte	0x1
 9957 768a C001     		.uleb128 0xc0
 9958 768c 4546495F 		.ascii "EFI_MEMORY_UC 0x0000000000000001\0"
 9958      4D454D4F 
 9958      52595F55 
 9958      43203078 
 9958      30303030 
 9959 76ad 01       		.byte	0x1
 9960 76ae C101     		.uleb128 0xc1
 9961 76b0 4546495F 		.ascii "EFI_MEMORY_WC 0x0000000000000002\0"
 9961      4D454D4F 
 9961      52595F57 
 9961      43203078 
 9961      30303030 
 9962 76d1 01       		.byte	0x1
 9963 76d2 C201     		.uleb128 0xc2
 9964 76d4 4546495F 		.ascii "EFI_MEMORY_WT 0x0000000000000004\0"
 9964      4D454D4F 
 9964      52595F57 
 9964      54203078 
 9964      30303030 
 9965 76f5 01       		.byte	0x1
 9966 76f6 C301     		.uleb128 0xc3
 9967 76f8 4546495F 		.ascii "EFI_MEMORY_WB 0x0000000000000008\0"
 9967      4D454D4F 
 9967      52595F57 
 9967      42203078 
 9967      30303030 
 9968 7719 01       		.byte	0x1
 9969 771a C401     		.uleb128 0xc4
 9970 771c 4546495F 		.ascii "EFI_MEMORY_UCE 0x0000000000000010\0"
 9970      4D454D4F 
 9970      52595F55 
 9970      43452030 
 9970      78303030 
 9971 773e 01       		.byte	0x1
 9972 773f C701     		.uleb128 0xc7
 9973 7741 4546495F 		.ascii "EFI_MEMORY_WP 0x0000000000001000\0"
 9973      4D454D4F 
 9973      52595F57 
 9973      50203078 
 9973      30303030 
 9974 7762 01       		.byte	0x1
 9975 7763 C801     		.uleb128 0xc8
 9976 7765 4546495F 		.ascii "EFI_MEMORY_RP 0x0000000000002000\0"
 9976      4D454D4F 
 9976      52595F52 
 9976      50203078 
 9976      30303030 
 9977 7786 01       		.byte	0x1
 9978 7787 C901     		.uleb128 0xc9
 9979 7789 4546495F 		.ascii "EFI_MEMORY_XP 0x0000000000004000\0"
 9979      4D454D4F 
 9979      52595F58 
 9979      50203078 
 9979      30303030 
 9980 77aa 01       		.byte	0x1
 9981 77ab CA01     		.uleb128 0xca
 9982 77ad 4546495F 		.ascii "EFI_MEMORY_RO 0x0000000000020000\0"
 9982      4D454D4F 
 9982      52595F52 
 9982      4F203078 
 9982      30303030 
 9983 77ce 01       		.byte	0x1
 9984 77cf CD01     		.uleb128 0xcd
 9985 77d1 4546495F 		.ascii "EFI_MEMORY_NV 0x0000000000008000\0"
 9985      4D454D4F 
 9985      52595F4E 
 9985      56203078 
 9985      30303030 
 9986 77f2 01       		.byte	0x1
 9987 77f3 CE01     		.uleb128 0xce
 9988 77f5 4546495F 		.ascii "EFI_MEMORY_RUNTIME 0x8000000000000000\0"
 9988      4D454D4F 
 9988      52595F52 
 9988      554E5449 
 9988      4D452030 
 9989 781b 01       		.byte	0x1
 9990 781c D101     		.uleb128 0xd1
 9991 781e 4546495F 		.ascii "EFI_MEMORY_MORE_RELIABLE 0x0000000000010000\0"
 9991      4D454D4F 
 9991      52595F4D 
 9991      4F52455F 
 9991      52454C49 
 9992 784a 01       		.byte	0x1
 9993 784b D201     		.uleb128 0xd2
 9994 784d 4546495F 		.ascii "EFI_MEMORY_SP 0x0000000000040000\0"
 9994      4D454D4F 
 9994      52595F53 
 9994      50203078 
 9994      30303030 
 9995 786e 01       		.byte	0x1
 9996 786f D301     		.uleb128 0xd3
 9997 7871 4546495F 		.ascii "EFI_MEMORY_CPU_CRYPTO 0x0000000000080000\0"
 9997      4D454D4F 
 9997      52595F43 
 9997      50555F43 
 9997      52595054 
 9998 789a 01       		.byte	0x1
 9999 789b D401     		.uleb128 0xd4
 10000 789d 4546495F 		.ascii "EFI_MEMORY_ISA_VALID 0x4000000000000000\0"
 10000      4D454D4F 
 10000      52595F49 
 10000      53415F56 
 10000      414C4944 
 10001 78c5 01       		.byte	0x1
 10002 78c6 D501     		.uleb128 0xd5
 10003 78c8 4546495F 		.ascii "EFI_MEMORY_ISA_MASK 0x0FFFF00000000000\0"
 10003      4D454D4F 
 10003      52595F49 
 10003      53415F4D 
 10003      41534B20 
 10004 78ef 01       		.byte	0x1
 10005 78f0 D801     		.uleb128 0xd8
 10006 78f2 4546495F 		.ascii "EFI_MEMORY_DESCRIPTOR_VERSION 1\0"
 10006      4D454D4F 
 10006      52595F44 
 10006      45534352 
 10006      4950544F 
 10007 7912 01       		.byte	0x1
 10008 7913 E701     		.uleb128 0xe7
 10009 7915 49534F5F 		.ascii "ISO_639_2_ENTRY_SIZE 3\0"
 10009      3633395F 
 10009      325F454E 
 10009      5452595F 
 10009      53495A45 
 10010 792c 01       		.byte	0x1
 10011 792d ED01     		.uleb128 0xed
 10012 792f 4546495F 		.ascii "EFI_PAGE_SIZE 4096\0"
 10012      50414745 
 10012      5F53495A 
 10012      45203430 
 10012      393600
 10013 7942 01       		.byte	0x1
 10014 7943 EE01     		.uleb128 0xee
 10015 7945 4546495F 		.ascii "EFI_PAGE_MASK 0xFFF\0"
 10015      50414745 
 10015      5F4D4153 
 10015      4B203078 
 10015      46464600 
 10016 7959 01       		.byte	0x1
 10017 795a EF01     		.uleb128 0xef
 10018 795c 4546495F 		.ascii "EFI_PAGE_SHIFT 12\0"
 10018      50414745 
 10018      5F534849 
 10018      46542031 
 10018      3200
 10019 796e 01       		.byte	0x1
 10020 796f F101     		.uleb128 0xf1
 10021 7971 4546495F 		.ascii "EFI_SIZE_TO_PAGES(a) ( ((a) >> EFI_PAGE_SHIFT) + ((a) & EFI_PAGE_MASK ? 1 : 0) )\0"
 10021      53495A45 
 10021      5F544F5F 
 10021      50414745 
 10021      53286129 
 10022 79c2 01       		.byte	0x1
 10023 79c3 F401     		.uleb128 0xf4
 10024 79c5 4546495F 		.ascii "EFI_OS_INDICATIONS_BOOT_TO_FW_UI 0x0000000000000001\0"
 10024      4F535F49 
 10024      4E444943 
 10024      4154494F 
 10024      4E535F42 
 10025 79f9 01       		.byte	0x1
 10026 79fa F501     		.uleb128 0xf5
 10027 79fc 4546495F 		.ascii "EFI_OS_INDICATIONS_TIMESTAMP_REVOCATION 0x0000000000000002\0"
 10027      4F535F49 
 10027      4E444943 
 10027      4154494F 
 10027      4E535F54 
 10028 7a37 01       		.byte	0x1
 10029 7a38 F601     		.uleb128 0xf6
 10030 7a3a 4546495F 		.ascii "EFI_OS_INDICATIONS_FILE_CAPSULE_DELIVERY_SUPPORTED 0x0000000000000004\0"
 10030      4F535F49 
 10030      4E444943 
 10030      4154494F 
 10030      4E535F46 
 10031 7a80 01       		.byte	0x1
 10032 7a81 F801     		.uleb128 0xf8
 10033 7a83 4546495F 		.ascii "EFI_OS_INDICATIONS_FMP_CAPSULE_SUPPORTED 0x0000000000000008\0"
 10033      4F535F49 
 10033      4E444943 
 10033      4154494F 
 10033      4E535F46 
 10034 7abf 01       		.byte	0x1
 10035 7ac0 FA01     		.uleb128 0xfa
 10036 7ac2 4546495F 		.ascii "EFI_OS_INDICATIONS_CAPSULE_RESULT_VAR_SUPPORTED 0x0000000000000010\0"
 10036      4F535F49 
 10036      4E444943 
 10036      4154494F 
 10036      4E535F43 
 10037 7b05 01       		.byte	0x1
 10038 7b06 FC01     		.uleb128 0xfc
 10039 7b08 4546495F 		.ascii "EFI_OS_INDICATIONS_START_OS_RECOVERY 0x0000000000000020\0"
 10039      4F535F49 
 10039      4E444943 
 10039      4154494F 
 10039      4E535F53 
 10040 7b40 01       		.byte	0x1
 10041 7b41 FD01     		.uleb128 0xfd
 10042 7b43 4546495F 		.ascii "EFI_OS_INDICATIONS_START_PLATFORM_RECOVERY 0x0000000000000040\0"
 10042      4F535F49 
 10042      4E444943 
 10042      4154494F 
 10042      4E535F53 
 10043 7b81 01       		.byte	0x1
 10044 7b82 FF01     		.uleb128 0xff
 10045 7b84 4546495F 		.ascii "EFI_OS_INDICATIONS_JSON_CONFIG_DATA_REFRESH 0x0000000000000080\0"
 10045      4F535F49 
 10045      4E444943 
 10045      4154494F 
 10045      4E535F4A 
 10046 7bc3 04       		.byte	0x4
 10047 7bc4 03       		.byte	0x3
 10048 7bc5 43       		.uleb128 0x43
 10049 7bc6 07       		.uleb128 0x7
 10050 7bc7 01       		.byte	0x1
 10051 7bc8 02       		.uleb128 0x2
 10052 7bc9 5F444556 		.ascii "_DEVPATH_H \0"
 10052      50415448 
 10052      5F482000 
 10053 7bd5 01       		.byte	0x1
 10054 7bd6 23       		.uleb128 0x23
 10055 7bd7 4546495F 		.ascii "EFI_DP_TYPE_MASK 0x7F\0"
 10055      44505F54 
 10055      5950455F 
 10055      4D41534B 
 10055      20307837 
 10056 7bed 01       		.byte	0x1
 10057 7bee 24       		.uleb128 0x24
 10058 7bef 4546495F 		.ascii "EFI_DP_TYPE_UNPACKED 0x80\0"
 10058      44505F54 
 10058      5950455F 
 10058      554E5041 
 10058      434B4544 
 10059 7c09 01       		.byte	0x1
 10060 7c0a 27       		.uleb128 0x27
 10061 7c0b 454E445F 		.ascii "END_DEVICE_PATH_TYPE 0x7f\0"
 10061      44455649 
 10061      43455F50 
 10061      4154485F 
 10061      54595045 
 10062 7c25 01       		.byte	0x1
 10063 7c26 2A       		.uleb128 0x2a
 10064 7c27 454E445F 		.ascii "END_ENTIRE_DEVICE_PATH_SUBTYPE 0xff\0"
 10064      454E5449 
 10064      52455F44 
 10064      45564943 
 10064      455F5041 
 10065 7c4b 01       		.byte	0x1
 10066 7c4c 2B       		.uleb128 0x2b
 10067 7c4d 454E445F 		.ascii "END_INSTANCE_DEVICE_PATH_SUBTYPE 0x01\0"
 10067      494E5354 
 10067      414E4345 
 10067      5F444556 
 10067      4943455F 
 10068 7c73 01       		.byte	0x1
 10069 7c74 2C       		.uleb128 0x2c
 10070 7c75 454E445F 		.ascii "END_DEVICE_PATH_LENGTH (sizeof(EFI_DEVICE_PATH_PROTOCOL))\0"
 10070      44455649 
 10070      43455F50 
 10070      4154485F 
 10070      4C454E47 
 10071 7caf 01       		.byte	0x1
 10072 7cb0 2F       		.uleb128 0x2f
 10073 7cb1 44505F49 		.ascii "DP_IS_END_TYPE(a) \0"
 10073      535F454E 
 10073      445F5459 
 10073      50452861 
 10073      292000
 10074 7cc4 01       		.byte	0x1
 10075 7cc5 30       		.uleb128 0x30
 10076 7cc6 44505F49 		.ascii "DP_IS_END_SUBTYPE(a) ( ((a)->SubType == END_ENTIRE_DEVICE_PATH_SUBTYPE )\0"
 10076      535F454E 
 10076      445F5355 
 10076      42545950 
 10076      45286129 
 10077 7d0f 01       		.byte	0x1
 10078 7d10 32       		.uleb128 0x32
 10079 7d11 44657669 		.ascii "DevicePathType(a) ( ((a)->Type) & EFI_DP_TYPE_MASK )\0"
 10079      63655061 
 10079      74685479 
 10079      70652861 
 10079      29202820 
 10080 7d46 01       		.byte	0x1
 10081 7d47 33       		.uleb128 0x33
 10082 7d48 44657669 		.ascii "DevicePathSubType(a) ( (a)->SubType )\0"
 10082      63655061 
 10082      74685375 
 10082      62547970 
 10082      65286129 
 10083 7d6e 01       		.byte	0x1
 10084 7d6f 34       		.uleb128 0x34
 10085 7d70 44657669 		.ascii "DevicePathNodeLength(a) ( ((a)->Length[0]) | ((a)->Length[1] << 8) )\0"
 10085      63655061 
 10085      74684E6F 
 10085      64654C65 
 10085      6E677468 
 10086 7db5 01       		.byte	0x1
 10087 7db6 35       		.uleb128 0x35
 10088 7db7 4E657874 		.ascii "NextDevicePathNode(a) ( (EFI_DEVICE_PATH_PROTOCOL *) ( ((UINT8 *) (a)) + DevicePathNodeLen
 10088      44657669 
 10088      63655061 
 10088      74684E6F 
 10088      64652861 
 10089 7e1a 01       		.byte	0x1
 10090 7e1b 37       		.uleb128 0x37
 10091 7e1c 49734465 		.ascii "IsDevicePathEndType(a) ( DevicePathType(a) == END_DEVICE_PATH_TYPE )\0"
 10091      76696365 
 10091      50617468 
 10091      456E6454 
 10091      79706528 
 10092 7e61 01       		.byte	0x1
 10093 7e62 38       		.uleb128 0x38
 10094 7e63 49734465 		.ascii "IsDevicePathEndSubType(a) ( (a)->SubType == END_ENTIRE_DEVICE_PATH_SUBTYPE )\0"
 10094      76696365 
 10094      50617468 
 10094      456E6453 
 10094      75625479 
 10095 7eb0 01       		.byte	0x1
 10096 7eb1 39       		.uleb128 0x39
 10097 7eb2 49734465 		.ascii "IsDevicePathEnd(a) ( IsDevicePathEndType(a) && IsDevicePathEndSubType(a) )\0"
 10097      76696365 
 10097      50617468 
 10097      456E6428 
 10097      61292028 
 10098 7efd 01       		.byte	0x1
 10099 7efe 3A       		.uleb128 0x3a
 10100 7eff 49734465 		.ascii "IsDevicePathUnpacked(a) ( (a)->Type & EFI_DP_TYPE_UNPACKED )\0"
 10100      76696365 
 10100      50617468 
 10100      556E7061 
 10100      636B6564 
 10101 7f3c 01       		.byte	0x1
 10102 7f3d 3D       		.uleb128 0x3d
 10103 7f3e 53657444 		.ascii "SetDevicePathNodeLength(a,l) { (a)->Length[0] = (UINT8) (l); (a)->Length[1] = (UINT8) ((l)
 10103      65766963 
 10103      65506174 
 10103      684E6F64 
 10103      654C656E 
 10104 7fa2 01       		.byte	0x1
 10105 7fa3 42       		.uleb128 0x42
 10106 7fa4 53657444 		.ascii "SetDevicePathEndNode(a) { (a)->Type = END_DEVICE_PATH_TYPE; (a)->SubType = END_ENTIRE_DEVI
 10106      65766963 
 10106      65506174 
 10106      68456E64 
 10106      4E6F6465 
 10107 8058 01       		.byte	0x1
 10108 8059 4E       		.uleb128 0x4e
 10109 805a 48415244 		.ascii "HARDWARE_DEVICE_PATH 0x01\0"
 10109      57415245 
 10109      5F444556 
 10109      4943455F 
 10109      50415448 
 10110 8074 01       		.byte	0x1
 10111 8075 50       		.uleb128 0x50
 10112 8076 48575F50 		.ascii "HW_PCI_DP 0x01\0"
 10112      43495F44 
 10112      50203078 
 10112      303100
 10113 8085 01       		.byte	0x1
 10114 8086 57       		.uleb128 0x57
 10115 8087 48575F50 		.ascii "HW_PCCARD_DP 0x02\0"
 10115      43434152 
 10115      445F4450 
 10115      20307830 
 10115      3200
 10116 8099 01       		.byte	0x1
 10117 809a 5D       		.uleb128 0x5d
 10118 809b 48575F4D 		.ascii "HW_MEMMAP_DP 0x03\0"
 10118      454D4D41 
 10118      505F4450 
 10118      20307830 
 10118      3300
 10119 80ad 01       		.byte	0x1
 10120 80ae 65       		.uleb128 0x65
 10121 80af 48575F56 		.ascii "HW_VENDOR_DP 0x04\0"
 10121      454E444F 
 10121      525F4450 
 10121      20307830 
 10121      3400
 10122 80c1 01       		.byte	0x1
 10123 80c2 6B       		.uleb128 0x6b
 10124 80c3 554E4B4E 		.ascii "UNKNOWN_DEVICE_GUID { 0xcf31fac5, 0xc24e, 0x11d2, {0x85, 0xf3, 0x0, 0xa0, 0xc9, 0x3e, 0xc9
 10124      4F574E5F 
 10124      44455649 
 10124      43455F47 
 10124      55494420 
 10125 8127 01       		.byte	0x1
 10126 8128 73       		.uleb128 0x73
 10127 8129 48575F43 		.ascii "HW_CONTROLLER_DP 0x05\0"
 10127      4F4E5452 
 10127      4F4C4C45 
 10127      525F4450 
 10127      20307830 
 10128 813f 01       		.byte	0x1
 10129 8140 7D       		.uleb128 0x7d
 10130 8141 41435049 		.ascii "ACPI_DEVICE_PATH 0x02\0"
 10130      5F444556 
 10130      4943455F 
 10130      50415448 
 10130      20307830 
 10131 8157 01       		.byte	0x1
 10132 8158 7F       		.uleb128 0x7f
 10133 8159 41435049 		.ascii "ACPI_DP 0x01\0"
 10133      5F445020 
 10133      30783031 
 10133      00
 10134 8166 01       		.byte	0x1
 10135 8167 8601     		.uleb128 0x86
 10136 8169 45585041 		.ascii "EXPANDED_ACPI_DP 0x02\0"
 10136      4E444544 
 10136      5F414350 
 10136      495F4450 
 10136      20307830 
 10137 817f 01       		.byte	0x1
 10138 8180 8F01     		.uleb128 0x8f
 10139 8182 41435049 		.ascii "ACPI_ADR_DP 3\0"
 10139      5F414452 
 10139      5F445020 
 10139      3300
 10140 8190 01       		.byte	0x1
 10141 8191 9C01     		.uleb128 0x9c
 10142 8193 504E505F 		.ascii "PNP_EISA_ID_CONST 0x41d0\0"
 10142      45495341 
 10142      5F49445F 
 10142      434F4E53 
 10142      54203078 
 10143 81ac 01       		.byte	0x1
 10144 81ad 9D01     		.uleb128 0x9d
 10145 81af 45495341 		.ascii "EISA_ID(_Name,_Num) ((UINT32) ((_Name) | (_Num) << 16))\0"
 10145      5F494428 
 10145      5F4E616D 
 10145      652C5F4E 
 10145      756D2920 
 10146 81e7 01       		.byte	0x1
 10147 81e8 9E01     		.uleb128 0x9e
 10148 81ea 45495341 		.ascii "EISA_PNP_ID(_PNPId) (EISA_ID(PNP_EISA_ID_CONST, (_PNPId)))\0"
 10148      5F504E50 
 10148      5F494428 
 10148      5F504E50 
 10148      49642920 
 10149 8225 01       		.byte	0x1
 10150 8226 A001     		.uleb128 0xa0
 10151 8228 504E505F 		.ascii "PNP_EISA_ID_MASK 0xffff\0"
 10151      45495341 
 10151      5F49445F 
 10151      4D41534B 
 10151      20307866 
 10152 8240 01       		.byte	0x1
 10153 8241 A101     		.uleb128 0xa1
 10154 8243 45495341 		.ascii "EISA_ID_TO_NUM(_Id) ((_Id) >> 16)\0"
 10154      5F49445F 
 10154      544F5F4E 
 10154      554D285F 
 10154      49642920 
 10155 8265 01       		.byte	0x1
 10156 8266 A701     		.uleb128 0xa7
 10157 8268 4D455353 		.ascii "MESSAGING_DEVICE_PATH 0x03\0"
 10157      4147494E 
 10157      475F4445 
 10157      56494345 
 10157      5F504154 
 10158 8283 01       		.byte	0x1
 10159 8284 A901     		.uleb128 0xa9
 10160 8286 4D53475F 		.ascii "MSG_ATAPI_DP 0x01\0"
 10160      41544150 
 10160      495F4450 
 10160      20307830 
 10160      3100
 10161 8298 01       		.byte	0x1
 10162 8299 B101     		.uleb128 0xb1
 10163 829b 4D53475F 		.ascii "MSG_SCSI_DP 0x02\0"
 10163      53435349 
 10163      5F445020 
 10163      30783032 
 10163      00
 10164 82ac 01       		.byte	0x1
 10165 82ad B801     		.uleb128 0xb8
 10166 82af 4D53475F 		.ascii "MSG_FIBRECHANNEL_DP 0x03\0"
 10166      46494252 
 10166      45434841 
 10166      4E4E454C 
 10166      5F445020 
 10167 82c8 01       		.byte	0x1
 10168 82c9 C401     		.uleb128 0xc4
 10169 82cb 4D53475F 		.ascii "MSG_FIBRECHANNELEX_DP 21\0"
 10169      46494252 
 10169      45434841 
 10169      4E4E454C 
 10169      45585F44 
 10170 82e4 01       		.byte	0x1
 10171 82e5 CC01     		.uleb128 0xcc
 10172 82e7 4D53475F 		.ascii "MSG_1394_DP 0x04\0"
 10172      31333934 
 10172      5F445020 
 10172      30783034 
 10172      00
 10173 82f8 01       		.byte	0x1
 10174 82f9 D301     		.uleb128 0xd3
 10175 82fb 4D53475F 		.ascii "MSG_USB_DP 0x05\0"
 10175      5553425F 
 10175      44502030 
 10175      78303500 
 10176 830b 01       		.byte	0x1
 10177 830c DE01     		.uleb128 0xde
 10178 830e 4D53475F 		.ascii "MSG_SATA_DP 18\0"
 10178      53415441 
 10178      5F445020 
 10178      313800
 10179 831d 01       		.byte	0x1
 10180 831e EA01     		.uleb128 0xea
 10181 8320 4D53475F 		.ascii "MSG_USB_WWID_DP 16\0"
 10181      5553425F 
 10181      57574944 
 10181      5F445020 
 10181      313600
 10182 8333 01       		.byte	0x1
 10183 8334 F701     		.uleb128 0xf7
 10184 8336 4D53475F 		.ascii "MSG_DEVICE_LOGICAL_UNIT_DP 17\0"
 10184      44455649 
 10184      43455F4C 
 10184      4F474943 
 10184      414C5F55 
 10185 8354 01       		.byte	0x1
 10186 8355 FD01     		.uleb128 0xfd
 10187 8357 4D53475F 		.ascii "MSG_USB_CLASS_DP 0x0F\0"
 10187      5553425F 
 10187      434C4153 
 10187      535F4450 
 10187      20307830 
 10188 836d 01       		.byte	0x1
 10189 836e 8702     		.uleb128 0x107
 10190 8370 4D53475F 		.ascii "MSG_I2O_DP 0x06\0"
 10190      49324F5F 
 10190      44502030 
 10190      78303600 
 10191 8380 01       		.byte	0x1
 10192 8381 8D02     		.uleb128 0x10d
 10193 8383 4D53475F 		.ascii "MSG_MAC_ADDR_DP 0x0b\0"
 10193      4D41435F 
 10193      41444452 
 10193      5F445020 
 10193      30783062 
 10194 8398 01       		.byte	0x1
 10195 8399 9402     		.uleb128 0x114
 10196 839b 4D53475F 		.ascii "MSG_IPv4_DP 0x0c\0"
 10196      49507634 
 10196      5F445020 
 10196      30783063 
 10196      00
 10197 83ac 01       		.byte	0x1
 10198 83ad A202     		.uleb128 0x122
 10199 83af 4D53475F 		.ascii "MSG_IPv6_DP 0x0d\0"
 10199      49507636 
 10199      5F445020 
 10199      30783064 
 10199      00
 10200 83c0 01       		.byte	0x1
 10201 83c1 B502     		.uleb128 0x135
 10202 83c3 4D53475F 		.ascii "MSG_URI_DP 24\0"
 10202      5552495F 
 10202      44502032 
 10202      3400
 10203 83d1 01       		.byte	0x1
 10204 83d2 BF02     		.uleb128 0x13f
 10205 83d4 4D53475F 		.ascii "MSG_VLAN_DP 20\0"
 10205      564C414E 
 10205      5F445020 
 10205      323000
 10206 83e3 01       		.byte	0x1
 10207 83e4 C502     		.uleb128 0x145
 10208 83e6 4D53475F 		.ascii "MSG_INFINIBAND_DP 0x09\0"
 10208      494E4649 
 10208      4E494241 
 10208      4E445F44 
 10208      50203078 
 10209 83fd 01       		.byte	0x1
 10210 83fe CF02     		.uleb128 0x14f
 10211 8400 4D53475F 		.ascii "MSG_UART_DP 0x0e\0"
 10211      55415254 
 10211      5F445020 
 10211      30783065 
 10211      00
 10212 8411 01       		.byte	0x1
 10213 8412 D902     		.uleb128 0x159
 10214 8414 4D53475F 		.ascii "MSG_VENDOR_DP 0x0A\0"
 10214      56454E44 
 10214      4F525F44 
 10214      50203078 
 10214      304100
 10215 8427 01       		.byte	0x1
 10216 8428 DC02     		.uleb128 0x15c
 10217 842a 4546495F 		.ascii "EFI_PC_ANSI_GUID { 0xe0c14753, 0xf9be, 0x11d2, {0x9a, 0x0c, 0x00, 0x90, 0x27, 0x3f, 0xc1, 
 10217      50435F41 
 10217      4E53495F 
 10217      47554944 
 10217      207B2030 
 10218 848c 01       		.byte	0x1
 10219 848d DE02     		.uleb128 0x15e
 10220 848f 44455649 		.ascii "DEVICE_PATH_MESSAGING_PC_ANSI EFI_PC_ANSI_GUID\0"
 10220      43455F50 
 10220      4154485F 
 10220      4D455353 
 10220      4147494E 
 10221 84be 01       		.byte	0x1
 10222 84bf E002     		.uleb128 0x160
 10223 84c1 4546495F 		.ascii "EFI_VT_100_GUID { 0xdfa66065, 0xb419, 0x11d3, {0x9a, 0x2d, 0x00, 0x90, 0x27, 0x3f, 0xc1, 0
 10223      56545F31 
 10223      30305F47 
 10223      55494420 
 10223      7B203078 
 10224 8522 01       		.byte	0x1
 10225 8523 E202     		.uleb128 0x162
 10226 8525 44455649 		.ascii "DEVICE_PATH_MESSAGING_VT_100 EFI_VT_100_GUID\0"
 10226      43455F50 
 10226      4154485F 
 10226      4D455353 
 10226      4147494E 
 10227 8552 01       		.byte	0x1
 10228 8553 E402     		.uleb128 0x164
 10229 8555 4546495F 		.ascii "EFI_VT_100_PLUS_GUID { 0x7baec70b, 0x57e0, 0x4c76, {0x8e, 0x87, 0x2f, 0x9e, 0x28, 0x08, 0x
 10229      56545F31 
 10229      30305F50 
 10229      4C55535F 
 10229      47554944 
 10230 85bb 01       		.byte	0x1
 10231 85bc E602     		.uleb128 0x166
 10232 85be 44455649 		.ascii "DEVICE_PATH_MESSAGING_VT_100_PLUS EFI_VT_100_PLUS_GUID\0"
 10232      43455F50 
 10232      4154485F 
 10232      4D455353 
 10232      4147494E 
 10233 85f5 01       		.byte	0x1
 10234 85f6 E802     		.uleb128 0x168
 10235 85f8 4546495F 		.ascii "EFI_VT_UTF8_GUID { 0xad15a0d6, 0x8bec, 0x4acf, {0xa0, 0x73, 0xd0, 0x1d, 0xe7, 0x7e, 0x2d, 
 10235      56545F55 
 10235      5446385F 
 10235      47554944 
 10235      207B2030 
 10236 865a 01       		.byte	0x1
 10237 865b EA02     		.uleb128 0x16a
 10238 865d 44455649 		.ascii "DEVICE_PATH_MESSAGING_VT_UTF8 EFI_VT_UTF8_GUID\0"
 10238      43455F50 
 10238      4154485F 
 10238      4D455353 
 10238      4147494E 
 10239 868c 01       		.byte	0x1
 10240 868d F002     		.uleb128 0x170
 10241 868f 4D454449 		.ascii "MEDIA_DEVICE_PATH 0x04\0"
 10241      415F4445 
 10241      56494345 
 10241      5F504154 
 10241      48203078 
 10242 86a6 01       		.byte	0x1
 10243 86a7 F202     		.uleb128 0x172
 10244 86a9 4D454449 		.ascii "MEDIA_HARDDRIVE_DP 0x01\0"
 10244      415F4841 
 10244      52444452 
 10244      4956455F 
 10244      44502030 
 10245 86c1 01       		.byte	0x1
 10246 86c2 FD02     		.uleb128 0x17d
 10247 86c4 4D42525F 		.ascii "MBR_TYPE_PCAT 0x01\0"
 10247      54595045 
 10247      5F504341 
 10247      54203078 
 10247      303100
 10248 86d7 01       		.byte	0x1
 10249 86d8 FE02     		.uleb128 0x17e
 10250 86da 4D42525F 		.ascii "MBR_TYPE_EFI_PARTITION_TABLE_HEADER 0x02\0"
 10250      54595045 
 10250      5F454649 
 10250      5F504152 
 10250      54495449 
 10251 8703 01       		.byte	0x1
 10252 8704 8003     		.uleb128 0x180
 10253 8706 5349474E 		.ascii "SIGNATURE_TYPE_MBR 0x01\0"
 10253      41545552 
 10253      455F5459 
 10253      50455F4D 
 10253      42522030 
 10254 871e 01       		.byte	0x1
 10255 871f 8103     		.uleb128 0x181
 10256 8721 5349474E 		.ascii "SIGNATURE_TYPE_GUID 0x02\0"
 10256      41545552 
 10256      455F5459 
 10256      50455F47 
 10256      55494420 
 10257 873a 01       		.byte	0x1
 10258 873b 8303     		.uleb128 0x183
 10259 873d 4D454449 		.ascii "MEDIA_CDROM_DP 0x02\0"
 10259      415F4344 
 10259      524F4D5F 
 10259      44502030 
 10259      78303200 
 10260 8751 01       		.byte	0x1
 10261 8752 8B03     		.uleb128 0x18b
 10262 8754 4D454449 		.ascii "MEDIA_VENDOR_DP 0x03\0"
 10262      415F5645 
 10262      4E444F52 
 10262      5F445020 
 10262      30783033 
 10263 8769 01       		.byte	0x1
 10264 876a 8E03     		.uleb128 0x18e
 10265 876c 4D454449 		.ascii "MEDIA_FILEPATH_DP 0x04\0"
 10265      415F4649 
 10265      4C455041 
 10265      54485F44 
 10265      50203078 
 10266 8783 01       		.byte	0x1
 10267 8784 9403     		.uleb128 0x194
 10268 8786 53495A45 		.ascii "SIZE_OF_FILEPATH_DEVICE_PATH EFI_FIELD_OFFSET(FILEPATH_DEVICE_PATH,PathName)\0"
 10268      5F4F465F 
 10268      46494C45 
 10268      50415448 
 10268      5F444556 
 10269 87d3 01       		.byte	0x1
 10270 87d4 9603     		.uleb128 0x196
 10271 87d6 4D454449 		.ascii "MEDIA_PROTOCOL_DP 0x05\0"
 10271      415F5052 
 10271      4F544F43 
 10271      4F4C5F44 
 10271      50203078 
 10272 87ed 01       		.byte	0x1
 10273 87ee A003     		.uleb128 0x1a0
 10274 87f0 4D454449 		.ascii "MEDIA_PIWG_FW_FILE_DP 6\0"
 10274      415F5049 
 10274      57475F46 
 10274      575F4649 
 10274      4C455F44 
 10275 8808 01       		.byte	0x1
 10276 8809 AA03     		.uleb128 0x1aa
 10277 880b 4D454449 		.ascii "MEDIA_PIWG_FW_VOL_DP 7\0"
 10277      415F5049 
 10277      57475F46 
 10277      575F564F 
 10277      4C5F4450 
 10278 8822 01       		.byte	0x1
 10279 8823 B403     		.uleb128 0x1b4
 10280 8825 4D454449 		.ascii "MEDIA_RELATIVE_OFFSET_RANGE_DP 8\0"
 10280      415F5245 
 10280      4C415449 
 10280      56455F4F 
 10280      46465345 
 10281 8846 01       		.byte	0x1
 10282 8847 C003     		.uleb128 0x1c0
 10283 8849 4242535F 		.ascii "BBS_DEVICE_PATH 0x05\0"
 10283      44455649 
 10283      43455F50 
 10283      41544820 
 10283      30783035 
 10284 885e 01       		.byte	0x1
 10285 885f C203     		.uleb128 0x1c2
 10286 8861 4242535F 		.ascii "BBS_BBS_DP 0x01\0"
 10286      4242535F 
 10286      44502030 
 10286      78303100 
 10287 8871 01       		.byte	0x1
 10288 8872 CB03     		.uleb128 0x1cb
 10289 8874 4242535F 		.ascii "BBS_TYPE_FLOPPY 0x01\0"
 10289      54595045 
 10289      5F464C4F 
 10289      50505920 
 10289      30783031 
 10290 8889 01       		.byte	0x1
 10291 888a CC03     		.uleb128 0x1cc
 10292 888c 4242535F 		.ascii "BBS_TYPE_HARDDRIVE 0x02\0"
 10292      54595045 
 10292      5F484152 
 10292      44445249 
 10292      56452030 
 10293 88a4 01       		.byte	0x1
 10294 88a5 CD03     		.uleb128 0x1cd
 10295 88a7 4242535F 		.ascii "BBS_TYPE_CDROM 0x03\0"
 10295      54595045 
 10295      5F434452 
 10295      4F4D2030 
 10295      78303300 
 10296 88bb 01       		.byte	0x1
 10297 88bc CE03     		.uleb128 0x1ce
 10298 88be 4242535F 		.ascii "BBS_TYPE_PCMCIA 0x04\0"
 10298      54595045 
 10298      5F50434D 
 10298      43494120 
 10298      30783034 
 10299 88d3 01       		.byte	0x1
 10300 88d4 CF03     		.uleb128 0x1cf
 10301 88d6 4242535F 		.ascii "BBS_TYPE_USB 0x05\0"
 10301      54595045 
 10301      5F555342 
 10301      20307830 
 10301      3500
 10302 88e8 01       		.byte	0x1
 10303 88e9 D003     		.uleb128 0x1d0
 10304 88eb 4242535F 		.ascii "BBS_TYPE_EMBEDDED_NETWORK 0x06\0"
 10304      54595045 
 10304      5F454D42 
 10304      45444445 
 10304      445F4E45 
 10305 890a 01       		.byte	0x1
 10306 890b D103     		.uleb128 0x1d1
 10307 890d 4242535F 		.ascii "BBS_TYPE_DEV 0x80\0"
 10307      54595045 
 10307      5F444556 
 10307      20307838 
 10307      3000
 10308 891f 01       		.byte	0x1
 10309 8920 D203     		.uleb128 0x1d2
 10310 8922 4242535F 		.ascii "BBS_TYPE_UNKNOWN 0xFF\0"
 10310      54595045 
 10310      5F554E4B 
 10310      4E4F574E 
 10310      20307846 
 10311 8938 01       		.byte	0x1
 10312 8939 9A04     		.uleb128 0x21a
 10313 893b 4546495F 		.ascii "EFI_DEVICE_PATH_TO_TEXT_PROTOCOL_GUID { 0x8b843e20, 0x8132, 0x4852, {0x90, 0xcc, 0x55, 0x1
 10313      44455649 
 10313      43455F50 
 10313      4154485F 
 10313      544F5F54 
 10314 89b2 01       		.byte	0x1
 10315 89b3 B204     		.uleb128 0x232
 10316 89b5 4546495F 		.ascii "EFI_DEVICE_PATH_FROM_TEXT_PROTOCOL_GUID { 0x5c99a21, 0xc70f, 0x4ad2, {0x8a, 0x5f, 0x35, 0x
 10316      44455649 
 10316      43455F50 
 10316      4154485F 
 10316      46524F4D 
 10317 8a2d 01       		.byte	0x1
 10318 8a2e C604     		.uleb128 0x246
 10319 8a30 4546495F 		.ascii "EFI_DEVICE_PATH_UTILITIES_PROTOCOL_GUID { 0x379be4e, 0xd706, 0x437d, {0xb0, 0x37, 0xed, 0x
 10319      44455649 
 10319      43455F50 
 10319      4154485F 
 10319      5554494C 
 10320 8aa8 04       		.byte	0x4
 10321              		.file 22 "gnu-efi-3.0.18/inc/efipciio.h"
 10322 8aa9 03       		.byte	0x3
 10323 8aaa 44       		.uleb128 0x44
 10324 8aab 16       		.uleb128 0x16
 10325 8aac 01       		.byte	0x1
 10326 8aad 02       		.uleb128 0x2
 10327 8aae 5F454649 		.ascii "_EFI_PCI_IO_H \0"
 10327      5F504349 
 10327      5F494F5F 
 10327      482000
 10328 8abd 01       		.byte	0x1
 10329 8abe 04       		.uleb128 0x4
 10330 8abf 4546495F 		.ascii "EFI_PCI_IO_PROTOCOL_GUID { 0x4cf5b200, 0x68b8, 0x4ca5, {0x9e, 0xec, 0xb2, 0x3e, 0x3f, 0x50
 10330      5043495F 
 10330      494F5F50 
 10330      524F544F 
 10330      434F4C5F 
 10331 8b29 01       		.byte	0x1
 10332 8b2a 07       		.uleb128 0x7
 10333 8b2b 4546495F 		.ascii "EFI_PCI_ROOT_BRIDGE_IO_PROTOCOL_GUID { 0x2f707ebb, 0x4a1a, 0x11d4, {0x9a, 0x38, 0x00, 0x90
 10333      5043495F 
 10333      524F4F54 
 10333      5F425249 
 10333      4447455F 
 10334 8ba1 01       		.byte	0x1
 10335 8ba2 1D       		.uleb128 0x1d
 10336 8ba3 4546495F 		.ascii "EFI_PCI_IO_PASS_THROUGH_BAR 0xff\0"
 10336      5043495F 
 10336      494F5F50 
 10336      4153535F 
 10336      5448524F 
 10337 8bc4 01       		.byte	0x1
 10338 8bc5 F401     		.uleb128 0xf4
 10339 8bc7 4546495F 		.ascii "EFI_PCI_ATTRIBUTE_ISA_MOTHERBOARD_IO 0x0001\0"
 10339      5043495F 
 10339      41545452 
 10339      49425554 
 10339      455F4953 
 10340 8bf3 01       		.byte	0x1
 10341 8bf4 F501     		.uleb128 0xf5
 10342 8bf6 4546495F 		.ascii "EFI_PCI_ATTRIBUTE_ISA_IO 0x0002\0"
 10342      5043495F 
 10342      41545452 
 10342      49425554 
 10342      455F4953 
 10343 8c16 01       		.byte	0x1
 10344 8c17 F601     		.uleb128 0xf6
 10345 8c19 4546495F 		.ascii "EFI_PCI_ATTRIBUTE_VGA_PALETTE_IO 0x0004\0"
 10345      5043495F 
 10345      41545452 
 10345      49425554 
 10345      455F5647 
 10346 8c41 01       		.byte	0x1
 10347 8c42 F701     		.uleb128 0xf7
 10348 8c44 4546495F 		.ascii "EFI_PCI_ATTRIBUTE_VGA_MEMORY 0x0008\0"
 10348      5043495F 
 10348      41545452 
 10348      49425554 
 10348      455F5647 
 10349 8c68 01       		.byte	0x1
 10350 8c69 F801     		.uleb128 0xf8
 10351 8c6b 4546495F 		.ascii "EFI_PCI_ATTRIBUTE_VGA_IO 0x0010\0"
 10351      5043495F 
 10351      41545452 
 10351      49425554 
 10351      455F5647 
 10352 8c8b 01       		.byte	0x1
 10353 8c8c F901     		.uleb128 0xf9
 10354 8c8e 4546495F 		.ascii "EFI_PCI_ATTRIBUTE_IDE_PRIMARY_IO 0x0020\0"
 10354      5043495F 
 10354      41545452 
 10354      49425554 
 10354      455F4944 
 10355 8cb6 01       		.byte	0x1
 10356 8cb7 FA01     		.uleb128 0xfa
 10357 8cb9 4546495F 		.ascii "EFI_PCI_ATTRIBUTE_IDE_SECONDARY_IO 0x0040\0"
 10357      5043495F 
 10357      41545452 
 10357      49425554 
 10357      455F4944 
 10358 8ce3 01       		.byte	0x1
 10359 8ce4 FB01     		.uleb128 0xfb
 10360 8ce6 4546495F 		.ascii "EFI_PCI_ATTRIBUTE_MEMORY_WRITE_COMBINE 0x0080\0"
 10360      5043495F 
 10360      41545452 
 10360      49425554 
 10360      455F4D45 
 10361 8d14 01       		.byte	0x1
 10362 8d15 FC01     		.uleb128 0xfc
 10363 8d17 4546495F 		.ascii "EFI_PCI_ATTRIBUTE_IO 0x0100\0"
 10363      5043495F 
 10363      41545452 
 10363      49425554 
 10363      455F494F 
 10364 8d33 01       		.byte	0x1
 10365 8d34 FD01     		.uleb128 0xfd
 10366 8d36 4546495F 		.ascii "EFI_PCI_ATTRIBUTE_MEMORY 0x0200\0"
 10366      5043495F 
 10366      41545452 
 10366      49425554 
 10366      455F4D45 
 10367 8d56 01       		.byte	0x1
 10368 8d57 FE01     		.uleb128 0xfe
 10369 8d59 4546495F 		.ascii "EFI_PCI_ATTRIBUTE_BUS_MASTER 0x0400\0"
 10369      5043495F 
 10369      41545452 
 10369      49425554 
 10369      455F4255 
 10370 8d7d 01       		.byte	0x1
 10371 8d7e FF01     		.uleb128 0xff
 10372 8d80 4546495F 		.ascii "EFI_PCI_ATTRIBUTE_MEMORY_CACHED 0x0800\0"
 10372      5043495F 
 10372      41545452 
 10372      49425554 
 10372      455F4D45 
 10373 8da7 01       		.byte	0x1
 10374 8da8 8002     		.uleb128 0x100
 10375 8daa 4546495F 		.ascii "EFI_PCI_ATTRIBUTE_MEMORY_DISABLE 0x1000\0"
 10375      5043495F 
 10375      41545452 
 10375      49425554 
 10375      455F4D45 
 10376 8dd2 01       		.byte	0x1
 10377 8dd3 8102     		.uleb128 0x101
 10378 8dd5 4546495F 		.ascii "EFI_PCI_ATTRIBUTE_EMBEDDED_DEVICE 0x2000\0"
 10378      5043495F 
 10378      41545452 
 10378      49425554 
 10378      455F454D 
 10379 8dfe 01       		.byte	0x1
 10380 8dff 8202     		.uleb128 0x102
 10381 8e01 4546495F 		.ascii "EFI_PCI_ATTRIBUTE_EMBEDDED_ROM 0x4000\0"
 10381      5043495F 
 10381      41545452 
 10381      49425554 
 10381      455F454D 
 10382 8e27 01       		.byte	0x1
 10383 8e28 8302     		.uleb128 0x103
 10384 8e2a 4546495F 		.ascii "EFI_PCI_ATTRIBUTE_DUAL_ADDRESS_CYCLE 0x8000\0"
 10384      5043495F 
 10384      41545452 
 10384      49425554 
 10384      455F4455 
 10385 8e56 01       		.byte	0x1
 10386 8e57 8402     		.uleb128 0x104
 10387 8e59 4546495F 		.ascii "EFI_PCI_ATTRIBUTE_ISA_IO_16 0x10000\0"
 10387      5043495F 
 10387      41545452 
 10387      49425554 
 10387      455F4953 
 10388 8e7d 01       		.byte	0x1
 10389 8e7e 8502     		.uleb128 0x105
 10390 8e80 4546495F 		.ascii "EFI_PCI_ATTRIBUTE_VGA_PALETTE_IO_16 0x20000\0"
 10390      5043495F 
 10390      41545452 
 10390      49425554 
 10390      455F5647 
 10391 8eac 01       		.byte	0x1
 10392 8ead 8602     		.uleb128 0x106
 10393 8eaf 4546495F 		.ascii "EFI_PCI_ATTRIBUTE_VGA_IO_16 0x40000\0"
 10393      5043495F 
 10393      41545452 
 10393      49425554 
 10393      455F5647 
 10394 8ed3 01       		.byte	0x1
 10395 8ed4 8802     		.uleb128 0x108
 10396 8ed6 4546495F 		.ascii "EFI_PCI_IO_ATTRIBUTE_ISA_MOTHERBOARD_IO EFI_PCI_ATTRIBUTE_ISA_MOTHERBOARD_IO\0"
 10396      5043495F 
 10396      494F5F41 
 10396      54545249 
 10396      42555445 
 10397 8f23 01       		.byte	0x1
 10398 8f24 8902     		.uleb128 0x109
 10399 8f26 4546495F 		.ascii "EFI_PCI_IO_ATTRIBUTE_ISA_IO EFI_PCI_ATTRIBUTE_ISA_IO\0"
 10399      5043495F 
 10399      494F5F41 
 10399      54545249 
 10399      42555445 
 10400 8f5b 01       		.byte	0x1
 10401 8f5c 8A02     		.uleb128 0x10a
 10402 8f5e 4546495F 		.ascii "EFI_PCI_IO_ATTRIBUTE_VGA_PALETTE_IO EFI_PCI_ATTRIBUTE_VGA_PALETTE_IO\0"
 10402      5043495F 
 10402      494F5F41 
 10402      54545249 
 10402      42555445 
 10403 8fa3 01       		.byte	0x1
 10404 8fa4 8B02     		.uleb128 0x10b
 10405 8fa6 4546495F 		.ascii "EFI_PCI_IO_ATTRIBUTE_VGA_MEMORY EFI_PCI_ATTRIBUTE_VGA_MEMORY\0"
 10405      5043495F 
 10405      494F5F41 
 10405      54545249 
 10405      42555445 
 10406 8fe3 01       		.byte	0x1
 10407 8fe4 8C02     		.uleb128 0x10c
 10408 8fe6 4546495F 		.ascii "EFI_PCI_IO_ATTRIBUTE_VGA_IO EFI_PCI_ATTRIBUTE_VGA_IO\0"
 10408      5043495F 
 10408      494F5F41 
 10408      54545249 
 10408      42555445 
 10409 901b 01       		.byte	0x1
 10410 901c 8D02     		.uleb128 0x10d
 10411 901e 4546495F 		.ascii "EFI_PCI_IO_ATTRIBUTE_IDE_PRIMARY_IO EFI_PCI_ATTRIBUTE_IDE_PRIMARY_IO\0"
 10411      5043495F 
 10411      494F5F41 
 10411      54545249 
 10411      42555445 
 10412 9063 01       		.byte	0x1
 10413 9064 8E02     		.uleb128 0x10e
 10414 9066 4546495F 		.ascii "EFI_PCI_IO_ATTRIBUTE_IDE_SECONDARY_IO EFI_PCI_ATTRIBUTE_IDE_SECONDARY_IO\0"
 10414      5043495F 
 10414      494F5F41 
 10414      54545249 
 10414      42555445 
 10415 90af 01       		.byte	0x1
 10416 90b0 8F02     		.uleb128 0x10f
 10417 90b2 4546495F 		.ascii "EFI_PCI_IO_ATTRIBUTE_MEMORY_WRITE_COMBINE EFI_PCI_ATTRIBUTE_MEMORY_WRITE_COMBINE\0"
 10417      5043495F 
 10417      494F5F41 
 10417      54545249 
 10417      42555445 
 10418 9103 01       		.byte	0x1
 10419 9104 9002     		.uleb128 0x110
 10420 9106 4546495F 		.ascii "EFI_PCI_IO_ATTRIBUTE_IO EFI_PCI_ATTRIBUTE_IO\0"
 10420      5043495F 
 10420      494F5F41 
 10420      54545249 
 10420      42555445 
 10421 9133 01       		.byte	0x1
 10422 9134 9102     		.uleb128 0x111
 10423 9136 4546495F 		.ascii "EFI_PCI_IO_ATTRIBUTE_MEMORY EFI_PCI_ATTRIBUTE_MEMORY\0"
 10423      5043495F 
 10423      494F5F41 
 10423      54545249 
 10423      42555445 
 10424 916b 01       		.byte	0x1
 10425 916c 9202     		.uleb128 0x112
 10426 916e 4546495F 		.ascii "EFI_PCI_IO_ATTRIBUTE_BUS_MASTER EFI_PCI_ATTRIBUTE_BUS_MASTER\0"
 10426      5043495F 
 10426      494F5F41 
 10426      54545249 
 10426      42555445 
 10427 91ab 01       		.byte	0x1
 10428 91ac 9302     		.uleb128 0x113
 10429 91ae 4546495F 		.ascii "EFI_PCI_IO_ATTRIBUTE_MEMORY_CACHED EFI_PCI_ATTRIBUTE_MEMORY_CACHED\0"
 10429      5043495F 
 10429      494F5F41 
 10429      54545249 
 10429      42555445 
 10430 91f1 01       		.byte	0x1
 10431 91f2 9402     		.uleb128 0x114
 10432 91f4 4546495F 		.ascii "EFI_PCI_IO_ATTRIBUTE_MEMORY_DISABLE EFI_PCI_ATTRIBUTE_MEMORY_DISABLE\0"
 10432      5043495F 
 10432      494F5F41 
 10432      54545249 
 10432      42555445 
 10433 9239 01       		.byte	0x1
 10434 923a 9502     		.uleb128 0x115
 10435 923c 4546495F 		.ascii "EFI_PCI_IO_ATTRIBUTE_EMBEDDED_DEVICE EFI_PCI_ATTRIBUTE_EMBEDDED_DEVICE\0"
 10435      5043495F 
 10435      494F5F41 
 10435      54545249 
 10435      42555445 
 10436 9283 01       		.byte	0x1
 10437 9284 9602     		.uleb128 0x116
 10438 9286 4546495F 		.ascii "EFI_PCI_IO_ATTRIBUTE_EMBEDDED_ROM EFI_PCI_ATTRIBUTE_EMBEDDED_ROM\0"
 10438      5043495F 
 10438      494F5F41 
 10438      54545249 
 10438      42555445 
 10439 92c7 01       		.byte	0x1
 10440 92c8 9702     		.uleb128 0x117
 10441 92ca 4546495F 		.ascii "EFI_PCI_IO_ATTRIBUTE_DUAL_ADDRESS_CYCLE EFI_PCI_ATTRIBUTE_DUAL_ADDRESS_CYCLE\0"
 10441      5043495F 
 10441      494F5F41 
 10441      54545249 
 10441      42555445 
 10442 9317 01       		.byte	0x1
 10443 9318 9802     		.uleb128 0x118
 10444 931a 4546495F 		.ascii "EFI_PCI_IO_ATTRIBUTE_ISA_IO_16 EFI_PCI_ATTRIBUTE_ISA_IO_16\0"
 10444      5043495F 
 10444      494F5F41 
 10444      54545249 
 10444      42555445 
 10445 9355 01       		.byte	0x1
 10446 9356 9902     		.uleb128 0x119
 10447 9358 4546495F 		.ascii "EFI_PCI_IO_ATTRIBUTE_VGA_PALETTE_IO_16 EFI_PCI_ATTRIBUTE_VGA_PALETTE_IO_16\0"
 10447      5043495F 
 10447      494F5F41 
 10447      54545249 
 10447      42555445 
 10448 93a3 01       		.byte	0x1
 10449 93a4 9A02     		.uleb128 0x11a
 10450 93a6 4546495F 		.ascii "EFI_PCI_IO_ATTRIBUTE_VGA_IO_16 EFI_PCI_ATTRIBUTE_VGA_IO_16\0"
 10450      5043495F 
 10450      494F5F41 
 10450      54545249 
 10450      42555445 
 10451 93e1 01       		.byte	0x1
 10452 93e2 9C02     		.uleb128 0x11c
 10453 93e4 4546495F 		.ascii "EFI_PCI_ATTRIBUTE_VALID_FOR_ALLOCATE_BUFFER (EFI_PCI_ATTRIBUTE_MEMORY_WRITE_COMBINE | EFI_
 10453      5043495F 
 10453      41545452 
 10453      49425554 
 10453      455F5641 
 10454 9482 01       		.byte	0x1
 10455 9483 9F02     		.uleb128 0x11f
 10456 9485 4546495F 		.ascii "EFI_PCI_ATTRIBUTE_INVALID_FOR_ALLOCATE_BUFFER (~EFI_PCI_ATTRIBUTE_VALID_FOR_ALLOCATE_BUFFE
 10456      5043495F 
 10456      41545452 
 10456      49425554 
 10456      455F494E 
 10457 94e2 04       		.byte	0x4
 10458 94e3 03       		.byte	0x3
 10459 94e4 45       		.uleb128 0x45
 10460 94e5 08       		.uleb128 0x8
 10461 94e6 01       		.byte	0x1
 10462 94e7 02       		.uleb128 0x2
 10463 94e8 5F454649 		.ascii "_EFI_PROT_H \0"
 10463      5F50524F 
 10463      545F4820 
 10463      00
 10464 94f5 01       		.byte	0x1
 10465 94f6 19       		.uleb128 0x19
 10466 94f7 4546495F 		.ascii "EFI_FPSWA_PROTOCOL_GUID { 0xc41b6531, 0x97b9, 0x11d3, {0x9a, 0x29, 0x0, 0x90, 0x27, 0x3f, 
 10466      46505357 
 10466      415F5052 
 10466      4F544F43 
 10466      4F4C5F47 
 10467 955f 01       		.byte	0x1
 10468 9560 1B       		.uleb128 0x1b
 10469 9561 46505357 		.ascii "FPSWA_PROTOCOL EFI_FPSWA_PROTOCOL_GUID\0"
 10469      415F5052 
 10469      4F544F43 
 10469      4F4C2045 
 10469      46495F46 
 10470 9588 01       		.byte	0x1
 10471 9589 21       		.uleb128 0x21
 10472 958a 4546495F 		.ascii "EFI_DEVICE_PATH_PROTOCOL_GUID { 0x9576e91, 0x6d3f, 0x11d2, {0x8e, 0x39, 0x0, 0xa0, 0xc9, 0
 10472      44455649 
 10472      43455F50 
 10472      4154485F 
 10472      50524F54 
 10473 95f7 01       		.byte	0x1
 10474 95f8 23       		.uleb128 0x23
 10475 95f9 44455649 		.ascii "DEVICE_PATH_PROTOCOL EFI_DEVICE_PATH_PROTOCOL_GUID\0"
 10475      43455F50 
 10475      4154485F 
 10475      50524F54 
 10475      4F434F4C 
 10476 962c 01       		.byte	0x1
 10477 962d 2A       		.uleb128 0x2a
 10478 962e 4546495F 		.ascii "EFI_BLOCK_IO_PROTOCOL_GUID { 0x964e5b21, 0x6459, 0x11d2, {0x8e, 0x39, 0x0, 0xa0, 0xc9, 0x6
 10478      424C4F43 
 10478      4B5F494F 
 10478      5F50524F 
 10478      544F434F 
 10479 9699 01       		.byte	0x1
 10480 969a 2C       		.uleb128 0x2c
 10481 969b 424C4F43 		.ascii "BLOCK_IO_PROTOCOL EFI_BLOCK_IO_PROTOCOL_GUID\0"
 10481      4B5F494F 
 10481      5F50524F 
 10481      544F434F 
 10481      4C204546 
 10482 96c8 01       		.byte	0x1
 10483 96c9 2E       		.uleb128 0x2e
 10484 96ca 4546495F 		.ascii "EFI_BLOCK_IO_PROTOCOL_REVISION 0x00010000\0"
 10484      424C4F43 
 10484      4B5F494F 
 10484      5F50524F 
 10484      544F434F 
 10485 96f4 01       		.byte	0x1
 10486 96f5 2F       		.uleb128 0x2f
 10487 96f6 4546495F 		.ascii "EFI_BLOCK_IO_PROTOCOL_REVISION2 0x00020001\0"
 10487      424C4F43 
 10487      4B5F494F 
 10487      5F50524F 
 10487      544F434F 
 10488 9721 01       		.byte	0x1
 10489 9722 30       		.uleb128 0x30
 10490 9723 4546495F 		.ascii "EFI_BLOCK_IO_PROTOCOL_REVISION3 ((2<<16) | 31)\0"
 10490      424C4F43 
 10490      4B5F494F 
 10490      5F50524F 
 10490      544F434F 
 10491 9752 01       		.byte	0x1
 10492 9753 31       		.uleb128 0x31
 10493 9754 4546495F 		.ascii "EFI_BLOCK_IO_INTERFACE_REVISION EFI_BLOCK_IO_PROTOCOL_REVISION\0"
 10493      424C4F43 
 10493      4B5F494F 
 10493      5F494E54 
 10493      45524641 
 10494 9793 01       		.byte	0x1
 10495 9794 32       		.uleb128 0x32
 10496 9795 4546495F 		.ascii "EFI_BLOCK_IO_INTERFACE_REVISION2 EFI_BLOCK_IO_PROTOCOL_REVISION2\0"
 10496      424C4F43 
 10496      4B5F494F 
 10496      5F494E54 
 10496      45524641 
 10497 97d6 01       		.byte	0x1
 10498 97d7 33       		.uleb128 0x33
 10499 97d8 4546495F 		.ascii "EFI_BLOCK_IO_INTERFACE_REVISION3 EFI_BLOCK_IO_PROTOCOL_REVISION3\0"
 10499      424C4F43 
 10499      4B5F494F 
 10499      5F494E54 
 10499      45524641 
 10500 9819 01       		.byte	0x1
 10501 981a 8001     		.uleb128 0x80
 10502 981c 4546495F 		.ascii "EFI_BLOCK_IO2_PROTOCOL_GUID { 0xa77b2472, 0xe282, 0x4e9f, {0xa2, 0x45, 0xc2, 0xc0, 0xe2, 0
 10502      424C4F43 
 10502      4B5F494F 
 10502      325F5052 
 10502      4F544F43 
 10503 9889 01       		.byte	0x1
 10504 988a BA01     		.uleb128 0xba
 10505 988c 4546495F 		.ascii "EFI_DISK_IO_PROTOCOL_GUID { 0xce345171, 0xba0b, 0x11d2, {0x8e, 0x4f, 0x0, 0xa0, 0xc9, 0x69
 10505      4449534B 
 10505      5F494F5F 
 10505      50524F54 
 10505      4F434F4C 
 10506 98f6 01       		.byte	0x1
 10507 98f7 BC01     		.uleb128 0xbc
 10508 98f9 4449534B 		.ascii "DISK_IO_PROTOCOL EFI_DISK_IO_PROTOCOL_GUID\0"
 10508      5F494F5F 
 10508      50524F54 
 10508      4F434F4C 
 10508      20454649 
 10509 9924 01       		.byte	0x1
 10510 9925 BE01     		.uleb128 0xbe
 10511 9927 4546495F 		.ascii "EFI_DISK_IO_PROTOCOL_REVISION 0x00010000\0"
 10511      4449534B 
 10511      5F494F5F 
 10511      50524F54 
 10511      4F434F4C 
 10512 9950 01       		.byte	0x1
 10513 9951 BF01     		.uleb128 0xbf
 10514 9953 4546495F 		.ascii "EFI_DISK_IO_INTERFACE_REVISION EFI_DISK_IO_PROTOCOL_REVISION\0"
 10514      4449534B 
 10514      5F494F5F 
 10514      494E5445 
 10514      52464143 
 10515 9990 01       		.byte	0x1
 10516 9991 E301     		.uleb128 0xe3
 10517 9993 4546495F 		.ascii "EFI_DISK_IO2_PROTOCOL_GUID { 0x151c8eae, 0x7f2c, 0x472c, {0x9e, 0x54, 0x98, 0x28, 0x19, 0x
 10517      4449534B 
 10517      5F494F32 
 10517      5F50524F 
 10517      544F434F 
 10518 99ff 01       		.byte	0x1
 10519 9a00 E601     		.uleb128 0xe6
 10520 9a02 4546495F 		.ascii "EFI_DISK_IO2_PROTOCOL_REVISION 0x00020000\0"
 10520      4449534B 
 10520      5F494F32 
 10520      5F50524F 
 10520      544F434F 
 10521 9a2c 01       		.byte	0x1
 10522 9a2d 9E02     		.uleb128 0x11e
 10523 9a2f 4546495F 		.ascii "EFI_SIMPLE_FILE_SYSTEM_PROTOCOL_GUID { 0x964e5b22, 0x6459, 0x11d2, {0x8e, 0x39, 0x0, 0xa0,
 10523      53494D50 
 10523      4C455F46 
 10523      494C455F 
 10523      53595354 
 10524 9aa4 01       		.byte	0x1
 10525 9aa5 A002     		.uleb128 0x120
 10526 9aa7 53494D50 		.ascii "SIMPLE_FILE_SYSTEM_PROTOCOL EFI_SIMPLE_FILE_SYSTEM_PROTOCOL_GUID\0"
 10526      4C455F46 
 10526      494C455F 
 10526      53595354 
 10526      454D5F50 
 10527 9ae8 01       		.byte	0x1
 10528 9ae9 AC02     		.uleb128 0x12c
 10529 9aeb 4546495F 		.ascii "EFI_SIMPLE_FILE_SYSTEM_PROTOCOL_REVISION 0x00010000\0"
 10529      53494D50 
 10529      4C455F46 
 10529      494C455F 
 10529      53595354 
 10530 9b1f 01       		.byte	0x1
 10531 9b20 AD02     		.uleb128 0x12d
 10532 9b22 4546495F 		.ascii "EFI_FILE_IO_INTERFACE_REVISION EFI_SIMPLE_FILE_SYSTEM_PROTOCOL_REVISION\0"
 10532      46494C45 
 10532      5F494F5F 
 10532      494E5445 
 10532      52464143 
 10533 9b6a 01       		.byte	0x1
 10534 9b6b C602     		.uleb128 0x146
 10535 9b6d 4546495F 		.ascii "EFI_FILE_MODE_READ 0x0000000000000001\0"
 10535      46494C45 
 10535      5F4D4F44 
 10535      455F5245 
 10535      41442030 
 10536 9b93 01       		.byte	0x1
 10537 9b94 C702     		.uleb128 0x147
 10538 9b96 4546495F 		.ascii "EFI_FILE_MODE_WRITE 0x0000000000000002\0"
 10538      46494C45 
 10538      5F4D4F44 
 10538      455F5752 
 10538      49544520 
 10539 9bbd 01       		.byte	0x1
 10540 9bbe C802     		.uleb128 0x148
 10541 9bc0 4546495F 		.ascii "EFI_FILE_MODE_CREATE 0x8000000000000000\0"
 10541      46494C45 
 10541      5F4D4F44 
 10541      455F4352 
 10541      45415445 
 10542 9be8 01       		.byte	0x1
 10543 9be9 CB02     		.uleb128 0x14b
 10544 9beb 4546495F 		.ascii "EFI_FILE_READ_ONLY 0x0000000000000001\0"
 10544      46494C45 
 10544      5F524541 
 10544      445F4F4E 
 10544      4C592030 
 10545 9c11 01       		.byte	0x1
 10546 9c12 CC02     		.uleb128 0x14c
 10547 9c14 4546495F 		.ascii "EFI_FILE_HIDDEN 0x0000000000000002\0"
 10547      46494C45 
 10547      5F484944 
 10547      44454E20 
 10547      30783030 
 10548 9c37 01       		.byte	0x1
 10549 9c38 CD02     		.uleb128 0x14d
 10550 9c3a 4546495F 		.ascii "EFI_FILE_SYSTEM 0x0000000000000004\0"
 10550      46494C45 
 10550      5F535953 
 10550      54454D20 
 10550      30783030 
 10551 9c5d 01       		.byte	0x1
 10552 9c5e CE02     		.uleb128 0x14e
 10553 9c60 4546495F 		.ascii "EFI_FILE_RESERVIED 0x0000000000000008\0"
 10553      46494C45 
 10553      5F524553 
 10553      45525649 
 10553      45442030 
 10554 9c86 01       		.byte	0x1
 10555 9c87 CF02     		.uleb128 0x14f
 10556 9c89 4546495F 		.ascii "EFI_FILE_DIRECTORY 0x0000000000000010\0"
 10556      46494C45 
 10556      5F444952 
 10556      4543544F 
 10556      52592030 
 10557 9caf 01       		.byte	0x1
 10558 9cb0 D002     		.uleb128 0x150
 10559 9cb2 4546495F 		.ascii "EFI_FILE_ARCHIVE 0x0000000000000020\0"
 10559      46494C45 
 10559      5F415243 
 10559      48495645 
 10559      20307830 
 10560 9cd6 01       		.byte	0x1
 10561 9cd7 D102     		.uleb128 0x151
 10562 9cd9 4546495F 		.ascii "EFI_FILE_VALID_ATTR 0x0000000000000037\0"
 10562      46494C45 
 10562      5F56414C 
 10562      49445F41 
 10562      54545220 
 10563 9d00 01       		.byte	0x1
 10564 9d01 BC03     		.uleb128 0x1bc
 10565 9d03 4546495F 		.ascii "EFI_FILE_PROTOCOL_REVISION 0x00010000\0"
 10565      46494C45 
 10565      5F50524F 
 10565      544F434F 
 10565      4C5F5245 
 10566 9d29 01       		.byte	0x1
 10567 9d2a BD03     		.uleb128 0x1bd
 10568 9d2c 4546495F 		.ascii "EFI_FILE_PROTOCOL_REVISION2 0x00020000\0"
 10568      46494C45 
 10568      5F50524F 
 10568      544F434F 
 10568      4C5F5245 
 10569 9d53 01       		.byte	0x1
 10570 9d54 BE03     		.uleb128 0x1be
 10571 9d56 4546495F 		.ascii "EFI_FILE_PROTOCOL_LATEST_REVISION EFI_FILE_PROTOCOL_REVISION2\0"
 10571      46494C45 
 10571      5F50524F 
 10571      544F434F 
 10571      4C5F4C41 
 10572 9d94 01       		.byte	0x1
 10573 9d95 BF03     		.uleb128 0x1bf
 10574 9d97 4546495F 		.ascii "EFI_FILE_HANDLE_REVISION EFI_FILE_PROTOCOL_REVISION\0"
 10574      46494C45 
 10574      5F48414E 
 10574      444C455F 
 10574      52455649 
 10575 9dcb 01       		.byte	0x1
 10576 9dcc DA03     		.uleb128 0x1da
 10577 9dce 4546495F 		.ascii "EFI_FILE_INFO_ID { 0x9576e92, 0x6d3f, 0x11d2, {0x8e, 0x39, 0x0, 0xa0, 0xc9, 0x69, 0x72, 0x
 10577      46494C45 
 10577      5F494E46 
 10577      4F5F4944 
 10577      207B2030 
 10578 9e2e 01       		.byte	0x1
 10579 9e2f F003     		.uleb128 0x1f0
 10580 9e31 53495A45 		.ascii "SIZE_OF_EFI_FILE_INFO EFI_FIELD_OFFSET(EFI_FILE_INFO,FileName)\0"
 10580      5F4F465F 
 10580      4546495F 
 10580      46494C45 
 10580      5F494E46 
 10581 9e70 01       		.byte	0x1
 10582 9e71 F203     		.uleb128 0x1f2
 10583 9e73 4546495F 		.ascii "EFI_FILE_SYSTEM_INFO_ID { 0x9576e93, 0x6d3f, 0x11d2, {0x8e, 0x39, 0x0, 0xa0, 0xc9, 0x69, 0
 10583      46494C45 
 10583      5F535953 
 10583      54454D5F 
 10583      494E464F 
 10584 9eda 01       		.byte	0x1
 10585 9edb 8604     		.uleb128 0x206
 10586 9edd 53495A45 		.ascii "SIZE_OF_EFI_FILE_SYSTEM_INFO EFI_FIELD_OFFSET(EFI_FILE_SYSTEM_INFO,VolumeLabel)\0"
 10586      5F4F465F 
 10586      4546495F 
 10586      46494C45 
 10586      5F535953 
 10587 9f2d 01       		.byte	0x1
 10588 9f2e 8804     		.uleb128 0x208
 10589 9f30 4546495F 		.ascii "EFI_FILE_SYSTEM_VOLUME_LABEL_ID { 0xDB47D7D3,0xFE81, 0x11d3, {0x9A, 0x35, 0x00, 0x90, 0x27
 10589      46494C45 
 10589      5F535953 
 10589      54454D5F 
 10589      564F4C55 
 10590 9fa0 01       		.byte	0x1
 10591 9fa1 8F04     		.uleb128 0x20f
 10592 9fa3 53495A45 		.ascii "SIZE_OF_EFI_FILE_SYSTEM_VOLUME_LABEL_INFO EFI_FIELD_OFFSET(EFI_FILE_SYSTEM_VOLUME_LABEL,Vo
 10592      5F4F465F 
 10592      4546495F 
 10592      46494C45 
 10592      5F535953 
 10593 a008 01       		.byte	0x1
 10594 a009 9404     		.uleb128 0x214
 10595 a00b 4546495F 		.ascii "EFI_FILE_SYSTEM_VOLUME_LABEL_INFO_ID EFI_FILE_SYSTEM_VOLUME_LABEL_ID\0"
 10595      46494C45 
 10595      5F535953 
 10595      54454D5F 
 10595      564F4C55 
 10596 a050 01       		.byte	0x1
 10597 a051 9504     		.uleb128 0x215
 10598 a053 4546495F 		.ascii "EFI_FILE_SYSTEM_VOLUME_LABEL_INFO EFI_FILE_SYSTEM_VOLUME_LABEL\0"
 10598      46494C45 
 10598      5F535953 
 10598      54454D5F 
 10598      564F4C55 
 10599 a092 01       		.byte	0x1
 10600 a093 9C04     		.uleb128 0x21c
 10601 a095 4546495F 		.ascii "EFI_LOAD_FILE_PROTOCOL_GUID { 0x56EC3091, 0x954C, 0x11d2, {0x8E, 0x3F, 0x00, 0xA0, 0xC9, 0
 10601      4C4F4144 
 10601      5F46494C 
 10601      455F5052 
 10601      4F544F43 
 10602 a102 01       		.byte	0x1
 10603 a103 9E04     		.uleb128 0x21e
 10604 a105 4C4F4144 		.ascii "LOAD_FILE_PROTOCOL EFI_LOAD_FILE_PROTOCOL_GUID\0"
 10604      5F46494C 
 10604      455F5052 
 10604      4F544F43 
 10604      4F4C2045 
 10605 a134 01       		.byte	0x1
 10606 a135 B704     		.uleb128 0x237
 10607 a137 4546495F 		.ascii "EFI_DEVICE_IO_PROTOCOL_GUID { 0xaf6ac311, 0x84c3, 0x11d2, {0x8e, 0x3c, 0x00, 0xa0, 0xc9, 0
 10607      44455649 
 10607      43455F49 
 10607      4F5F5052 
 10607      4F544F43 
 10608 a1a4 01       		.byte	0x1
 10609 a1a5 B904     		.uleb128 0x239
 10610 a1a7 44455649 		.ascii "DEVICE_IO_PROTOCOL EFI_DEVICE_IO_PROTOCOL_GUID\0"
 10610      43455F49 
 10610      4F5F5052 
 10610      4F544F43 
 10610      4F4C2045 
 10611 a1d6 01       		.byte	0x1
 10612 a1d7 CB04     		.uleb128 0x24b
 10613 a1d9 4546495F 		.ascii "EFI_PCI_ADDRESS(_bus,_dev,_func) ( (UINT64) ( (((UINTN)_bus) << 24) + (((UINTN)_dev) << 16
 10613      5043495F 
 10613      41444452 
 10613      45535328 
 10613      5F627573 
 10614 a251 01       		.byte	0x1
 10615 a252 A905     		.uleb128 0x2a9
 10616 a254 4546495F 		.ascii "EFI_UNICODE_COLLATION_PROTOCOL_GUID { 0x1d85cd7f, 0xf43d, 0x11d2, {0x9a, 0xc, 0x0, 0x90, 0
 10616      554E4943 
 10616      4F44455F 
 10616      434F4C4C 
 10616      4154494F 
 10617 a2c7 01       		.byte	0x1
 10618 a2c8 AB05     		.uleb128 0x2ab
 10619 a2ca 554E4943 		.ascii "UNICODE_COLLATION_PROTOCOL EFI_UNICODE_COLLATION_PROTOCOL_GUID\0"
 10619      4F44455F 
 10619      434F4C4C 
 10619      4154494F 
 10619      4E5F5052 
 10620 a309 01       		.byte	0x1
 10621 a30a AD05     		.uleb128 0x2ad
 10622 a30c 4546495F 		.ascii "EFI_UNICODE_BYTE_ORDER_MARK (CHAR16)(0xfeff)\0"
 10622      554E4943 
 10622      4F44455F 
 10622      42595445 
 10622      5F4F5244 
 10623 a339 01       		.byte	0x1
 10624 a33a AE05     		.uleb128 0x2ae
 10625 a33c 554E4943 		.ascii "UNICODE_BYTE_ORDER_MARK EFI_UNICODE_BYTE_ORDER_MARK\0"
 10625      4F44455F 
 10625      42595445 
 10625      5F4F5244 
 10625      45525F4D 
 10626 a370 01       		.byte	0x1
 10627 a371 E505     		.uleb128 0x2e5
 10628 a373 4546495F 		.ascii "EFI_HASH_PROTOCOL_GUID { 0xC5184932, 0xDBA5, 0x46DB, { 0xA5, 0xBA, 0xCC, 0x0B, 0xDA, 0x9C,
 10628      48415348 
 10628      5F50524F 
 10628      544F434F 
 10628      4C5F4755 
 10629 a3dd 01       		.byte	0x1
 10630 a3de E705     		.uleb128 0x2e7
 10631 a3e0 48415348 		.ascii "HASH_PROTOCOL EFI_HASH_PROTOCOL_GUID\0"
 10631      5F50524F 
 10631      544F434F 
 10631      4C204546 
 10631      495F4841 
 10632 a405 01       		.byte	0x1
 10633 a406 E905     		.uleb128 0x2e9
 10634 a408 4546495F 		.ascii "EFI_HASH_ALGORITHM_SHA1_GUID { 0x2AE9D80F, 0x3FB2, 0x4095, { 0xB7, 0xB1, 0xE9, 0x31, 0x57,
 10634      48415348 
 10634      5F414C47 
 10634      4F524954 
 10634      484D5F53 
 10635 a478 01       		.byte	0x1
 10636 a479 EB05     		.uleb128 0x2eb
 10637 a47b 4546495F 		.ascii "EFI_HASH_ALGORITHM_SHA1 EFI_HASH_ALGORITHM_SHA1_GUID\0"
 10637      48415348 
 10637      5F414C47 
 10637      4F524954 
 10637      484D5F53 
 10638 a4b0 01       		.byte	0x1
 10639 a4b1 ED05     		.uleb128 0x2ed
 10640 a4b3 4546495F 		.ascii "EFI_HASH_ALGORITHM_SHA224_GUID { 0x8DF01A06, 0x9BD5, 0x4BF7, { 0xB0, 0x21, 0xDB, 0x4F, 0xD
 10640      48415348 
 10640      5F414C47 
 10640      4F524954 
 10640      484D5F53 
 10641 a525 01       		.byte	0x1
 10642 a526 EF05     		.uleb128 0x2ef
 10643 a528 4546495F 		.ascii "EFI_HASH_ALGORITHM_SHA224 EFI_HASH_ALGORITHM_SHA224_GUID\0"
 10643      48415348 
 10643      5F414C47 
 10643      4F524954 
 10643      484D5F53 
 10644 a561 01       		.byte	0x1
 10645 a562 F105     		.uleb128 0x2f1
 10646 a564 4546495F 		.ascii "EFI_HASH_ALGORITHM_SHA256_GUID { 0x51AA59DE, 0xFDF2, 0x4EA3, { 0xBC, 0x63, 0x87, 0x5F, 0xB
 10646      48415348 
 10646      5F414C47 
 10646      4F524954 
 10646      484D5F53 
 10647 a5d6 01       		.byte	0x1
 10648 a5d7 F305     		.uleb128 0x2f3
 10649 a5d9 4546495F 		.ascii "EFI_HASH_ALGORITHM_SHA256 EFI_HASH_ALGORITHM_SHA256_GUID\0"
 10649      48415348 
 10649      5F414C47 
 10649      4F524954 
 10649      484D5F53 
 10650 a612 01       		.byte	0x1
 10651 a613 F505     		.uleb128 0x2f5
 10652 a615 4546495F 		.ascii "EFI_HASH_ALGORITHM_SHA384_GUID { 0xEFA96432, 0xDE33, 0x4DD2, { 0xAE, 0xE6, 0x32, 0x8C, 0x3
 10652      48415348 
 10652      5F414C47 
 10652      4F524954 
 10652      484D5F53 
 10653 a687 01       		.byte	0x1
 10654 a688 F705     		.uleb128 0x2f7
 10655 a68a 4546495F 		.ascii "EFI_HASH_ALGORITHM_SHA384 EFI_HASH_ALGORITHM_SHA384_GUID\0"
 10655      48415348 
 10655      5F414C47 
 10655      4F524954 
 10655      484D5F53 
 10656 a6c3 01       		.byte	0x1
 10657 a6c4 F905     		.uleb128 0x2f9
 10658 a6c6 4546495F 		.ascii "EFI_HASH_ALGORITHM_SHA512_GUID { 0xCAA4381E, 0x750C, 0x4770, { 0xB8, 0x70, 0x7A, 0x23, 0xB
 10658      48415348 
 10658      5F414C47 
 10658      4F524954 
 10658      484D5F53 
 10659 a738 01       		.byte	0x1
 10660 a739 FB05     		.uleb128 0x2fb
 10661 a73b 4546495F 		.ascii "EFI_HASH_ALGORITHM_SHA512 EFI_HASH_ALGORITHM_SHA512_GUID\0"
 10661      48415348 
 10661      5F414C47 
 10661      4F524954 
 10661      484D5F53 
 10662 a774 01       		.byte	0x1
 10663 a775 FD05     		.uleb128 0x2fd
 10664 a777 4546495F 		.ascii "EFI_HASH_ALGORITHM_MD5_GUID { 0x0AF7C79C, 0x65B5, 0x4319, { 0xB0, 0xAE, 0x44, 0xEC, 0x48, 
 10664      48415348 
 10664      5F414C47 
 10664      4F524954 
 10664      484D5F4D 
 10665 a7e6 01       		.byte	0x1
 10666 a7e7 FF05     		.uleb128 0x2ff
 10667 a7e9 4546495F 		.ascii "EFI_HASH_ALGORITHM_MD5 EFI_HASH_ALGORITHM_MD5_GUID\0"
 10667      48415348 
 10667      5F414C47 
 10667      4F524954 
 10667      484D5F4D 
 10668 a81c 01       		.byte	0x1
 10669 a81d 8106     		.uleb128 0x301
 10670 a81f 4546495F 		.ascii "EFI_HASH_ALGORITHM_SHA1_NOPAD_GUID { 0x24C5DC2F, 0x53E2, 0x40CA, { 0x9E, 0xD6, 0xA5, 0xD9,
 10670      48415348 
 10670      5F414C47 
 10670      4F524954 
 10670      484D5F53 
 10671 a895 01       		.byte	0x1
 10672 a896 8306     		.uleb128 0x303
 10673 a898 4546495F 		.ascii "EFI_HASH_ALGORITHM_SHA1_NOPAD EFI_HASH_ALGORITHM_SHA1_NOPAD_GUID\0"
 10673      48415348 
 10673      5F414C47 
 10673      4F524954 
 10673      484D5F53 
 10674 a8d9 01       		.byte	0x1
 10675 a8da 8506     		.uleb128 0x305
 10676 a8dc 4546495F 		.ascii "EFI_HASH_ALGORITHM_SHA256_NOPAD_GUID { 0x8628752A, 0x6CB7, 0x4814, { 0x96, 0xFC, 0x24, 0xA
 10676      48415348 
 10676      5F414C47 
 10676      4F524954 
 10676      484D5F53 
 10677 a954 01       		.byte	0x1
 10678 a955 8706     		.uleb128 0x307
 10679 a957 4546495F 		.ascii "EFI_HASH_ALGORITHM_SHA256_NOPAD EFI_HASH_ALGORITHM_SHA256_NOPAD_GUID\0"
 10679      48415348 
 10679      5F414C47 
 10679      4F524954 
 10679      484D5F53 
 10680 a99c 01       		.byte	0x1
 10681 a99d C706     		.uleb128 0x347
 10682 a99f 4546495F 		.ascii "EFI_GRAPHICS_OUTPUT_PROTOCOL_GUID { 0x9042a9de, 0x23dc, 0x4a38, {0x96, 0xfb, 0x7a, 0xde, 0
 10682      47524150 
 10682      48494353 
 10682      5F4F5554 
 10682      5055545F 
 10683 aa13 01       		.byte	0x1
 10684 aa14 F307     		.uleb128 0x3f3
 10685 aa16 4546495F 		.ascii "EFI_EDID_DISCOVERED_PROTOCOL_GUID { 0x1C0C34F6, 0xD380, 0x41FA, { 0xA0, 0x49, 0x8a, 0xD0, 
 10685      45444944 
 10685      5F444953 
 10685      434F5645 
 10685      5245445F 
 10686 aa8a 01       		.byte	0x1
 10687 aa8b 8108     		.uleb128 0x401
 10688 aa8d 4546495F 		.ascii "EFI_EDID_ACTIVE_PROTOCOL_GUID { 0xBD8C1056, 0x9F36, 0x44EC, { 0x92, 0xA8, 0xA6, 0x33, 0x7F
 10688      45444944 
 10688      5F414354 
 10688      4956455F 
 10688      50524F54 
 10689 aafd 01       		.byte	0x1
 10690 aafe 8F08     		.uleb128 0x40f
 10691 ab00 4546495F 		.ascii "EFI_EDID_OVERRIDE_PROTOCOL_GUID { 0x48ECB431, 0xFB72, 0x45C0, { 0xA9, 0x22, 0xF4, 0x58, 0x
 10691      45444944 
 10691      5F4F5645 
 10691      52524944 
 10691      455F5052 
 10692 ab72 01       		.byte	0x1
 10693 ab73 BE08     		.uleb128 0x43e
 10694 ab75 4546495F 		.ascii "EFI_DRIVER_BINDING_PROTOCOL_GUID { 0x18A031AB, 0xB443, 0x4D1A, { 0xA5, 0xC0, 0x0C, 0x09, 0
 10694      44524956 
 10694      45525F42 
 10694      494E4449 
 10694      4E475F50 
 10695 abe8 01       		.byte	0x1
 10696 abe9 C008     		.uleb128 0x440
 10697 abeb 44524956 		.ascii "DRIVER_BINDING_PROTOCOL EFI_DRIVER_BINDING_PROTOCOL_GUID\0"
 10697      45525F42 
 10697      494E4449 
 10697      4E475F50 
 10697      524F544F 
 10698 ac24 01       		.byte	0x1
 10699 ac25 EA08     		.uleb128 0x46a
 10700 ac27 4546495F 		.ascii "EFI_DRIVER_SUPPORTED EFI_DRIVER_BINDING_PROTOCOL_SUPPORTED\0"
 10700      44524956 
 10700      45525F53 
 10700      5550504F 
 10700      52544544 
 10701 ac62 01       		.byte	0x1
 10702 ac63 EB08     		.uleb128 0x46b
 10703 ac65 4546495F 		.ascii "EFI_DRIVER_START EFI_DRIVER_BINDING_PROTOCOL_START\0"
 10703      44524956 
 10703      45525F53 
 10703      54415254 
 10703      20454649 
 10704 ac98 01       		.byte	0x1
 10705 ac99 EC08     		.uleb128 0x46c
 10706 ac9b 4546495F 		.ascii "EFI_DRIVER_STOP EFI_DRIVER_BINDING_PROTOCOL_STOP\0"
 10706      44524956 
 10706      45525F53 
 10706      544F5020 
 10706      4546495F 
 10707 accc 01       		.byte	0x1
 10708 accd F408     		.uleb128 0x474
 10709 accf 4546495F 		.ascii "EFI_COMPONENT_NAME_PROTOCOL_GUID {0x107A772C, 0xD5E1, 0x11D4, { 0x9A, 0x46, 0x00, 0x90, 0x
 10709      434F4D50 
 10709      4F4E454E 
 10709      545F4E41 
 10709      4D455F50 
 10710 ad41 01       		.byte	0x1
 10711 ad42 F608     		.uleb128 0x476
 10712 ad44 434F4D50 		.ascii "COMPONENT_NAME_PROTOCOL EFI_COMPONENT_NAME_PROTOCOL_GUID\0"
 10712      4F4E454E 
 10712      545F4E41 
 10712      4D455F50 
 10712      524F544F 
 10713 ad7d 01       		.byte	0x1
 10714 ad7e 9809     		.uleb128 0x498
 10715 ad80 4546495F 		.ascii "EFI_COMPONENT_NAME2_PROTOCOL_GUID {0x6A7A5CFF, 0xE8D9, 0x4F70, { 0xBA, 0xDA, 0x75, 0xAB, 0
 10715      434F4D50 
 10715      4F4E454E 
 10715      545F4E41 
 10715      4D45325F 
 10716 adf3 01       		.byte	0x1
 10717 adf4 9A09     		.uleb128 0x49a
 10718 adf6 434F4D50 		.ascii "COMPONENT_NAME2_PROTOCOL EFI_COMPONENT_NAME2_PROTOCOL_GUID\0"
 10718      4F4E454E 
 10718      545F4E41 
 10718      4D45325F 
 10718      50524F54 
 10719 ae31 01       		.byte	0x1
 10720 ae32 BD09     		.uleb128 0x4bd
 10721 ae34 4546495F 		.ascii "EFI_LOADED_IMAGE_PROTOCOL_GUID { 0x5B1B31A1, 0x9562, 0x11d2, {0x8E, 0x3F, 0x00, 0xA0, 0xC9
 10721      4C4F4144 
 10721      45445F49 
 10721      4D414745 
 10721      5F50524F 
 10722 aea4 01       		.byte	0x1
 10723 aea5 BF09     		.uleb128 0x4bf
 10724 aea7 4C4F4144 		.ascii "LOADED_IMAGE_PROTOCOL EFI_LOADED_IMAGE_PROTOCOL_GUID\0"
 10724      45445F49 
 10724      4D414745 
 10724      5F50524F 
 10724      544F434F 
 10725 aedc 01       		.byte	0x1
 10726 aedd C109     		.uleb128 0x4c1
 10727 aedf 4546495F 		.ascii "EFI_LOADED_IMAGE_PROTOCOL_REVISION 0x1000\0"
 10727      4C4F4144 
 10727      45445F49 
 10727      4D414745 
 10727      5F50524F 
 10728 af09 01       		.byte	0x1
 10729 af0a C209     		.uleb128 0x4c2
 10730 af0c 4546495F 		.ascii "EFI_IMAGE_INFORMATION_REVISION EFI_LOADED_IMAGE_PROTOCOL_REVISION\0"
 10730      494D4147 
 10730      455F494E 
 10730      464F524D 
 10730      4154494F 
 10731 af4e 01       		.byte	0x1
 10732 af4f E409     		.uleb128 0x4e4
 10733 af51 4546495F 		.ascii "EFI_LOADED_IMAGE_DEVICE_PATH_PROTOCOL_GUID {0xbc62157e, 0x3e33, 0x4fec, {0x99, 0x20, 0x2d,
 10733      4C4F4144 
 10733      45445F49 
 10733      4D414745 
 10733      5F444556 
 10734 afcc 01       		.byte	0x1
 10735 afcd EB09     		.uleb128 0x4eb
 10736 afcf 4546495F 		.ascii "EFI_RNG_PROTOCOL_GUID { 0x3152bca5, 0xeade, 0x433d, {0x86, 0x2e, 0xc0, 0x1c, 0xdc, 0x29, 0
 10736      524E475F 
 10736      50524F54 
 10736      4F434F4C 
 10736      5F475549 
 10737 b036 01       		.byte	0x1
 10738 b037 F009     		.uleb128 0x4f0
 10739 b039 4546495F 		.ascii "EFI_RNG_ALGORITHM_SP800_90_HASH_256_GUID {0xa7af67cb, 0x603b, 0x4d42, {0xba, 0x21, 0x70, 0
 10739      524E475F 
 10739      414C474F 
 10739      52495448 
 10739      4D5F5350 
 10740 b0b2 01       		.byte	0x1
 10741 b0b3 F309     		.uleb128 0x4f3
 10742 b0b5 4546495F 		.ascii "EFI_RNG_ALGORITHM_SP800_90_HMAC_256_GUID {0xc5149b43, 0xae85, 0x4f53, {0x99, 0x82, 0xb9, 0
 10742      524E475F 
 10742      414C474F 
 10742      52495448 
 10742      4D5F5350 
 10743 b12e 01       		.byte	0x1
 10744 b12f F609     		.uleb128 0x4f6
 10745 b131 4546495F 		.ascii "EFI_RNG_ALGORITHM_SP800_90_CTR_256_GUID {0x44f0de6e, 0x4d8c, 0x4045, {0xa8, 0xc7, 0x4d, 0x
 10745      524E475F 
 10745      414C474F 
 10745      52495448 
 10745      4D5F5350 
 10746 b1a9 01       		.byte	0x1
 10747 b1aa F909     		.uleb128 0x4f9
 10748 b1ac 4546495F 		.ascii "EFI_RNG_ALGORITHM_X9_31_3DES_GUID {0x63c4785a, 0xca34, 0x4012, {0xa3, 0xc8, 0x0b, 0x6a, 0x
 10748      524E475F 
 10748      414C474F 
 10748      52495448 
 10748      4D5F5839 
 10749 b21e 01       		.byte	0x1
 10750 b21f FC09     		.uleb128 0x4fc
 10751 b221 4546495F 		.ascii "EFI_RNG_ALGORITHM_X9_31_AES_GUID {0xacd03321, 0x777e, 0x4d3d, {0xb1, 0xc8, 0x20, 0xcf, 0xd
 10751      524E475F 
 10751      414C474F 
 10751      52495448 
 10751      4D5F5839 
 10752 b292 01       		.byte	0x1
 10753 b293 FF09     		.uleb128 0x4ff
 10754 b295 4546495F 		.ascii "EFI_RNG_ALGORITHM_RAW {0xe43176d7, 0xb6e8, 0x4827, {0xb7, 0x84, 0x7f, 0xfd, 0xc4, 0xb6, 0x
 10754      524E475F 
 10754      414C474F 
 10754      52495448 
 10754      4D5F5241 
 10755 b2fb 01       		.byte	0x1
 10756 b2fc 9F0A     		.uleb128 0x51f
 10757 b2fe 4546495F 		.ascii "EFI_PLATFORM_DRIVER_OVERRIDE_PROTOCOL_GUID { 0x6b30c738, 0xa391, 0x11d4, {0x9a, 0x3b, 0x00
 10757      504C4154 
 10757      464F524D 
 10757      5F445249 
 10757      5645525F 
 10758 b37a 01       		.byte	0x1
 10759 b37b C40A     		.uleb128 0x544
 10760 b37d 4546495F 		.ascii "EFI_BUS_SPECIFIC_DRIVER_OVERRIDE_PROTOCOL_GUID { 0x3bc1b285, 0x8a15, 0x4a82, {0xaa, 0xbf, 
 10760      4255535F 
 10760      53504543 
 10760      49464943 
 10760      5F445249 
 10761 b3fd 01       		.byte	0x1
 10762 b3fe D70A     		.uleb128 0x557
 10763 b400 4546495F 		.ascii "EFI_DRIVER_FAMILY_OVERRIDE_PROTOCOL_GUID { 0xb1ee129e, 0xda36, 0x4181, {0x91, 0xf8, 0x04, 
 10763      44524956 
 10763      45525F46 
 10763      414D494C 
 10763      595F4F56 
 10764 b47a 01       		.byte	0x1
 10765 b47b E90A     		.uleb128 0x569
 10766 b47d 4546495F 		.ascii "EFI_EBC_INTERPRETER_PROTOCOL_GUID {0x13ac6dd1, 0x73d0, 0x11d4, {0xb0, 0x6b, 0x00, 0xaa, 0x
 10766      4542435F 
 10766      494E5445 
 10766      52505245 
 10766      5445525F 
 10767 b4ef 01       		.byte	0x1
 10768 b4f0 EC0A     		.uleb128 0x56c
 10769 b4f2 4546495F 		.ascii "EFI_EBC_PROTOCOL_GUID EFI_EBC_INTERPRETER_PROTOCOL_GUID\0"
 10769      4542435F 
 10769      50524F54 
 10769      4F434F4C 
 10769      5F475549 
 10770 b52a 04       		.byte	0x4
 10771              		.file 23 "gnu-efi-3.0.18/inc/eficon.h"
 10772 b52b 03       		.byte	0x3
 10773 b52c 46       		.uleb128 0x46
 10774 b52d 17       		.uleb128 0x17
 10775 b52e 01       		.byte	0x1
 10776 b52f 02       		.uleb128 0x2
 10777 b530 5F454649 		.ascii "_EFI_CON_H \0"
 10777      5F434F4E 
 10777      5F482000 
 10778 b53c 01       		.byte	0x1
 10779 b53d 1A       		.uleb128 0x1a
 10780 b53e 4546495F 		.ascii "EFI_SIMPLE_TEXT_OUTPUT_PROTOCOL_GUID { 0x387477c2, 0x69c7, 0x11d2, {0x8e, 0x39, 0x0, 0xa0,
 10780      53494D50 
 10780      4C455F54 
 10780      4558545F 
 10780      4F555450 
 10781 b5b3 01       		.byte	0x1
 10782 b5b4 1C       		.uleb128 0x1c
 10783 b5b5 53494D50 		.ascii "SIMPLE_TEXT_OUTPUT_PROTOCOL EFI_SIMPLE_TEXT_OUTPUT_PROTOCOL_GUID\0"
 10783      4C455F54 
 10783      4558545F 
 10783      4F555450 
 10783      55545F50 
 10784 b5f6 01       		.byte	0x1
 10785 b5f7 4C       		.uleb128 0x4c
 10786 b5f8 4546495F 		.ascii "EFI_BLACK 0x00\0"
 10786      424C4143 
 10786      4B203078 
 10786      303000
 10787 b607 01       		.byte	0x1
 10788 b608 4D       		.uleb128 0x4d
 10789 b609 4546495F 		.ascii "EFI_BLUE 0x01\0"
 10789      424C5545 
 10789      20307830 
 10789      3100
 10790 b617 01       		.byte	0x1
 10791 b618 4E       		.uleb128 0x4e
 10792 b619 4546495F 		.ascii "EFI_GREEN 0x02\0"
 10792      47524545 
 10792      4E203078 
 10792      303200
 10793 b628 01       		.byte	0x1
 10794 b629 4F       		.uleb128 0x4f
 10795 b62a 4546495F 		.ascii "EFI_CYAN (EFI_BLUE | EFI_GREEN)\0"
 10795      4359414E 
 10795      20284546 
 10795      495F424C 
 10795      5545207C 
 10796 b64a 01       		.byte	0x1
 10797 b64b 50       		.uleb128 0x50
 10798 b64c 4546495F 		.ascii "EFI_RED 0x04\0"
 10798      52454420 
 10798      30783034 
 10798      00
 10799 b659 01       		.byte	0x1
 10800 b65a 51       		.uleb128 0x51
 10801 b65b 4546495F 		.ascii "EFI_MAGENTA (EFI_BLUE | EFI_RED)\0"
 10801      4D414745 
 10801      4E544120 
 10801      28454649 
 10801      5F424C55 
 10802 b67c 01       		.byte	0x1
 10803 b67d 52       		.uleb128 0x52
 10804 b67e 4546495F 		.ascii "EFI_BROWN (EFI_GREEN | EFI_RED)\0"
 10804      42524F57 
 10804      4E202845 
 10804      46495F47 
 10804      5245454E 
 10805 b69e 01       		.byte	0x1
 10806 b69f 53       		.uleb128 0x53
 10807 b6a0 4546495F 		.ascii "EFI_LIGHTGRAY (EFI_BLUE | EFI_GREEN | EFI_RED)\0"
 10807      4C494748 
 10807      54475241 
 10807      59202845 
 10807      46495F42 
 10808 b6cf 01       		.byte	0x1
 10809 b6d0 54       		.uleb128 0x54
 10810 b6d1 4546495F 		.ascii "EFI_BRIGHT 0x08\0"
 10810      42524947 
 10810      48542030 
 10810      78303800 
 10811 b6e1 01       		.byte	0x1
 10812 b6e2 55       		.uleb128 0x55
 10813 b6e3 4546495F 		.ascii "EFI_DARKGRAY (EFI_BRIGHT)\0"
 10813      4441524B 
 10813      47524159 
 10813      20284546 
 10813      495F4252 
 10814 b6fd 01       		.byte	0x1
 10815 b6fe 56       		.uleb128 0x56
 10816 b6ff 4546495F 		.ascii "EFI_LIGHTBLUE (EFI_BLUE | EFI_BRIGHT)\0"
 10816      4C494748 
 10816      54424C55 
 10816      45202845 
 10816      46495F42 
 10817 b725 01       		.byte	0x1
 10818 b726 57       		.uleb128 0x57
 10819 b727 4546495F 		.ascii "EFI_LIGHTGREEN (EFI_GREEN | EFI_BRIGHT)\0"
 10819      4C494748 
 10819      54475245 
 10819      454E2028 
 10819      4546495F 
 10820 b74f 01       		.byte	0x1
 10821 b750 58       		.uleb128 0x58
 10822 b751 4546495F 		.ascii "EFI_LIGHTCYAN (EFI_CYAN | EFI_BRIGHT)\0"
 10822      4C494748 
 10822      54435941 
 10822      4E202845 
 10822      46495F43 
 10823 b777 01       		.byte	0x1
 10824 b778 59       		.uleb128 0x59
 10825 b779 4546495F 		.ascii "EFI_LIGHTRED (EFI_RED | EFI_BRIGHT)\0"
 10825      4C494748 
 10825      54524544 
 10825      20284546 
 10825      495F5245 
 10826 b79d 01       		.byte	0x1
 10827 b79e 5A       		.uleb128 0x5a
 10828 b79f 4546495F 		.ascii "EFI_LIGHTMAGENTA (EFI_MAGENTA | EFI_BRIGHT)\0"
 10828      4C494748 
 10828      544D4147 
 10828      454E5441 
 10828      20284546 
 10829 b7cb 01       		.byte	0x1
 10830 b7cc 5B       		.uleb128 0x5b
 10831 b7cd 4546495F 		.ascii "EFI_YELLOW (EFI_BROWN | EFI_BRIGHT)\0"
 10831      59454C4C 
 10831      4F572028 
 10831      4546495F 
 10831      42524F57 
 10832 b7f1 01       		.byte	0x1
 10833 b7f2 5C       		.uleb128 0x5c
 10834 b7f3 4546495F 		.ascii "EFI_WHITE (EFI_BLUE | EFI_GREEN | EFI_RED | EFI_BRIGHT)\0"
 10834      57484954 
 10834      45202845 
 10834      46495F42 
 10834      4C554520 
 10835 b82b 01       		.byte	0x1
 10836 b82c 5E       		.uleb128 0x5e
 10837 b82d 4546495F 		.ascii "EFI_TEXT_ATTR(f,b) ((f) | ((b) << 4))\0"
 10837      54455854 
 10837      5F415454 
 10837      5228662C 
 10837      62292028 
 10838 b853 01       		.byte	0x1
 10839 b854 60       		.uleb128 0x60
 10840 b855 4546495F 		.ascii "EFI_BACKGROUND_BLACK 0x00\0"
 10840      4241434B 
 10840      47524F55 
 10840      4E445F42 
 10840      4C41434B 
 10841 b86f 01       		.byte	0x1
 10842 b870 61       		.uleb128 0x61
 10843 b871 4546495F 		.ascii "EFI_BACKGROUND_BLUE 0x10\0"
 10843      4241434B 
 10843      47524F55 
 10843      4E445F42 
 10843      4C554520 
 10844 b88a 01       		.byte	0x1
 10845 b88b 62       		.uleb128 0x62
 10846 b88c 4546495F 		.ascii "EFI_BACKGROUND_GREEN 0x20\0"
 10846      4241434B 
 10846      47524F55 
 10846      4E445F47 
 10846      5245454E 
 10847 b8a6 01       		.byte	0x1
 10848 b8a7 63       		.uleb128 0x63
 10849 b8a8 4546495F 		.ascii "EFI_BACKGROUND_CYAN (EFI_BACKGROUND_BLUE | EFI_BACKGROUND_GREEN)\0"
 10849      4241434B 
 10849      47524F55 
 10849      4E445F43 
 10849      59414E20 
 10850 b8e9 01       		.byte	0x1
 10851 b8ea 64       		.uleb128 0x64
 10852 b8eb 4546495F 		.ascii "EFI_BACKGROUND_RED 0x40\0"
 10852      4241434B 
 10852      47524F55 
 10852      4E445F52 
 10852      45442030 
 10853 b903 01       		.byte	0x1
 10854 b904 65       		.uleb128 0x65
 10855 b905 4546495F 		.ascii "EFI_BACKGROUND_MAGENTA (EFI_BACKGROUND_BLUE | EFI_BACKGROUND_RED)\0"
 10855      4241434B 
 10855      47524F55 
 10855      4E445F4D 
 10855      4147454E 
 10856 b947 01       		.byte	0x1
 10857 b948 66       		.uleb128 0x66
 10858 b949 4546495F 		.ascii "EFI_BACKGROUND_BROWN (EFI_BACKGROUND_GREEN | EFI_BACKGROUND_RED)\0"
 10858      4241434B 
 10858      47524F55 
 10858      4E445F42 
 10858      524F574E 
 10859 b98a 01       		.byte	0x1
 10860 b98b 67       		.uleb128 0x67
 10861 b98c 4546495F 		.ascii "EFI_BACKGROUND_LIGHTGRAY (EFI_BACKGROUND_BLUE | EFI_BACKGROUND_GREEN | EFI_BACKGROUND_RED)
 10861      4241434B 
 10861      47524F55 
 10861      4E445F4C 
 10861      49474854 
 10862 b9e7 01       		.byte	0x1
 10863 b9e8 9F01     		.uleb128 0x9f
 10864 b9ea 424F5844 		.ascii "BOXDRAW_HORIZONTAL 0x2500\0"
 10864      5241575F 
 10864      484F5249 
 10864      5A4F4E54 
 10864      414C2030 
 10865 ba04 01       		.byte	0x1
 10866 ba05 A001     		.uleb128 0xa0
 10867 ba07 424F5844 		.ascii "BOXDRAW_VERTICAL 0x2502\0"
 10867      5241575F 
 10867      56455254 
 10867      4943414C 
 10867      20307832 
 10868 ba1f 01       		.byte	0x1
 10869 ba20 A101     		.uleb128 0xa1
 10870 ba22 424F5844 		.ascii "BOXDRAW_DOWN_RIGHT 0x250c\0"
 10870      5241575F 
 10870      444F574E 
 10870      5F524947 
 10870      48542030 
 10871 ba3c 01       		.byte	0x1
 10872 ba3d A201     		.uleb128 0xa2
 10873 ba3f 424F5844 		.ascii "BOXDRAW_DOWN_LEFT 0x2510\0"
 10873      5241575F 
 10873      444F574E 
 10873      5F4C4546 
 10873      54203078 
 10874 ba58 01       		.byte	0x1
 10875 ba59 A301     		.uleb128 0xa3
 10876 ba5b 424F5844 		.ascii "BOXDRAW_UP_RIGHT 0x2514\0"
 10876      5241575F 
 10876      55505F52 
 10876      49474854 
 10876      20307832 
 10877 ba73 01       		.byte	0x1
 10878 ba74 A401     		.uleb128 0xa4
 10879 ba76 424F5844 		.ascii "BOXDRAW_UP_LEFT 0x2518\0"
 10879      5241575F 
 10879      55505F4C 
 10879      45465420 
 10879      30783235 
 10880 ba8d 01       		.byte	0x1
 10881 ba8e A501     		.uleb128 0xa5
 10882 ba90 424F5844 		.ascii "BOXDRAW_VERTICAL_RIGHT 0x251c\0"
 10882      5241575F 
 10882      56455254 
 10882      4943414C 
 10882      5F524947 
 10883 baae 01       		.byte	0x1
 10884 baaf A601     		.uleb128 0xa6
 10885 bab1 424F5844 		.ascii "BOXDRAW_VERTICAL_LEFT 0x2524\0"
 10885      5241575F 
 10885      56455254 
 10885      4943414C 
 10885      5F4C4546 
 10886 bace 01       		.byte	0x1
 10887 bacf A701     		.uleb128 0xa7
 10888 bad1 424F5844 		.ascii "BOXDRAW_DOWN_HORIZONTAL 0x252c\0"
 10888      5241575F 
 10888      444F574E 
 10888      5F484F52 
 10888      495A4F4E 
 10889 baf0 01       		.byte	0x1
 10890 baf1 A801     		.uleb128 0xa8
 10891 baf3 424F5844 		.ascii "BOXDRAW_UP_HORIZONTAL 0x2534\0"
 10891      5241575F 
 10891      55505F48 
 10891      4F52495A 
 10891      4F4E5441 
 10892 bb10 01       		.byte	0x1
 10893 bb11 A901     		.uleb128 0xa9
 10894 bb13 424F5844 		.ascii "BOXDRAW_VERTICAL_HORIZONTAL 0x253c\0"
 10894      5241575F 
 10894      56455254 
 10894      4943414C 
 10894      5F484F52 
 10895 bb36 01       		.byte	0x1
 10896 bb37 AB01     		.uleb128 0xab
 10897 bb39 424F5844 		.ascii "BOXDRAW_DOUBLE_HORIZONTAL 0x2550\0"
 10897      5241575F 
 10897      444F5542 
 10897      4C455F48 
 10897      4F52495A 
 10898 bb5a 01       		.byte	0x1
 10899 bb5b AC01     		.uleb128 0xac
 10900 bb5d 424F5844 		.ascii "BOXDRAW_DOUBLE_VERTICAL 0x2551\0"
 10900      5241575F 
 10900      444F5542 
 10900      4C455F56 
 10900      45525449 
 10901 bb7c 01       		.byte	0x1
 10902 bb7d AD01     		.uleb128 0xad
 10903 bb7f 424F5844 		.ascii "BOXDRAW_DOWN_RIGHT_DOUBLE 0x2552\0"
 10903      5241575F 
 10903      444F574E 
 10903      5F524947 
 10903      48545F44 
 10904 bba0 01       		.byte	0x1
 10905 bba1 AE01     		.uleb128 0xae
 10906 bba3 424F5844 		.ascii "BOXDRAW_DOWN_DOUBLE_RIGHT 0x2553\0"
 10906      5241575F 
 10906      444F574E 
 10906      5F444F55 
 10906      424C455F 
 10907 bbc4 01       		.byte	0x1
 10908 bbc5 AF01     		.uleb128 0xaf
 10909 bbc7 424F5844 		.ascii "BOXDRAW_DOUBLE_DOWN_RIGHT 0x2554\0"
 10909      5241575F 
 10909      444F5542 
 10909      4C455F44 
 10909      4F574E5F 
 10910 bbe8 01       		.byte	0x1
 10911 bbe9 B101     		.uleb128 0xb1
 10912 bbeb 424F5844 		.ascii "BOXDRAW_DOWN_LEFT_DOUBLE 0x2555\0"
 10912      5241575F 
 10912      444F574E 
 10912      5F4C4546 
 10912      545F444F 
 10913 bc0b 01       		.byte	0x1
 10914 bc0c B201     		.uleb128 0xb2
 10915 bc0e 424F5844 		.ascii "BOXDRAW_DOWN_DOUBLE_LEFT 0x2556\0"
 10915      5241575F 
 10915      444F574E 
 10915      5F444F55 
 10915      424C455F 
 10916 bc2e 01       		.byte	0x1
 10917 bc2f B301     		.uleb128 0xb3
 10918 bc31 424F5844 		.ascii "BOXDRAW_DOUBLE_DOWN_LEFT 0x2557\0"
 10918      5241575F 
 10918      444F5542 
 10918      4C455F44 
 10918      4F574E5F 
 10919 bc51 01       		.byte	0x1
 10920 bc52 B501     		.uleb128 0xb5
 10921 bc54 424F5844 		.ascii "BOXDRAW_UP_RIGHT_DOUBLE 0x2558\0"
 10921      5241575F 
 10921      55505F52 
 10921      49474854 
 10921      5F444F55 
 10922 bc73 01       		.byte	0x1
 10923 bc74 B601     		.uleb128 0xb6
 10924 bc76 424F5844 		.ascii "BOXDRAW_UP_DOUBLE_RIGHT 0x2559\0"
 10924      5241575F 
 10924      55505F44 
 10924      4F55424C 
 10924      455F5249 
 10925 bc95 01       		.byte	0x1
 10926 bc96 B701     		.uleb128 0xb7
 10927 bc98 424F5844 		.ascii "BOXDRAW_DOUBLE_UP_RIGHT 0x255a\0"
 10927      5241575F 
 10927      444F5542 
 10927      4C455F55 
 10927      505F5249 
 10928 bcb7 01       		.byte	0x1
 10929 bcb8 B901     		.uleb128 0xb9
 10930 bcba 424F5844 		.ascii "BOXDRAW_UP_LEFT_DOUBLE 0x255b\0"
 10930      5241575F 
 10930      55505F4C 
 10930      4546545F 
 10930      444F5542 
 10931 bcd8 01       		.byte	0x1
 10932 bcd9 BA01     		.uleb128 0xba
 10933 bcdb 424F5844 		.ascii "BOXDRAW_UP_DOUBLE_LEFT 0x255c\0"
 10933      5241575F 
 10933      55505F44 
 10933      4F55424C 
 10933      455F4C45 
 10934 bcf9 01       		.byte	0x1
 10935 bcfa BB01     		.uleb128 0xbb
 10936 bcfc 424F5844 		.ascii "BOXDRAW_DOUBLE_UP_LEFT 0x255d\0"
 10936      5241575F 
 10936      444F5542 
 10936      4C455F55 
 10936      505F4C45 
 10937 bd1a 01       		.byte	0x1
 10938 bd1b BD01     		.uleb128 0xbd
 10939 bd1d 424F5844 		.ascii "BOXDRAW_VERTICAL_RIGHT_DOUBLE 0x255e\0"
 10939      5241575F 
 10939      56455254 
 10939      4943414C 
 10939      5F524947 
 10940 bd42 01       		.byte	0x1
 10941 bd43 BE01     		.uleb128 0xbe
 10942 bd45 424F5844 		.ascii "BOXDRAW_VERTICAL_DOUBLE_RIGHT 0x255f\0"
 10942      5241575F 
 10942      56455254 
 10942      4943414C 
 10942      5F444F55 
 10943 bd6a 01       		.byte	0x1
 10944 bd6b BF01     		.uleb128 0xbf
 10945 bd6d 424F5844 		.ascii "BOXDRAW_DOUBLE_VERTICAL_RIGHT 0x2560\0"
 10945      5241575F 
 10945      444F5542 
 10945      4C455F56 
 10945      45525449 
 10946 bd92 01       		.byte	0x1
 10947 bd93 C101     		.uleb128 0xc1
 10948 bd95 424F5844 		.ascii "BOXDRAW_VERTICAL_LEFT_DOUBLE 0x2561\0"
 10948      5241575F 
 10948      56455254 
 10948      4943414C 
 10948      5F4C4546 
 10949 bdb9 01       		.byte	0x1
 10950 bdba C201     		.uleb128 0xc2
 10951 bdbc 424F5844 		.ascii "BOXDRAW_VERTICAL_DOUBLE_LEFT 0x2562\0"
 10951      5241575F 
 10951      56455254 
 10951      4943414C 
 10951      5F444F55 
 10952 bde0 01       		.byte	0x1
 10953 bde1 C301     		.uleb128 0xc3
 10954 bde3 424F5844 		.ascii "BOXDRAW_DOUBLE_VERTICAL_LEFT 0x2563\0"
 10954      5241575F 
 10954      444F5542 
 10954      4C455F56 
 10954      45525449 
 10955 be07 01       		.byte	0x1
 10956 be08 C501     		.uleb128 0xc5
 10957 be0a 424F5844 		.ascii "BOXDRAW_DOWN_HORIZONTAL_DOUBLE 0x2564\0"
 10957      5241575F 
 10957      444F574E 
 10957      5F484F52 
 10957      495A4F4E 
 10958 be30 01       		.byte	0x1
 10959 be31 C601     		.uleb128 0xc6
 10960 be33 424F5844 		.ascii "BOXDRAW_DOWN_DOUBLE_HORIZONTAL 0x2565\0"
 10960      5241575F 
 10960      444F574E 
 10960      5F444F55 
 10960      424C455F 
 10961 be59 01       		.byte	0x1
 10962 be5a C701     		.uleb128 0xc7
 10963 be5c 424F5844 		.ascii "BOXDRAW_DOUBLE_DOWN_HORIZONTAL 0x2566\0"
 10963      5241575F 
 10963      444F5542 
 10963      4C455F44 
 10963      4F574E5F 
 10964 be82 01       		.byte	0x1
 10965 be83 C901     		.uleb128 0xc9
 10966 be85 424F5844 		.ascii "BOXDRAW_UP_HORIZONTAL_DOUBLE 0x2567\0"
 10966      5241575F 
 10966      55505F48 
 10966      4F52495A 
 10966      4F4E5441 
 10967 bea9 01       		.byte	0x1
 10968 beaa CA01     		.uleb128 0xca
 10969 beac 424F5844 		.ascii "BOXDRAW_UP_DOUBLE_HORIZONTAL 0x2568\0"
 10969      5241575F 
 10969      55505F44 
 10969      4F55424C 
 10969      455F484F 
 10970 bed0 01       		.byte	0x1
 10971 bed1 CB01     		.uleb128 0xcb
 10972 bed3 424F5844 		.ascii "BOXDRAW_DOUBLE_UP_HORIZONTAL 0x2569\0"
 10972      5241575F 
 10972      444F5542 
 10972      4C455F55 
 10972      505F484F 
 10973 bef7 01       		.byte	0x1
 10974 bef8 CD01     		.uleb128 0xcd
 10975 befa 424F5844 		.ascii "BOXDRAW_VERTICAL_HORIZONTAL_DOUBLE 0x256a\0"
 10975      5241575F 
 10975      56455254 
 10975      4943414C 
 10975      5F484F52 
 10976 bf24 01       		.byte	0x1
 10977 bf25 CE01     		.uleb128 0xce
 10978 bf27 424F5844 		.ascii "BOXDRAW_VERTICAL_DOUBLE_HORIZONTAL 0x256b\0"
 10978      5241575F 
 10978      56455254 
 10978      4943414C 
 10978      5F444F55 
 10979 bf51 01       		.byte	0x1
 10980 bf52 CF01     		.uleb128 0xcf
 10981 bf54 424F5844 		.ascii "BOXDRAW_DOUBLE_VERTICAL_HORIZONTAL 0x256c\0"
 10981      5241575F 
 10981      444F5542 
 10981      4C455F56 
 10981      45525449 
 10982 bf7e 01       		.byte	0x1
 10983 bf7f D501     		.uleb128 0xd5
 10984 bf81 424C4F43 		.ascii "BLOCKELEMENT_FULL_BLOCK 0x2588\0"
 10984      4B454C45 
 10984      4D454E54 
 10984      5F46554C 
 10984      4C5F424C 
 10985 bfa0 01       		.byte	0x1
 10986 bfa1 D601     		.uleb128 0xd6
 10987 bfa3 424C4F43 		.ascii "BLOCKELEMENT_LIGHT_SHADE 0x2591\0"
 10987      4B454C45 
 10987      4D454E54 
 10987      5F4C4947 
 10987      48545F53 
 10988 bfc3 01       		.byte	0x1
 10989 bfc4 DB01     		.uleb128 0xdb
 10990 bfc6 47454F4D 		.ascii "GEOMETRICSHAPE_UP_TRIANGLE 0x25b2\0"
 10990      45545249 
 10990      43534841 
 10990      50455F55 
 10990      505F5452 
 10991 bfe8 01       		.byte	0x1
 10992 bfe9 DC01     		.uleb128 0xdc
 10993 bfeb 47454F4D 		.ascii "GEOMETRICSHAPE_RIGHT_TRIANGLE 0x25ba\0"
 10993      45545249 
 10993      43534841 
 10993      50455F52 
 10993      49474854 
 10994 c010 01       		.byte	0x1
 10995 c011 DD01     		.uleb128 0xdd
 10996 c013 47454F4D 		.ascii "GEOMETRICSHAPE_DOWN_TRIANGLE 0x25bc\0"
 10996      45545249 
 10996      43534841 
 10996      50455F44 
 10996      4F574E5F 
 10997 c037 01       		.byte	0x1
 10998 c038 DE01     		.uleb128 0xde
 10999 c03a 47454F4D 		.ascii "GEOMETRICSHAPE_LEFT_TRIANGLE 0x25c4\0"
 10999      45545249 
 10999      43534841 
 10999      50455F4C 
 10999      4546545F 
 11000 c05e 01       		.byte	0x1
 11001 c05f E401     		.uleb128 0xe4
 11002 c061 4152524F 		.ascii "ARROW_UP 0x2191\0"
 11002      575F5550 
 11002      20307832 
 11002      31393100 
 11003 c071 01       		.byte	0x1
 11004 c072 E501     		.uleb128 0xe5
 11005 c074 4152524F 		.ascii "ARROW_DOWN 0x2193\0"
 11005      575F444F 
 11005      574E2030 
 11005      78323139 
 11005      3300
 11006 c086 01       		.byte	0x1
 11007 c087 EB01     		.uleb128 0xeb
 11008 c089 4546495F 		.ascii "EFI_SIMPLE_TEXT_INPUT_PROTOCOL_GUID { 0x387477c1, 0x69c7, 0x11d2, {0x8e, 0x39, 0x0, 0xa0, 
 11008      53494D50 
 11008      4C455F54 
 11008      4558545F 
 11008      494E5055 
 11009 c0fd 01       		.byte	0x1
 11010 c0fe ED01     		.uleb128 0xed
 11011 c100 53494D50 		.ascii "SIMPLE_TEXT_INPUT_PROTOCOL EFI_SIMPLE_TEXT_INPUT_PROTOCOL_GUID\0"
 11011      4C455F54 
 11011      4558545F 
 11011      494E5055 
 11011      545F5052 
 11012 c13f 01       		.byte	0x1
 11013 c140 FA01     		.uleb128 0xfa
 11014 c142 43484152 		.ascii "CHAR_NULL 0x0000\0"
 11014      5F4E554C 
 11014      4C203078 
 11014      30303030 
 11014      00
 11015 c153 01       		.byte	0x1
 11016 c154 FB01     		.uleb128 0xfb
 11017 c156 43484152 		.ascii "CHAR_BACKSPACE 0x0008\0"
 11017      5F424143 
 11017      4B535041 
 11017      43452030 
 11017      78303030 
 11018 c16c 01       		.byte	0x1
 11019 c16d FC01     		.uleb128 0xfc
 11020 c16f 43484152 		.ascii "CHAR_TAB 0x0009\0"
 11020      5F544142 
 11020      20307830 
 11020      30303900 
 11021 c17f 01       		.byte	0x1
 11022 c180 FD01     		.uleb128 0xfd
 11023 c182 43484152 		.ascii "CHAR_LINEFEED 0x000A\0"
 11023      5F4C494E 
 11023      45464545 
 11023      44203078 
 11023      30303041 
 11024 c197 01       		.byte	0x1
 11025 c198 FE01     		.uleb128 0xfe
 11026 c19a 43484152 		.ascii "CHAR_CARRIAGE_RETURN 0x000D\0"
 11026      5F434152 
 11026      52494147 
 11026      455F5245 
 11026      5455524E 
 11027 c1b6 01       		.byte	0x1
 11028 c1b7 8402     		.uleb128 0x104
 11029 c1b9 5343414E 		.ascii "SCAN_NULL 0x0000\0"
 11029      5F4E554C 
 11029      4C203078 
 11029      30303030 
 11029      00
 11030 c1ca 01       		.byte	0x1
 11031 c1cb 8502     		.uleb128 0x105
 11032 c1cd 5343414E 		.ascii "SCAN_UP 0x0001\0"
 11032      5F555020 
 11032      30783030 
 11032      303100
 11033 c1dc 01       		.byte	0x1
 11034 c1dd 8602     		.uleb128 0x106
 11035 c1df 5343414E 		.ascii "SCAN_DOWN 0x0002\0"
 11035      5F444F57 
 11035      4E203078 
 11035      30303032 
 11035      00
 11036 c1f0 01       		.byte	0x1
 11037 c1f1 8702     		.uleb128 0x107
 11038 c1f3 5343414E 		.ascii "SCAN_RIGHT 0x0003\0"
 11038      5F524947 
 11038      48542030 
 11038      78303030 
 11038      3300
 11039 c205 01       		.byte	0x1
 11040 c206 8802     		.uleb128 0x108
 11041 c208 5343414E 		.ascii "SCAN_LEFT 0x0004\0"
 11041      5F4C4546 
 11041      54203078 
 11041      30303034 
 11041      00
 11042 c219 01       		.byte	0x1
 11043 c21a 8902     		.uleb128 0x109
 11044 c21c 5343414E 		.ascii "SCAN_HOME 0x0005\0"
 11044      5F484F4D 
 11044      45203078 
 11044      30303035 
 11044      00
 11045 c22d 01       		.byte	0x1
 11046 c22e 8A02     		.uleb128 0x10a
 11047 c230 5343414E 		.ascii "SCAN_END 0x0006\0"
 11047      5F454E44 
 11047      20307830 
 11047      30303600 
 11048 c240 01       		.byte	0x1
 11049 c241 8B02     		.uleb128 0x10b
 11050 c243 5343414E 		.ascii "SCAN_INSERT 0x0007\0"
 11050      5F494E53 
 11050      45525420 
 11050      30783030 
 11050      303700
 11051 c256 01       		.byte	0x1
 11052 c257 8C02     		.uleb128 0x10c
 11053 c259 5343414E 		.ascii "SCAN_DELETE 0x0008\0"
 11053      5F44454C 
 11053      45544520 
 11053      30783030 
 11053      303800
 11054 c26c 01       		.byte	0x1
 11055 c26d 8D02     		.uleb128 0x10d
 11056 c26f 5343414E 		.ascii "SCAN_PAGE_UP 0x0009\0"
 11056      5F504147 
 11056      455F5550 
 11056      20307830 
 11056      30303900 
 11057 c283 01       		.byte	0x1
 11058 c284 8E02     		.uleb128 0x10e
 11059 c286 5343414E 		.ascii "SCAN_PAGE_DOWN 0x000A\0"
 11059      5F504147 
 11059      455F444F 
 11059      574E2030 
 11059      78303030 
 11060 c29c 01       		.byte	0x1
 11061 c29d 8F02     		.uleb128 0x10f
 11062 c29f 5343414E 		.ascii "SCAN_F1 0x000B\0"
 11062      5F463120 
 11062      30783030 
 11062      304200
 11063 c2ae 01       		.byte	0x1
 11064 c2af 9002     		.uleb128 0x110
 11065 c2b1 5343414E 		.ascii "SCAN_F2 0x000C\0"
 11065      5F463220 
 11065      30783030 
 11065      304300
 11066 c2c0 01       		.byte	0x1
 11067 c2c1 9102     		.uleb128 0x111
 11068 c2c3 5343414E 		.ascii "SCAN_F3 0x000D\0"
 11068      5F463320 
 11068      30783030 
 11068      304400
 11069 c2d2 01       		.byte	0x1
 11070 c2d3 9202     		.uleb128 0x112
 11071 c2d5 5343414E 		.ascii "SCAN_F4 0x000E\0"
 11071      5F463420 
 11071      30783030 
 11071      304500
 11072 c2e4 01       		.byte	0x1
 11073 c2e5 9302     		.uleb128 0x113
 11074 c2e7 5343414E 		.ascii "SCAN_F5 0x000F\0"
 11074      5F463520 
 11074      30783030 
 11074      304600
 11075 c2f6 01       		.byte	0x1
 11076 c2f7 9402     		.uleb128 0x114
 11077 c2f9 5343414E 		.ascii "SCAN_F6 0x0010\0"
 11077      5F463620 
 11077      30783030 
 11077      313000
 11078 c308 01       		.byte	0x1
 11079 c309 9502     		.uleb128 0x115
 11080 c30b 5343414E 		.ascii "SCAN_F7 0x0011\0"
 11080      5F463720 
 11080      30783030 
 11080      313100
 11081 c31a 01       		.byte	0x1
 11082 c31b 9602     		.uleb128 0x116
 11083 c31d 5343414E 		.ascii "SCAN_F8 0x0012\0"
 11083      5F463820 
 11083      30783030 
 11083      313200
 11084 c32c 01       		.byte	0x1
 11085 c32d 9702     		.uleb128 0x117
 11086 c32f 5343414E 		.ascii "SCAN_F9 0x0013\0"
 11086      5F463920 
 11086      30783030 
 11086      313300
 11087 c33e 01       		.byte	0x1
 11088 c33f 9802     		.uleb128 0x118
 11089 c341 5343414E 		.ascii "SCAN_F10 0x0014\0"
 11089      5F463130 
 11089      20307830 
 11089      30313400 
 11090 c351 01       		.byte	0x1
 11091 c352 9902     		.uleb128 0x119
 11092 c354 5343414E 		.ascii "SCAN_F11 0x0015\0"
 11092      5F463131 
 11092      20307830 
 11092      30313500 
 11093 c364 01       		.byte	0x1
 11094 c365 9A02     		.uleb128 0x11a
 11095 c367 5343414E 		.ascii "SCAN_F12 0x0016\0"
 11095      5F463132 
 11095      20307830 
 11095      30313600 
 11096 c377 01       		.byte	0x1
 11097 c378 9B02     		.uleb128 0x11b
 11098 c37a 5343414E 		.ascii "SCAN_ESC 0x0017\0"
 11098      5F455343 
 11098      20307830 
 11098      30313700 
 11099 c38a 04       		.byte	0x4
 11100              		.file 24 "gnu-efi-3.0.18/inc/eficonex.h"
 11101 c38b 03       		.byte	0x3
 11102 c38c 47       		.uleb128 0x47
 11103 c38d 18       		.uleb128 0x18
 11104 c38e 01       		.byte	0x1
 11105 c38f 02       		.uleb128 0x2
 11106 c390 5F454649 		.ascii "_EFI_CONEX_H \0"
 11106      5F434F4E 
 11106      45585F48 
 11106      2000
 11107 c39e 01       		.byte	0x1
 11108 c39f 16       		.uleb128 0x16
 11109 c3a0 4546495F 		.ascii "EFI_SIMPLE_TEXT_INPUT_EX_PROTOCOL_GUID { 0xdd9e7534, 0x7762, 0x4698, {0x8c, 0x14, 0xf5, 0x
 11109      53494D50 
 11109      4C455F54 
 11109      4558545F 
 11109      494E5055 
 11110 c418 01       		.byte	0x1
 11111 c419 28       		.uleb128 0x28
 11112 c41a 4546495F 		.ascii "EFI_SHIFT_STATE_VALID 0x80000000\0"
 11112      53484946 
 11112      545F5354 
 11112      4154455F 
 11112      56414C49 
 11113 c43b 01       		.byte	0x1
 11114 c43c 29       		.uleb128 0x29
 11115 c43d 4546495F 		.ascii "EFI_RIGHT_SHIFT_PRESSED 0x00000001\0"
 11115      52494748 
 11115      545F5348 
 11115      4946545F 
 11115      50524553 
 11116 c460 01       		.byte	0x1
 11117 c461 2A       		.uleb128 0x2a
 11118 c462 4546495F 		.ascii "EFI_LEFT_SHIFT_PRESSED 0x00000002\0"
 11118      4C454654 
 11118      5F534849 
 11118      46545F50 
 11118      52455353 
 11119 c484 01       		.byte	0x1
 11120 c485 2B       		.uleb128 0x2b
 11121 c486 4546495F 		.ascii "EFI_RIGHT_CONTROL_PRESSED 0x00000004\0"
 11121      52494748 
 11121      545F434F 
 11121      4E54524F 
 11121      4C5F5052 
 11122 c4ab 01       		.byte	0x1
 11123 c4ac 2C       		.uleb128 0x2c
 11124 c4ad 4546495F 		.ascii "EFI_LEFT_CONTROL_PRESSED 0x00000008\0"
 11124      4C454654 
 11124      5F434F4E 
 11124      54524F4C 
 11124      5F505245 
 11125 c4d1 01       		.byte	0x1
 11126 c4d2 2D       		.uleb128 0x2d
 11127 c4d3 4546495F 		.ascii "EFI_RIGHT_ALT_PRESSED 0x00000010\0"
 11127      52494748 
 11127      545F414C 
 11127      545F5052 
 11127      45535345 
 11128 c4f4 01       		.byte	0x1
 11129 c4f5 2E       		.uleb128 0x2e
 11130 c4f6 4546495F 		.ascii "EFI_LEFT_ALT_PRESSED 0x00000020\0"
 11130      4C454654 
 11130      5F414C54 
 11130      5F505245 
 11130      53534544 
 11131 c516 01       		.byte	0x1
 11132 c517 2F       		.uleb128 0x2f
 11133 c518 4546495F 		.ascii "EFI_RIGHT_LOGO_PRESSED 0x00000040\0"
 11133      52494748 
 11133      545F4C4F 
 11133      474F5F50 
 11133      52455353 
 11134 c53a 01       		.byte	0x1
 11135 c53b 30       		.uleb128 0x30
 11136 c53c 4546495F 		.ascii "EFI_LEFT_LOGO_PRESSED 0x00000080\0"
 11136      4C454654 
 11136      5F4C4F47 
 11136      4F5F5052 
 11136      45535345 
 11137 c55d 01       		.byte	0x1
 11138 c55e 31       		.uleb128 0x31
 11139 c55f 4546495F 		.ascii "EFI_MENU_KEY_PRESSED 0x00000100\0"
 11139      4D454E55 
 11139      5F4B4559 
 11139      5F505245 
 11139      53534544 
 11140 c57f 01       		.byte	0x1
 11141 c580 32       		.uleb128 0x32
 11142 c581 4546495F 		.ascii "EFI_SYS_REQ_PRESSED 0x00000200\0"
 11142      5359535F 
 11142      5245515F 
 11142      50524553 
 11142      53454420 
 11143 c5a0 01       		.byte	0x1
 11144 c5a1 35       		.uleb128 0x35
 11145 c5a2 4546495F 		.ascii "EFI_TOGGLE_STATE_VALID 0x80\0"
 11145      544F4747 
 11145      4C455F53 
 11145      54415445 
 11145      5F56414C 
 11146 c5be 01       		.byte	0x1
 11147 c5bf 36       		.uleb128 0x36
 11148 c5c0 4546495F 		.ascii "EFI_KEY_STATE_EXPOSED 0x40\0"
 11148      4B45595F 
 11148      53544154 
 11148      455F4558 
 11148      504F5345 
 11149 c5db 01       		.byte	0x1
 11150 c5dc 37       		.uleb128 0x37
 11151 c5dd 4546495F 		.ascii "EFI_SCROLL_LOCK_ACTIVE 0x01\0"
 11151      5343524F 
 11151      4C4C5F4C 
 11151      4F434B5F 
 11151      41435449 
 11152 c5f9 01       		.byte	0x1
 11153 c5fa 38       		.uleb128 0x38
 11154 c5fb 4546495F 		.ascii "EFI_NUM_LOCK_ACTIVE 0x02\0"
 11154      4E554D5F 
 11154      4C4F434B 
 11154      5F414354 
 11154      49564520 
 11155 c614 01       		.byte	0x1
 11156 c615 39       		.uleb128 0x39
 11157 c616 4546495F 		.ascii "EFI_CAPS_LOCK_ACTIVE 0x04\0"
 11157      43415053 
 11157      5F4C4F43 
 11157      4B5F4143 
 11157      54495645 
 11158 c630 04       		.byte	0x4
 11159              		.file 25 "gnu-efi-3.0.18/inc/efiser.h"
 11160 c631 03       		.byte	0x3
 11161 c632 48       		.uleb128 0x48
 11162 c633 19       		.uleb128 0x19
 11163 c634 01       		.byte	0x1
 11164 c635 02       		.uleb128 0x2
 11165 c636 5F454649 		.ascii "_EFI_SER_H \0"
 11165      5F534552 
 11165      5F482000 
 11166 c642 01       		.byte	0x1
 11167 c643 18       		.uleb128 0x18
 11168 c644 4546495F 		.ascii "EFI_SERIAL_IO_PROTOCOL_GUID { 0xBB25CF6F, 0xF1D4, 0x11D2, {0x9A, 0x0C, 0x00, 0x90, 0x27, 0
 11168      53455249 
 11168      414C5F49 
 11168      4F5F5052 
 11168      4F544F43 
 11169 c6b1 01       		.byte	0x1
 11170 c6b2 1A       		.uleb128 0x1a
 11171 c6b3 53455249 		.ascii "SERIAL_IO_PROTOCOL EFI_SERIAL_IO_PROTOCOL_GUID\0"
 11171      414C5F49 
 11171      4F5F5052 
 11171      4F544F43 
 11171      4F4C2045 
 11172 c6e2 01       		.byte	0x1
 11173 c6e3 2E       		.uleb128 0x2e
 11174 c6e4 4546495F 		.ascii "EFI_SERIAL_CLEAR_TO_SEND 0x0010\0"
 11174      53455249 
 11174      414C5F43 
 11174      4C454152 
 11174      5F544F5F 
 11175 c704 01       		.byte	0x1
 11176 c705 2F       		.uleb128 0x2f
 11177 c706 4546495F 		.ascii "EFI_SERIAL_DATA_SET_READY 0x0020\0"
 11177      53455249 
 11177      414C5F44 
 11177      4154415F 
 11177      5345545F 
 11178 c727 01       		.byte	0x1
 11179 c728 30       		.uleb128 0x30
 11180 c729 4546495F 		.ascii "EFI_SERIAL_RING_INDICATE 0x0040\0"
 11180      53455249 
 11180      414C5F52 
 11180      494E475F 
 11180      494E4449 
 11181 c749 01       		.byte	0x1
 11182 c74a 31       		.uleb128 0x31
 11183 c74b 4546495F 		.ascii "EFI_SERIAL_CARRIER_DETECT 0x0080\0"
 11183      53455249 
 11183      414C5F43 
 11183      41525249 
 11183      45525F44 
 11184 c76c 01       		.byte	0x1
 11185 c76d 32       		.uleb128 0x32
 11186 c76e 4546495F 		.ascii "EFI_SERIAL_REQUEST_TO_SEND 0x0002\0"
 11186      53455249 
 11186      414C5F52 
 11186      45515545 
 11186      53545F54 
 11187 c790 01       		.byte	0x1
 11188 c791 33       		.uleb128 0x33
 11189 c792 4546495F 		.ascii "EFI_SERIAL_DATA_TERMINAL_READY 0x0001\0"
 11189      53455249 
 11189      414C5F44 
 11189      4154415F 
 11189      5445524D 
 11190 c7b8 01       		.byte	0x1
 11191 c7b9 34       		.uleb128 0x34
 11192 c7ba 4546495F 		.ascii "EFI_SERIAL_INPUT_BUFFER_EMPTY 0x0100\0"
 11192      53455249 
 11192      414C5F49 
 11192      4E505554 
 11192      5F425546 
 11193 c7df 01       		.byte	0x1
 11194 c7e0 35       		.uleb128 0x35
 11195 c7e1 4546495F 		.ascii "EFI_SERIAL_OUTPUT_BUFFER_EMPTY 0x0200\0"
 11195      53455249 
 11195      414C5F4F 
 11195      55545055 
 11195      545F4255 
 11196 c807 01       		.byte	0x1
 11197 c808 36       		.uleb128 0x36
 11198 c809 4546495F 		.ascii "EFI_SERIAL_HARDWARE_LOOPBACK_ENABLE 0x1000\0"
 11198      53455249 
 11198      414C5F48 
 11198      41524457 
 11198      4152455F 
 11199 c834 01       		.byte	0x1
 11200 c835 37       		.uleb128 0x37
 11201 c836 4546495F 		.ascii "EFI_SERIAL_SOFTWARE_LOOPBACK_ENABLE 0x2000\0"
 11201      53455249 
 11201      414C5F53 
 11201      4F465457 
 11201      4152455F 
 11202 c861 01       		.byte	0x1
 11203 c862 38       		.uleb128 0x38
 11204 c863 4546495F 		.ascii "EFI_SERIAL_HARDWARE_FLOW_CONTROL_ENABLE 0x4000\0"
 11204      53455249 
 11204      414C5F48 
 11204      41524457 
 11204      4152455F 
 11205 c892 01       		.byte	0x1
 11206 c893 76       		.uleb128 0x76
 11207 c894 53455249 		.ascii "SERIAL_IO_INTERFACE_REVISION 0x00010000\0"
 11207      414C5F49 
 11207      4F5F494E 
 11207      54455246 
 11207      4143455F 
 11208 c8bc 04       		.byte	0x4
 11209              		.file 26 "gnu-efi-3.0.18/inc/efi_nii.h"
 11210 c8bd 03       		.byte	0x3
 11211 c8be 49       		.uleb128 0x49
 11212 c8bf 1A       		.uleb128 0x1a
 11213 c8c0 01       		.byte	0x1
 11214 c8c1 02       		.uleb128 0x2
 11215 c8c2 5F454649 		.ascii "_EFI_NII_H \0"
 11215      5F4E4949 
 11215      5F482000 
 11216 c8ce 01       		.byte	0x1
 11217 c8cf 14       		.uleb128 0x14
 11218 c8d0 4546495F 		.ascii "EFI_NETWORK_INTERFACE_IDENTIFIER_PROTOCOL_GUID { 0xE18541CD, 0xF755, 0x4f73, {0x92, 0x8D, 
 11218      4E455457 
 11218      4F524B5F 
 11218      494E5445 
 11218      52464143 
 11219 c950 01       		.byte	0x1
 11220 c951 17       		.uleb128 0x17
 11221 c952 4546495F 		.ascii "EFI_NETWORK_INTERFACE_IDENTIFIER_PROTOCOL_REVISION 0x00010000\0"
 11221      4E455457 
 11221      4F524B5F 
 11221      494E5445 
 11221      52464143 
 11222 c990 01       		.byte	0x1
 11223 c991 18       		.uleb128 0x18
 11224 c992 4546495F 		.ascii "EFI_NETWORK_INTERFACE_IDENTIFIER_INTERFACE_REVISION EFI_NETWORK_INTERFACE_IDENTIFIER_PROTO
 11224      4E455457 
 11224      4F524B5F 
 11224      494E5445 
 11224      52464143 
 11225 c9f9 04       		.byte	0x4
 11226              		.file 27 "gnu-efi-3.0.18/inc/efipxebc.h"
 11227 c9fa 03       		.byte	0x3
 11228 c9fb 4A       		.uleb128 0x4a
 11229 c9fc 1B       		.uleb128 0x1b
 11230 c9fd 01       		.byte	0x1
 11231 c9fe 02       		.uleb128 0x2
 11232 c9ff 5F454649 		.ascii "_EFIPXEBC_H \0"
 11232      50584542 
 11232      435F4820 
 11232      00
 11233 ca0c 01       		.byte	0x1
 11234 ca0d 1A       		.uleb128 0x1a
 11235 ca0e 4546495F 		.ascii "EFI_PXE_BASE_CODE_PROTOCOL_GUID { 0x03c4e603, 0xac28, 0x11d3, {0x9a, 0x2d, 0x00, 0x90, 0x2
 11235      5058455F 
 11235      42415345 
 11235      5F434F44 
 11235      455F5052 
 11236 ca7f 01       		.byte	0x1
 11237 ca80 1F       		.uleb128 0x1f
 11238 ca81 44454641 		.ascii "DEFAULT_TTL 4\0"
 11238      554C545F 
 11238      54544C20 
 11238      3400
 11239 ca8f 01       		.byte	0x1
 11240 ca90 20       		.uleb128 0x20
 11241 ca91 44454641 		.ascii "DEFAULT_ToS 0\0"
 11241      554C545F 
 11241      546F5320 
 11241      3000
 11242 ca9f 01       		.byte	0x1
 11243 caa0 68       		.uleb128 0x68
 11244 caa1 4546495F 		.ascii "EFI_PXE_BASE_CODE_MAX_IPCNT 8\0"
 11244      5058455F 
 11244      42415345 
 11244      5F434F44 
 11244      455F4D41 
 11245 cabf 01       		.byte	0x1
 11246 cac0 70       		.uleb128 0x70
 11247 cac1 4546495F 		.ascii "EFI_PXE_BASE_CODE_IP_FILTER_STATION_IP 0x0001\0"
 11247      5058455F 
 11247      42415345 
 11247      5F434F44 
 11247      455F4950 
 11248 caef 01       		.byte	0x1
 11249 caf0 71       		.uleb128 0x71
 11250 caf1 4546495F 		.ascii "EFI_PXE_BASE_CODE_IP_FILTER_BROADCAST 0x0002\0"
 11250      5058455F 
 11250      42415345 
 11250      5F434F44 
 11250      455F4950 
 11251 cb1e 01       		.byte	0x1
 11252 cb1f 72       		.uleb128 0x72
 11253 cb20 4546495F 		.ascii "EFI_PXE_BASE_CODE_IP_FILTER_PROMISCUOUS 0x0004\0"
 11253      5058455F 
 11253      42415345 
 11253      5F434F44 
 11253      455F4950 
 11254 cb4f 01       		.byte	0x1
 11255 cb50 73       		.uleb128 0x73
 11256 cb51 4546495F 		.ascii "EFI_PXE_BASE_CODE_IP_FILTER_PROMISCUOUS_MULTICAST 0x0008\0"
 11256      5058455F 
 11256      42415345 
 11256      5F434F44 
 11256      455F4950 
 11257 cb8a 01       		.byte	0x1
 11258 cb8b 8801     		.uleb128 0x88
 11259 cb8d 4546495F 		.ascii "EFI_PXE_BASE_CODE_UDP_OPFLAGS_ANY_SRC_IP 0x0001\0"
 11259      5058455F 
 11259      42415345 
 11259      5F434F44 
 11259      455F5544 
 11260 cbbd 01       		.byte	0x1
 11261 cbbe 8901     		.uleb128 0x89
 11262 cbc0 4546495F 		.ascii "EFI_PXE_BASE_CODE_UDP_OPFLAGS_ANY_SRC_PORT 0x0002\0"
 11262      5058455F 
 11262      42415345 
 11262      5F434F44 
 11262      455F5544 
 11263 cbf2 01       		.byte	0x1
 11264 cbf3 8A01     		.uleb128 0x8a
 11265 cbf5 4546495F 		.ascii "EFI_PXE_BASE_CODE_UDP_OPFLAGS_ANY_DEST_IP 0x0004\0"
 11265      5058455F 
 11265      42415345 
 11265      5F434F44 
 11265      455F5544 
 11266 cc26 01       		.byte	0x1
 11267 cc27 8B01     		.uleb128 0x8b
 11268 cc29 4546495F 		.ascii "EFI_PXE_BASE_CODE_UDP_OPFLAGS_ANY_DEST_PORT 0x0008\0"
 11268      5058455F 
 11268      42415345 
 11268      5F434F44 
 11268      455F5544 
 11269 cc5c 01       		.byte	0x1
 11270 cc5d 8C01     		.uleb128 0x8c
 11271 cc5f 4546495F 		.ascii "EFI_PXE_BASE_CODE_UDP_OPFLAGS_USE_FILTER 0x0010\0"
 11271      5058455F 
 11271      42415345 
 11271      5F434F44 
 11271      455F5544 
 11272 cc8f 01       		.byte	0x1
 11273 cc90 8D01     		.uleb128 0x8d
 11274 cc92 4546495F 		.ascii "EFI_PXE_BASE_CODE_UDP_OPFLAGS_MAY_FRAGMENT 0x0020\0"
 11274      5058455F 
 11274      42415345 
 11274      5F434F44 
 11274      455F5544 
 11275 ccc4 01       		.byte	0x1
 11276 ccc5 9301     		.uleb128 0x93
 11277 ccc7 4546495F 		.ascii "EFI_PXE_BASE_CODE_BOOT_TYPE_BOOTSTRAP 0\0"
 11277      5058455F 
 11277      42415345 
 11277      5F434F44 
 11277      455F424F 
 11278 ccef 01       		.byte	0x1
 11279 ccf0 9401     		.uleb128 0x94
 11280 ccf2 4546495F 		.ascii "EFI_PXE_BASE_CODE_BOOT_TYPE_MS_WINNT_RIS 1\0"
 11280      5058455F 
 11280      42415345 
 11280      5F434F44 
 11280      455F424F 
 11281 cd1d 01       		.byte	0x1
 11282 cd1e 9501     		.uleb128 0x95
 11283 cd20 4546495F 		.ascii "EFI_PXE_BASE_CODE_BOOT_TYPE_INTEL_LCM 2\0"
 11283      5058455F 
 11283      42415345 
 11283      5F434F44 
 11283      455F424F 
 11284 cd48 01       		.byte	0x1
 11285 cd49 9601     		.uleb128 0x96
 11286 cd4b 4546495F 		.ascii "EFI_PXE_BASE_CODE_BOOT_TYPE_DOSUNDI 3\0"
 11286      5058455F 
 11286      42415345 
 11286      5F434F44 
 11286      455F424F 
 11287 cd71 01       		.byte	0x1
 11288 cd72 9701     		.uleb128 0x97
 11289 cd74 4546495F 		.ascii "EFI_PXE_BASE_CODE_BOOT_TYPE_NEC_ESMPRO 4\0"
 11289      5058455F 
 11289      42415345 
 11289      5F434F44 
 11289      455F424F 
 11290 cd9d 01       		.byte	0x1
 11291 cd9e 9801     		.uleb128 0x98
 11292 cda0 4546495F 		.ascii "EFI_PXE_BASE_CODE_BOOT_TYPE_IBM_WSoD 5\0"
 11292      5058455F 
 11292      42415345 
 11292      5F434F44 
 11292      455F424F 
 11293 cdc7 01       		.byte	0x1
 11294 cdc8 9901     		.uleb128 0x99
 11295 cdca 4546495F 		.ascii "EFI_PXE_BASE_CODE_BOOT_TYPE_IBM_LCCM 6\0"
 11295      5058455F 
 11295      42415345 
 11295      5F434F44 
 11295      455F424F 
 11296 cdf1 01       		.byte	0x1
 11297 cdf2 9A01     		.uleb128 0x9a
 11298 cdf4 4546495F 		.ascii "EFI_PXE_BASE_CODE_BOOT_TYPE_CA_UNICENTER_TNG 7\0"
 11298      5058455F 
 11298      42415345 
 11298      5F434F44 
 11298      455F424F 
 11299 ce23 01       		.byte	0x1
 11300 ce24 9B01     		.uleb128 0x9b
 11301 ce26 4546495F 		.ascii "EFI_PXE_BASE_CODE_BOOT_TYPE_HP_OPENVIEW 8\0"
 11301      5058455F 
 11301      42415345 
 11301      5F434F44 
 11301      455F424F 
 11302 ce50 01       		.byte	0x1
 11303 ce51 9C01     		.uleb128 0x9c
 11304 ce53 4546495F 		.ascii "EFI_PXE_BASE_CODE_BOOT_TYPE_ALTIRIS_9 9\0"
 11304      5058455F 
 11304      42415345 
 11304      5F434F44 
 11304      455F424F 
 11305 ce7b 01       		.byte	0x1
 11306 ce7c 9D01     		.uleb128 0x9d
 11307 ce7e 4546495F 		.ascii "EFI_PXE_BASE_CODE_BOOT_TYPE_ALTIRIS_10 10\0"
 11307      5058455F 
 11307      42415345 
 11307      5F434F44 
 11307      455F424F 
 11308 cea8 01       		.byte	0x1
 11309 cea9 9E01     		.uleb128 0x9e
 11310 ceab 4546495F 		.ascii "EFI_PXE_BASE_CODE_BOOT_TYPE_ALTIRIS_11 11\0"
 11310      5058455F 
 11310      42415345 
 11310      5F434F44 
 11310      455F424F 
 11311 ced5 01       		.byte	0x1
 11312 ced6 9F01     		.uleb128 0x9f
 11313 ced8 4546495F 		.ascii "EFI_PXE_BASE_CODE_BOOT_TYPE_NOT_USED_12 12\0"
 11313      5058455F 
 11313      42415345 
 11313      5F434F44 
 11313      455F424F 
 11314 cf03 01       		.byte	0x1
 11315 cf04 A001     		.uleb128 0xa0
 11316 cf06 4546495F 		.ascii "EFI_PXE_BASE_CODE_BOOT_TYPE_REDHAT_INSTALL 13\0"
 11316      5058455F 
 11316      42415345 
 11316      5F434F44 
 11316      455F424F 
 11317 cf34 01       		.byte	0x1
 11318 cf35 A101     		.uleb128 0xa1
 11319 cf37 4546495F 		.ascii "EFI_PXE_BASE_CODE_BOOT_TYPE_REDHAT_BOOT 14\0"
 11319      5058455F 
 11319      42415345 
 11319      5F434F44 
 11319      455F424F 
 11320 cf62 01       		.byte	0x1
 11321 cf63 A201     		.uleb128 0xa2
 11322 cf65 4546495F 		.ascii "EFI_PXE_BASE_CODE_BOOT_TYPE_REMBO 15\0"
 11322      5058455F 
 11322      42415345 
 11322      5F434F44 
 11322      455F424F 
 11323 cf8a 01       		.byte	0x1
 11324 cf8b A301     		.uleb128 0xa3
 11325 cf8d 4546495F 		.ascii "EFI_PXE_BASE_CODE_BOOT_TYPE_BEOBOOT 16\0"
 11325      5058455F 
 11325      42415345 
 11325      5F434F44 
 11325      455F424F 
 11326 cfb4 01       		.byte	0x1
 11327 cfb5 A901     		.uleb128 0xa9
 11328 cfb7 4546495F 		.ascii "EFI_PXE_BASE_CODE_BOOT_TYPE_PXETEST 65535\0"
 11328      5058455F 
 11328      42415345 
 11328      5F434F44 
 11328      455F424F 
 11329 cfe1 01       		.byte	0x1
 11330 cfe2 AB01     		.uleb128 0xab
 11331 cfe4 4546495F 		.ascii "EFI_PXE_BASE_CODE_BOOT_LAYER_MASK 0x7FFF\0"
 11331      5058455F 
 11331      42415345 
 11331      5F434F44 
 11331      455F424F 
 11332 d00d 01       		.byte	0x1
 11333 d00e AC01     		.uleb128 0xac
 11334 d010 4546495F 		.ascii "EFI_PXE_BASE_CODE_BOOT_LAYER_INITIAL 0x0000\0"
 11334      5058455F 
 11334      42415345 
 11334      5F434F44 
 11334      455F424F 
 11335 d03c 01       		.byte	0x1
 11336 d03d DC01     		.uleb128 0xdc
 11337 d03f 4546495F 		.ascii "EFI_PXE_BASE_CODE_MAX_ARP_ENTRIES 8\0"
 11337      5058455F 
 11337      42415345 
 11337      5F434F44 
 11337      455F4D41 
 11338 d063 01       		.byte	0x1
 11339 d064 DD01     		.uleb128 0xdd
 11340 d066 4546495F 		.ascii "EFI_PXE_BASE_CODE_MAX_ROUTE_ENTRIES 8\0"
 11340      5058455F 
 11340      42415345 
 11340      5F434F44 
 11340      455F4D41 
 11341 d08c 01       		.byte	0x1
 11342 d08d 8C03     		.uleb128 0x18c
 11343 d08f 4546495F 		.ascii "EFI_PXE_BASE_CODE_PROTOCOL_REVISION 0x00010000\0"
 11343      5058455F 
 11343      42415345 
 11343      5F434F44 
 11343      455F5052 
 11344 d0be 01       		.byte	0x1
 11345 d0bf 8D03     		.uleb128 0x18d
 11346 d0c1 4546495F 		.ascii "EFI_PXE_BASE_CODE_INTERFACE_REVISION EFI_PXE_BASE_CODE_PROTOCOL_REVISION\0"
 11346      5058455F 
 11346      42415345 
 11346      5F434F44 
 11346      455F494E 
 11347 d10a 01       		.byte	0x1
 11348 d10b AC03     		.uleb128 0x1ac
 11349 d10d 4546495F 		.ascii "EFI_PXE_BASE_CODE_CALLBACK_PROTOCOL_GUID { 0x245dca21, 0xfb7b, 0x11d3, {0x8f, 0x01, 0x00, 
 11349      5058455F 
 11349      42415345 
 11349      5F434F44 
 11349      455F4341 
 11350 d187 01       		.byte	0x1
 11351 d188 B303     		.uleb128 0x1b3
 11352 d18a 4546495F 		.ascii "EFI_PXE_BASE_CODE_CALLBACK_PROTOCOL_REVISION 0x00010000\0"
 11352      5058455F 
 11352      42415345 
 11352      5F434F44 
 11352      455F4341 
 11353 d1c2 01       		.byte	0x1
 11354 d1c3 B403     		.uleb128 0x1b4
 11355 d1c5 4546495F 		.ascii "EFI_PXE_BASE_CODE_CALLBACK_INTERFACE_REVISION EFI_PXE_BASE_CODE_CALLBACK_PROTOCOL_REVISION
 11355      5058455F 
 11355      42415345 
 11355      5F434F44 
 11355      455F4341 
 11356 d220 04       		.byte	0x4
 11357              		.file 28 "gnu-efi-3.0.18/inc/efinet.h"
 11358 d221 03       		.byte	0x3
 11359 d222 4B       		.uleb128 0x4b
 11360 d223 1C       		.uleb128 0x1c
 11361 d224 01       		.byte	0x1
 11362 d225 02       		.uleb128 0x2
 11363 d226 5F454649 		.ascii "_EFINET_H \0"
 11363      4E45545F 
 11363      482000
 11364 d231 01       		.byte	0x1
 11365 d232 17       		.uleb128 0x17
 11366 d233 4546495F 		.ascii "EFI_SIMPLE_NETWORK_PROTOCOL_GUID { 0xA19832B9, 0xAC25, 0x11D3, {0x9A, 0x2D, 0x00, 0x90, 0x
 11366      53494D50 
 11366      4C455F4E 
 11366      4554574F 
 11366      524B5F50 
 11367 d2a5 01       		.byte	0x1
 11368 d2a6 7D       		.uleb128 0x7d
 11369 d2a7 4546495F 		.ascii "EFI_SIMPLE_NETWORK_RECEIVE_UNICAST 0x01\0"
 11369      53494D50 
 11369      4C455F4E 
 11369      4554574F 
 11369      524B5F52 
 11370 d2cf 01       		.byte	0x1
 11371 d2d0 7E       		.uleb128 0x7e
 11372 d2d1 4546495F 		.ascii "EFI_SIMPLE_NETWORK_RECEIVE_MULTICAST 0x02\0"
 11372      53494D50 
 11372      4C455F4E 
 11372      4554574F 
 11372      524B5F52 
 11373 d2fb 01       		.byte	0x1
 11374 d2fc 7F       		.uleb128 0x7f
 11375 d2fd 4546495F 		.ascii "EFI_SIMPLE_NETWORK_RECEIVE_BROADCAST 0x04\0"
 11375      53494D50 
 11375      4C455F4E 
 11375      4554574F 
 11375      524B5F52 
 11376 d327 01       		.byte	0x1
 11377 d328 8001     		.uleb128 0x80
 11378 d32a 4546495F 		.ascii "EFI_SIMPLE_NETWORK_RECEIVE_PROMISCUOUS 0x08\0"
 11378      53494D50 
 11378      4C455F4E 
 11378      4554574F 
 11378      524B5F52 
 11379 d356 01       		.byte	0x1
 11380 d357 8101     		.uleb128 0x81
 11381 d359 4546495F 		.ascii "EFI_SIMPLE_NETWORK_RECEIVE_PROMISCUOUS_MULTICAST 0x10\0"
 11381      53494D50 
 11381      4C455F4E 
 11381      4554574F 
 11381      524B5F52 
 11382 d38f 01       		.byte	0x1
 11383 d390 8601     		.uleb128 0x86
 11384 d392 4546495F 		.ascii "EFI_SIMPLE_NETWORK_RECEIVE_INTERRUPT 0x01\0"
 11384      53494D50 
 11384      4C455F4E 
 11384      4554574F 
 11384      524B5F52 
 11385 d3bc 01       		.byte	0x1
 11386 d3bd 8701     		.uleb128 0x87
 11387 d3bf 4546495F 		.ascii "EFI_SIMPLE_NETWORK_TRANSMIT_INTERRUPT 0x02\0"
 11387      53494D50 
 11387      4C455F4E 
 11387      4554574F 
 11387      524B5F54 
 11388 d3ea 01       		.byte	0x1
 11389 d3eb 8801     		.uleb128 0x88
 11390 d3ed 4546495F 		.ascii "EFI_SIMPLE_NETWORK_COMMAND_INTERRUPT 0x04\0"
 11390      53494D50 
 11390      4C455F4E 
 11390      4554574F 
 11390      524B5F43 
 11391 d417 01       		.byte	0x1
 11392 d418 8901     		.uleb128 0x89
 11393 d41a 4546495F 		.ascii "EFI_SIMPLE_NETWORK_SOFTWARE_INTERRUPT 0x08\0"
 11393      53494D50 
 11393      4C455F4E 
 11393      4554574F 
 11393      524B5F53 
 11394 d445 01       		.byte	0x1
 11395 d446 8D01     		.uleb128 0x8d
 11396 d448 4D41585F 		.ascii "MAX_MCAST_FILTER_CNT 16\0"
 11396      4D434153 
 11396      545F4649 
 11396      4C544552 
 11396      5F434E54 
 11397 d460 01       		.byte	0x1
 11398 d461 BE02     		.uleb128 0x13e
 11399 d463 4546495F 		.ascii "EFI_SIMPLE_NETWORK_PROTOCOL_REVISION 0x00010000\0"
 11399      53494D50 
 11399      4C455F4E 
 11399      4554574F 
 11399      524B5F50 
 11400 d493 01       		.byte	0x1
 11401 d494 BF02     		.uleb128 0x13f
 11402 d496 4546495F 		.ascii "EFI_SIMPLE_NETWORK_INTERFACE_REVISION EFI_SIMPLE_NETWORK_PROTOCOL_REVISION\0"
 11402      53494D50 
 11402      4C455F4E 
 11402      4554574F 
 11402      524B5F49 
 11403 d4e1 04       		.byte	0x4
 11404 d4e2 03       		.byte	0x3
 11405 d4e3 4C       		.uleb128 0x4c
 11406 d4e4 09       		.uleb128 0x9
 11407 d4e5 01       		.byte	0x1
 11408 d4e6 02       		.uleb128 0x2
 11409 d4e7 5F454649 		.ascii "_EFI_API_H \0"
 11409      5F415049 
 11409      5F482000 
 11410 d4f3 01       		.byte	0x1
 11411 d4f4 1B       		.uleb128 0x1b
 11412 d4f5 4546495F 		.ascii "EFI_SPECIFICATION_REVISION_MAJORMINOR(major,minor) ((major<<16) | (minor))\0"
 11412      53504543 
 11412      49464943 
 11412      4154494F 
 11412      4E5F5245 
 11413 d540 01       		.byte	0x1
 11414 d541 1C       		.uleb128 0x1c
 11415 d542 4546495F 		.ascii "EFI_SPECIFICATION_MAJOR_REVISION 1\0"
 11415      53504543 
 11415      49464943 
 11415      4154494F 
 11415      4E5F4D41 
 11416 d565 01       		.byte	0x1
 11417 d566 1D       		.uleb128 0x1d
 11418 d567 4546495F 		.ascii "EFI_SPECIFICATION_MINOR_REVISION 02\0"
 11418      53504543 
 11418      49464943 
 11418      4154494F 
 11418      4E5F4D49 
 11419 d58b 01       		.byte	0x1
 11420 d58c 1E       		.uleb128 0x1e
 11421 d58d 4546495F 		.ascii "EFI_SPECIFICATION_VERSION EFI_SPECIFICATION_REVISION_MAJORMINOR(EFI_SPECIFICATION_MAJOR_RE
 11421      53504543 
 11421      49464943 
 11421      4154494F 
 11421      4E5F5645 
 11422 d611 01       		.byte	0x1
 11423 d612 44       		.uleb128 0x44
 11424 d613 4E657874 		.ascii "NextMemoryDescriptor(Ptr,Size) ((EFI_MEMORY_DESCRIPTOR *) (((UINT8 *) Ptr) + Size))\0"
 11424      4D656D6F 
 11424      72794465 
 11424      73637269 
 11424      70746F72 
 11425 d667 01       		.byte	0x1
 11426 d668 5F       		.uleb128 0x5f
 11427 d669 4546495F 		.ascii "EFI_OPTIONAL_PTR 0x00000001\0"
 11427      4F505449 
 11427      4F4E414C 
 11427      5F505452 
 11427      20307830 
 11428 d685 01       		.byte	0x1
 11429 d686 60       		.uleb128 0x60
 11430 d687 4546495F 		.ascii "EFI_INTERNAL_FNC 0x00000002\0"
 11430      494E5445 
 11430      524E414C 
 11430      5F464E43 
 11430      20307830 
 11431 d6a3 01       		.byte	0x1
 11432 d6a4 61       		.uleb128 0x61
 11433 d6a5 4546495F 		.ascii "EFI_INTERNAL_PTR 0x00000004\0"
 11433      494E5445 
 11433      524E414C 
 11433      5F505452 
 11433      20307830 
 11434 d6c1 01       		.byte	0x1
 11435 d6c2 70       		.uleb128 0x70
 11436 d6c3 4556545F 		.ascii "EVT_TIMER 0x80000000\0"
 11436      54494D45 
 11436      52203078 
 11436      38303030 
 11436      30303030 
 11437 d6d8 01       		.byte	0x1
 11438 d6d9 71       		.uleb128 0x71
 11439 d6da 4556545F 		.ascii "EVT_RUNTIME 0x40000000\0"
 11439      52554E54 
 11439      494D4520 
 11439      30783430 
 11439      30303030 
 11440 d6f1 01       		.byte	0x1
 11441 d6f2 72       		.uleb128 0x72
 11442 d6f3 4556545F 		.ascii "EVT_RUNTIME_CONTEXT 0x20000000\0"
 11442      52554E54 
 11442      494D455F 
 11442      434F4E54 
 11442      45585420 
 11443 d712 01       		.byte	0x1
 11444 d713 74       		.uleb128 0x74
 11445 d714 4556545F 		.ascii "EVT_NOTIFY_WAIT 0x00000100\0"
 11445      4E4F5449 
 11445      46595F57 
 11445      41495420 
 11445      30783030 
 11446 d72f 01       		.byte	0x1
 11447 d730 75       		.uleb128 0x75
 11448 d731 4556545F 		.ascii "EVT_NOTIFY_SIGNAL 0x00000200\0"
 11448      4E4F5449 
 11448      46595F53 
 11448      49474E41 
 11448      4C203078 
 11449 d74e 01       		.byte	0x1
 11450 d74f 77       		.uleb128 0x77
 11451 d750 4556545F 		.ascii "EVT_SIGNAL_EXIT_BOOT_SERVICES 0x00000201\0"
 11451      5349474E 
 11451      414C5F45 
 11451      5849545F 
 11451      424F4F54 
 11452 d779 01       		.byte	0x1
 11453 d77a 78       		.uleb128 0x78
 11454 d77b 4556545F 		.ascii "EVT_SIGNAL_VIRTUAL_ADDRESS_CHANGE 0x60000202\0"
 11454      5349474E 
 11454      414C5F56 
 11454      49525455 
 11454      414C5F41 
 11455 d7a8 01       		.byte	0x1
 11456 d7a9 7A       		.uleb128 0x7a
 11457 d7aa 4556545F 		.ascii "EVT_EFI_SIGNAL_MASK 0x000000FF\0"
 11457      4546495F 
 11457      5349474E 
 11457      414C5F4D 
 11457      41534B20 
 11458 d7c9 01       		.byte	0x1
 11459 d7ca 7B       		.uleb128 0x7b
 11460 d7cb 4556545F 		.ascii "EVT_EFI_SIGNAL_MAX 4\0"
 11460      4546495F 
 11460      5349474E 
 11460      414C5F4D 
 11460      41582034 
 11461 d7e0 01       		.byte	0x1
 11462 d7e1 7D       		.uleb128 0x7d
 11463 d7e2 4546495F 		.ascii "EFI_EVENT_TIMER EVT_TIMER\0"
 11463      4556454E 
 11463      545F5449 
 11463      4D455220 
 11463      4556545F 
 11464 d7fc 01       		.byte	0x1
 11465 d7fd 7E       		.uleb128 0x7e
 11466 d7fe 4546495F 		.ascii "EFI_EVENT_RUNTIME EVT_RUNTIME\0"
 11466      4556454E 
 11466      545F5255 
 11466      4E54494D 
 11466      45204556 
 11467 d81c 01       		.byte	0x1
 11468 d81d 7F       		.uleb128 0x7f
 11469 d81e 4546495F 		.ascii "EFI_EVENT_RUNTIME_CONTEXT EVT_RUNTIME_CONTEXT\0"
 11469      4556454E 
 11469      545F5255 
 11469      4E54494D 
 11469      455F434F 
 11470 d84c 01       		.byte	0x1
 11471 d84d 8001     		.uleb128 0x80
 11472 d84f 4546495F 		.ascii "EFI_EVENT_NOTIFY_WAIT EVT_NOTIFY_WAIT\0"
 11472      4556454E 
 11472      545F4E4F 
 11472      54494659 
 11472      5F574149 
 11473 d875 01       		.byte	0x1
 11474 d876 8101     		.uleb128 0x81
 11475 d878 4546495F 		.ascii "EFI_EVENT_NOTIFY_SIGNAL EVT_NOTIFY_SIGNAL\0"
 11475      4556454E 
 11475      545F4E4F 
 11475      54494659 
 11475      5F534947 
 11476 d8a2 01       		.byte	0x1
 11477 d8a3 8201     		.uleb128 0x82
 11478 d8a5 4546495F 		.ascii "EFI_EVENT_SIGNAL_EXIT_BOOT_SERVICES EVT_SIGNAL_EXIT_BOOT_SERVICES\0"
 11478      4556454E 
 11478      545F5349 
 11478      474E414C 
 11478      5F455849 
 11479 d8e7 01       		.byte	0x1
 11480 d8e8 8301     		.uleb128 0x83
 11481 d8ea 4546495F 		.ascii "EFI_EVENT_SIGNAL_VIRTUAL_ADDRESS_CHANGE EVT_SIGNAL_VIRTUAL_ADDRESS_CHANGE\0"
 11481      4556454E 
 11481      545F5349 
 11481      474E414C 
 11481      5F564952 
 11482 d934 01       		.byte	0x1
 11483 d935 8401     		.uleb128 0x84
 11484 d937 4546495F 		.ascii "EFI_EVENT_EFI_SIGNAL_MASK EVT_EFI_SIGNAL_MASK\0"
 11484      4556454E 
 11484      545F4546 
 11484      495F5349 
 11484      474E414C 
 11485 d965 01       		.byte	0x1
 11486 d966 8501     		.uleb128 0x85
 11487 d968 4546495F 		.ascii "EFI_EVENT_EFI_SIGNAL_MAX EVT_EFI_SIGNAL_MAX\0"
 11487      4556454E 
 11487      545F4546 
 11487      495F5349 
 11487      474E414C 
 11488 d994 01       		.byte	0x1
 11489 d995 C601     		.uleb128 0xc6
 11490 d997 54504C5F 		.ascii "TPL_APPLICATION 4\0"
 11490      4150504C 
 11490      49434154 
 11490      494F4E20 
 11490      3400
 11491 d9a9 01       		.byte	0x1
 11492 d9aa C701     		.uleb128 0xc7
 11493 d9ac 54504C5F 		.ascii "TPL_CALLBACK 8\0"
 11493      43414C4C 
 11493      4241434B 
 11493      203800
 11494 d9bb 01       		.byte	0x1
 11495 d9bc C801     		.uleb128 0xc8
 11496 d9be 54504C5F 		.ascii "TPL_NOTIFY 16\0"
 11496      4E4F5449 
 11496      46592031 
 11496      3600
 11497 d9cc 01       		.byte	0x1
 11498 d9cd C901     		.uleb128 0xc9
 11499 d9cf 54504C5F 		.ascii "TPL_HIGH_LEVEL 31\0"
 11499      48494748 
 11499      5F4C4556 
 11499      454C2033 
 11499      3100
 11500 d9e1 01       		.byte	0x1
 11501 d9e2 CA01     		.uleb128 0xca
 11502 d9e4 4546495F 		.ascii "EFI_TPL_APPLICATION TPL_APPLICATION\0"
 11502      54504C5F 
 11502      4150504C 
 11502      49434154 
 11502      494F4E20 
 11503 da08 01       		.byte	0x1
 11504 da09 CB01     		.uleb128 0xcb
 11505 da0b 4546495F 		.ascii "EFI_TPL_CALLBACK TPL_CALLBACK\0"
 11505      54504C5F 
 11505      43414C4C 
 11505      4241434B 
 11505      2054504C 
 11506 da29 01       		.byte	0x1
 11507 da2a CC01     		.uleb128 0xcc
 11508 da2c 4546495F 		.ascii "EFI_TPL_NOTIFY TPL_NOTIFY\0"
 11508      54504C5F 
 11508      4E4F5449 
 11508      46592054 
 11508      504C5F4E 
 11509 da46 01       		.byte	0x1
 11510 da47 CD01     		.uleb128 0xcd
 11511 da49 4546495F 		.ascii "EFI_TPL_HIGH_LEVEL TPL_HIGH_LEVEL\0"
 11511      54504C5F 
 11511      48494748 
 11511      5F4C4556 
 11511      454C2054 
 11512 da6b 01       		.byte	0x1
 11513 da6c DF01     		.uleb128 0xdf
 11514 da6e 4546495F 		.ascii "EFI_GLOBAL_VARIABLE { 0x8BE4DF61, 0x93CA, 0x11d2, {0xAA, 0x0D, 0x00, 0xE0, 0x98, 0x03, 0x2
 11514      474C4F42 
 11514      414C5F56 
 11514      41524941 
 11514      424C4520 
 11515 dad3 01       		.byte	0x1
 11516 dad4 E301     		.uleb128 0xe3
 11517 dad6 4546495F 		.ascii "EFI_VARIABLE_NON_VOLATILE 0x00000001\0"
 11517      56415249 
 11517      41424C45 
 11517      5F4E4F4E 
 11517      5F564F4C 
 11518 dafb 01       		.byte	0x1
 11519 dafc E401     		.uleb128 0xe4
 11520 dafe 4546495F 		.ascii "EFI_VARIABLE_BOOTSERVICE_ACCESS 0x00000002\0"
 11520      56415249 
 11520      41424C45 
 11520      5F424F4F 
 11520      54534552 
 11521 db29 01       		.byte	0x1
 11522 db2a E501     		.uleb128 0xe5
 11523 db2c 4546495F 		.ascii "EFI_VARIABLE_RUNTIME_ACCESS 0x00000004\0"
 11523      56415249 
 11523      41424C45 
 11523      5F52554E 
 11523      54494D45 
 11524 db53 01       		.byte	0x1
 11525 db54 E601     		.uleb128 0xe6
 11526 db56 4546495F 		.ascii "EFI_VARIABLE_HARDWARE_ERROR_RECORD 0x00000008\0"
 11526      56415249 
 11526      41424C45 
 11526      5F484152 
 11526      44574152 
 11527 db84 01       		.byte	0x1
 11528 db85 E701     		.uleb128 0xe7
 11529 db87 4546495F 		.ascii "EFI_VARIABLE_AUTHENTICATED_WRITE_ACCESS 0x00000010\0"
 11529      56415249 
 11529      41424C45 
 11529      5F415554 
 11529      48454E54 
 11530 dbba 01       		.byte	0x1
 11531 dbbb E801     		.uleb128 0xe8
 11532 dbbd 4546495F 		.ascii "EFI_VARIABLE_TIME_BASED_AUTHENTICATED_WRITE_ACCESS 0x00000020\0"
 11532      56415249 
 11532      41424C45 
 11532      5F54494D 
 11532      455F4241 
 11533 dbfb 01       		.byte	0x1
 11534 dbfc E901     		.uleb128 0xe9
 11535 dbfe 4546495F 		.ascii "EFI_VARIABLE_APPEND_WRITE 0x00000040\0"
 11535      56415249 
 11535      41424C45 
 11535      5F415050 
 11535      454E445F 
 11536 dc23 01       		.byte	0x1
 11537 dc24 EA01     		.uleb128 0xea
 11538 dc26 4546495F 		.ascii "EFI_VARIABLE_ENHANCED_AUTHENTICATED_ACCESS 0x00000080\0"
 11538      56415249 
 11538      41424C45 
 11538      5F454E48 
 11538      414E4345 
 11539 dc5c 01       		.byte	0x1
 11540 dc5d ED01     		.uleb128 0xed
 11541 dc5f 4546495F 		.ascii "EFI_MAXIMUM_VARIABLE_SIZE 1024\0"
 11541      4D415849 
 11541      4D554D5F 
 11541      56415249 
 11541      41424C45 
 11542 dc7e 01       		.byte	0x1
 11543 dc7f BD02     		.uleb128 0x13d
 11544 dc81 494D4147 		.ascii "IMAGE_SUBSYSTEM_EFI_APPLICATION 10\0"
 11544      455F5355 
 11544      42535953 
 11544      54454D5F 
 11544      4546495F 
 11545 dca4 01       		.byte	0x1
 11546 dca5 BE02     		.uleb128 0x13e
 11547 dca7 494D4147 		.ascii "IMAGE_SUBSYSTEM_EFI_BOOT_SERVICE_DRIVER 11\0"
 11547      455F5355 
 11547      42535953 
 11547      54454D5F 
 11547      4546495F 
 11548 dcd2 01       		.byte	0x1
 11549 dcd3 BF02     		.uleb128 0x13f
 11550 dcd5 494D4147 		.ascii "IMAGE_SUBSYSTEM_EFI_RUNTIME_DRIVER 12\0"
 11550      455F5355 
 11550      42535953 
 11550      54454D5F 
 11550      4546495F 
 11551 dcfb 01       		.byte	0x1
 11552 dcfc C502     		.uleb128 0x145
 11553 dcfe 4546495F 		.ascii "EFI_IMAGE_MACHINE_IA32 0x014c\0"
 11553      494D4147 
 11553      455F4D41 
 11553      4348494E 
 11553      455F4941 
 11554 dd1c 01       		.byte	0x1
 11555 dd1d C902     		.uleb128 0x149
 11556 dd1f 4546495F 		.ascii "EFI_IMAGE_MACHINE_IA64 0x0200\0"
 11556      494D4147 
 11556      455F4D41 
 11556      4348494E 
 11556      455F4941 
 11557 dd3d 01       		.byte	0x1
 11558 dd3e CD02     		.uleb128 0x14d
 11559 dd40 4546495F 		.ascii "EFI_IMAGE_MACHINE_EBC 0x0EBC\0"
 11559      494D4147 
 11559      455F4D41 
 11559      4348494E 
 11559      455F4542 
 11560 dd5d 01       		.byte	0x1
 11561 dd5e D102     		.uleb128 0x151
 11562 dd60 4546495F 		.ascii "EFI_IMAGE_MACHINE_X64 0x8664\0"
 11562      494D4147 
 11562      455F4D41 
 11562      4348494E 
 11562      455F5836 
 11563 dd7d 01       		.byte	0x1
 11564 dd7e D502     		.uleb128 0x155
 11565 dd80 4546495F 		.ascii "EFI_IMAGE_MACHINE_ARMTHUMB_MIXED 0x01C2\0"
 11565      494D4147 
 11565      455F4D41 
 11565      4348494E 
 11565      455F4152 
 11566 dda8 01       		.byte	0x1
 11567 dda9 D902     		.uleb128 0x159
 11568 ddab 4546495F 		.ascii "EFI_IMAGE_MACHINE_AARCH64 0xAA64\0"
 11568      494D4147 
 11568      455F4D41 
 11568      4348494E 
 11568      455F4141 
 11569 ddcc 01       		.byte	0x1
 11570 ddcd DD02     		.uleb128 0x15d
 11571 ddcf 4546495F 		.ascii "EFI_IMAGE_MACHINE_RISCV32 0x5032\0"
 11571      494D4147 
 11571      455F4D41 
 11571      4348494E 
 11571      455F5249 
 11572 ddf0 01       		.byte	0x1
 11573 ddf1 E102     		.uleb128 0x161
 11574 ddf3 4546495F 		.ascii "EFI_IMAGE_MACHINE_RISCV64 0x5064\0"
 11574      494D4147 
 11574      455F4D41 
 11574      4348494E 
 11574      455F5249 
 11575 de14 01       		.byte	0x1
 11576 de15 E502     		.uleb128 0x165
 11577 de17 4546495F 		.ascii "EFI_IMAGE_MACHINE_RISCV128 0x5128\0"
 11577      494D4147 
 11577      455F4D41 
 11577      4348494E 
 11577      455F5249 
 11578 de39 01       		.byte	0x1
 11579 de3a E902     		.uleb128 0x169
 11580 de3c 4546495F 		.ascii "EFI_IMAGE_MACHINE_LOONGARCH32 0x6232\0"
 11580      494D4147 
 11580      455F4D41 
 11580      4348494E 
 11580      455F4C4F 
 11581 de61 01       		.byte	0x1
 11582 de62 ED02     		.uleb128 0x16d
 11583 de64 4546495F 		.ascii "EFI_IMAGE_MACHINE_LOONGARCH64 0x6264\0"
 11583      494D4147 
 11583      455F4D41 
 11583      4348494E 
 11583      455F4C4F 
 11584 de89 01       		.byte	0x1
 11585 de8a E103     		.uleb128 0x1e1
 11586 de8c 4546495F 		.ascii "EFI_OPEN_PROTOCOL_BY_HANDLE_PROTOCOL 0x00000001\0"
 11586      4F50454E 
 11586      5F50524F 
 11586      544F434F 
 11586      4C5F4259 
 11587 debc 01       		.byte	0x1
 11588 debd E203     		.uleb128 0x1e2
 11589 debf 4546495F 		.ascii "EFI_OPEN_PROTOCOL_GET_PROTOCOL 0x00000002\0"
 11589      4F50454E 
 11589      5F50524F 
 11589      544F434F 
 11589      4C5F4745 
 11590 dee9 01       		.byte	0x1
 11591 deea E303     		.uleb128 0x1e3
 11592 deec 4546495F 		.ascii "EFI_OPEN_PROTOCOL_TEST_PROTOCOL 0x00000004\0"
 11592      4F50454E 
 11592      5F50524F 
 11592      544F434F 
 11592      4C5F5445 
 11593 df17 01       		.byte	0x1
 11594 df18 E403     		.uleb128 0x1e4
 11595 df1a 4546495F 		.ascii "EFI_OPEN_PROTOCOL_BY_CHILD_CONTROLLER 0x00000008\0"
 11595      4F50454E 
 11595      5F50524F 
 11595      544F434F 
 11595      4C5F4259 
 11596 df4b 01       		.byte	0x1
 11597 df4c E503     		.uleb128 0x1e5
 11598 df4e 4546495F 		.ascii "EFI_OPEN_PROTOCOL_BY_DRIVER 0x00000010\0"
 11598      4F50454E 
 11598      5F50524F 
 11598      544F434F 
 11598      4C5F4259 
 11599 df75 01       		.byte	0x1
 11600 df76 E603     		.uleb128 0x1e6
 11601 df78 4546495F 		.ascii "EFI_OPEN_PROTOCOL_EXCLUSIVE 0x00000020\0"
 11601      4F50454E 
 11601      5F50524F 
 11601      544F434F 
 11601      4C5F4558 
 11602 df9f 01       		.byte	0x1
 11603 dfa0 8805     		.uleb128 0x288
 11604 dfa2 43415053 		.ascii "CAPSULE_FLAGS_PERSIST_ACROSS_RESET 0x00010000\0"
 11604      554C455F 
 11604      464C4147 
 11604      535F5045 
 11604      52534953 
 11605 dfd0 01       		.byte	0x1
 11606 dfd1 8905     		.uleb128 0x289
 11607 dfd3 43415053 		.ascii "CAPSULE_FLAGS_POPULATE_SYSTEM_TABLE 0x00020000\0"
 11607      554C455F 
 11607      464C4147 
 11607      535F504F 
 11607      50554C41 
 11608 e002 01       		.byte	0x1
 11609 e003 8A05     		.uleb128 0x28a
 11610 e005 43415053 		.ascii "CAPSULE_FLAGS_INITIATE_RESET 0x00040000\0"
 11610      554C455F 
 11610      464C4147 
 11610      535F494E 
 11610      49544941 
 11611 e02d 01       		.byte	0x1
 11612 e02e 8806     		.uleb128 0x308
 11613 e030 4546495F 		.ascii "EFI_RUNTIME_SERVICES_SIGNATURE 0x56524553544e5552\0"
 11613      52554E54 
 11613      494D455F 
 11613      53455256 
 11613      49434553 
 11614 e062 01       		.byte	0x1
 11615 e063 8906     		.uleb128 0x309
 11616 e065 4546495F 		.ascii "EFI_1_02_RUNTIME_SERVICES_REVISION EFI_SPECIFICATION_REVISION_MAJORMINOR(1, 02)\0"
 11616      315F3032 
 11616      5F52554E 
 11616      54494D45 
 11616      5F534552 
 11617 e0b5 01       		.byte	0x1
 11618 e0b6 8A06     		.uleb128 0x30a
 11619 e0b8 4546495F 		.ascii "EFI_1_10_RUNTIME_SERVICES_REVISION EFI_SPECIFICATION_REVISION_MAJORMINOR(1, 10)\0"
 11619      315F3130 
 11619      5F52554E 
 11619      54494D45 
 11619      5F534552 
 11620 e108 01       		.byte	0x1
 11621 e109 8B06     		.uleb128 0x30b
 11622 e10b 4546495F 		.ascii "EFI_2_00_RUNTIME_SERVICES_REVISION EFI_SPECIFICATION_REVISION_MAJORMINOR(2, 00)\0"
 11622      325F3030 
 11622      5F52554E 
 11622      54494D45 
 11622      5F534552 
 11623 e15b 01       		.byte	0x1
 11624 e15c 8C06     		.uleb128 0x30c
 11625 e15e 4546495F 		.ascii "EFI_2_10_RUNTIME_SERVICES_REVISION EFI_SPECIFICATION_REVISION_MAJORMINOR(2, 10)\0"
 11625      325F3130 
 11625      5F52554E 
 11625      54494D45 
 11625      5F534552 
 11626 e1ae 01       		.byte	0x1
 11627 e1af 8D06     		.uleb128 0x30d
 11628 e1b1 4546495F 		.ascii "EFI_2_20_RUNTIME_SERVICES_REVISION EFI_SPECIFICATION_REVISION_MAJORMINOR(2, 20)\0"
 11628      325F3230 
 11628      5F52554E 
 11628      54494D45 
 11628      5F534552 
 11629 e201 01       		.byte	0x1
 11630 e202 8E06     		.uleb128 0x30e
 11631 e204 4546495F 		.ascii "EFI_2_30_RUNTIME_SERVICES_REVISION EFI_SPECIFICATION_REVISION_MAJORMINOR(2, 30)\0"
 11631      325F3330 
 11631      5F52554E 
 11631      54494D45 
 11631      5F534552 
 11632 e254 01       		.byte	0x1
 11633 e255 8F06     		.uleb128 0x30f
 11634 e257 4546495F 		.ascii "EFI_2_31_RUNTIME_SERVICES_REVISION EFI_SPECIFICATION_REVISION_MAJORMINOR(2, 31)\0"
 11634      325F3331 
 11634      5F52554E 
 11634      54494D45 
 11634      5F534552 
 11635 e2a7 01       		.byte	0x1
 11636 e2a8 9006     		.uleb128 0x310
 11637 e2aa 4546495F 		.ascii "EFI_2_40_RUNTIME_SERVICES_REVISION EFI_SPECIFICATION_REVISION_MAJORMINOR(2, 40)\0"
 11637      325F3430 
 11637      5F52554E 
 11637      54494D45 
 11637      5F534552 
 11638 e2fa 01       		.byte	0x1
 11639 e2fb 9106     		.uleb128 0x311
 11640 e2fd 4546495F 		.ascii "EFI_2_50_RUNTIME_SERVICES_REVISION EFI_SPECIFICATION_REVISION_MAJORMINOR(2, 50)\0"
 11640      325F3530 
 11640      5F52554E 
 11640      54494D45 
 11640      5F534552 
 11641 e34d 01       		.byte	0x1
 11642 e34e 9206     		.uleb128 0x312
 11643 e350 4546495F 		.ascii "EFI_2_60_RUNTIME_SERVICES_REVISION EFI_SPECIFICATION_REVISION_MAJORMINOR(2, 60)\0"
 11643      325F3630 
 11643      5F52554E 
 11643      54494D45 
 11643      5F534552 
 11644 e3a0 01       		.byte	0x1
 11645 e3a1 9306     		.uleb128 0x313
 11646 e3a3 4546495F 		.ascii "EFI_2_70_RUNTIME_SERVICES_REVISION EFI_SPECIFICATION_REVISION_MAJORMINOR(2, 70)\0"
 11646      325F3730 
 11646      5F52554E 
 11646      54494D45 
 11646      5F534552 
 11647 e3f3 01       		.byte	0x1
 11648 e3f4 9406     		.uleb128 0x314
 11649 e3f6 4546495F 		.ascii "EFI_2_80_RUNTIME_SERVICES_REVISION EFI_SPECIFICATION_REVISION_MAJORMINOR(2, 80)\0"
 11649      325F3830 
 11649      5F52554E 
 11649      54494D45 
 11649      5F534552 
 11650 e446 01       		.byte	0x1
 11651 e447 9506     		.uleb128 0x315
 11652 e449 4546495F 		.ascii "EFI_2_90_RUNTIME_SERVICES_REVISION EFI_SPECIFICATION_REVISION_MAJORMINOR(2, 90)\0"
 11652      325F3930 
 11652      5F52554E 
 11652      54494D45 
 11652      5F534552 
 11653 e499 01       		.byte	0x1
 11654 e49a 9606     		.uleb128 0x316
 11655 e49c 4546495F 		.ascii "EFI_2_100_RUNTIME_SERVICES_REVISION EFI_SPECIFICATION_REVISION_MAJORMINOR(2, 100)\0"
 11655      325F3130 
 11655      305F5255 
 11655      4E54494D 
 11655      455F5345 
 11656 e4ee 01       		.byte	0x1
 11657 e4ef 9706     		.uleb128 0x317
 11658 e4f1 4546495F 		.ascii "EFI_RUNTIME_SERVICES_REVISION EFI_SPECIFICATION_VERSION\0"
 11658      52554E54 
 11658      494D455F 
 11658      53455256 
 11658      49434553 
 11659 e529 01       		.byte	0x1
 11660 e52a C506     		.uleb128 0x345
 11661 e52c 4546495F 		.ascii "EFI_BOOT_SERVICES_SIGNATURE 0x56524553544f4f42\0"
 11661      424F4F54 
 11661      5F534552 
 11661      56494345 
 11661      535F5349 
 11662 e55b 01       		.byte	0x1
 11663 e55c C606     		.uleb128 0x346
 11664 e55e 4546495F 		.ascii "EFI_1_02_BOOT_SERVICES_REVISION EFI_SPECIFICATION_REVISION_MAJORMINOR(1, 02)\0"
 11664      315F3032 
 11664      5F424F4F 
 11664      545F5345 
 11664      52564943 
 11665 e5ab 01       		.byte	0x1
 11666 e5ac C706     		.uleb128 0x347
 11667 e5ae 4546495F 		.ascii "EFI_1_10_BOOT_SERVICES_REVISION EFI_SPECIFICATION_REVISION_MAJORMINOR(1, 10)\0"
 11667      315F3130 
 11667      5F424F4F 
 11667      545F5345 
 11667      52564943 
 11668 e5fb 01       		.byte	0x1
 11669 e5fc C806     		.uleb128 0x348
 11670 e5fe 4546495F 		.ascii "EFI_2_00_BOOT_SERVICES_REVISION EFI_SPECIFICATION_REVISION_MAJORMINOR(2, 00)\0"
 11670      325F3030 
 11670      5F424F4F 
 11670      545F5345 
 11670      52564943 
 11671 e64b 01       		.byte	0x1
 11672 e64c C906     		.uleb128 0x349
 11673 e64e 4546495F 		.ascii "EFI_2_10_BOOT_SERVICES_REVISION EFI_SPECIFICATION_REVISION_MAJORMINOR(2, 10)\0"
 11673      325F3130 
 11673      5F424F4F 
 11673      545F5345 
 11673      52564943 
 11674 e69b 01       		.byte	0x1
 11675 e69c CA06     		.uleb128 0x34a
 11676 e69e 4546495F 		.ascii "EFI_2_20_BOOT_SERVICES_REVISION EFI_SPECIFICATION_REVISION_MAJORMINOR(2, 20)\0"
 11676      325F3230 
 11676      5F424F4F 
 11676      545F5345 
 11676      52564943 
 11677 e6eb 01       		.byte	0x1
 11678 e6ec CB06     		.uleb128 0x34b
 11679 e6ee 4546495F 		.ascii "EFI_2_30_BOOT_SERVICES_REVISION EFI_SPECIFICATION_REVISION_MAJORMINOR(2, 30)\0"
 11679      325F3330 
 11679      5F424F4F 
 11679      545F5345 
 11679      52564943 
 11680 e73b 01       		.byte	0x1
 11681 e73c CC06     		.uleb128 0x34c
 11682 e73e 4546495F 		.ascii "EFI_2_31_BOOT_SERVICES_REVISION EFI_SPECIFICATION_REVISION_MAJORMINOR(2, 31)\0"
 11682      325F3331 
 11682      5F424F4F 
 11682      545F5345 
 11682      52564943 
 11683 e78b 01       		.byte	0x1
 11684 e78c CD06     		.uleb128 0x34d
 11685 e78e 4546495F 		.ascii "EFI_2_40_BOOT_SERVICES_REVISION EFI_SPECIFICATION_REVISION_MAJORMINOR(2, 40)\0"
 11685      325F3430 
 11685      5F424F4F 
 11685      545F5345 
 11685      52564943 
 11686 e7db 01       		.byte	0x1
 11687 e7dc CE06     		.uleb128 0x34e
 11688 e7de 4546495F 		.ascii "EFI_2_50_BOOT_SERVICES_REVISION EFI_SPECIFICATION_REVISION_MAJORMINOR(2, 50)\0"
 11688      325F3530 
 11688      5F424F4F 
 11688      545F5345 
 11688      52564943 
 11689 e82b 01       		.byte	0x1
 11690 e82c CF06     		.uleb128 0x34f
 11691 e82e 4546495F 		.ascii "EFI_2_60_BOOT_SERVICES_REVISION EFI_SPECIFICATION_REVISION_MAJORMINOR(2, 60)\0"
 11691      325F3630 
 11691      5F424F4F 
 11691      545F5345 
 11691      52564943 
 11692 e87b 01       		.byte	0x1
 11693 e87c D006     		.uleb128 0x350
 11694 e87e 4546495F 		.ascii "EFI_2_70_BOOT_SERVICES_REVISION EFI_SPECIFICATION_REVISION_MAJORMINOR(2, 70)\0"
 11694      325F3730 
 11694      5F424F4F 
 11694      545F5345 
 11694      52564943 
 11695 e8cb 01       		.byte	0x1
 11696 e8cc D106     		.uleb128 0x351
 11697 e8ce 4546495F 		.ascii "EFI_2_80_BOOT_SERVICES_REVISION EFI_SPECIFICATION_REVISION_MAJORMINOR(2, 80)\0"
 11697      325F3830 
 11697      5F424F4F 
 11697      545F5345 
 11697      52564943 
 11698 e91b 01       		.byte	0x1
 11699 e91c D206     		.uleb128 0x352
 11700 e91e 4546495F 		.ascii "EFI_2_90_BOOT_SERVICES_REVISION EFI_SPECIFICATION_REVISION_MAJORMINOR(2, 90)\0"
 11700      325F3930 
 11700      5F424F4F 
 11700      545F5345 
 11700      52564943 
 11701 e96b 01       		.byte	0x1
 11702 e96c D306     		.uleb128 0x353
 11703 e96e 4546495F 		.ascii "EFI_2_100_BOOT_SERVICES_REVISION EFI_SPECIFICATION_REVISION_MAJORMINOR(2, 100)\0"
 11703      325F3130 
 11703      305F424F 
 11703      4F545F53 
 11703      45525649 
 11704 e9bd 01       		.byte	0x1
 11705 e9be D406     		.uleb128 0x354
 11706 e9c0 4546495F 		.ascii "EFI_BOOT_SERVICES_REVISION EFI_SPECIFICATION_VERSION\0"
 11706      424F4F54 
 11706      5F534552 
 11706      56494345 
 11706      535F5245 
 11707 e9f5 01       		.byte	0x1
 11708 e9f6 BF07     		.uleb128 0x3bf
 11709 e9f8 4D50535F 		.ascii "MPS_TABLE_GUID { 0xeb9d2d2f, 0x2d88, 0x11d3, {0x9a, 0x16, 0x0, 0x90, 0x27, 0x3f, 0xc1, 0x4
 11709      5441424C 
 11709      455F4755 
 11709      4944207B 
 11709      20307865 
 11710 ea57 01       		.byte	0x1
 11711 ea58 C207     		.uleb128 0x3c2
 11712 ea5a 41435049 		.ascii "ACPI_TABLE_GUID { 0xeb9d2d30, 0x2d88, 0x11d3, {0x9a, 0x16, 0x0, 0x90, 0x27, 0x3f, 0xc1, 0x
 11712      5F544142 
 11712      4C455F47 
 11712      55494420 
 11712      7B203078 
 11713 eaba 01       		.byte	0x1
 11714 eabb C507     		.uleb128 0x3c5
 11715 eabd 41435049 		.ascii "ACPI_20_TABLE_GUID { 0x8868e871, 0xe4f1, 0x11d3, {0xbc, 0x22, 0x0, 0x80, 0xc7, 0x3c, 0x88,
 11715      5F32305F 
 11715      5441424C 
 11715      455F4755 
 11715      4944207B 
 11716 eb20 01       		.byte	0x1
 11717 eb21 C807     		.uleb128 0x3c8
 11718 eb23 534D4249 		.ascii "SMBIOS_TABLE_GUID { 0xeb9d2d31, 0x2d88, 0x11d3, {0x9a, 0x16, 0x0, 0x90, 0x27, 0x3f, 0xc1, 
 11718      4F535F54 
 11718      41424C45 
 11718      5F475549 
 11718      44207B20 
 11719 eb85 01       		.byte	0x1
 11720 eb86 CB07     		.uleb128 0x3cb
 11721 eb88 534D4249 		.ascii "SMBIOS3_TABLE_GUID { 0xf2fd1544, 0x9794, 0x4a2c, {0x99, 0x2e, 0xe5, 0xbb, 0xcf, 0x20, 0xe3
 11721      4F53335F 
 11721      5441424C 
 11721      455F4755 
 11721      4944207B 
 11722 ebec 01       		.byte	0x1
 11723 ebed CE07     		.uleb128 0x3ce
 11724 ebef 53414C5F 		.ascii "SAL_SYSTEM_TABLE_GUID { 0xeb9d2d32, 0x2d88, 0x11d3, {0x9a, 0x16, 0x0, 0x90, 0x27, 0x3f, 0x
 11724      53595354 
 11724      454D5F54 
 11724      41424C45 
 11724      5F475549 
 11725 ec55 01       		.byte	0x1
 11726 ec56 D107     		.uleb128 0x3d1
 11727 ec58 4546495F 		.ascii "EFI_DTB_TABLE_GUID { 0xb1b621d5, 0xf19c, 0x41a5, {0x83, 0x0b, 0xd9, 0x15, 0x2c, 0x69, 0xaa
 11727      4454425F 
 11727      5441424C 
 11727      455F4755 
 11727      4944207B 
 11728 ecbc 01       		.byte	0x1
 11729 ecbd E107     		.uleb128 0x3e1
 11730 ecbf 4546495F 		.ascii "EFI_SYSTEM_TABLE_SIGNATURE 0x5453595320494249\0"
 11730      53595354 
 11730      454D5F54 
 11730      41424C45 
 11730      5F534947 
 11731 eced 01       		.byte	0x1
 11732 ecee E207     		.uleb128 0x3e2
 11733 ecf0 4546495F 		.ascii "EFI_1_02_SYSTEM_TABLE_REVISION EFI_SPECIFICATION_REVISION_MAJORMINOR(1, 02)\0"
 11733      315F3032 
 11733      5F535953 
 11733      54454D5F 
 11733      5441424C 
 11734 ed3c 01       		.byte	0x1
 11735 ed3d E307     		.uleb128 0x3e3
 11736 ed3f 4546495F 		.ascii "EFI_1_10_SYSTEM_TABLE_REVISION EFI_SPECIFICATION_REVISION_MAJORMINOR(1, 10)\0"
 11736      315F3130 
 11736      5F535953 
 11736      54454D5F 
 11736      5441424C 
 11737 ed8b 01       		.byte	0x1
 11738 ed8c E407     		.uleb128 0x3e4
 11739 ed8e 4546495F 		.ascii "EFI_2_00_SYSTEM_TABLE_REVISION EFI_SPECIFICATION_REVISION_MAJORMINOR(2, 00)\0"
 11739      325F3030 
 11739      5F535953 
 11739      54454D5F 
 11739      5441424C 
 11740 edda 01       		.byte	0x1
 11741 eddb E507     		.uleb128 0x3e5
 11742 eddd 4546495F 		.ascii "EFI_2_10_SYSTEM_TABLE_REVISION EFI_SPECIFICATION_REVISION_MAJORMINOR(2, 10)\0"
 11742      325F3130 
 11742      5F535953 
 11742      54454D5F 
 11742      5441424C 
 11743 ee29 01       		.byte	0x1
 11744 ee2a E607     		.uleb128 0x3e6
 11745 ee2c 4546495F 		.ascii "EFI_2_20_SYSTEM_TABLE_REVISION EFI_SPECIFICATION_REVISION_MAJORMINOR(2, 20)\0"
 11745      325F3230 
 11745      5F535953 
 11745      54454D5F 
 11745      5441424C 
 11746 ee78 01       		.byte	0x1
 11747 ee79 E707     		.uleb128 0x3e7
 11748 ee7b 4546495F 		.ascii "EFI_2_30_SYSTEM_TABLE_REVISION EFI_SPECIFICATION_REVISION_MAJORMINOR(2, 30)\0"
 11748      325F3330 
 11748      5F535953 
 11748      54454D5F 
 11748      5441424C 
 11749 eec7 01       		.byte	0x1
 11750 eec8 E807     		.uleb128 0x3e8
 11751 eeca 4546495F 		.ascii "EFI_2_31_SYSTEM_TABLE_REVISION EFI_SPECIFICATION_REVISION_MAJORMINOR(2, 31)\0"
 11751      325F3331 
 11751      5F535953 
 11751      54454D5F 
 11751      5441424C 
 11752 ef16 01       		.byte	0x1
 11753 ef17 E907     		.uleb128 0x3e9
 11754 ef19 4546495F 		.ascii "EFI_2_40_SYSTEM_TABLE_REVISION EFI_SPECIFICATION_REVISION_MAJORMINOR(2, 40)\0"
 11754      325F3430 
 11754      5F535953 
 11754      54454D5F 
 11754      5441424C 
 11755 ef65 01       		.byte	0x1
 11756 ef66 EA07     		.uleb128 0x3ea
 11757 ef68 4546495F 		.ascii "EFI_2_50_SYSTEM_TABLE_REVISION EFI_SPECIFICATION_REVISION_MAJORMINOR(2, 50)\0"
 11757      325F3530 
 11757      5F535953 
 11757      54454D5F 
 11757      5441424C 
 11758 efb4 01       		.byte	0x1
 11759 efb5 EB07     		.uleb128 0x3eb
 11760 efb7 4546495F 		.ascii "EFI_2_60_SYSTEM_TABLE_REVISION EFI_SPECIFICATION_REVISION_MAJORMINOR(2, 60)\0"
 11760      325F3630 
 11760      5F535953 
 11760      54454D5F 
 11760      5441424C 
 11761 f003 01       		.byte	0x1
 11762 f004 EC07     		.uleb128 0x3ec
 11763 f006 4546495F 		.ascii "EFI_2_70_SYSTEM_TABLE_REVISION EFI_SPECIFICATION_REVISION_MAJORMINOR(2, 70)\0"
 11763      325F3730 
 11763      5F535953 
 11763      54454D5F 
 11763      5441424C 
 11764 f052 01       		.byte	0x1
 11765 f053 ED07     		.uleb128 0x3ed
 11766 f055 4546495F 		.ascii "EFI_2_80_SYSTEM_TABLE_REVISION EFI_SPECIFICATION_REVISION_MAJORMINOR(2, 80)\0"
 11766      325F3830 
 11766      5F535953 
 11766      54454D5F 
 11766      5441424C 
 11767 f0a1 01       		.byte	0x1
 11768 f0a2 EE07     		.uleb128 0x3ee
 11769 f0a4 4546495F 		.ascii "EFI_2_90_SYSTEM_TABLE_REVISION EFI_SPECIFICATION_REVISION_MAJORMINOR(2, 90)\0"
 11769      325F3930 
 11769      5F535953 
 11769      54454D5F 
 11769      5441424C 
 11770 f0f0 01       		.byte	0x1
 11771 f0f1 EF07     		.uleb128 0x3ef
 11772 f0f3 4546495F 		.ascii "EFI_2_100_SYSTEM_TABLE_REVISION EFI_SPECIFICATION_REVISION_MAJORMINOR(2, 100)\0"
 11772      325F3130 
 11772      305F5359 
 11772      5354454D 
 11772      5F544142 
 11773 f141 01       		.byte	0x1
 11774 f142 F007     		.uleb128 0x3f0
 11775 f144 4546495F 		.ascii "EFI_SYSTEM_TABLE_REVISION EFI_SPECIFICATION_VERSION\0"
 11775      53595354 
 11775      454D5F54 
 11775      41424C45 
 11775      5F524556 
 11776 f178 04       		.byte	0x4
 11777              		.file 29 "gnu-efi-3.0.18/inc/efifs.h"
 11778 f179 03       		.byte	0x3
 11779 f17a 4D       		.uleb128 0x4d
 11780 f17b 1D       		.uleb128 0x1d
 11781 f17c 01       		.byte	0x1
 11782 f17d 02       		.uleb128 0x2
 11783 f17e 5F454649 		.ascii "_EFI_FS_H \0"
 11783      5F46535F 
 11783      482000
 11784 f189 01       		.byte	0x1
 11785 f18a 1B       		.uleb128 0x1b
 11786 f18b 4546495F 		.ascii "EFI_PARTITION_SIGNATURE 0x5053595320494249\0"
 11786      50415254 
 11786      4954494F 
 11786      4E5F5349 
 11786      474E4154 
 11787 f1b6 01       		.byte	0x1
 11788 f1b7 1C       		.uleb128 0x1c
 11789 f1b8 4546495F 		.ascii "EFI_PARTITION_REVISION 0x00010001\0"
 11789      50415254 
 11789      4954494F 
 11789      4E5F5245 
 11789      56495349 
 11790 f1da 01       		.byte	0x1
 11791 f1db 1D       		.uleb128 0x1d
 11792 f1dc 4D494E5F 		.ascii "MIN_EFI_PARTITION_BLOCK_SIZE 512\0"
 11792      4546495F 
 11792      50415254 
 11792      4954494F 
 11792      4E5F424C 
 11793 f1fd 01       		.byte	0x1
 11794 f1fe 1E       		.uleb128 0x1e
 11795 f1ff 4546495F 		.ascii "EFI_PARTITION_LBA 1\0"
 11795      50415254 
 11795      4954494F 
 11795      4E5F4C42 
 11795      41203100 
 11796 f213 01       		.byte	0x1
 11797 f214 31       		.uleb128 0x31
 11798 f215 4546495F 		.ascii "EFI_FILE_HEADER_SIGNATURE 0x454c494620494249\0"
 11798      46494C45 
 11798      5F484541 
 11798      4445525F 
 11798      5349474E 
 11799 f242 01       		.byte	0x1
 11800 f243 32       		.uleb128 0x32
 11801 f244 4546495F 		.ascii "EFI_FILE_HEADER_REVISION 0x00010000\0"
 11801      46494C45 
 11801      5F484541 
 11801      4445525F 
 11801      52455649 
 11802 f268 01       		.byte	0x1
 11803 f269 33       		.uleb128 0x33
 11804 f26a 4546495F 		.ascii "EFI_FILE_STRING_SIZE 260\0"
 11804      46494C45 
 11804      5F535452 
 11804      494E475F 
 11804      53495A45 
 11805 f283 01       		.byte	0x1
 11806 f284 48       		.uleb128 0x48
 11807 f285 4546495F 		.ascii "EFI_FILE_LBAL(a) ((EFI_LBAL *) (((CHAR8 *) (a)) + (a)->LBALOffset))\0"
 11807      46494C45 
 11807      5F4C4241 
 11807      4C286129 
 11807      20282845 
 11808 f2c9 01       		.byte	0x1
 11809 f2ca 4A       		.uleb128 0x4a
 11810 f2cb 4546495F 		.ascii "EFI_FILE_CLASS_FREE_SPACE 1\0"
 11810      46494C45 
 11810      5F434C41 
 11810      53535F46 
 11810      5245455F 
 11811 f2e7 01       		.byte	0x1
 11812 f2e8 4B       		.uleb128 0x4b
 11813 f2e9 4546495F 		.ascii "EFI_FILE_CLASS_EMPTY 2\0"
 11813      46494C45 
 11813      5F434C41 
 11813      53535F45 
 11813      4D505459 
 11814 f300 01       		.byte	0x1
 11815 f301 4C       		.uleb128 0x4c
 11816 f302 4546495F 		.ascii "EFI_FILE_CLASS_NORMAL 3\0"
 11816      46494C45 
 11816      5F434C41 
 11816      53535F4E 
 11816      4F524D41 
 11817 f31a 01       		.byte	0x1
 11818 f31b 54       		.uleb128 0x54
 11819 f31c 4546495F 		.ascii "EFI_LBAL_SIGNATURE 0x4c41424c20494249\0"
 11819      4C42414C 
 11819      5F534947 
 11819      4E415455 
 11819      52452030 
 11820 f342 01       		.byte	0x1
 11821 f343 55       		.uleb128 0x55
 11822 f344 4546495F 		.ascii "EFI_LBAL_REVISION 0x00010000\0"
 11822      4C42414C 
 11822      5F524556 
 11822      4953494F 
 11822      4E203078 
 11823 f361 01       		.byte	0x1
 11824 f362 61       		.uleb128 0x61
 11825 f363 4546495F 		.ascii "EFI_LBAL_ARRAY_SIZE(lbal,offs,blks) (((blks) - (offs) - (lbal)->Hdr.HeaderSize) / sizeof(E
 11825      4C42414C 
 11825      5F415252 
 11825      41595F53 
 11825      495A4528 
 11826 f3c5 01       		.byte	0x1
 11827 f3c6 71       		.uleb128 0x71
 11828 f3c7 4546495F 		.ascii "EFI_LBAL_RL(a) ((EFI_RL*) (((CHAR8 *) (a)) + (a)->Hdr.HeaderSize))\0"
 11828      4C42414C 
 11828      5F524C28 
 11828      61292028 
 11828      28454649 
 11829 f40a 04       		.byte	0x4
 11830              		.file 30 "gnu-efi-3.0.18/inc/efierr.h"
 11831 f40b 03       		.byte	0x3
 11832 f40c 4E       		.uleb128 0x4e
 11833 f40d 1E       		.uleb128 0x1e
 11834 f40e 01       		.byte	0x1
 11835 f40f 02       		.uleb128 0x2
 11836 f410 5F454649 		.ascii "_EFI_ERR_H \0"
 11836      5F455252 
 11836      5F482000 
 11837 f41c 01       		.byte	0x1
 11838 f41d 18       		.uleb128 0x18
 11839 f41e 45464957 		.ascii "EFIWARN(a) (a)\0"
 11839      41524E28 
 11839      61292028 
 11839      612900
 11840 f42d 01       		.byte	0x1
 11841 f42e 19       		.uleb128 0x19
 11842 f42f 4546495F 		.ascii "EFI_ERROR(a) (((INTN) a) < 0)\0"
 11842      4552524F 
 11842      52286129 
 11842      20282828 
 11842      494E544E 
 11843 f44d 01       		.byte	0x1
 11844 f44e 1C       		.uleb128 0x1c
 11845 f44f 4546495F 		.ascii "EFI_SUCCESS 0\0"
 11845      53554343 
 11845      45535320 
 11845      3000
 11846 f45d 01       		.byte	0x1
 11847 f45e 1D       		.uleb128 0x1d
 11848 f45f 4546495F 		.ascii "EFI_LOAD_ERROR EFIERR(1)\0"
 11848      4C4F4144 
 11848      5F455252 
 11848      4F522045 
 11848      46494552 
 11849 f478 01       		.byte	0x1
 11850 f479 1E       		.uleb128 0x1e
 11851 f47a 4546495F 		.ascii "EFI_INVALID_PARAMETER EFIERR(2)\0"
 11851      494E5641 
 11851      4C49445F 
 11851      50415241 
 11851      4D455445 
 11852 f49a 01       		.byte	0x1
 11853 f49b 1F       		.uleb128 0x1f
 11854 f49c 4546495F 		.ascii "EFI_UNSUPPORTED EFIERR(3)\0"
 11854      554E5355 
 11854      50504F52 
 11854      54454420 
 11854      45464945 
 11855 f4b6 01       		.byte	0x1
 11856 f4b7 20       		.uleb128 0x20
 11857 f4b8 4546495F 		.ascii "EFI_BAD_BUFFER_SIZE EFIERR(4)\0"
 11857      4241445F 
 11857      42554646 
 11857      45525F53 
 11857      495A4520 
 11858 f4d6 01       		.byte	0x1
 11859 f4d7 21       		.uleb128 0x21
 11860 f4d8 4546495F 		.ascii "EFI_BUFFER_TOO_SMALL EFIERR(5)\0"
 11860      42554646 
 11860      45525F54 
 11860      4F4F5F53 
 11860      4D414C4C 
 11861 f4f7 01       		.byte	0x1
 11862 f4f8 22       		.uleb128 0x22
 11863 f4f9 4546495F 		.ascii "EFI_NOT_READY EFIERR(6)\0"
 11863      4E4F545F 
 11863      52454144 
 11863      59204546 
 11863      49455252 
 11864 f511 01       		.byte	0x1
 11865 f512 23       		.uleb128 0x23
 11866 f513 4546495F 		.ascii "EFI_DEVICE_ERROR EFIERR(7)\0"
 11866      44455649 
 11866      43455F45 
 11866      52524F52 
 11866      20454649 
 11867 f52e 01       		.byte	0x1
 11868 f52f 24       		.uleb128 0x24
 11869 f530 4546495F 		.ascii "EFI_WRITE_PROTECTED EFIERR(8)\0"
 11869      57524954 
 11869      455F5052 
 11869      4F544543 
 11869      54454420 
 11870 f54e 01       		.byte	0x1
 11871 f54f 25       		.uleb128 0x25
 11872 f550 4546495F 		.ascii "EFI_OUT_OF_RESOURCES EFIERR(9)\0"
 11872      4F55545F 
 11872      4F465F52 
 11872      45534F55 
 11872      52434553 
 11873 f56f 01       		.byte	0x1
 11874 f570 26       		.uleb128 0x26
 11875 f571 4546495F 		.ascii "EFI_VOLUME_CORRUPTED EFIERR(10)\0"
 11875      564F4C55 
 11875      4D455F43 
 11875      4F525255 
 11875      50544544 
 11876 f591 01       		.byte	0x1
 11877 f592 27       		.uleb128 0x27
 11878 f593 4546495F 		.ascii "EFI_VOLUME_FULL EFIERR(11)\0"
 11878      564F4C55 
 11878      4D455F46 
 11878      554C4C20 
 11878      45464945 
 11879 f5ae 01       		.byte	0x1
 11880 f5af 28       		.uleb128 0x28
 11881 f5b0 4546495F 		.ascii "EFI_NO_MEDIA EFIERR(12)\0"
 11881      4E4F5F4D 
 11881      45444941 
 11881      20454649 
 11881      45525228 
 11882 f5c8 01       		.byte	0x1
 11883 f5c9 29       		.uleb128 0x29
 11884 f5ca 4546495F 		.ascii "EFI_MEDIA_CHANGED EFIERR(13)\0"
 11884      4D454449 
 11884      415F4348 
 11884      414E4745 
 11884      44204546 
 11885 f5e7 01       		.byte	0x1
 11886 f5e8 2A       		.uleb128 0x2a
 11887 f5e9 4546495F 		.ascii "EFI_NOT_FOUND EFIERR(14)\0"
 11887      4E4F545F 
 11887      464F554E 
 11887      44204546 
 11887      49455252 
 11888 f602 01       		.byte	0x1
 11889 f603 2B       		.uleb128 0x2b
 11890 f604 4546495F 		.ascii "EFI_ACCESS_DENIED EFIERR(15)\0"
 11890      41434345 
 11890      53535F44 
 11890      454E4945 
 11890      44204546 
 11891 f621 01       		.byte	0x1
 11892 f622 2C       		.uleb128 0x2c
 11893 f623 4546495F 		.ascii "EFI_NO_RESPONSE EFIERR(16)\0"
 11893      4E4F5F52 
 11893      4553504F 
 11893      4E534520 
 11893      45464945 
 11894 f63e 01       		.byte	0x1
 11895 f63f 2D       		.uleb128 0x2d
 11896 f640 4546495F 		.ascii "EFI_NO_MAPPING EFIERR(17)\0"
 11896      4E4F5F4D 
 11896      41505049 
 11896      4E472045 
 11896      46494552 
 11897 f65a 01       		.byte	0x1
 11898 f65b 2E       		.uleb128 0x2e
 11899 f65c 4546495F 		.ascii "EFI_TIMEOUT EFIERR(18)\0"
 11899      54494D45 
 11899      4F555420 
 11899      45464945 
 11899      52522831 
 11900 f673 01       		.byte	0x1
 11901 f674 2F       		.uleb128 0x2f
 11902 f675 4546495F 		.ascii "EFI_NOT_STARTED EFIERR(19)\0"
 11902      4E4F545F 
 11902      53544152 
 11902      54454420 
 11902      45464945 
 11903 f690 01       		.byte	0x1
 11904 f691 30       		.uleb128 0x30
 11905 f692 4546495F 		.ascii "EFI_ALREADY_STARTED EFIERR(20)\0"
 11905      414C5245 
 11905      4144595F 
 11905      53544152 
 11905      54454420 
 11906 f6b1 01       		.byte	0x1
 11907 f6b2 31       		.uleb128 0x31
 11908 f6b3 4546495F 		.ascii "EFI_ABORTED EFIERR(21)\0"
 11908      41424F52 
 11908      54454420 
 11908      45464945 
 11908      52522832 
 11909 f6ca 01       		.byte	0x1
 11910 f6cb 32       		.uleb128 0x32
 11911 f6cc 4546495F 		.ascii "EFI_ICMP_ERROR EFIERR(22)\0"
 11911      49434D50 
 11911      5F455252 
 11911      4F522045 
 11911      46494552 
 11912 f6e6 01       		.byte	0x1
 11913 f6e7 33       		.uleb128 0x33
 11914 f6e8 4546495F 		.ascii "EFI_TFTP_ERROR EFIERR(23)\0"
 11914      54465450 
 11914      5F455252 
 11914      4F522045 
 11914      46494552 
 11915 f702 01       		.byte	0x1
 11916 f703 34       		.uleb128 0x34
 11917 f704 4546495F 		.ascii "EFI_PROTOCOL_ERROR EFIERR(24)\0"
 11917      50524F54 
 11917      4F434F4C 
 11917      5F455252 
 11917      4F522045 
 11918 f722 01       		.byte	0x1
 11919 f723 35       		.uleb128 0x35
 11920 f724 4546495F 		.ascii "EFI_INCOMPATIBLE_VERSION EFIERR(25)\0"
 11920      494E434F 
 11920      4D504154 
 11920      49424C45 
 11920      5F564552 
 11921 f748 01       		.byte	0x1
 11922 f749 36       		.uleb128 0x36
 11923 f74a 4546495F 		.ascii "EFI_SECURITY_VIOLATION EFIERR(26)\0"
 11923      53454355 
 11923      52495459 
 11923      5F56494F 
 11923      4C415449 
 11924 f76c 01       		.byte	0x1
 11925 f76d 37       		.uleb128 0x37
 11926 f76e 4546495F 		.ascii "EFI_CRC_ERROR EFIERR(27)\0"
 11926      4352435F 
 11926      4552524F 
 11926      52204546 
 11926      49455252 
 11927 f787 01       		.byte	0x1
 11928 f788 38       		.uleb128 0x38
 11929 f789 4546495F 		.ascii "EFI_END_OF_MEDIA EFIERR(28)\0"
 11929      454E445F 
 11929      4F465F4D 
 11929      45444941 
 11929      20454649 
 11930 f7a5 01       		.byte	0x1
 11931 f7a6 39       		.uleb128 0x39
 11932 f7a7 4546495F 		.ascii "EFI_END_OF_FILE EFIERR(31)\0"
 11932      454E445F 
 11932      4F465F46 
 11932      494C4520 
 11932      45464945 
 11933 f7c2 01       		.byte	0x1
 11934 f7c3 3A       		.uleb128 0x3a
 11935 f7c4 4546495F 		.ascii "EFI_INVALID_LANGUAGE EFIERR(32)\0"
 11935      494E5641 
 11935      4C49445F 
 11935      4C414E47 
 11935      55414745 
 11936 f7e4 01       		.byte	0x1
 11937 f7e5 3B       		.uleb128 0x3b
 11938 f7e6 4546495F 		.ascii "EFI_COMPROMISED_DATA EFIERR(33)\0"
 11938      434F4D50 
 11938      524F4D49 
 11938      5345445F 
 11938      44415441 
 11939 f806 01       		.byte	0x1
 11940 f807 3C       		.uleb128 0x3c
 11941 f808 4546495F 		.ascii "EFI_IP_ADDRESS_CONFLICT EFIERR(34)\0"
 11941      49505F41 
 11941      44445245 
 11941      53535F43 
 11941      4F4E464C 
 11942 f82b 01       		.byte	0x1
 11943 f82c 3D       		.uleb128 0x3d
 11944 f82d 4546495F 		.ascii "EFI_HTTP_ERROR EFIERR(35)\0"
 11944      48545450 
 11944      5F455252 
 11944      4F522045 
 11944      46494552 
 11945 f847 01       		.byte	0x1
 11946 f848 3F       		.uleb128 0x3f
 11947 f849 4546495F 		.ascii "EFI_WARN_UNKOWN_GLYPH EFIWARN(1)\0"
 11947      5741524E 
 11947      5F554E4B 
 11947      4F574E5F 
 11947      474C5950 
 11948 f86a 01       		.byte	0x1
 11949 f86b 40       		.uleb128 0x40
 11950 f86c 4546495F 		.ascii "EFI_WARN_UNKNOWN_GLYPH EFIWARN(1)\0"
 11950      5741524E 
 11950      5F554E4B 
 11950      4E4F574E 
 11950      5F474C59 
 11951 f88e 01       		.byte	0x1
 11952 f88f 41       		.uleb128 0x41
 11953 f890 4546495F 		.ascii "EFI_WARN_DELETE_FAILURE EFIWARN(2)\0"
 11953      5741524E 
 11953      5F44454C 
 11953      4554455F 
 11953      4641494C 
 11954 f8b3 01       		.byte	0x1
 11955 f8b4 42       		.uleb128 0x42
 11956 f8b5 4546495F 		.ascii "EFI_WARN_WRITE_FAILURE EFIWARN(3)\0"
 11956      5741524E 
 11956      5F575249 
 11956      54455F46 
 11956      41494C55 
 11957 f8d7 01       		.byte	0x1
 11958 f8d8 43       		.uleb128 0x43
 11959 f8d9 4546495F 		.ascii "EFI_WARN_BUFFER_TOO_SMALL EFIWARN(4)\0"
 11959      5741524E 
 11959      5F425546 
 11959      4645525F 
 11959      544F4F5F 
 11960 f8fe 01       		.byte	0x1
 11961 f8ff 44       		.uleb128 0x44
 11962 f900 4546495F 		.ascii "EFI_WARN_STALE_DATA EFIWARN(5)\0"
 11962      5741524E 
 11962      5F535441 
 11962      4C455F44 
 11962      41544120 
 11963 f91f 01       		.byte	0x1
 11964 f920 45       		.uleb128 0x45
 11965 f921 4546495F 		.ascii "EFI_WARN_FILE_SYSTEM EFIWARN(6)\0"
 11965      5741524E 
 11965      5F46494C 
 11965      455F5359 
 11965      5354454D 
 11966 f941 01       		.byte	0x1
 11967 f942 46       		.uleb128 0x46
 11968 f943 4546495F 		.ascii "EFI_WARN_RESET_REQUIRED EFIWARN(7)\0"
 11968      5741524E 
 11968      5F524553 
 11968      45545F52 
 11968      45515549 
 11969 f966 04       		.byte	0x4
 11970              		.file 31 "gnu-efi-3.0.18/inc/efiui.h"
 11971 f967 03       		.byte	0x3
 11972 f968 4F       		.uleb128 0x4f
 11973 f969 1F       		.uleb128 0x1f
 11974 f96a 01       		.byte	0x1
 11975 f96b 02       		.uleb128 0x2
 11976 f96c 5F454649 		.ascii "_EFI_UI_H \0"
 11976      5F55495F 
 11976      482000
 11977 f977 01       		.byte	0x1
 11978 f978 1F       		.uleb128 0x1f
 11979 f979 4546495F 		.ascii "EFI_UI_INTERFACE_PROTOCOL_GUID { 0x32dd7981, 0x2d27, 0x11d4, {0xbc, 0x8b, 0x0, 0x80, 0xc7,
 11979      55495F49 
 11979      4E544552 
 11979      46414345 
 11979      5F50524F 
 11980 f9e8 01       		.byte	0x1
 11981 f9e9 21       		.uleb128 0x21
 11982 f9ea 4546495F 		.ascii "EFI_UI_PROTOCOL EFI_UI_INTERFACE_PROTOCOL_GUID\0"
 11982      55495F50 
 11982      524F544F 
 11982      434F4C20 
 11982      4546495F 
 11983 fa19 01       		.byte	0x1
 11984 fa1a 2F       		.uleb128 0x2f
 11985 fa1b 4546495F 		.ascii "EFI_UI_INTERFACE_PROTOCOL_VERSION 0x00010000\0"
 11985      55495F49 
 11985      4E544552 
 11985      46414345 
 11985      5F50524F 
 11986 fa48 01       		.byte	0x1
 11987 fa49 30       		.uleb128 0x30
 11988 fa4a 4546495F 		.ascii "EFI_UI_VERSION EFI_UI_INTERFACE_PROTOCOL_VERSION\0"
 11988      55495F56 
 11988      45525349 
 11988      4F4E2045 
 11988      46495F55 
 11989 fa7b 04       		.byte	0x4
 11990              		.file 32 "gnu-efi-3.0.18/inc/efiip.h"
 11991 fa7c 03       		.byte	0x3
 11992 fa7d 50       		.uleb128 0x50
 11993 fa7e 20       		.uleb128 0x20
 11994 fa7f 01       		.byte	0x1
 11995 fa80 02       		.uleb128 0x2
 11996 fa81 5F454649 		.ascii "_EFI_IP_H \0"
 11996      5F49505F 
 11996      482000
 11997 fa8c 01       		.byte	0x1
 11998 fa8d 09       		.uleb128 0x9
 11999 fa8e 4546495F 		.ascii "EFI_IP4_SERVICE_BINDING_PROTOCOL {0xc51711e7,0xb4bf,0x404a,{0xbf,0xb8,0x0a,0x04, 0x8e,0xf1
 11999      4950345F 
 11999      53455256 
 11999      4943455F 
 11999      42494E44 
 12000 faf5 01       		.byte	0x1
 12001 faf6 0C       		.uleb128 0xc
 12002 faf7 4546495F 		.ascii "EFI_IP4_PROTOCOL {0x41d94cd2,0x35b6,0x455a,{0x82,0x58,0xd4,0xe5,0x13,0x34,0xaa,0xdd}}\0"
 12002      4950345F 
 12002      50524F54 
 12002      4F434F4C 
 12002      207B3078 
 12003 fb4d 01       		.byte	0x1
 12004 fb4e 0F       		.uleb128 0xf
 12005 fb4f 4546495F 		.ascii "EFI_IP6_SERVICE_BINDING_PROTOCOL {0xec835dd3,0xfe0f,0x617b,{0xa6,0x21,0xb3,0x50,0xc3,0xe1,
 12005      4950365F 
 12005      53455256 
 12005      4943455F 
 12005      42494E44 
 12006 fbb5 01       		.byte	0x1
 12007 fbb6 12       		.uleb128 0x12
 12008 fbb7 4546495F 		.ascii "EFI_IP6_PROTOCOL {0x2c8759d5,0x5c2d,0x66ef,{0x92,0x5f,0xb6,0x6c,0x10,0x19,0x57,0xe2}}\0"
 12008      4950365F 
 12008      50524F54 
 12008      4F434F4C 
 12008      207B3078 
 12009 fc0d 01       		.byte	0x1
 12010 fc0e 8102     		.uleb128 0x101
 12011 fc10 49434D50 		.ascii "ICMP_V6_DEST_UNREACHABLE 0x1\0"
 12011      5F56365F 
 12011      44455354 
 12011      5F554E52 
 12011      45414348 
 12012 fc2d 01       		.byte	0x1
 12013 fc2e 8202     		.uleb128 0x102
 12014 fc30 49434D50 		.ascii "ICMP_V6_PACKET_TOO_BIG 0x2\0"
 12014      5F56365F 
 12014      5041434B 
 12014      45545F54 
 12014      4F4F5F42 
 12015 fc4b 01       		.byte	0x1
 12016 fc4c 8302     		.uleb128 0x103
 12017 fc4e 49434D50 		.ascii "ICMP_V6_TIME_EXCEEDED 0x3\0"
 12017      5F56365F 
 12017      54494D45 
 12017      5F455843 
 12017      45454445 
 12018 fc68 01       		.byte	0x1
 12019 fc69 8402     		.uleb128 0x104
 12020 fc6b 49434D50 		.ascii "ICMP_V6_PARAMETER_PROBLEM 0x4\0"
 12020      5F56365F 
 12020      50415241 
 12020      4D455445 
 12020      525F5052 
 12021 fc89 01       		.byte	0x1
 12022 fc8a 8902     		.uleb128 0x109
 12023 fc8c 49434D50 		.ascii "ICMP_V6_ECHO_REQUEST 0x80\0"
 12023      5F56365F 
 12023      4543484F 
 12023      5F524551 
 12023      55455354 
 12024 fca6 01       		.byte	0x1
 12025 fca7 8A02     		.uleb128 0x10a
 12026 fca9 49434D50 		.ascii "ICMP_V6_ECHO_REPLY 0x81\0"
 12026      5F56365F 
 12026      4543484F 
 12026      5F524550 
 12026      4C592030 
 12027 fcc1 01       		.byte	0x1
 12028 fcc2 8B02     		.uleb128 0x10b
 12029 fcc4 49434D50 		.ascii "ICMP_V6_LISTENER_QUERY 0x82\0"
 12029      5F56365F 
 12029      4C495354 
 12029      454E4552 
 12029      5F515545 
 12030 fce0 01       		.byte	0x1
 12031 fce1 8C02     		.uleb128 0x10c
 12032 fce3 49434D50 		.ascii "ICMP_V6_LISTENER_REPORT 0x83\0"
 12032      5F56365F 
 12032      4C495354 
 12032      454E4552 
 12032      5F524550 
 12033 fd00 01       		.byte	0x1
 12034 fd01 8D02     		.uleb128 0x10d
 12035 fd03 49434D50 		.ascii "ICMP_V6_LISTENER_DONE 0x84\0"
 12035      5F56365F 
 12035      4C495354 
 12035      454E4552 
 12035      5F444F4E 
 12036 fd1e 01       		.byte	0x1
 12037 fd1f 8E02     		.uleb128 0x10e
 12038 fd21 49434D50 		.ascii "ICMP_V6_ROUTER_SOLICIT 0x85\0"
 12038      5F56365F 
 12038      524F5554 
 12038      45525F53 
 12038      4F4C4943 
 12039 fd3d 01       		.byte	0x1
 12040 fd3e 8F02     		.uleb128 0x10f
 12041 fd40 49434D50 		.ascii "ICMP_V6_ROUTER_ADVERTISE 0x86\0"
 12041      5F56365F 
 12041      524F5554 
 12041      45525F41 
 12041      44564552 
 12042 fd5e 01       		.byte	0x1
 12043 fd5f 9002     		.uleb128 0x110
 12044 fd61 49434D50 		.ascii "ICMP_V6_NEIGHBOR_SOLICIT 0x87\0"
 12044      5F56365F 
 12044      4E454947 
 12044      48424F52 
 12044      5F534F4C 
 12045 fd7f 01       		.byte	0x1
 12046 fd80 9102     		.uleb128 0x111
 12047 fd82 49434D50 		.ascii "ICMP_V6_NEIGHBOR_ADVERTISE 0x88\0"
 12047      5F56365F 
 12047      4E454947 
 12047      48424F52 
 12047      5F414456 
 12048 fda2 01       		.byte	0x1
 12049 fda3 9202     		.uleb128 0x112
 12050 fda5 49434D50 		.ascii "ICMP_V6_REDIRECT 0x89\0"
 12050      5F56365F 
 12050      52454449 
 12050      52454354 
 12050      20307838 
 12051 fdbb 01       		.byte	0x1
 12052 fdbc 9302     		.uleb128 0x113
 12053 fdbe 49434D50 		.ascii "ICMP_V6_LISTENER_REPORT_2 0x8F\0"
 12053      5F56365F 
 12053      4C495354 
 12053      454E4552 
 12053      5F524550 
 12054 fddd 01       		.byte	0x1
 12055 fdde 9802     		.uleb128 0x118
 12056 fde0 49434D50 		.ascii "ICMP_V6_NO_ROUTE_TO_DEST 0x0\0"
 12056      5F56365F 
 12056      4E4F5F52 
 12056      4F555445 
 12056      5F544F5F 
 12057 fdfd 01       		.byte	0x1
 12058 fdfe 9902     		.uleb128 0x119
 12059 fe00 49434D50 		.ascii "ICMP_V6_COMM_PROHIBITED 0x1\0"
 12059      5F56365F 
 12059      434F4D4D 
 12059      5F50524F 
 12059      48494249 
 12060 fe1c 01       		.byte	0x1
 12061 fe1d 9A02     		.uleb128 0x11a
 12062 fe1f 49434D50 		.ascii "ICMP_V6_BEYOND_SCOPE 0x2\0"
 12062      5F56365F 
 12062      4245594F 
 12062      4E445F53 
 12062      434F5045 
 12063 fe38 01       		.byte	0x1
 12064 fe39 9B02     		.uleb128 0x11b
 12065 fe3b 49434D50 		.ascii "ICMP_V6_ADDR_UNREACHABLE 0x3\0"
 12065      5F56365F 
 12065      41444452 
 12065      5F554E52 
 12065      45414348 
 12066 fe58 01       		.byte	0x1
 12067 fe59 9C02     		.uleb128 0x11c
 12068 fe5b 49434D50 		.ascii "ICMP_V6_PORT_UNREACHABLE 0x4\0"
 12068      5F56365F 
 12068      504F5254 
 12068      5F554E52 
 12068      45414348 
 12069 fe78 01       		.byte	0x1
 12070 fe79 9D02     		.uleb128 0x11d
 12071 fe7b 49434D50 		.ascii "ICMP_V6_SOURCE_ADDR_FAILED 0x5\0"
 12071      5F56365F 
 12071      534F5552 
 12071      43455F41 
 12071      4444525F 
 12072 fe9a 01       		.byte	0x1
 12073 fe9b 9E02     		.uleb128 0x11e
 12074 fe9d 49434D50 		.ascii "ICMP_V6_ROUTE_REJECTED 0x6\0"
 12074      5F56365F 
 12074      524F5554 
 12074      455F5245 
 12074      4A454354 
 12075 feb8 01       		.byte	0x1
 12076 feb9 A302     		.uleb128 0x123
 12077 febb 49434D50 		.ascii "ICMP_V6_TIMEOUT_HOP_LIMIT 0x0\0"
 12077      5F56365F 
 12077      54494D45 
 12077      4F55545F 
 12077      484F505F 
 12078 fed9 01       		.byte	0x1
 12079 feda A402     		.uleb128 0x124
 12080 fedc 49434D50 		.ascii "ICMP_V6_TIMEOUT_REASSEMBLE 0x1\0"
 12080      5F56365F 
 12080      54494D45 
 12080      4F55545F 
 12080      52454153 
 12081 fefb 01       		.byte	0x1
 12082 fefc A902     		.uleb128 0x129
 12083 fefe 49434D50 		.ascii "ICMP_V6_ERRONEOUS_HEADER 0x0\0"
 12083      5F56365F 
 12083      4552524F 
 12083      4E454F55 
 12083      535F4845 
 12084 ff1b 01       		.byte	0x1
 12085 ff1c AA02     		.uleb128 0x12a
 12086 ff1e 49434D50 		.ascii "ICMP_V6_UNRECOGNIZE_NEXT_HDR 0x1\0"
 12086      5F56365F 
 12086      554E5245 
 12086      434F474E 
 12086      495A455F 
 12087 ff3f 01       		.byte	0x1
 12088 ff40 AB02     		.uleb128 0x12b
 12089 ff42 49434D50 		.ascii "ICMP_V6_UNRECOGNIZE_OPTION 0x2\0"
 12089      5F56365F 
 12089      554E5245 
 12089      434F474E 
 12089      495A455F 
 12090 ff61 04       		.byte	0x4
 12091              		.file 33 "gnu-efi-3.0.18/inc/efiudp.h"
 12092 ff62 03       		.byte	0x3
 12093 ff63 51       		.uleb128 0x51
 12094 ff64 21       		.uleb128 0x21
 12095 ff65 01       		.byte	0x1
 12096 ff66 02       		.uleb128 0x2
 12097 ff67 5F454649 		.ascii "_EFI_UDP_H \0"
 12097      5F554450 
 12097      5F482000 
 12098 ff73 01       		.byte	0x1
 12099 ff74 0A       		.uleb128 0xa
 12100 ff75 4546495F 		.ascii "EFI_UDP4_SERVICE_BINDING_PROTOCOL { 0x83f01464, 0x99bd, 0x45e5, {0xb3, 0x83, 0xaf, 0x63, 0
 12100      55445034 
 12100      5F534552 
 12100      56494345 
 12100      5F42494E 
 12101 ffe8 01       		.byte	0x1
 12102 ffe9 0D       		.uleb128 0xd
 12103 ffea 4546495F 		.ascii "EFI_UDP4_PROTOCOL { 0x3ad9df29, 0x4501, 0x478d, {0xb1, 0xf8, 0x7f, 0x7f, 0xe7, 0x0e, 0x50,
 12103      55445034 
 12103      5F50524F 
 12103      544F434F 
 12103      4C207B20 
 12104 1004d 01       		.byte	0x1
 12105 1004e 10       		.uleb128 0x10
 12106 1004f 4546495F 		.ascii "EFI_UDP6_SERVICE_BINDING_PROTOCOL { 0x66ed4721, 0x3c98, 0x4d3e, {0x81, 0xe3, 0xd0, 0x3d, 0
 12106      55445036 
 12106      5F534552 
 12106      56494345 
 12106      5F42494E 
 12107 100c2 01       		.byte	0x1
 12108 100c3 13       		.uleb128 0x13
 12109 100c4 4546495F 		.ascii "EFI_UDP6_PROTOCOL { 0x4f948815, 0xb4b9, 0x43cb, {0x8a, 0x33, 0x90, 0xe0, 0x60, 0xb3,0x49, 
 12109      55445036 
 12109      5F50524F 
 12109      544F434F 
 12109      4C207B20 
 12110 10126 01       		.byte	0x1
 12111 10127 4E       		.uleb128 0x4e
 12112 10128 4546495F 		.ascii "EFI_NETWORK_UNREACHABLE EFIERR(100)\0"
 12112      4E455457 
 12112      4F524B5F 
 12112      554E5245 
 12112      41434841 
 12113 1014c 01       		.byte	0x1
 12114 1014d 4F       		.uleb128 0x4f
 12115 1014e 4546495F 		.ascii "EFI_HOST_UNREACHABLE EFIERR(101)\0"
 12115      484F5354 
 12115      5F554E52 
 12115      45414348 
 12115      41424C45 
 12116 1016f 01       		.byte	0x1
 12117 10170 50       		.uleb128 0x50
 12118 10171 4546495F 		.ascii "EFI_PROTOCOL_UNREACHABLE EFIERR(102)\0"
 12118      50524F54 
 12118      4F434F4C 
 12118      5F554E52 
 12118      45414348 
 12119 10196 01       		.byte	0x1
 12120 10197 51       		.uleb128 0x51
 12121 10198 4546495F 		.ascii "EFI_PORT_UNREACHABLE EFIERR(103)\0"
 12121      504F5254 
 12121      5F554E52 
 12121      45414348 
 12121      41424C45 
 12122 101b9 04       		.byte	0x4
 12123              		.file 34 "gnu-efi-3.0.18/inc/efitcp.h"
 12124 101ba 03       		.byte	0x3
 12125 101bb 52       		.uleb128 0x52
 12126 101bc 22       		.uleb128 0x22
 12127 101bd 01       		.byte	0x1
 12128 101be 02       		.uleb128 0x2
 12129 101bf 5F454649 		.ascii "_EFI_TCP_H \0"
 12129      5F544350 
 12129      5F482000 
 12130 101cb 01       		.byte	0x1
 12131 101cc 09       		.uleb128 0x9
 12132 101cd 4546495F 		.ascii "EFI_TCP4_SERVICE_BINDING_PROTOCOL { 0x00720665, 0x67eb, 0x4a99, {0xba, 0xf7, 0xd3, 0xc3, 0
 12132      54435034 
 12132      5F534552 
 12132      56494345 
 12132      5F42494E 
 12133 1023e 01       		.byte	0x1
 12134 1023f 0C       		.uleb128 0xc
 12135 10240 4546495F 		.ascii "EFI_TCP4_PROTOCOL { 0x65530bc7, 0xa359, 0x410f, {0xb0, 0x10, 0x5a, 0xad, 0xc7, 0xec, 0x2b,
 12135      54435034 
 12135      5F50524F 
 12135      544F434F 
 12135      4C207B20 
 12136 102a2 01       		.byte	0x1
 12137 102a3 0F       		.uleb128 0xf
 12138 102a4 4546495F 		.ascii "EFI_TCP6_SERVICE_BINDING_PROTOCOL { 0xec20eb79, 0x6c1a, 0x4664, {0x9a, 0xd, 0xd2, 0xe4, 0x
 12138      54435036 
 12138      5F534552 
 12138      56494345 
 12138      5F42494E 
 12139 10315 01       		.byte	0x1
 12140 10316 12       		.uleb128 0x12
 12141 10317 4546495F 		.ascii "EFI_TCP6_PROTOCOL { 0x46e44855, 0xbd60, 0x4ab7, {0xab, 0xd, 0xa6, 0x79, 0xb9, 0x44, 0x7d, 
 12141      54435036 
 12141      5F50524F 
 12141      544F434F 
 12141      4C207B20 
 12142 10378 01       		.byte	0x1
 12143 10379 8701     		.uleb128 0x87
 12144 1037b 4546495F 		.ascii "EFI_CONNECTION_FIN EFIERR(104)\0"
 12144      434F4E4E 
 12144      45435449 
 12144      4F4E5F46 
 12144      494E2045 
 12145 1039a 01       		.byte	0x1
 12146 1039b 8801     		.uleb128 0x88
 12147 1039d 4546495F 		.ascii "EFI_CONNECTION_RESET EFIERR(105)\0"
 12147      434F4E4E 
 12147      45435449 
 12147      4F4E5F52 
 12147      45534554 
 12148 103be 01       		.byte	0x1
 12149 103bf 8901     		.uleb128 0x89
 12150 103c1 4546495F 		.ascii "EFI_CONNECTION_REFUSED EFIERR(106)\0"
 12150      434F4E4E 
 12150      45435449 
 12150      4F4E5F52 
 12150      45465553 
 12151 103e4 04       		.byte	0x4
 12152              		.file 35 "gnu-efi-3.0.18/inc/efipoint.h"
 12153 103e5 03       		.byte	0x3
 12154 103e6 53       		.uleb128 0x53
 12155 103e7 23       		.uleb128 0x23
 12156 103e8 01       		.byte	0x1
 12157 103e9 17       		.uleb128 0x17
 12158 103ea 5F454649 		.ascii "_EFI_POINT_H \0"
 12158      5F504F49 
 12158      4E545F48 
 12158      2000
 12159 103f8 01       		.byte	0x1
 12160 103f9 19       		.uleb128 0x19
 12161 103fa 4546495F 		.ascii "EFI_SIMPLE_POINTER_PROTOCOL_GUID { 0x31878c87, 0xb75, 0x11d5, { 0x9a, 0x4f, 0x0, 0x90, 0x2
 12161      53494D50 
 12161      4C455F50 
 12161      4F494E54 
 12161      45525F50 
 12162 1046c 01       		.byte	0x1
 12163 1046d 43       		.uleb128 0x43
 12164 1046e 4546495F 		.ascii "EFI_ABSOLUTE_POINTER_PROTOCOL_GUID { 0x8D59D32B, 0xC655, 0x4AE9, { 0x9B, 0x15, 0xF2, 0x59,
 12164      4142534F 
 12164      4C555445 
 12164      5F504F49 
 12164      4E544552 
 12165 104e4 01       		.byte	0x1
 12166 104e5 59       		.uleb128 0x59
 12167 104e6 4546495F 		.ascii "EFI_ABSP_SupportsAltActive 0x00000001\0"
 12167      41425350 
 12167      5F537570 
 12167      706F7274 
 12167      73416C74 
 12168 1050c 01       		.byte	0x1
 12169 1050d 5A       		.uleb128 0x5a
 12170 1050e 4546495F 		.ascii "EFI_ABSP_SupportsPressureAsZ 0x00000002\0"
 12170      41425350 
 12170      5F537570 
 12170      706F7274 
 12170      73507265 
 12171 10536 01       		.byte	0x1
 12172 10537 5B       		.uleb128 0x5b
 12173 10538 4546495F 		.ascii "EFI_ABSP_TouchActive 0x00000001\0"
 12173      41425350 
 12173      5F546F75 
 12173      63684163 
 12173      74697665 
 12174 10558 01       		.byte	0x1
 12175 10559 5C       		.uleb128 0x5c
 12176 1055a 4546495F 		.ascii "EFI_ABS_AltActive 0x00000002\0"
 12176      4142535F 
 12176      416C7441 
 12176      63746976 
 12176      65203078 
 12177 10577 04       		.byte	0x4
 12178              		.file 36 "gnu-efi-3.0.18/inc/efishell.h"
 12179 10578 03       		.byte	0x3
 12180 10579 54       		.uleb128 0x54
 12181 1057a 24       		.uleb128 0x24
 12182 1057b 01       		.byte	0x1
 12183 1057c 0D       		.uleb128 0xd
 12184 1057d 5F454649 		.ascii "_EFI_SHELL_H \0"
 12184      5F534845 
 12184      4C4C5F48 
 12184      2000
 12185              		.file 37 "gnu-efi-3.0.18/inc/efilink.h"
 12186 1058b 03       		.byte	0x3
 12187 1058c 0F       		.uleb128 0xf
 12188 1058d 25       		.uleb128 0x25
 12189 1058e 01       		.byte	0x1
 12190 1058f 02       		.uleb128 0x2
 12191 10590 5F454649 		.ascii "_EFI_LINK_H \0"
 12191      5F4C494E 
 12191      4B5F4820 
 12191      00
 12192 1059d 01       		.byte	0x1
 12193 1059e 2B       		.uleb128 0x2b
 12194 1059f 496E6974 		.ascii "InitializeListHead(ListHead) (ListHead)->Flink = ListHead; (ListHead)->Blink = ListHead;\0
 12194      69616C69 
 12194      7A654C69 
 12194      73744865 
 12194      6164284C 
 12195 105f8 01       		.byte	0x1
 12196 105f9 36       		.uleb128 0x36
 12197 105fa 49734C69 		.ascii "IsListEmpty(ListHead) ((ListHead)->Flink == (ListHead))\0"
 12197      7374456D 
 12197      70747928 
 12197      4C697374 
 12197      48656164 
 12198 10632 01       		.byte	0x1
 12199 10633 40       		.uleb128 0x40
 12200 10634 5F52656D 		.ascii "_RemoveEntryList(Entry) { LIST_ENTRY *_Blink, *_Flink; _Flink = (Entry)->Flink; _Blink = (
 12200      6F766545 
 12200      6E747279 
 12200      4C697374 
 12200      28456E74 
 12201 106cf 01       		.byte	0x1
 12202 106d0 4E       		.uleb128 0x4e
 12203 106d1 52656D6F 		.ascii "RemoveEntryList(Entry) _RemoveEntryList(Entry);\0"
 12203      7665456E 
 12203      7472794C 
 12203      69737428 
 12203      456E7472 
 12204 10701 01       		.byte	0x1
 12205 10702 5A       		.uleb128 0x5a
 12206 10703 496E7365 		.ascii "InsertTailList(ListHead,Entry) { LIST_ENTRY *_ListHead, *_Blink; _ListHead = (ListHead); _
 12206      72745461 
 12206      696C4C69 
 12206      7374284C 
 12206      69737448 
 12207 107e3 01       		.byte	0x1
 12208 107e4 6C       		.uleb128 0x6c
 12209 107e5 496E7365 		.ascii "InsertHeadList(ListHead,Entry) { LIST_ENTRY *_ListHead, *_Flink; _ListHead = (ListHead); _
 12209      72744865 
 12209      61644C69 
 12209      7374284C 
 12209      69737448 
 12210 108c5 01       		.byte	0x1
 12211 108c6 7E       		.uleb128 0x7e
 12212 108c7 53776170 		.ascii "SwapListEntries(Entry1,Entry2) { LIST_ENTRY *Entry1Flink, *Entry1Blink; LIST_ENTRY *Entry2
 12212      4C697374 
 12212      456E7472 
 12212      69657328 
 12212      456E7472 
 12213 10a6c 01       		.byte	0x1
 12214 10a6d 9101     		.uleb128 0x91
 12215 10a6f 4546495F 		.ascii "EFI_FIELD_OFFSET(TYPE,Field) ((UINTN)(intptr_t)(&(((TYPE *) 0)->Field)))\0"
 12215      4649454C 
 12215      445F4F46 
 12215      46534554 
 12215      28545950 
 12216 10ab8 01       		.byte	0x1
 12217 10ab9 9801     		.uleb128 0x98
 12218 10abb 5F435228 		.ascii "_CR(Record,TYPE,Field) ((TYPE *) ( (CHAR8 *)(Record) - (CHAR8 *) &(((TYPE *) 0)->Field)))\
 12218      5265636F 
 12218      72642C54 
 12218      5950452C 
 12218      4669656C 
 12219 10b15 01       		.byte	0x1
 12220 10b16 9E01     		.uleb128 0x9e
 12221 10b18 42415345 		.ascii "BASE_CR _CR\0"
 12221      5F435220 
 12221      5F435200 
 12222 10b24 01       		.byte	0x1
 12223 10b25 A601     		.uleb128 0xa6
 12224 10b27 43522852 		.ascii "CR(Record,TYPE,Field,Signature) _CR(Record, TYPE, Field)\0"
 12224      65636F72 
 12224      642C5459 
 12224      50452C46 
 12224      69656C64 
 12225 10b60 04       		.byte	0x4
 12226 10b61 01       		.byte	0x1
 12227 10b62 11       		.uleb128 0x11
 12228 10b63 4546495F 		.ascii "EFI_SHELL_PROTOCOL_GUID { 0x6302d008, 0x7f9b, 0x4f30, { 0x87, 0xac, 0x60, 0xc9, 0xfe, 0xf5
 12228      5348454C 
 12228      4C5F5052 
 12228      4F544F43 
 12228      4F4C5F47 
 12229 10bce 01       		.byte	0x1
 12230 10bcf 9801     		.uleb128 0x98
 12231 10bd1 4546495F 		.ascii "EFI_DEVICE_NAME_USE_COMPONENT_NAME 0x00000001\0"
 12231      44455649 
 12231      43455F4E 
 12231      414D455F 
 12231      5553455F 
 12232 10bff 01       		.byte	0x1
 12233 10c00 9901     		.uleb128 0x99
 12234 10c02 4546495F 		.ascii "EFI_DEVICE_NAME_USE_DEVICE_PATH 0x00000002\0"
 12234      44455649 
 12234      43455F4E 
 12234      414D455F 
 12234      5553455F 
 12235 10c2d 01       		.byte	0x1
 12236 10c2e 9903     		.uleb128 0x199
 12237 10c30 4546495F 		.ascii "EFI_SHELL_PARAMETERS_PROTOCOL_GUID { 0x752f3136, 0x4e16, 0x4fdc, { 0xa2, 0x2a, 0xe5, 0xf4,
 12237      5348454C 
 12237      4C5F5041 
 12237      52414D45 
 12237      54455253 
 12238 10ca6 01       		.byte	0x1
 12239 10ca7 A603     		.uleb128 0x1a6
 12240 10ca9 4546495F 		.ascii "EFI_SHELL_DYNAMIC_COMMAND_PROTOCOL_GUID { 0x3c7200e9, 0x005f, 0x4ea4, { 0x87, 0xde, 0xa3, 
 12240      5348454C 
 12240      4C5F4459 
 12240      4E414D49 
 12240      435F434F 
 12241 10d24 04       		.byte	0x4
 12242 10d25 04       		.byte	0x4
 12243 10d26 03       		.byte	0x3
 12244 10d27 18       		.uleb128 0x18
 12245 10d28 0A       		.uleb128 0xa
 12246 10d29 01       		.byte	0x1
 12247 10d2a 02       		.uleb128 0x2
 12248 10d2b 5F454649 		.ascii "_EFILIB_INCLUDE_ \0"
 12248      4C49425F 
 12248      494E434C 
 12248      5544455F 
 12248      2000
 12249              		.file 38 "gnu-efi-3.0.18/inc/efidebug.h"
 12250 10d3d 03       		.byte	0x3
 12251 10d3e 1A       		.uleb128 0x1a
 12252 10d3f 26       		.uleb128 0x26
 12253 10d40 01       		.byte	0x1
 12254 10d41 02       		.uleb128 0x2
 12255 10d42 5F454649 		.ascii "_EFI_DEBUG_H \0"
 12255      5F444542 
 12255      55475F48 
 12255      2000
 12256 10d50 01       		.byte	0x1
 12257 10d51 1F       		.uleb128 0x1f
 12258 10d52 44424741 		.ascii "DBGASSERT(a) \0"
 12258      53534552 
 12258      54286129 
 12258      2000
 12259 10d60 01       		.byte	0x1
 12260 10d61 20       		.uleb128 0x20
 12261 10d62 44454255 		.ascii "DEBUG(a) \0"
 12261      47286129 
 12261      2000
 12262 10d6c 01       		.byte	0x1
 12263 10d6d 2A       		.uleb128 0x2a
 12264 10d6e 44424753 		.ascii "DBGSETMEM(a,l) \0"
 12264      45544D45 
 12264      4D28612C 
 12264      6C292000 
 12265 10d7e 01       		.byte	0x1
 12266 10d7f 2E       		.uleb128 0x2e
 12267 10d80 445F494E 		.ascii "D_INIT 0x00000001\0"
 12267      49542030 
 12267      78303030 
 12267      30303030 
 12267      3100
 12268 10d92 01       		.byte	0x1
 12269 10d93 2F       		.uleb128 0x2f
 12270 10d94 445F5741 		.ascii "D_WARN 0x00000002\0"
 12270      524E2030 
 12270      78303030 
 12270      30303030 
 12270      3200
 12271 10da6 01       		.byte	0x1
 12272 10da7 30       		.uleb128 0x30
 12273 10da8 445F4C4F 		.ascii "D_LOAD 0x00000004\0"
 12273      41442030 
 12273      78303030 
 12273      30303030 
 12273      3400
 12274 10dba 01       		.byte	0x1
 12275 10dbb 31       		.uleb128 0x31
 12276 10dbc 445F4653 		.ascii "D_FS 0x00000008\0"
 12276      20307830 
 12276      30303030 
 12276      30303800 
 12277 10dcc 01       		.byte	0x1
 12278 10dcd 32       		.uleb128 0x32
 12279 10dce 445F504F 		.ascii "D_POOL 0x00000010\0"
 12279      4F4C2030 
 12279      78303030 
 12279      30303031 
 12279      3000
 12280 10de0 01       		.byte	0x1
 12281 10de1 33       		.uleb128 0x33
 12282 10de2 445F5041 		.ascii "D_PAGE 0x00000020\0"
 12282      47452030 
 12282      78303030 
 12282      30303032 
 12282      3000
 12283 10df4 01       		.byte	0x1
 12284 10df5 34       		.uleb128 0x34
 12285 10df6 445F494E 		.ascii "D_INFO 0x00000040\0"
 12285      464F2030 
 12285      78303030 
 12285      30303034 
 12285      3000
 12286 10e08 01       		.byte	0x1
 12287 10e09 35       		.uleb128 0x35
 12288 10e0a 445F5641 		.ascii "D_VAR 0x00000100\0"
 12288      52203078 
 12288      30303030 
 12288      30313030 
 12288      00
 12289 10e1b 01       		.byte	0x1
 12290 10e1c 36       		.uleb128 0x36
 12291 10e1d 445F5041 		.ascii "D_PARSE 0x00000200\0"
 12291      52534520 
 12291      30783030 
 12291      30303032 
 12291      303000
 12292 10e30 01       		.byte	0x1
 12293 10e31 37       		.uleb128 0x37
 12294 10e32 445F424D 		.ascii "D_BM 0x00000400\0"
 12294      20307830 
 12294      30303030 
 12294      34303000 
 12295 10e42 01       		.byte	0x1
 12296 10e43 38       		.uleb128 0x38
 12297 10e44 445F424C 		.ascii "D_BLKIO 0x00001000\0"
 12297      4B494F20 
 12297      30783030 
 12297      30303130 
 12297      303000
 12298 10e57 01       		.byte	0x1
 12299 10e58 39       		.uleb128 0x39
 12300 10e59 445F424C 		.ascii "D_BLKIO_ULTRA 0x00002000\0"
 12300      4B494F5F 
 12300      554C5452 
 12300      41203078 
 12300      30303030 
 12301 10e72 01       		.byte	0x1
 12302 10e73 3A       		.uleb128 0x3a
 12303 10e74 445F4E45 		.ascii "D_NET 0x00004000\0"
 12303      54203078 
 12303      30303030 
 12303      34303030 
 12303      00
 12304 10e85 01       		.byte	0x1
 12305 10e86 3B       		.uleb128 0x3b
 12306 10e87 445F4E45 		.ascii "D_NET_ULTRA 0x00008000\0"
 12306      545F554C 
 12306      54524120 
 12306      30783030 
 12306      30303830 
 12307 10e9e 01       		.byte	0x1
 12308 10e9f 3C       		.uleb128 0x3c
 12309 10ea0 445F5458 		.ascii "D_TXTIN 0x00010000\0"
 12309      54494E20 
 12309      30783030 
 12309      30313030 
 12309      303000
 12310 10eb3 01       		.byte	0x1
 12311 10eb4 3D       		.uleb128 0x3d
 12312 10eb5 445F5458 		.ascii "D_TXTOUT 0x00020000\0"
 12312      544F5554 
 12312      20307830 
 12312      30303230 
 12312      30303000 
 12313 10ec9 01       		.byte	0x1
 12314 10eca 3E       		.uleb128 0x3e
 12315 10ecb 445F4552 		.ascii "D_ERROR_ATA 0x00040000\0"
 12315      524F525F 
 12315      41544120 
 12315      30783030 
 12315      30343030 
 12316 10ee2 01       		.byte	0x1
 12317 10ee3 3F       		.uleb128 0x3f
 12318 10ee4 445F4552 		.ascii "D_ERROR 0x80000000\0"
 12318      524F5220 
 12318      30783830 
 12318      30303030 
 12318      303000
 12319 10ef7 01       		.byte	0x1
 12320 10ef8 41       		.uleb128 0x41
 12321 10ef9 445F5245 		.ascii "D_RESERVED 0x7fffC880\0"
 12321      53455256 
 12321      45442030 
 12321      78376666 
 12321      66433838 
 12322 10f0f 01       		.byte	0x1
 12323 10f10 47       		.uleb128 0x47
 12324 10f11 4546495F 		.ascii "EFI_DBUG_MASK (D_ERROR)\0"
 12324      44425547 
 12324      5F4D4153 
 12324      4B202844 
 12324      5F455252 
 12325 10f29 01       		.byte	0x1
 12326 10f2a 55       		.uleb128 0x55
 12327 10f2b 41535345 		.ascii "ASSERT(a) \0"
 12327      52542861 
 12327      292000
 12328 10f36 01       		.byte	0x1
 12329 10f37 56       		.uleb128 0x56
 12330 10f38 41535345 		.ascii "ASSERT_LOCKED(l) \0"
 12330      52545F4C 
 12330      4F434B45 
 12330      44286C29 
 12330      2000
 12331 10f4a 01       		.byte	0x1
 12332 10f4b 57       		.uleb128 0x57
 12333 10f4c 41535345 		.ascii "ASSERT_STRUCT(p,t) \0"
 12333      52545F53 
 12333      54525543 
 12333      5428702C 
 12333      74292000 
 12334 10f60 01       		.byte	0x1
 12335 10f61 74       		.uleb128 0x74
 12336 10f62 45584345 		.ascii "EXCEPT_IA32_DIVIDE_ERROR 0\0"
 12336      50545F49 
 12336      4133325F 
 12336      44495649 
 12336      44455F45 
 12337 10f7d 01       		.byte	0x1
 12338 10f7e 75       		.uleb128 0x75
 12339 10f7f 45584345 		.ascii "EXCEPT_IA32_DEBUG 1\0"
 12339      50545F49 
 12339      4133325F 
 12339      44454255 
 12339      47203100 
 12340 10f93 01       		.byte	0x1
 12341 10f94 76       		.uleb128 0x76
 12342 10f95 45584345 		.ascii "EXCEPT_IA32_NMI 2\0"
 12342      50545F49 
 12342      4133325F 
 12342      4E4D4920 
 12342      3200
 12343 10fa7 01       		.byte	0x1
 12344 10fa8 77       		.uleb128 0x77
 12345 10fa9 45584345 		.ascii "EXCEPT_IA32_BREAKPOINT 3\0"
 12345      50545F49 
 12345      4133325F 
 12345      42524541 
 12345      4B504F49 
 12346 10fc2 01       		.byte	0x1
 12347 10fc3 78       		.uleb128 0x78
 12348 10fc4 45584345 		.ascii "EXCEPT_IA32_OVERFLOW 4\0"
 12348      50545F49 
 12348      4133325F 
 12348      4F564552 
 12348      464C4F57 
 12349 10fdb 01       		.byte	0x1
 12350 10fdc 79       		.uleb128 0x79
 12351 10fdd 45584345 		.ascii "EXCEPT_IA32_BOUND 5\0"
 12351      50545F49 
 12351      4133325F 
 12351      424F554E 
 12351      44203500 
 12352 10ff1 01       		.byte	0x1
 12353 10ff2 7A       		.uleb128 0x7a
 12354 10ff3 45584345 		.ascii "EXCEPT_IA32_INVALID_OPCODE 6\0"
 12354      50545F49 
 12354      4133325F 
 12354      494E5641 
 12354      4C49445F 
 12355 11010 01       		.byte	0x1
 12356 11011 7B       		.uleb128 0x7b
 12357 11012 45584345 		.ascii "EXCEPT_IA32_DOUBLE_FAULT 8\0"
 12357      50545F49 
 12357      4133325F 
 12357      444F5542 
 12357      4C455F46 
 12358 1102d 01       		.byte	0x1
 12359 1102e 7C       		.uleb128 0x7c
 12360 1102f 45584345 		.ascii "EXCEPT_IA32_INVALID_TSS 10\0"
 12360      50545F49 
 12360      4133325F 
 12360      494E5641 
 12360      4C49445F 
 12361 1104a 01       		.byte	0x1
 12362 1104b 7D       		.uleb128 0x7d
 12363 1104c 45584345 		.ascii "EXCEPT_IA32_SEG_NOT_PRESENT 11\0"
 12363      50545F49 
 12363      4133325F 
 12363      5345475F 
 12363      4E4F545F 
 12364 1106b 01       		.byte	0x1
 12365 1106c 7E       		.uleb128 0x7e
 12366 1106d 45584345 		.ascii "EXCEPT_IA32_STACK_FAULT 12\0"
 12366      50545F49 
 12366      4133325F 
 12366      53544143 
 12366      4B5F4641 
 12367 11088 01       		.byte	0x1
 12368 11089 7F       		.uleb128 0x7f
 12369 1108a 45584345 		.ascii "EXCEPT_IA32_GP_FAULT 13\0"
 12369      50545F49 
 12369      4133325F 
 12369      47505F46 
 12369      41554C54 
 12370 110a2 01       		.byte	0x1
 12371 110a3 8001     		.uleb128 0x80
 12372 110a5 45584345 		.ascii "EXCEPT_IA32_PAGE_FAULT 14\0"
 12372      50545F49 
 12372      4133325F 
 12372      50414745 
 12372      5F464155 
 12373 110bf 01       		.byte	0x1
 12374 110c0 8101     		.uleb128 0x81
 12375 110c2 45584345 		.ascii "EXCEPT_IA32_FP_ERROR 16\0"
 12375      50545F49 
 12375      4133325F 
 12375      46505F45 
 12375      52524F52 
 12376 110da 01       		.byte	0x1
 12377 110db 8201     		.uleb128 0x82
 12378 110dd 45584345 		.ascii "EXCEPT_IA32_ALIGNMENT_CHECK 17\0"
 12378      50545F49 
 12378      4133325F 
 12378      414C4947 
 12378      4E4D454E 
 12379 110fc 01       		.byte	0x1
 12380 110fd 8301     		.uleb128 0x83
 12381 110ff 45584345 		.ascii "EXCEPT_IA32_MACHINE_CHECK 18\0"
 12381      50545F49 
 12381      4133325F 
 12381      4D414348 
 12381      494E455F 
 12382 1111c 01       		.byte	0x1
 12383 1111d 8401     		.uleb128 0x84
 12384 1111f 45584345 		.ascii "EXCEPT_IA32_SIMD 19\0"
 12384      50545F49 
 12384      4133325F 
 12384      53494D44 
 12384      20313900 
 12385 11133 01       		.byte	0x1
 12386 11134 C901     		.uleb128 0xc9
 12387 11136 45584345 		.ascii "EXCEPT_X64_DIVIDE_ERROR 0\0"
 12387      50545F58 
 12387      36345F44 
 12387      49564944 
 12387      455F4552 
 12388 11150 01       		.byte	0x1
 12389 11151 CA01     		.uleb128 0xca
 12390 11153 45584345 		.ascii "EXCEPT_X64_DEBUG 1\0"
 12390      50545F58 
 12390      36345F44 
 12390      45425547 
 12390      203100
 12391 11166 01       		.byte	0x1
 12392 11167 CB01     		.uleb128 0xcb
 12393 11169 45584345 		.ascii "EXCEPT_X64_NMI 2\0"
 12393      50545F58 
 12393      36345F4E 
 12393      4D492032 
 12393      00
 12394 1117a 01       		.byte	0x1
 12395 1117b CC01     		.uleb128 0xcc
 12396 1117d 45584345 		.ascii "EXCEPT_X64_BREAKPOINT 3\0"
 12396      50545F58 
 12396      36345F42 
 12396      5245414B 
 12396      504F494E 
 12397 11195 01       		.byte	0x1
 12398 11196 CD01     		.uleb128 0xcd
 12399 11198 45584345 		.ascii "EXCEPT_X64_OVERFLOW 4\0"
 12399      50545F58 
 12399      36345F4F 
 12399      56455246 
 12399      4C4F5720 
 12400 111ae 01       		.byte	0x1
 12401 111af CE01     		.uleb128 0xce
 12402 111b1 45584345 		.ascii "EXCEPT_X64_BOUND 5\0"
 12402      50545F58 
 12402      36345F42 
 12402      4F554E44 
 12402      203500
 12403 111c4 01       		.byte	0x1
 12404 111c5 CF01     		.uleb128 0xcf
 12405 111c7 45584345 		.ascii "EXCEPT_X64_INVALID_OPCODE 6\0"
 12405      50545F58 
 12405      36345F49 
 12405      4E56414C 
 12405      49445F4F 
 12406 111e3 01       		.byte	0x1
 12407 111e4 D001     		.uleb128 0xd0
 12408 111e6 45584345 		.ascii "EXCEPT_X64_DOUBLE_FAULT 8\0"
 12408      50545F58 
 12408      36345F44 
 12408      4F55424C 
 12408      455F4641 
 12409 11200 01       		.byte	0x1
 12410 11201 D101     		.uleb128 0xd1
 12411 11203 45584345 		.ascii "EXCEPT_X64_INVALID_TSS 10\0"
 12411      50545F58 
 12411      36345F49 
 12411      4E56414C 
 12411      49445F54 
 12412 1121d 01       		.byte	0x1
 12413 1121e D201     		.uleb128 0xd2
 12414 11220 45584345 		.ascii "EXCEPT_X64_SEG_NOT_PRESENT 11\0"
 12414      50545F58 
 12414      36345F53 
 12414      45475F4E 
 12414      4F545F50 
 12415 1123e 01       		.byte	0x1
 12416 1123f D301     		.uleb128 0xd3
 12417 11241 45584345 		.ascii "EXCEPT_X64_STACK_FAULT 12\0"
 12417      50545F58 
 12417      36345F53 
 12417      5441434B 
 12417      5F464155 
 12418 1125b 01       		.byte	0x1
 12419 1125c D401     		.uleb128 0xd4
 12420 1125e 45584345 		.ascii "EXCEPT_X64_GP_FAULT 13\0"
 12420      50545F58 
 12420      36345F47 
 12420      505F4641 
 12420      554C5420 
 12421 11275 01       		.byte	0x1
 12422 11276 D501     		.uleb128 0xd5
 12423 11278 45584345 		.ascii "EXCEPT_X64_PAGE_FAULT 14\0"
 12423      50545F58 
 12423      36345F50 
 12423      4147455F 
 12423      4641554C 
 12424 11291 01       		.byte	0x1
 12425 11292 D601     		.uleb128 0xd6
 12426 11294 45584345 		.ascii "EXCEPT_X64_FP_ERROR 16\0"
 12426      50545F58 
 12426      36345F46 
 12426      505F4552 
 12426      524F5220 
 12427 112ab 01       		.byte	0x1
 12428 112ac D701     		.uleb128 0xd7
 12429 112ae 45584345 		.ascii "EXCEPT_X64_ALIGNMENT_CHECK 17\0"
 12429      50545F58 
 12429      36345F41 
 12429      4C49474E 
 12429      4D454E54 
 12430 112cc 01       		.byte	0x1
 12431 112cd D801     		.uleb128 0xd8
 12432 112cf 45584345 		.ascii "EXCEPT_X64_MACHINE_CHECK 18\0"
 12432      50545F58 
 12432      36345F4D 
 12432      41434849 
 12432      4E455F43 
 12433 112eb 01       		.byte	0x1
 12434 112ec D901     		.uleb128 0xd9
 12435 112ee 45584345 		.ascii "EXCEPT_X64_SIMD 19\0"
 12435      50545F58 
 12435      36345F53 
 12435      494D4420 
 12435      313900
 12436 11301 01       		.byte	0x1
 12437 11302 A402     		.uleb128 0x124
 12438 11304 45584345 		.ascii "EXCEPT_IPF_VHTP_TRANSLATION 0\0"
 12438      50545F49 
 12438      50465F56 
 12438      4854505F 
 12438      5452414E 
 12439 11322 01       		.byte	0x1
 12440 11323 A502     		.uleb128 0x125
 12441 11325 45584345 		.ascii "EXCEPT_IPF_INSTRUCTION_TLB 1\0"
 12441      50545F49 
 12441      50465F49 
 12441      4E535452 
 12441      55435449 
 12442 11342 01       		.byte	0x1
 12443 11343 A602     		.uleb128 0x126
 12444 11345 45584345 		.ascii "EXCEPT_IPF_DATA_TLB 2\0"
 12444      50545F49 
 12444      50465F44 
 12444      4154415F 
 12444      544C4220 
 12445 1135b 01       		.byte	0x1
 12446 1135c A702     		.uleb128 0x127
 12447 1135e 45584345 		.ascii "EXCEPT_IPF_ALT_INSTRUCTION_TLB 3\0"
 12447      50545F49 
 12447      50465F41 
 12447      4C545F49 
 12447      4E535452 
 12448 1137f 01       		.byte	0x1
 12449 11380 A802     		.uleb128 0x128
 12450 11382 45584345 		.ascii "EXCEPT_IPF_ALT_DATA_TLB 4\0"
 12450      50545F49 
 12450      50465F41 
 12450      4C545F44 
 12450      4154415F 
 12451 1139c 01       		.byte	0x1
 12452 1139d A902     		.uleb128 0x129
 12453 1139f 45584345 		.ascii "EXCEPT_IPF_DATA_NESTED_TLB 5\0"
 12453      50545F49 
 12453      50465F44 
 12453      4154415F 
 12453      4E455354 
 12454 113bc 01       		.byte	0x1
 12455 113bd AA02     		.uleb128 0x12a
 12456 113bf 45584345 		.ascii "EXCEPT_IPF_INSTRUCTION_KEY_MISSED 6\0"
 12456      50545F49 
 12456      50465F49 
 12456      4E535452 
 12456      55435449 
 12457 113e3 01       		.byte	0x1
 12458 113e4 AB02     		.uleb128 0x12b
 12459 113e6 45584345 		.ascii "EXCEPT_IPF_DATA_KEY_MISSED 7\0"
 12459      50545F49 
 12459      50465F44 
 12459      4154415F 
 12459      4B45595F 
 12460 11403 01       		.byte	0x1
 12461 11404 AC02     		.uleb128 0x12c
 12462 11406 45584345 		.ascii "EXCEPT_IPF_DIRTY_BIT 8\0"
 12462      50545F49 
 12462      50465F44 
 12462      49525459 
 12462      5F424954 
 12463 1141d 01       		.byte	0x1
 12464 1141e AD02     		.uleb128 0x12d
 12465 11420 45584345 		.ascii "EXCEPT_IPF_INSTRUCTION_ACCESS_BIT 9\0"
 12465      50545F49 
 12465      50465F49 
 12465      4E535452 
 12465      55435449 
 12466 11444 01       		.byte	0x1
 12467 11445 AE02     		.uleb128 0x12e
 12468 11447 45584345 		.ascii "EXCEPT_IPF_DATA_ACCESS_BIT 10\0"
 12468      50545F49 
 12468      50465F44 
 12468      4154415F 
 12468      41434345 
 12469 11465 01       		.byte	0x1
 12470 11466 AF02     		.uleb128 0x12f
 12471 11468 45584345 		.ascii "EXCEPT_IPF_BREAKPOINT 11\0"
 12471      50545F49 
 12471      50465F42 
 12471      5245414B 
 12471      504F494E 
 12472 11481 01       		.byte	0x1
 12473 11482 B002     		.uleb128 0x130
 12474 11484 45584345 		.ascii "EXCEPT_IPF_EXTERNAL_INTERRUPT 12\0"
 12474      50545F49 
 12474      50465F45 
 12474      58544552 
 12474      4E414C5F 
 12475 114a5 01       		.byte	0x1
 12476 114a6 B102     		.uleb128 0x131
 12477 114a8 45584345 		.ascii "EXCEPT_IPF_PAGE_NOT_PRESENT 20\0"
 12477      50545F49 
 12477      50465F50 
 12477      4147455F 
 12477      4E4F545F 
 12478 114c7 01       		.byte	0x1
 12479 114c8 B202     		.uleb128 0x132
 12480 114ca 45584345 		.ascii "EXCEPT_IPF_KEY_PERMISSION 21\0"
 12480      50545F49 
 12480      50465F4B 
 12480      45595F50 
 12480      45524D49 
 12481 114e7 01       		.byte	0x1
 12482 114e8 B302     		.uleb128 0x133
 12483 114ea 45584345 		.ascii "EXCEPT_IPF_INSTRUCTION_ACCESS_RIGHTS 22\0"
 12483      50545F49 
 12483      50465F49 
 12483      4E535452 
 12483      55435449 
 12484 11512 01       		.byte	0x1
 12485 11513 B402     		.uleb128 0x134
 12486 11515 45584345 		.ascii "EXCEPT_IPF_DATA_ACCESS_RIGHTS 23\0"
 12486      50545F49 
 12486      50465F44 
 12486      4154415F 
 12486      41434345 
 12487 11536 01       		.byte	0x1
 12488 11537 B502     		.uleb128 0x135
 12489 11539 45584345 		.ascii "EXCEPT_IPF_GENERAL_EXCEPTION 24\0"
 12489      50545F49 
 12489      50465F47 
 12489      454E4552 
 12489      414C5F45 
 12490 11559 01       		.byte	0x1
 12491 1155a B602     		.uleb128 0x136
 12492 1155c 45584345 		.ascii "EXCEPT_IPF_DISABLED_FP_REGISTER 25\0"
 12492      50545F49 
 12492      50465F44 
 12492      49534142 
 12492      4C45445F 
 12493 1157f 01       		.byte	0x1
 12494 11580 B702     		.uleb128 0x137
 12495 11582 45584345 		.ascii "EXCEPT_IPF_NAT_CONSUMPTION 26\0"
 12495      50545F49 
 12495      50465F4E 
 12495      41545F43 
 12495      4F4E5355 
 12496 115a0 01       		.byte	0x1
 12497 115a1 B802     		.uleb128 0x138
 12498 115a3 45584345 		.ascii "EXCEPT_IPF_SPECULATION 27\0"
 12498      50545F49 
 12498      50465F53 
 12498      50454355 
 12498      4C415449 
 12499 115bd 01       		.byte	0x1
 12500 115be B902     		.uleb128 0x139
 12501 115c0 45584345 		.ascii "EXCEPT_IPF_DEBUG 29\0"
 12501      50545F49 
 12501      50465F44 
 12501      45425547 
 12501      20323900 
 12502 115d4 01       		.byte	0x1
 12503 115d5 BA02     		.uleb128 0x13a
 12504 115d7 45584345 		.ascii "EXCEPT_IPF_UNALIGNED_REFERENCE 30\0"
 12504      50545F49 
 12504      50465F55 
 12504      4E414C49 
 12504      474E4544 
 12505 115f9 01       		.byte	0x1
 12506 115fa BB02     		.uleb128 0x13b
 12507 115fc 45584345 		.ascii "EXCEPT_IPF_UNSUPPORTED_DATA_REFERENCE 31\0"
 12507      50545F49 
 12507      50465F55 
 12507      4E535550 
 12507      504F5254 
 12508 11625 01       		.byte	0x1
 12509 11626 BC02     		.uleb128 0x13c
 12510 11628 45584345 		.ascii "EXCEPT_IPF_FP_FAULT 32\0"
 12510      50545F49 
 12510      50465F46 
 12510      505F4641 
 12510      554C5420 
 12511 1163f 01       		.byte	0x1
 12512 11640 BD02     		.uleb128 0x13d
 12513 11642 45584345 		.ascii "EXCEPT_IPF_FP_TRAP 33\0"
 12513      50545F49 
 12513      50465F46 
 12513      505F5452 
 12513      41502033 
 12514 11658 01       		.byte	0x1
 12515 11659 BE02     		.uleb128 0x13e
 12516 1165b 45584345 		.ascii "EXCEPT_IPF_LOWER_PRIVILEGE_TRANSFER_TRAP 34\0"
 12516      50545F49 
 12516      50465F4C 
 12516      4F574552 
 12516      5F505249 
 12517 11687 01       		.byte	0x1
 12518 11688 BF02     		.uleb128 0x13f
 12519 1168a 45584345 		.ascii "EXCEPT_IPF_TAKEN_BRANCH 35\0"
 12519      50545F49 
 12519      50465F54 
 12519      414B454E 
 12519      5F425241 
 12520 116a5 01       		.byte	0x1
 12521 116a6 C002     		.uleb128 0x140
 12522 116a8 45584345 		.ascii "EXCEPT_IPF_SINGLE_STEP 36\0"
 12522      50545F49 
 12522      50465F53 
 12522      494E474C 
 12522      455F5354 
 12523 116c2 01       		.byte	0x1
 12524 116c3 C102     		.uleb128 0x141
 12525 116c5 45584345 		.ascii "EXCEPT_IPF_IA32_EXCEPTION 45\0"
 12525      50545F49 
 12525      50465F49 
 12525      4133325F 
 12525      45584345 
 12526 116e2 01       		.byte	0x1
 12527 116e3 C202     		.uleb128 0x142
 12528 116e5 45584345 		.ascii "EXCEPT_IPF_IA32_INTERCEPT 46\0"
 12528      50545F49 
 12528      50465F49 
 12528      4133325F 
 12528      494E5445 
 12529 11702 01       		.byte	0x1
 12530 11703 C302     		.uleb128 0x143
 12531 11705 45584345 		.ascii "EXCEPT_IPF_IA32_INTERRUPT 47\0"
 12531      50545F49 
 12531      50465F49 
 12531      4133325F 
 12531      494E5445 
 12532 11722 01       		.byte	0x1
 12533 11723 C003     		.uleb128 0x1c0
 12534 11725 45584345 		.ascii "EXCEPT_EBC_UNDEFINED 0\0"
 12534      50545F45 
 12534      42435F55 
 12534      4E444546 
 12534      494E4544 
 12535 1173c 01       		.byte	0x1
 12536 1173d C103     		.uleb128 0x1c1
 12537 1173f 45584345 		.ascii "EXCEPT_EBC_DIVIDE_ERROR 1\0"
 12537      50545F45 
 12537      42435F44 
 12537      49564944 
 12537      455F4552 
 12538 11759 01       		.byte	0x1
 12539 1175a C203     		.uleb128 0x1c2
 12540 1175c 45584345 		.ascii "EXCEPT_EBC_DEBUG 2\0"
 12540      50545F45 
 12540      42435F44 
 12540      45425547 
 12540      203200
 12541 1176f 01       		.byte	0x1
 12542 11770 C303     		.uleb128 0x1c3
 12543 11772 45584345 		.ascii "EXCEPT_EBC_BREAKPOINT 3\0"
 12543      50545F45 
 12543      42435F42 
 12543      5245414B 
 12543      504F494E 
 12544 1178a 01       		.byte	0x1
 12545 1178b C403     		.uleb128 0x1c4
 12546 1178d 45584345 		.ascii "EXCEPT_EBC_OVERFLOW 4\0"
 12546      50545F45 
 12546      42435F4F 
 12546      56455246 
 12546      4C4F5720 
 12547 117a3 01       		.byte	0x1
 12548 117a4 C503     		.uleb128 0x1c5
 12549 117a6 45584345 		.ascii "EXCEPT_EBC_INVALID_OPCODE 5\0"
 12549      50545F45 
 12549      42435F49 
 12549      4E56414C 
 12549      49445F4F 
 12550 117c2 01       		.byte	0x1
 12551 117c3 C603     		.uleb128 0x1c6
 12552 117c5 45584345 		.ascii "EXCEPT_EBC_STACK_FAULT 6\0"
 12552      50545F45 
 12552      42435F53 
 12552      5441434B 
 12552      5F464155 
 12553 117de 01       		.byte	0x1
 12554 117df C703     		.uleb128 0x1c7
 12555 117e1 45584345 		.ascii "EXCEPT_EBC_ALIGNMENT_CHECK 7\0"
 12555      50545F45 
 12555      42435F41 
 12555      4C49474E 
 12555      4D454E54 
 12556 117fe 01       		.byte	0x1
 12557 117ff C803     		.uleb128 0x1c8
 12558 11801 45584345 		.ascii "EXCEPT_EBC_INSTRUCTION_ENCODING 8\0"
 12558      50545F45 
 12558      42435F49 
 12558      4E535452 
 12558      55435449 
 12559 11823 01       		.byte	0x1
 12560 11824 C903     		.uleb128 0x1c9
 12561 11826 45584345 		.ascii "EXCEPT_EBC_BAD_BREAK 9\0"
 12561      50545F45 
 12561      42435F42 
 12561      41445F42 
 12561      5245414B 
 12562 1183d 01       		.byte	0x1
 12563 1183e CA03     		.uleb128 0x1ca
 12564 11840 45584345 		.ascii "EXCEPT_EBC_STEP 10\0"
 12564      50545F45 
 12564      42435F53 
 12564      54455020 
 12564      313000
 12565 11853 01       		.byte	0x1
 12566 11854 CB03     		.uleb128 0x1cb
 12567 11856 4D41585F 		.ascii "MAX_EBC_EXCEPTION EXCEPT_EBC_STEP\0"
 12567      4542435F 
 12567      45584345 
 12567      5054494F 
 12567      4E204558 
 12568 11878 01       		.byte	0x1
 12569 11879 DC03     		.uleb128 0x1dc
 12570 1187b 45584345 		.ascii "EXCEPT_ARM_RESET 0\0"
 12570      50545F41 
 12570      524D5F52 
 12570      45534554 
 12570      203000
 12571 1188e 01       		.byte	0x1
 12572 1188f DD03     		.uleb128 0x1dd
 12573 11891 45584345 		.ascii "EXCEPT_ARM_UNDEFINED_INSTRUCTION 1\0"
 12573      50545F41 
 12573      524D5F55 
 12573      4E444546 
 12573      494E4544 
 12574 118b4 01       		.byte	0x1
 12575 118b5 DE03     		.uleb128 0x1de
 12576 118b7 45584345 		.ascii "EXCEPT_ARM_SOFTWARE_INTERRUPT 2\0"
 12576      50545F41 
 12576      524D5F53 
 12576      4F465457 
 12576      4152455F 
 12577 118d7 01       		.byte	0x1
 12578 118d8 DF03     		.uleb128 0x1df
 12579 118da 45584345 		.ascii "EXCEPT_ARM_PREFETCH_ABORT 3\0"
 12579      50545F41 
 12579      524D5F50 
 12579      52454645 
 12579      5443485F 
 12580 118f6 01       		.byte	0x1
 12581 118f7 E003     		.uleb128 0x1e0
 12582 118f9 45584345 		.ascii "EXCEPT_ARM_DATA_ABORT 4\0"
 12582      50545F41 
 12582      524D5F44 
 12582      4154415F 
 12582      41424F52 
 12583 11911 01       		.byte	0x1
 12584 11912 E103     		.uleb128 0x1e1
 12585 11914 45584345 		.ascii "EXCEPT_ARM_RESERVED 5\0"
 12585      50545F41 
 12585      524D5F52 
 12585      45534552 
 12585      56454420 
 12586 1192a 01       		.byte	0x1
 12587 1192b E203     		.uleb128 0x1e2
 12588 1192d 45584345 		.ascii "EXCEPT_ARM_IRQ 6\0"
 12588      50545F41 
 12588      524D5F49 
 12588      52512036 
 12588      00
 12589 1193e 01       		.byte	0x1
 12590 1193f E303     		.uleb128 0x1e3
 12591 11941 45584345 		.ascii "EXCEPT_ARM_FIQ 7\0"
 12591      50545F41 
 12591      524D5F46 
 12591      49512037 
 12591      00
 12592 11952 01       		.byte	0x1
 12593 11953 E403     		.uleb128 0x1e4
 12594 11955 4D41585F 		.ascii "MAX_ARM_EXCEPTION EXCEPT_ARM_FIQ\0"
 12594      41524D5F 
 12594      45584345 
 12594      5054494F 
 12594      4E204558 
 12595 11976 01       		.byte	0x1
 12596 11977 9F04     		.uleb128 0x21f
 12597 11979 4546495F 		.ascii "EFI_DEBUG_IMAGE_INFO_TABLE_GUID { 0x49152e77, 0x1ada, 0x4764, {0xb7, 0xa2, 0x7a, 0xfe, 0xf
 12597      44454255 
 12597      475F494D 
 12597      4147455F 
 12597      494E464F 
 12598 119ea 01       		.byte	0x1
 12599 119eb A204     		.uleb128 0x222
 12600 119ed 4546495F 		.ascii "EFI_DEBUG_IMAGE_INFO_UPDATE_IN_PROGRESS 0x01\0"
 12600      44454255 
 12600      475F494D 
 12600      4147455F 
 12600      494E464F 
 12601 11a1a 01       		.byte	0x1
 12602 11a1b A304     		.uleb128 0x223
 12603 11a1d 4546495F 		.ascii "EFI_DEBUG_IMAGE_INFO_TABLE_MODIFIED 0x02\0"
 12603      44454255 
 12603      475F494D 
 12603      4147455F 
 12603      494E464F 
 12604 11a46 01       		.byte	0x1
 12605 11a47 A404     		.uleb128 0x224
 12606 11a49 4546495F 		.ascii "EFI_DEBUG_IMAGE_INFO_INITIAL_SIZE (EFI_PAGE_SIZE / sizeof (UINTN))\0"
 12606      44454255 
 12606      475F494D 
 12606      4147455F 
 12606      494E464F 
 12607 11a8c 01       		.byte	0x1
 12608 11a8d A504     		.uleb128 0x225
 12609 11a8f 4546495F 		.ascii "EFI_DEBUG_IMAGE_INFO_TYPE_NORMAL 0x01\0"
 12609      44454255 
 12609      475F494D 
 12609      4147455F 
 12609      494E464F 
 12610 11ab5 01       		.byte	0x1
 12611 11ab6 C204     		.uleb128 0x242
 12612 11ab8 4546495F 		.ascii "EFI_DEBUG_SUPPORT_PROTOCOL_GUID { 0x2755590c, 0x6f3c, 0x42fa, {0x9e, 0xa4, 0xa3, 0xba, 0x5
 12612      44454255 
 12612      475F5355 
 12612      50504F52 
 12612      545F5052 
 12613 11b29 04       		.byte	0x4
 12614              		.file 39 "gnu-efi-3.0.18/inc/efipart.h"
 12615 11b2a 03       		.byte	0x3
 12616 11b2b 1B       		.uleb128 0x1b
 12617 11b2c 27       		.uleb128 0x27
 12618 11b2d 01       		.byte	0x1
 12619 11b2e 02       		.uleb128 0x2
 12620 11b2f 5F454649 		.ascii "_EFI_PART_H \0"
 12620      5F504152 
 12620      545F4820 
 12620      00
 12621 11b3c 01       		.byte	0x1
 12622 11b3d 1A       		.uleb128 0x1a
 12623 11b3e 4546495F 		.ascii "EFI_PARTITION 0xef\0"
 12623      50415254 
 12623      4954494F 
 12623      4E203078 
 12623      656600
 12624 11b51 01       		.byte	0x1
 12625 11b52 1B       		.uleb128 0x1b
 12626 11b53 4D42525F 		.ascii "MBR_SIZE 512\0"
 12626      53495A45 
 12626      20353132 
 12626      00
 12627 11b60 01       		.byte	0x1
 12628 11b61 2C       		.uleb128 0x2c
 12629 11b62 45585452 		.ascii "EXTRACT_UINT32(D) (UINT32)(D[0] | (D[1] << 8) | (D[2] << 16) | (D[3] << 24))\0"
 12629      4143545F 
 12629      55494E54 
 12629      33322844 
 12629      29202855 
 12630 11baf 01       		.byte	0x1
 12631 11bb0 2E       		.uleb128 0x2e
 12632 11bb1 4D42525F 		.ascii "MBR_SIGNATURE 0xaa55\0"
 12632      5349474E 
 12632      41545552 
 12632      45203078 
 12632      61613535 
 12633 11bc6 01       		.byte	0x1
 12634 11bc7 2F       		.uleb128 0x2f
 12635 11bc8 4D494E5F 		.ascii "MIN_MBR_DEVICE_SIZE 0x80000\0"
 12635      4D42525F 
 12635      44455649 
 12635      43455F53 
 12635      495A4520 
 12636 11be4 01       		.byte	0x1
 12637 11be5 30       		.uleb128 0x30
 12638 11be6 4D42525F 		.ascii "MBR_ERRATA_PAD 0x40000\0"
 12638      45525241 
 12638      54415F50 
 12638      41442030 
 12638      78343030 
 12639 11bfd 01       		.byte	0x1
 12640 11bfe 32       		.uleb128 0x32
 12641 11bff 4D41585F 		.ascii "MAX_MBR_PARTITIONS 4\0"
 12641      4D42525F 
 12641      50415254 
 12641      4954494F 
 12641      4E532034 
 12642 11c14 04       		.byte	0x4
 12643              		.file 40 "gnu-efi-3.0.18/inc/x86_64/efilibplat.h"
 12644 11c15 03       		.byte	0x3
 12645 11c16 1D       		.uleb128 0x1d
 12646 11c17 28       		.uleb128 0x28
 12647 11c18 04       		.byte	0x4
 12648              		.file 41 "gnu-efi-3.0.18/inc/efirtlib.h"
 12649 11c19 03       		.byte	0x3
 12650 11c1a 2E       		.uleb128 0x2e
 12651 11c1b 29       		.uleb128 0x29
 12652 11c1c 01       		.byte	0x1
 12653 11c1d 02       		.uleb128 0x2
 12654 11c1e 5F454649 		.ascii "_EFI_RT_LIB_INCLUDE_ \0"
 12654      5F52545F 
 12654      4C49425F 
 12654      494E434C 
 12654      5544455F 
 12655 11c34 03       		.byte	0x3
 12656 11c35 18       		.uleb128 0x18
 12657 11c36 28       		.uleb128 0x28
 12658 11c37 04       		.byte	0x4
 12659 11c38 04       		.byte	0x4
 12660              		.file 42 "gnu-efi-3.0.18/inc/efistdarg.h"
 12661 11c39 03       		.byte	0x3
 12662 11c3a 2F       		.uleb128 0x2f
 12663 11c3b 2A       		.uleb128 0x2a
 12664 11c3c 01       		.byte	0x1
 12665 11c3d 02       		.uleb128 0x2
 12666 11c3e 5F454649 		.ascii "_EFISTDARG_H_ \0"
 12666      53544441 
 12666      52475F48 
 12666      5F2000
 12667 11c4d 01       		.byte	0x1
 12668 11c4e 19       		.uleb128 0x19
 12669 11c4f 76615F73 		.ascii "va_start(v,l) __builtin_va_start(v,l)\0"
 12669      74617274 
 12669      28762C6C 
 12669      29205F5F 
 12669      6275696C 
 12670 11c75 01       		.byte	0x1
 12671 11c76 1A       		.uleb128 0x1a
 12672 11c77 76615F65 		.ascii "va_end(v) __builtin_va_end(v)\0"
 12672      6E642876 
 12672      29205F5F 
 12672      6275696C 
 12672      74696E5F 
 12673 11c95 01       		.byte	0x1
 12674 11c96 1B       		.uleb128 0x1b
 12675 11c97 76615F61 		.ascii "va_arg(v,l) __builtin_va_arg(v,l)\0"
 12675      72672876 
 12675      2C6C2920 
 12675      5F5F6275 
 12675      696C7469 
 12676 11cb9 01       		.byte	0x1
 12677 11cba 1C       		.uleb128 0x1c
 12678 11cbb 76615F63 		.ascii "va_copy(d,s) __builtin_va_copy(d,s)\0"
 12678      6F707928 
 12678      642C7329 
 12678      205F5F62 
 12678      75696C74 
 12679 11cdf 04       		.byte	0x4
 12680              		.file 43 "gnu-efi-3.0.18/inc/pci22.h"
 12681 11ce0 03       		.byte	0x3
 12682 11ce1 30       		.uleb128 0x30
 12683 11ce2 2B       		.uleb128 0x2b
 12684 11ce3 01       		.byte	0x1
 12685 11ce4 02       		.uleb128 0x2
 12686 11ce5 5F504349 		.ascii "_PCI22_H \0"
 12686      32325F48 
 12686      2000
 12687 11cef 01       		.byte	0x1
 12688 11cf0 19       		.uleb128 0x19
 12689 11cf1 5043495F 		.ascii "PCI_MAX_BUS 255\0"
 12689      4D41585F 
 12689      42555320 
 12689      32353500 
 12690 11d01 01       		.byte	0x1
 12691 11d02 1C       		.uleb128 0x1c
 12692 11d03 5043495F 		.ascii "PCI_MAX_DEVICE 31\0"
 12692      4D41585F 
 12692      44455649 
 12692      43452033 
 12692      3100
 12693 11d15 01       		.byte	0x1
 12694 11d16 1D       		.uleb128 0x1d
 12695 11d17 5043495F 		.ascii "PCI_MAX_FUNC 7\0"
 12695      4D41585F 
 12695      46554E43 
 12695      203700
 12696 11d26 01       		.byte	0x1
 12697 11d27 22       		.uleb128 0x22
 12698 11d28 5043495F 		.ascii "PCI_VGA_PALETTE_SNOOP_DISABLED 0x20\0"
 12698      5647415F 
 12698      50414C45 
 12698      5454455F 
 12698      534E4F4F 
 12699 11d4c 01       		.byte	0x1
 12700 11d4d 5C       		.uleb128 0x5c
 12701 11d4e 5043495F 		.ascii "PCI_CLASS_DISPLAY_CTRL 0x03\0"
 12701      434C4153 
 12701      535F4449 
 12701      53504C41 
 12701      595F4354 
 12702 11d6a 01       		.byte	0x1
 12703 11d6b 5D       		.uleb128 0x5d
 12704 11d6c 5043495F 		.ascii "PCI_CLASS_VGA 0x00\0"
 12704      434C4153 
 12704      535F5647 
 12704      41203078 
 12704      303000
 12705 11d7f 01       		.byte	0x1
 12706 11d80 5F       		.uleb128 0x5f
 12707 11d81 5043495F 		.ascii "PCI_CLASS_BRIDGE 0x06\0"
 12707      434C4153 
 12707      535F4252 
 12707      49444745 
 12707      20307830 
 12708 11d97 01       		.byte	0x1
 12709 11d98 60       		.uleb128 0x60
 12710 11d99 5043495F 		.ascii "PCI_CLASS_ISA 0x01\0"
 12710      434C4153 
 12710      535F4953 
 12710      41203078 
 12710      303100
 12711 11dac 01       		.byte	0x1
 12712 11dad 61       		.uleb128 0x61
 12713 11dae 5043495F 		.ascii "PCI_CLASS_ISA_POSITIVE_DECODE 0x80\0"
 12713      434C4153 
 12713      535F4953 
 12713      415F504F 
 12713      53495449 
 12714 11dd1 01       		.byte	0x1
 12715 11dd2 63       		.uleb128 0x63
 12716 11dd3 5043495F 		.ascii "PCI_CLASS_NETWORK 0x02\0"
 12716      434C4153 
 12716      535F4E45 
 12716      54574F52 
 12716      4B203078 
 12717 11dea 01       		.byte	0x1
 12718 11deb 64       		.uleb128 0x64
 12719 11dec 5043495F 		.ascii "PCI_CLASS_ETHERNET 0x00\0"
 12719      434C4153 
 12719      535F4554 
 12719      4845524E 
 12719      45542030 
 12720 11e04 01       		.byte	0x1
 12721 11e05 66       		.uleb128 0x66
 12722 11e06 48454144 		.ascii "HEADER_TYPE_DEVICE 0x00\0"
 12722      45525F54 
 12722      5950455F 
 12722      44455649 
 12722      43452030 
 12723 11e1e 01       		.byte	0x1
 12724 11e1f 67       		.uleb128 0x67
 12725 11e20 48454144 		.ascii "HEADER_TYPE_PCI_TO_PCI_BRIDGE 0x01\0"
 12725      45525F54 
 12725      5950455F 
 12725      5043495F 
 12725      544F5F50 
 12726 11e43 01       		.byte	0x1
 12727 11e44 68       		.uleb128 0x68
 12728 11e45 48454144 		.ascii "HEADER_TYPE_MULTI_FUNCTION 0x80\0"
 12728      45525F54 
 12728      5950455F 
 12728      4D554C54 
 12728      495F4655 
 12729 11e65 01       		.byte	0x1
 12730 11e66 69       		.uleb128 0x69
 12731 11e67 48454144 		.ascii "HEADER_LAYOUT_CODE 0x7f\0"
 12731      45525F4C 
 12731      41594F55 
 12731      545F434F 
 12731      44452030 
 12732 11e7f 01       		.byte	0x1
 12733 11e80 6B       		.uleb128 0x6b
 12734 11e81 49535F50 		.ascii "IS_PCI_BRIDGE(_p) ((((_p)->Hdr.HeaderType) & HEADER_LAYOUT_CODE) == HEADER_TYPE_PCI_TO_PCI
 12734      43495F42 
 12734      52494447 
 12734      45285F70 
 12734      29202828 
 12735 11ee4 01       		.byte	0x1
 12736 11ee5 6C       		.uleb128 0x6c
 12737 11ee6 49535F50 		.ascii "IS_PCI_MULTI_FUNC(_p) (((_p)->Hdr.HeaderType) & HEADER_TYPE_MULTI_FUNCTION)\0"
 12737      43495F4D 
 12737      554C5449 
 12737      5F46554E 
 12737      43285F70 
 12738 11f32 01       		.byte	0x1
 12739 11f33 8601     		.uleb128 0x86
 12740 11f35 4546495F 		.ascii "EFI_ROOT_BRIDGE_LIST 'eprb'\0"
 12740      524F4F54 
 12740      5F425249 
 12740      4447455F 
 12740      4C495354 
 12741 11f51 01       		.byte	0x1
 12742 11f52 9401     		.uleb128 0x94
 12743 11f54 5043495F 		.ascii "PCI_EXPANSION_ROM_HEADER_SIGNATURE 0xaa55\0"
 12743      45585041 
 12743      4E53494F 
 12743      4E5F524F 
 12743      4D5F4845 
 12744 11f7e 01       		.byte	0x1
 12745 11f7f 9501     		.uleb128 0x95
 12746 11f81 4546495F 		.ascii "EFI_PCI_EXPANSION_ROM_HEADER_EFISIGNATURE 0x0EF1\0"
 12746      5043495F 
 12746      45585041 
 12746      4E53494F 
 12746      4E5F524F 
 12747 11fb2 01       		.byte	0x1
 12748 11fb3 9601     		.uleb128 0x96
 12749 11fb5 5043495F 		.ascii "PCI_DATA_STRUCTURE_SIGNATURE EFI_SIGNATURE_32('P','C','I','R')\0"
 12749      44415441 
 12749      5F535452 
 12749      55435455 
 12749      52455F53 
 12750 11ff4 04       		.byte	0x4
 12751              		.file 44 "gnu-efi-3.0.18/inc/libsmbios.h"
 12752 11ff5 03       		.byte	0x3
 12753 11ff6 31       		.uleb128 0x31
 12754 11ff7 2C       		.uleb128 0x2c
 12755 11ff8 01       		.byte	0x1
 12756 11ff9 02       		.uleb128 0x2
 12757 11ffa 5F4C4942 		.ascii "_LIB_SMBIOS_H \0"
 12757      5F534D42 
 12757      494F535F 
 12757      482000
 12758 12009 04       		.byte	0x4
 12759 1200a 01       		.byte	0x1
 12760 1200b 38       		.uleb128 0x38
 12761 1200c 67535420 		.ascii "gST ST\0"
 12761      535400
 12762 12013 01       		.byte	0x1
 12763 12014 3A       		.uleb128 0x3a
 12764 12015 67425320 		.ascii "gBS BS\0"
 12764      425300
 12765 1201c 01       		.byte	0x1
 12766 1201d 3C       		.uleb128 0x3c
 12767 1201e 67525420 		.ascii "gRT RT\0"
 12767      525400
 12768 12025 01       		.byte	0x1
 12769 12026 3F       		.uleb128 0x3f
 12770 12027 44657669 		.ascii "DevicePathProtocol gEfiDevicePathProtocolGuid\0"
 12770      63655061 
 12770      74685072 
 12770      6F746F63 
 12770      6F6C2067 
 12771 12055 01       		.byte	0x1
 12772 12056 41       		.uleb128 0x41
 12773 12057 44657669 		.ascii "DevicePathToTextProtocol gEfiDevicePathToTextProtocolGuid\0"
 12773      63655061 
 12773      7468546F 
 12773      54657874 
 12773      50726F74 
 12774 12091 01       		.byte	0x1
 12775 12092 43       		.uleb128 0x43
 12776 12093 44657669 		.ascii "DevicePathFromTextProtocol gEfiDevicePathFromTextProtocolGuid\0"
 12776      63655061 
 12776      74684672 
 12776      6F6D5465 
 12776      78745072 
 12777 120d1 01       		.byte	0x1
 12778 120d2 45       		.uleb128 0x45
 12779 120d3 44657669 		.ascii "DevicePathUtilitiesProtocol gEfiDevicePathUtilitiesProtocolGuid\0"
 12779      63655061 
 12779      74685574 
 12779      696C6974 
 12779      69657350 
 12780 12113 01       		.byte	0x1
 12781 12114 47       		.uleb128 0x47
 12782 12115 4C6F6164 		.ascii "LoadedImageProtocol gEfiLoadedImageProtocolGuid\0"
 12782      6564496D 
 12782      61676550 
 12782      726F746F 
 12782      636F6C20 
 12783 12145 01       		.byte	0x1
 12784 12146 49       		.uleb128 0x49
 12785 12147 54657874 		.ascii "TextInProtocol gEfiSimpleTextInProtocolGuid\0"
 12785      496E5072 
 12785      6F746F63 
 12785      6F6C2067 
 12785      45666953 
 12786 12173 01       		.byte	0x1
 12787 12174 4B       		.uleb128 0x4b
 12788 12175 54657874 		.ascii "TextOutProtocol gEfiSimpleTextOutProtocolGuid\0"
 12788      4F757450 
 12788      726F746F 
 12788      636F6C20 
 12788      67456669 
 12789 121a3 01       		.byte	0x1
 12790 121a4 4D       		.uleb128 0x4d
 12791 121a5 47726170 		.ascii "GraphicsOutputProtocol gEfiGraphicsOutputProtocolGuid\0"
 12791      68696373 
 12791      4F757470 
 12791      75745072 
 12791      6F746F63 
 12792 121db 01       		.byte	0x1
 12793 121dc 4F       		.uleb128 0x4f
 12794 121dd 45646964 		.ascii "EdidDiscoveredProtocol gEfiEdidDiscoveredProtocolGuid\0"
 12794      44697363 
 12794      6F766572 
 12794      65645072 
 12794      6F746F63 
 12795 12213 01       		.byte	0x1
 12796 12214 51       		.uleb128 0x51
 12797 12215 45646964 		.ascii "EdidActiveProtocol gEfiEdidActiveProtocolGuid\0"
 12797      41637469 
 12797      76655072 
 12797      6F746F63 
 12797      6F6C2067 
 12798 12243 01       		.byte	0x1
 12799 12244 53       		.uleb128 0x53
 12800 12245 45646964 		.ascii "EdidOverrideProtocol gEfiEdidOverrideProtocolGuid\0"
 12800      4F766572 
 12800      72696465 
 12800      50726F74 
 12800      6F636F6C 
 12801 12277 01       		.byte	0x1
 12802 12278 55       		.uleb128 0x55
 12803 12279 426C6F63 		.ascii "BlockIoProtocol gEfiBlockIoProtocolGuid\0"
 12803      6B496F50 
 12803      726F746F 
 12803      636F6C20 
 12803      67456669 
 12804 122a1 01       		.byte	0x1
 12805 122a2 57       		.uleb128 0x57
 12806 122a3 426C6F63 		.ascii "BlockIo2Protocol gEfiBlockIo2ProtocolGuid\0"
 12806      6B496F32 
 12806      50726F74 
 12806      6F636F6C 
 12806      20674566 
 12807 122cd 01       		.byte	0x1
 12808 122ce 59       		.uleb128 0x59
 12809 122cf 4469736B 		.ascii "DiskIoProtocol gEfiDiskIoProtocolGuid\0"
 12809      496F5072 
 12809      6F746F63 
 12809      6F6C2067 
 12809      45666944 
 12810 122f5 01       		.byte	0x1
 12811 122f6 5B       		.uleb128 0x5b
 12812 122f7 4469736B 		.ascii "DiskIo2Protocol gEfiDiskIo2ProtocolGuid\0"
 12812      496F3250 
 12812      726F746F 
 12812      636F6C20 
 12812      67456669 
 12813 1231f 01       		.byte	0x1
 12814 12320 5D       		.uleb128 0x5d
 12815 12321 46696C65 		.ascii "FileSystemProtocol gEfiSimpleFileSystemProtocolGuid\0"
 12815      53797374 
 12815      656D5072 
 12815      6F746F63 
 12815      6F6C2067 
 12816 12355 01       		.byte	0x1
 12817 12356 5F       		.uleb128 0x5f
 12818 12357 4C6F6164 		.ascii "LoadFileProtocol gEfiLoadFileProtocolGuid\0"
 12818      46696C65 
 12818      50726F74 
 12818      6F636F6C 
 12818      20674566 
 12819 12381 01       		.byte	0x1
 12820 12382 61       		.uleb128 0x61
 12821 12383 44657669 		.ascii "DeviceIoProtocol gEfiDeviceIoProtocolGuid\0"
 12821      6365496F 
 12821      50726F74 
 12821      6F636F6C 
 12821      20674566 
 12822 123ad 01       		.byte	0x1
 12823 123ae 65       		.uleb128 0x65
 12824 123af 556E6963 		.ascii "UnicodeCollationProtocol gEfiUnicodeCollationProtocolGuid\0"
 12824      6F646543 
 12824      6F6C6C61 
 12824      74696F6E 
 12824      50726F74 
 12825 123e9 01       		.byte	0x1
 12826 123ea 67       		.uleb128 0x67
 12827 123eb 53657269 		.ascii "SerialIoProtocol gEfiSerialIoProtocolGuid\0"
 12827      616C496F 
 12827      50726F74 
 12827      6F636F6C 
 12827      20674566 
 12828 12415 01       		.byte	0x1
 12829 12416 6D       		.uleb128 0x6d
 12830 12417 53696D70 		.ascii "SimpleNetworkProtocol gEfiSimpleNetworkProtocolGuid\0"
 12830      6C654E65 
 12830      74776F72 
 12830      6B50726F 
 12830      746F636F 
 12831 1244b 01       		.byte	0x1
 12832 1244c 6F       		.uleb128 0x6f
 12833 1244d 50786542 		.ascii "PxeBaseCodeProtocol gEfiPxeBaseCodeProtocolGuid\0"
 12833      61736543 
 12833      6F646550 
 12833      726F746F 
 12833      636F6C20 
 12834 1247d 01       		.byte	0x1
 12835 1247e 71       		.uleb128 0x71
 12836 1247f 50786543 		.ascii "PxeCallbackProtocol gEfiPxeBaseCodeCallbackProtocolGuid\0"
 12836      616C6C62 
 12836      61636B50 
 12836      726F746F 
 12836      636F6C20 
 12837 124b7 01       		.byte	0x1
 12838 124b8 73       		.uleb128 0x73
 12839 124b9 4E657477 		.ascii "NetworkInterfaceIdentifierProtocol gEfiNetworkInterfaceIdentifierProtocolGuid\0"
 12839      6F726B49 
 12839      6E746572 
 12839      66616365 
 12839      4964656E 
 12840 12507 01       		.byte	0x1
 12841 12508 75       		.uleb128 0x75
 12842 12509 55695072 		.ascii "UiProtocol gEFiUiInterfaceProtocolGuid\0"
 12842      6F746F63 
 12842      6F6C2067 
 12842      45466955 
 12842      69496E74 
 12843 12530 01       		.byte	0x1
 12844 12531 78       		.uleb128 0x78
 12845 12532 50636949 		.ascii "PciIoProtocol gEfiPciIoProtocolGuid\0"
 12845      6F50726F 
 12845      746F636F 
 12845      6C206745 
 12845      66695063 
 12846 12556 01       		.byte	0x1
 12847 12557 7B       		.uleb128 0x7b
 12848 12558 44726976 		.ascii "DriverBindingProtocol gEfiDriverBindingProtocolGuid\0"
 12848      65724269 
 12848      6E64696E 
 12848      6750726F 
 12848      746F636F 
 12849 1258c 01       		.byte	0x1
 12850 1258d 7D       		.uleb128 0x7d
 12851 1258e 436F6D70 		.ascii "ComponentNameProtocol gEfiComponentNameProtocolGuid\0"
 12851      6F6E656E 
 12851      744E616D 
 12851      6550726F 
 12851      746F636F 
 12852 125c2 01       		.byte	0x1
 12853 125c3 7F       		.uleb128 0x7f
 12854 125c4 436F6D70 		.ascii "ComponentName2Protocol gEfiComponentName2ProtocolGuid\0"
 12854      6F6E656E 
 12854      744E616D 
 12854      65325072 
 12854      6F746F63 
 12855 125fa 01       		.byte	0x1
 12856 125fb 8101     		.uleb128 0x81
 12857 125fd 48617368 		.ascii "HashProtocol gEfiHashProtocolGuid\0"
 12857      50726F74 
 12857      6F636F6C 
 12857      20674566 
 12857      69486173 
 12858 1261f 01       		.byte	0x1
 12859 12620 8301     		.uleb128 0x83
 12860 12622 506C6174 		.ascii "PlatformDriverOverrideProtocol gEfiPlatformDriverOverrideProtocolGuid\0"
 12860      666F726D 
 12860      44726976 
 12860      65724F76 
 12860      65727269 
 12861 12668 01       		.byte	0x1
 12862 12669 8501     		.uleb128 0x85
 12863 1266b 42757353 		.ascii "BusSpecificDriverOverrideProtocol gEfiBusSpecificDriverOverrideProtocolGuid\0"
 12863      70656369 
 12863      66696344 
 12863      72697665 
 12863      724F7665 
 12864 126b7 01       		.byte	0x1
 12865 126b8 8701     		.uleb128 0x87
 12866 126ba 44726976 		.ascii "DriverFamilyOverrideProtocol gEfiDriverFamilyOverrideProtocolGuid\0"
 12866      65724661 
 12866      6D696C79 
 12866      4F766572 
 12866      72696465 
 12867 126fc 01       		.byte	0x1
 12868 126fd 8B01     		.uleb128 0x8b
 12869 126ff 45666947 		.ascii "EfiGlobalVariable gEfiGlobalVariableGuid\0"
 12869      6C6F6261 
 12869      6C566172 
 12869      6961626C 
 12869      65206745 
 12870 12728 01       		.byte	0x1
 12871 12729 8D01     		.uleb128 0x8d
 12872 1272b 47656E65 		.ascii "GenericFileInfo gEfiFileInfoGuid\0"
 12872      72696346 
 12872      696C6549 
 12872      6E666F20 
 12872      67456669 
 12873 1274c 01       		.byte	0x1
 12874 1274d 8F01     		.uleb128 0x8f
 12875 1274f 46696C65 		.ascii "FileSystemInfo gEfiFileSystemInfoGuid\0"
 12875      53797374 
 12875      656D496E 
 12875      666F2067 
 12875      45666946 
 12876 12775 01       		.byte	0x1
 12877 12776 9101     		.uleb128 0x91
 12878 12778 46696C65 		.ascii "FileSystemVolumeLabelInfo gEfiFileSystemVolumeLabelInfoIdGuid\0"
 12878      53797374 
 12878      656D566F 
 12878      6C756D65 
 12878      4C616265 
 12879 127b6 01       		.byte	0x1
 12880 127b7 9301     		.uleb128 0x93
 12881 127b9 5063416E 		.ascii "PcAnsiProtocol gEfiPcAnsiGuid\0"
 12881      73695072 
 12881      6F746F63 
 12881      6F6C2067 
 12881      45666950 
 12882 127d7 01       		.byte	0x1
 12883 127d8 9501     		.uleb128 0x95
 12884 127da 56743130 		.ascii "Vt100Protocol gEfiVT100Guid\0"
 12884      3050726F 
 12884      746F636F 
 12884      6C206745 
 12884      66695654 
 12885 127f6 01       		.byte	0x1
 12886 127f7 B501     		.uleb128 0xb5
 12887 127f9 4C4F4144 		.ascii "LOAD_OPTION_ACTIVE 0x00000001\0"
 12887      5F4F5054 
 12887      494F4E5F 
 12887      41435449 
 12887      56452030 
 12888 12817 01       		.byte	0x1
 12889 12818 B701     		.uleb128 0xb7
 12890 1281a 5661724C 		.ascii "VarLanguageCodes L\"LangCodes\"\0"
 12890      616E6775 
 12890      61676543 
 12890      6F646573 
 12890      204C224C 
 12891 12838 01       		.byte	0x1
 12892 12839 B801     		.uleb128 0xb8
 12893 1283b 5661724C 		.ascii "VarLanguage L\"Lang\"\0"
 12893      616E6775 
 12893      61676520 
 12893      4C224C61 
 12893      6E672200 
 12894 1284f 01       		.byte	0x1
 12895 12850 B901     		.uleb128 0xb9
 12896 12852 56617254 		.ascii "VarTimeout L\"Timeout\"\0"
 12896      696D656F 
 12896      7574204C 
 12896      2254696D 
 12896      656F7574 
 12897 12868 01       		.byte	0x1
 12898 12869 BA01     		.uleb128 0xba
 12899 1286b 56617243 		.ascii "VarConsoleInp L\"ConIn\"\0"
 12899      6F6E736F 
 12899      6C65496E 
 12899      70204C22 
 12899      436F6E49 
 12900 12882 01       		.byte	0x1
 12901 12883 BB01     		.uleb128 0xbb
 12902 12885 56617243 		.ascii "VarConsoleOut L\"ConOut\"\0"
 12902      6F6E736F 
 12902      6C654F75 
 12902      74204C22 
 12902      436F6E4F 
 12903 1289d 01       		.byte	0x1
 12904 1289e BC01     		.uleb128 0xbc
 12905 128a0 56617245 		.ascii "VarErrorOut L\"ErrOut\"\0"
 12905      72726F72 
 12905      4F757420 
 12905      4C224572 
 12905      724F7574 
 12906 128b6 01       		.byte	0x1
 12907 128b7 BD01     		.uleb128 0xbd
 12908 128b9 56617242 		.ascii "VarBootOption L\"Boot%04x\"\0"
 12908      6F6F744F 
 12908      7074696F 
 12908      6E204C22 
 12908      426F6F74 
 12909 128d3 01       		.byte	0x1
 12910 128d4 BE01     		.uleb128 0xbe
 12911 128d6 56617242 		.ascii "VarBootOrder L\"BootOrder\"\0"
 12911      6F6F744F 
 12911      72646572 
 12911      204C2242 
 12911      6F6F744F 
 12912 128f0 01       		.byte	0x1
 12913 128f1 BF01     		.uleb128 0xbf
 12914 128f3 56617242 		.ascii "VarBootNext L\"BootNext\"\0"
 12914      6F6F744E 
 12914      65787420 
 12914      4C22426F 
 12914      6F744E65 
 12915 1290b 01       		.byte	0x1
 12916 1290c C001     		.uleb128 0xc0
 12917 1290e 56617242 		.ascii "VarBootCurrent L\"BootCurrent\"\0"
 12917      6F6F7443 
 12917      75727265 
 12917      6E74204C 
 12917      22426F6F 
 12918 1292c 01       		.byte	0x1
 12919 1292d C101     		.uleb128 0xc1
 12920 1292f 56617244 		.ascii "VarDriverOption L\"Driver%04x\"\0"
 12920      72697665 
 12920      724F7074 
 12920      696F6E20 
 12920      4C224472 
 12921 1294d 01       		.byte	0x1
 12922 1294e C201     		.uleb128 0xc2
 12923 12950 56617244 		.ascii "VarDriverOrder L\"DriverOrder\"\0"
 12923      72697665 
 12923      724F7264 
 12923      6572204C 
 12923      22447269 
 12924 1296e 01       		.byte	0x1
 12925 1296f C301     		.uleb128 0xc3
 12926 12971 56617243 		.ascii "VarConsoleInpDev L\"ConInDev\"\0"
 12926      6F6E736F 
 12926      6C65496E 
 12926      70446576 
 12926      204C2243 
 12927 1298e 01       		.byte	0x1
 12928 1298f C401     		.uleb128 0xc4
 12929 12991 56617243 		.ascii "VarConsoleOutDev L\"ConOutDev\"\0"
 12929      6F6E736F 
 12929      6C654F75 
 12929      74446576 
 12929      204C2243 
 12930 129af 01       		.byte	0x1
 12931 129b0 C501     		.uleb128 0xc5
 12932 129b2 56617245 		.ascii "VarErrorOutDev L\"ErrOutDev\"\0"
 12932      72726F72 
 12932      4F757444 
 12932      6576204C 
 12932      22457272 
 12933 129ce 01       		.byte	0x1
 12934 129cf C701     		.uleb128 0xc7
 12935 129d1 4C616E67 		.ascii "LanguageCodeEnglish \"eng\"\0"
 12935      75616765 
 12935      436F6465 
 12935      456E676C 
 12935      69736820 
 12936 129eb 01       		.byte	0x1
 12937 129ec D901     		.uleb128 0xd9
 12938 129ee 53544154 		.ascii "STATIC \0"
 12938      49432000 
 12939 129f6 01       		.byte	0x1
 12940 129f7 DA01     		.uleb128 0xda
 12941 129f9 494E5445 		.ascii "INTERNAL \0"
 12941      524E414C 
 12941      2000
 12942 12a03 01       		.byte	0x1
 12943 12a04 DB01     		.uleb128 0xdb
 12944 12a06 424F4F54 		.ascii "BOOTSERVICE \0"
 12944      53455256 
 12944      49434520 
 12944      00
 12945 12a13 01       		.byte	0x1
 12946 12a14 F204     		.uleb128 0x272
 12947 12a16 53507269 		.ascii "SPrint UnicodeSPrint\0"
 12947      6E742055 
 12947      6E69636F 
 12947      64655350 
 12947      72696E74 
 12948 12a2b 01       		.byte	0x1
 12949 12a2c F304     		.uleb128 0x273
 12950 12a2e 56535072 		.ascii "VSPrint UnicodeVSPrint\0"
 12950      696E7420 
 12950      556E6963 
 12950      6F646556 
 12950      53507269 
 12951 12a45 01       		.byte	0x1
 12952 12a46 F404     		.uleb128 0x274
 12953 12a48 41507269 		.ascii "APrint AsciiPrint\0"
 12953      6E742041 
 12953      73636969 
 12953      5072696E 
 12953      7400
 12954 12a5a 01       		.byte	0x1
 12955 12a5b AD08     		.uleb128 0x42d
 12956 12a5d 6F757470 		.ascii "outp(_Port,_DataByte) (UINT8)WritePort(GlobalIoFncs, IO_UINT8, (UINTN)_Port, (UINTN)_DataB
 12956      285F506F 
 12956      72742C5F 
 12956      44617461 
 12956      42797465 
 12957 12abc 01       		.byte	0x1
 12958 12abd AE08     		.uleb128 0x42e
 12959 12abf 696E7028 		.ascii "inp(_Port) (UINT8)ReadPort(GlobalIoFncs, IO_UINT8, (UINTN)_Port)\0"
 12959      5F506F72 
 12959      74292028 
 12959      55494E54 
 12959      38295265 
 12960 12b00 01       		.byte	0x1
 12961 12b01 AF08     		.uleb128 0x42f
 12962 12b03 6F757470 		.ascii "outpw(_Port,_DataByte) (UINT16)WritePort(GlobalIoFncs, IO_UINT16, (UINTN)_Port, (UINTN)_Da
 12962      77285F50 
 12962      6F72742C 
 12962      5F446174 
 12962      61427974 
 12963 12b65 01       		.byte	0x1
 12964 12b66 B008     		.uleb128 0x430
 12965 12b68 696E7077 		.ascii "inpw(_Port) (UINT16)ReadPort(GlobalIoFncs, IO_UINT16, (UINTN)_Port)\0"
 12965      285F506F 
 12965      72742920 
 12965      2855494E 
 12965      54313629 
 12966 12bac 01       		.byte	0x1
 12967 12bad B108     		.uleb128 0x431
 12968 12baf 6F757470 		.ascii "outpd(_Port,_DataByte) (UINT32)WritePort(GlobalIoFncs, IO_UINT32, (UINTN)_Port, (UINTN)_Da
 12968      64285F50 
 12968      6F72742C 
 12968      5F446174 
 12968      61427974 
 12969 12c11 01       		.byte	0x1
 12970 12c12 B208     		.uleb128 0x432
 12971 12c14 696E7064 		.ascii "inpd(_Port) (UINT32)ReadPort(GlobalIoFncs, IO_UINT32, (UINTN)_Port)\0"
 12971      285F506F 
 12971      72742920 
 12971      2855494E 
 12971      54333229 
 12972 12c58 01       		.byte	0x1
 12973 12c59 B408     		.uleb128 0x434
 12974 12c5b 77726974 		.ascii "writepci8(_Addr,_DataByte) (UINT8)WritePciConfig(GlobalIoFncs, IO_UINT8, (UINTN)_Addr, (UI
 12974      65706369 
 12974      38285F41 
 12974      6464722C 
 12974      5F446174 
 12975 12cc4 01       		.byte	0x1
 12976 12cc5 B508     		.uleb128 0x435
 12977 12cc7 72656164 		.ascii "readpci8(_Addr) (UINT8)ReadPciConfig(GlobalIoFncs, IO_UINT8, (UINTN)_Addr)\0"
 12977      70636938 
 12977      285F4164 
 12977      64722920 
 12977      2855494E 
 12978 12d12 01       		.byte	0x1
 12979 12d13 B608     		.uleb128 0x436
 12980 12d15 77726974 		.ascii "writepci16(_Addr,_DataByte) (UINT16)WritePciConfig(GlobalIoFncs, IO_UINT16, (UINTN)_Addr, 
 12980      65706369 
 12980      3136285F 
 12980      41646472 
 12980      2C5F4461 
 12981 12d81 01       		.byte	0x1
 12982 12d82 B708     		.uleb128 0x437
 12983 12d84 72656164 		.ascii "readpci16(_Addr) (UINT16)ReadPciConfig(GlobalIoFncs, IO_UINT16, (UINTN)_Addr)\0"
 12983      70636931 
 12983      36285F41 
 12983      64647229 
 12983      20285549 
 12984 12dd2 01       		.byte	0x1
 12985 12dd3 B808     		.uleb128 0x438
 12986 12dd5 77726974 		.ascii "writepci32(_Addr,_DataByte) (UINT32)WritePciConfig(GlobalIoFncs, IO_UINT32, (UINTN)_Addr, 
 12986      65706369 
 12986      3332285F 
 12986      41646472 
 12986      2C5F4461 
 12987 12e41 01       		.byte	0x1
 12988 12e42 B908     		.uleb128 0x439
 12989 12e44 72656164 		.ascii "readpci32(_Addr) (UINT32)ReadPciConfig(GlobalIoFncs, IO_UINT32, (UINTN)_Addr)\0"
 12989      70636933 
 12989      32285F41 
 12989      64647229 
 12989      20285549 
 12990 12e92 01       		.byte	0x1
 12991 12e93 BB08     		.uleb128 0x43b
 12992 12e95 506F7274 		.ascii "Port80(_PostCode) GlobalIoFncs->Io.Write (GlobalIoFncs, IO_UINT16, (UINT64)0x80, 1, &(_Pos
 12992      3830285F 
 12992      506F7374 
 12992      436F6465 
 12992      2920476C 
 12993 12ef7 04       		.byte	0x4
 12994              		.file 45 "gnu-efi-3.0.18/inc/protocol/efivar.h"
 12995 12ef8 03       		.byte	0x3
 12996 12ef9 1E       		.uleb128 0x1e
 12997 12efa 2D       		.uleb128 0x2d
 12998 12efb 01       		.byte	0x1
 12999 12efc 1C       		.uleb128 0x1c
 13000 12efd 56415249 		.ascii "VARIABLE_STORE_PROTOCOL { 0xf088cd91, 0xa046, 0x11d2, {0x8e, 0x42, 0x0, 0xa0, 0xc9, 0x69, 
 13000      41424C45 
 13000      5F53544F 
 13000      52455F50 
 13000      524F544F 
 13001 12f65 04       		.byte	0x4
 13002              		.file 46 "gnu-efi-3.0.18/inc/protocol/legacyboot.h"
 13003 12f66 03       		.byte	0x3
 13004 12f67 1F       		.uleb128 0x1f
 13005 12f68 2E       		.uleb128 0x2e
 13006 12f69 01       		.byte	0x1
 13007 12f6a 14       		.uleb128 0x14
 13008 12f6b 5F4C4547 		.ascii "_LEGACY_BOOT_INCLUDE_ \0"
 13008      4143595F 
 13008      424F4F54 
 13008      5F494E43 
 13008      4C554445 
 13009 12f82 01       		.byte	0x1
 13010 12f83 16       		.uleb128 0x16
 13011 12f84 4C454741 		.ascii "LEGACY_BOOT_PROTOCOL { 0x376e5eb2, 0x30e4, 0x11d3, { 0xba, 0xe5, 0x0, 0x80, 0xc7, 0x3c, 0x
 13011      43595F42 
 13011      4F4F545F 
 13011      50524F54 
 13011      4F434F4C 
 13012 12feb 04       		.byte	0x4
 13013              		.file 47 "gnu-efi-3.0.18/inc/protocol/intload.h"
 13014 12fec 03       		.byte	0x3
 13015 12fed 20       		.uleb128 0x20
 13016 12fee 2F       		.uleb128 0x2f
 13017 12fef 01       		.byte	0x1
 13018 12ff0 14       		.uleb128 0x14
 13019 12ff1 5F494E54 		.ascii "_INTERNAL_LOAD_INCLUDE_ \0"
 13019      45524E41 
 13019      4C5F4C4F 
 13019      41445F49 
 13019      4E434C55 
 13020 1300a 01       		.byte	0x1
 13021 1300b 17       		.uleb128 0x17
 13022 1300c 494E5445 		.ascii "INTERNAL_SHELL_GUID { 0xd65a6b8c, 0x71e5, 0x4df0, {0xa9, 0x09, 0xf0, 0xd2, 0x99, 0x2b, 0x5
 13022      524E414C 
 13022      5F534845 
 13022      4C4C5F47 
 13022      55494420 
 13023 13071 04       		.byte	0x4
 13024              		.file 48 "gnu-efi-3.0.18/inc/protocol/vgaclass.h"
 13025 13072 03       		.byte	0x3
 13026 13073 21       		.uleb128 0x21
 13027 13074 30       		.uleb128 0x30
 13028 13075 01       		.byte	0x1
 13029 13076 02       		.uleb128 0x2
 13030 13077 5F564741 		.ascii "_VGA_CLASS_H \0"
 13030      5F434C41 
 13030      53535F48 
 13030      2000
 13031 13085 01       		.byte	0x1
 13032 13086 1B       		.uleb128 0x1b
 13033 13087 5647415F 		.ascii "VGA_CLASS_DRIVER_PROTOCOL { 0xe3d6310, 0x6fe4, 0x11d3, {0xbb, 0x81, 0x0, 0x80, 0xc7, 0x3c,
 13033      434C4153 
 13033      535F4452 
 13033      49564552 
 13033      5F50524F 
 13034 130f0 01       		.byte	0x1
 13035 130f1 2A       		.uleb128 0x2a
 13036 130f2 5647415F 		.ascii "VGA_CON_OUT_DEV_SIGNATURE EFI_SIGNATURE_32('c','v','g','a')\0"
 13036      434F4E5F 
 13036      4F55545F 
 13036      4445565F 
 13036      5349474E 
 13037 1312e 01       		.byte	0x1
 13038 1312f 4C       		.uleb128 0x4c
 13039 13130 5647415F 		.ascii "VGA_CON_OUT_DEV_FROM_THIS(a) CR(a, VGA_CON_OUT_DEV, ConOut, VGA_CON_OUT_DEV_SIGNATURE)\0"
 13039      434F4E5F 
 13039      4F55545F 
 13039      4445565F 
 13039      46524F4D 
 13040 13187 04       		.byte	0x4
 13041              		.file 49 "gnu-efi-3.0.18/inc/protocol/eficonsplit.h"
 13042 13188 03       		.byte	0x3
 13043 13189 22       		.uleb128 0x22
 13044 1318a 31       		.uleb128 0x31
 13045 1318b 01       		.byte	0x1
 13046 1318c 02       		.uleb128 0x2
 13047 1318d 5F454649 		.ascii "_EFI_CONFORK_H \0"
 13047      5F434F4E 
 13047      464F524B 
 13047      5F482000 
 13048 1319d 01       		.byte	0x1
 13049 1319e 17       		.uleb128 0x17
 13050 1319f 54455854 		.ascii "TEXT_OUT_SPLITER_PROTOCOL { 0x56d830a0, 0x7e7a, 0x11d3, {0xbb, 0xa0, 0x0, 0xa0, 0xc9, 0x69
 13050      5F4F5554 
 13050      5F53504C 
 13050      49544552 
 13050      5F50524F 
 13051 13209 01       		.byte	0x1
 13052 1320a 1A       		.uleb128 0x1a
 13053 1320b 4552524F 		.ascii "ERROR_OUT_SPLITER_PROTOCOL { 0xf0ba9039, 0x68f1, 0x425e, {0xaa, 0x7f, 0xd9, 0xaa, 0xf9, 0x
 13053      525F4F55 
 13053      545F5350 
 13053      4C495445 
 13053      525F5052 
 13054 13276 01       		.byte	0x1
 13055 13277 1D       		.uleb128 0x1d
 13056 13278 54455854 		.ascii "TEXT_IN_SPLITER_PROTOCOL { 0xf9a3c550, 0x7fb5, 0x11d3, {0xbb, 0xa0, 0x0, 0xa0, 0xc9, 0x69,
 13056      5F494E5F 
 13056      53504C49 
 13056      5445525F 
 13056      50524F54 
 13057 132e1 04       		.byte	0x4
 13058              		.file 50 "gnu-efi-3.0.18/inc/protocol/adapterdebug.h"
 13059 132e2 03       		.byte	0x3
 13060 132e3 23       		.uleb128 0x23
 13061 132e4 32       		.uleb128 0x32
 13062 132e5 01       		.byte	0x1
 13063 132e6 02       		.uleb128 0x2
 13064 132e7 5F414441 		.ascii "_ADAPTER_DEBUG_H \0"
 13064      50544552 
 13064      5F444542 
 13064      55475F48 
 13064      2000
 13065 132f9 01       		.byte	0x1
 13066 132fa 17       		.uleb128 0x17
 13067 132fb 41444150 		.ascii "ADAPTER_DEBUG_PROTOCOL { 0x82f86881, 0x282b, 0x11d4, {0xbc, 0x7d, 0x0, 0x80, 0xc7, 0x3c, 0
 13067      5445525F 
 13067      44454255 
 13067      475F5052 
 13067      4F544F43 
 13068 13362 04       		.byte	0x4
 13069              		.file 51 "gnu-efi-3.0.18/inc/efigpt.h"
 13070 13363 03       		.byte	0x3
 13071 13364 26       		.uleb128 0x26
 13072 13365 33       		.uleb128 0x33
 13073 13366 01       		.byte	0x1
 13074 13367 02       		.uleb128 0x2
 13075 13368 5F454649 		.ascii "_EFI_GPT_H \0"
 13075      5F475054 
 13075      5F482000 
 13076 13374 01       		.byte	0x1
 13077 13375 14       		.uleb128 0x14
 13078 13376 5052494D 		.ascii "PRIMARY_PART_HEADER_LBA 1\0"
 13078      4152595F 
 13078      50415254 
 13078      5F484541 
 13078      4445525F 
 13079 13390 01       		.byte	0x1
 13080 13391 23       		.uleb128 0x23
 13081 13392 4546495F 		.ascii "EFI_PTAB_HEADER_ID \"EFI PART\"\0"
 13081      50544142 
 13081      5F484541 
 13081      4445525F 
 13081      49442022 
 13082 133b0 01       		.byte	0x1
 13083 133b1 31       		.uleb128 0x31
 13084 133b2 4546495F 		.ascii "EFI_PART_USED_BY_EFI 0x0000000000000001\0"
 13084      50415254 
 13084      5F555345 
 13084      445F4259 
 13084      5F454649 
 13085 133da 01       		.byte	0x1
 13086 133db 32       		.uleb128 0x32
 13087 133dc 4546495F 		.ascii "EFI_PART_REQUIRED_TO_FUNCTION 0x0000000000000002\0"
 13087      50415254 
 13087      5F524551 
 13087      55495245 
 13087      445F544F 
 13088 1340d 01       		.byte	0x1
 13089 1340e 33       		.uleb128 0x33
 13090 1340f 4546495F 		.ascii "EFI_PART_USED_BY_OS 0x0000000000000004\0"
 13090      50415254 
 13090      5F555345 
 13090      445F4259 
 13090      5F4F5320 
 13091 13436 01       		.byte	0x1
 13092 13437 34       		.uleb128 0x34
 13093 13438 4546495F 		.ascii "EFI_PART_REQUIRED_BY_OS 0x0000000000000008\0"
 13093      50415254 
 13093      5F524551 
 13093      55495245 
 13093      445F4259 
 13094 13463 01       		.byte	0x1
 13095 13464 35       		.uleb128 0x35
 13096 13465 4546495F 		.ascii "EFI_PART_BACKUP_REQUIRED 0x0000000000000010\0"
 13096      50415254 
 13096      5F424143 
 13096      4B55505F 
 13096      52455155 
 13097 13491 01       		.byte	0x1
 13098 13492 36       		.uleb128 0x36
 13099 13493 4546495F 		.ascii "EFI_PART_USER_DATA 0x0000000000000020\0"
 13099      50415254 
 13099      5F555345 
 13099      525F4441 
 13099      54412030 
 13100 134b9 01       		.byte	0x1
 13101 134ba 37       		.uleb128 0x37
 13102 134bb 4546495F 		.ascii "EFI_PART_CRITICAL_USER_DATA 0x0000000000000040\0"
 13102      50415254 
 13102      5F435249 
 13102      54494341 
 13102      4C5F5553 
 13103 134ea 01       		.byte	0x1
 13104 134eb 38       		.uleb128 0x38
 13105 134ec 4546495F 		.ascii "EFI_PART_REDUNDANT_PARTITION 0x0000000000000080\0"
 13105      50415254 
 13105      5F524544 
 13105      554E4441 
 13105      4E545F50 
 13106 1351c 01       		.byte	0x1
 13107 1351d 3A       		.uleb128 0x3a
 13108 1351e 4546495F 		.ascii "EFI_PART_TYPE_UNUSED_GUID { 0x00000000, 0x0000, 0x0000, {0x00, 0x00, 0x00, 0x00, 0x00, 0x0
 13108      50415254 
 13108      5F545950 
 13108      455F554E 
 13108      55534544 
 13109 13589 01       		.byte	0x1
 13110 1358a 3D       		.uleb128 0x3d
 13111 1358b 4546495F 		.ascii "EFI_PART_TYPE_EFI_SYSTEM_PART_GUID { 0xc12a7328, 0xf81f, 0x11d2, {0xba, 0x4b, 0x00, 0xa0, 
 13111      50415254 
 13111      5F545950 
 13111      455F4546 
 13111      495F5359 
 13112 135ff 01       		.byte	0x1
 13113 13600 40       		.uleb128 0x40
 13114 13601 4546495F 		.ascii "EFI_PART_TYPE_LEGACY_MBR_GUID { 0x024dee41, 0x33e7, 0x11d3, {0x9d, 0x69, 0x00, 0x08, 0xc7,
 13114      50415254 
 13114      5F545950 
 13114      455F4C45 
 13114      47414359 
 13115 13670 04       		.byte	0x4
 13116 13671 04       		.byte	0x4
 13117 13672 03       		.byte	0x3
 13118 13673 13       		.uleb128 0x13
 13119 13674 2A       		.uleb128 0x2a
 13120 13675 04       		.byte	0x4
 13121 13676 04       		.byte	0x4
 13122 13677 00       		.byte	0
 13123              		.section	.debug_line,"dr"
 13124              	.Ldebug_line0:
 13125 0000 D2070000 		.section	.debug_str,"dr"
 13125      05000800 
 13125      40010000 
 13125      010101FB 
 13125      0E0D0001 
 13126              	.LASF13:
 13127 0000 496E6465 		.ascii "Index\0"
 13127      7800
 13128              	.LASF8:
 13129 0006 42756666 		.ascii "Buffer\0"
 13129      657200
 13130              	.LASF3:
 13131 000d 5369676E 		.ascii "Signature\0"
 13131      61747572 
 13131      6500
 13132              	.LASF2:
 13133 0017 41747472 		.ascii "Attribute\0"
 13133      69627574 
 13133      6500
 13134              	.LASF4:
 13135 0021 5369676E 		.ascii "SignatureType\0"
 13135      61747572 
 13135      65547970 
 13135      6500
 13136              	.LASF11:
 13137 002f 46726565 		.ascii "FreePool\0"
 13137      506F6F6C 
 13137      00
 13138              	.LASF9:
 13139 0038 566F6C75 		.ascii "VolumeLabel\0"
 13139      6D654C61 
 13139      62656C00 
 13140              	.LASF6:
 13141 0044 53746174 		.ascii "Status\0"
 13141      757300
 13142              	.LASF10:
 13143 004b 416C6C6F 		.ascii "AllocatePool\0"
 13143      63617465 
 13143      506F6F6C 
 13143      00
 13144              	.LASF7:
 13145 0058 42756666 		.ascii "BufferSize\0"
 13145      65725369 
 13145      7A6500
 13146              	.LASF15:
 13147 0063 496E7465 		.ascii "Interface\0"
 13147      72666163 
 13147      6500
 13148              	.LASF16:
 13149 006d 4E6F4861 		.ascii "NoHandles\0"
 13149      6E646C65 
 13149      7300
 13150              	.LASF14:
 13151 0077 48616E64 		.ascii "Handle\0"
 13151      6C6500
 13152              	.LASF5:
 13153 007e 52657669 		.ascii "Revision\0"
 13153      73696F6E 
 13153      00
 13154              	.LASF12:
 13155 0087 50726F74 		.ascii "Protocol\0"
 13155      6F636F6C 
 13155      00
 13156              		.section	.debug_line_str,"dr"
 13157              	.LASF0:
 13158 0000 433A5C55 		.ascii "C:\\Users\\victim\\Desktop\\dangerous\\yuziakicin\\UEFI\\UEFI\\Backend\\gnu-efi-3.0.18\\li
 13158      73657273 
 13158      5C766963 
 13158      74696D5C 
 13158      4465736B 
 13159              	.LASF1:
 13160 0059 433A5C55 		.ascii "C:\\Users\\victim\\Desktop\\dangerous\\yuziakicin\\UEFI\\UEFI\\Backend\0"
 13160      73657273 
 13160      5C766963 
 13160      74696D5C 
 13160      4465736B 
 13161              		.ident	"GCC: (Rev3, Built by MSYS2 project) 13.2.0"
 13166 0098 433A2F55 		.section	.rdata$.refptr.gEfiFileSystemVolumeLabelInfoIdGuid, "dr"
 13166      73657273 
 13166      2F766963 
 13166      74696D2F 
 13166      4465736B 
 13167              		.globl	.refptr.gEfiFileSystemVolumeLabelInfoIdGuid
 13168              		.linkonce	discard
 13169              	.refptr.gEfiFileSystemVolumeLabelInfoIdGuid:
 13170 0000 00000000 		.quad	gEfiFileSystemVolumeLabelInfoIdGuid
 13170      00000000 
 13171 0008 00000000 		.section	.rdata$.refptr.gEfiFileSystemInfoGuid, "dr"
 13171      00000000 
 13172              		.globl	.refptr.gEfiFileSystemInfoGuid
 13173              		.linkonce	discard
 13174              	.refptr.gEfiFileSystemInfoGuid:
 13175 0000 00000000 		.quad	gEfiFileSystemInfoGuid
 13175      00000000 
 13176 0008 00000000 		.section	.rdata$.refptr.gEfiFileInfoGuid, "dr"
 13176      00000000 
 13177              		.globl	.refptr.gEfiFileInfoGuid
 13178              		.linkonce	discard
 13179              	.refptr.gEfiFileInfoGuid:
 13180 0000 00000000 		.quad	gEfiFileInfoGuid
 13180      00000000 
 13181 0008 00000000 		.section	.rdata$.refptr.gEfiSimpleFileSystemProtocolGuid, "dr"
 13181      00000000 
 13182              		.globl	.refptr.gEfiSimpleFileSystemProtocolGuid
 13183              		.linkonce	discard
 13184              	.refptr.gEfiSimpleFileSystemProtocolGuid:
 13185 0000 00000000 		.quad	gEfiSimpleFileSystemProtocolGuid
 13185      00000000 
 13186 0008 00000000 		.section	.rdata$.refptr.gEfiDevicePathProtocolGuid, "dr"
 13186      00000000 
 13187              		.globl	.refptr.gEfiDevicePathProtocolGuid
 13188              		.linkonce	discard
 13189              	.refptr.gEfiDevicePathProtocolGuid:
 13190 0000 00000000 		.quad	gEfiDevicePathProtocolGuid
 13190      00000000 
 13191 0008 00000000 		.section	.rdata$.refptr.gEfiBlockIoProtocolGuid, "dr"
 13191      00000000 
 13192              		.globl	.refptr.gEfiBlockIoProtocolGuid
 13193              		.linkonce	discard
 13194              	.refptr.gEfiBlockIoProtocolGuid:
 13195 0000 00000000 		.quad	gEfiBlockIoProtocolGuid
 13195      00000000 
 13196 0008 00000000 		.section	.rdata$.refptr.BS, "dr"
 13196      00000000 
 13197              		.globl	.refptr.BS
 13198              		.linkonce	discard
 13199              	.refptr.BS:
 13200 0000 00000000 		.quad	BS
 13200      00000000 
 13200      00000000 
 13200      00000000 
