   1              		.file	"misc.c"
   2              		.text
   3              	.Ltext0:
   4              		.cfi_sections	.debug_frame
   5              		.file 0 "C:/Users/victim/Desktop/dangerous/yuziakicin/UEFI/UEFI/Backend" "C:/Users/victim/Desktop/
   6              		.globl	AllocatePool
   8              		.seh_proc	AllocatePool
   9              	AllocatePool:
  10              	.LVL0:
  11              	.LFB2:
  12              		.file 1 "C:/Users/victim/Desktop/dangerous/yuziakicin/UEFI/UEFI/Backend/gnu-efi-3.0.18/lib/misc.c"
   1:C:/Users/victim/Desktop/dangerous/yuziakicin/UEFI/UEFI/Backend/gnu-efi-3.0.18/lib\misc.c **** /*++
   2:C:/Users/victim/Desktop/dangerous/yuziakicin/UEFI/UEFI/Backend/gnu-efi-3.0.18/lib\misc.c **** 
   3:C:/Users/victim/Desktop/dangerous/yuziakicin/UEFI/UEFI/Backend/gnu-efi-3.0.18/lib\misc.c **** Copyright (c) 1998  Intel Corporation
   4:C:/Users/victim/Desktop/dangerous/yuziakicin/UEFI/UEFI/Backend/gnu-efi-3.0.18/lib\misc.c **** 
   5:C:/Users/victim/Desktop/dangerous/yuziakicin/UEFI/UEFI/Backend/gnu-efi-3.0.18/lib\misc.c **** Module Name:
   6:C:/Users/victim/Desktop/dangerous/yuziakicin/UEFI/UEFI/Backend/gnu-efi-3.0.18/lib\misc.c **** 
   7:C:/Users/victim/Desktop/dangerous/yuziakicin/UEFI/UEFI/Backend/gnu-efi-3.0.18/lib\misc.c ****     misc.c
   8:C:/Users/victim/Desktop/dangerous/yuziakicin/UEFI/UEFI/Backend/gnu-efi-3.0.18/lib\misc.c **** 
   9:C:/Users/victim/Desktop/dangerous/yuziakicin/UEFI/UEFI/Backend/gnu-efi-3.0.18/lib\misc.c **** Abstract:
  10:C:/Users/victim/Desktop/dangerous/yuziakicin/UEFI/UEFI/Backend/gnu-efi-3.0.18/lib\misc.c **** 
  11:C:/Users/victim/Desktop/dangerous/yuziakicin/UEFI/UEFI/Backend/gnu-efi-3.0.18/lib\misc.c **** 
  12:C:/Users/victim/Desktop/dangerous/yuziakicin/UEFI/UEFI/Backend/gnu-efi-3.0.18/lib\misc.c **** 
  13:C:/Users/victim/Desktop/dangerous/yuziakicin/UEFI/UEFI/Backend/gnu-efi-3.0.18/lib\misc.c **** 
  14:C:/Users/victim/Desktop/dangerous/yuziakicin/UEFI/UEFI/Backend/gnu-efi-3.0.18/lib\misc.c **** Revision History
  15:C:/Users/victim/Desktop/dangerous/yuziakicin/UEFI/UEFI/Backend/gnu-efi-3.0.18/lib\misc.c **** 
  16:C:/Users/victim/Desktop/dangerous/yuziakicin/UEFI/UEFI/Backend/gnu-efi-3.0.18/lib\misc.c **** --*/
  17:C:/Users/victim/Desktop/dangerous/yuziakicin/UEFI/UEFI/Backend/gnu-efi-3.0.18/lib\misc.c **** 
  18:C:/Users/victim/Desktop/dangerous/yuziakicin/UEFI/UEFI/Backend/gnu-efi-3.0.18/lib\misc.c **** #include "lib.h"
  19:C:/Users/victim/Desktop/dangerous/yuziakicin/UEFI/UEFI/Backend/gnu-efi-3.0.18/lib\misc.c **** 
  20:C:/Users/victim/Desktop/dangerous/yuziakicin/UEFI/UEFI/Backend/gnu-efi-3.0.18/lib\misc.c **** 
  21:C:/Users/victim/Desktop/dangerous/yuziakicin/UEFI/UEFI/Backend/gnu-efi-3.0.18/lib\misc.c **** //
  22:C:/Users/victim/Desktop/dangerous/yuziakicin/UEFI/UEFI/Backend/gnu-efi-3.0.18/lib\misc.c **** //
  23:C:/Users/victim/Desktop/dangerous/yuziakicin/UEFI/UEFI/Backend/gnu-efi-3.0.18/lib\misc.c **** //
  24:C:/Users/victim/Desktop/dangerous/yuziakicin/UEFI/UEFI/Backend/gnu-efi-3.0.18/lib\misc.c **** 
  25:C:/Users/victim/Desktop/dangerous/yuziakicin/UEFI/UEFI/Backend/gnu-efi-3.0.18/lib\misc.c **** VOID *
  26:C:/Users/victim/Desktop/dangerous/yuziakicin/UEFI/UEFI/Backend/gnu-efi-3.0.18/lib\misc.c **** AllocatePool (
  27:C:/Users/victim/Desktop/dangerous/yuziakicin/UEFI/UEFI/Backend/gnu-efi-3.0.18/lib\misc.c ****     IN UINTN                Size
  28:C:/Users/victim/Desktop/dangerous/yuziakicin/UEFI/UEFI/Backend/gnu-efi-3.0.18/lib\misc.c ****     )
  29:C:/Users/victim/Desktop/dangerous/yuziakicin/UEFI/UEFI/Backend/gnu-efi-3.0.18/lib\misc.c **** {
  13              		.loc 1 29 1 view -0
  14              		.cfi_startproc
  15              		.loc 1 29 1 is_stmt 0 view .LVU1
  16 0000 4883EC38 		subq	$56, %rsp
  17              		.seh_stackalloc	56
  18              		.cfi_def_cfa_offset 64
  19              		.seh_endprologue
  20 0004 4889CA   		movq	%rcx, %rdx
  30:C:/Users/victim/Desktop/dangerous/yuziakicin/UEFI/UEFI/Backend/gnu-efi-3.0.18/lib\misc.c ****     EFI_STATUS              Status;
  21              		.loc 1 30 5 is_stmt 1 view .LVU2
  31:C:/Users/victim/Desktop/dangerous/yuziakicin/UEFI/UEFI/Backend/gnu-efi-3.0.18/lib\misc.c ****     VOID                    *p;
  22              		.loc 1 31 5 view .LVU3
  32:C:/Users/victim/Desktop/dangerous/yuziakicin/UEFI/UEFI/Backend/gnu-efi-3.0.18/lib\misc.c **** 
  33:C:/Users/victim/Desktop/dangerous/yuziakicin/UEFI/UEFI/Backend/gnu-efi-3.0.18/lib\misc.c ****     Status = uefi_call_wrapper(BS->AllocatePool, 3, PoolAllocationType, Size, &p);
  23              		.loc 1 33 5 view .LVU4
  24              		.loc 1 33 14 is_stmt 0 view .LVU5
  25 0007 488B0500 		movq	.refptr.BS(%rip), %rax
  25      000000
  26 000e 488B00   		movq	(%rax), %rax
  27 0011 488B0D00 		movq	.refptr.PoolAllocationType(%rip), %rcx
  27      000000
  28              	.LVL1:
  29              		.loc 1 33 14 view .LVU6
  30 0018 8B09     		movl	(%rcx), %ecx
  31 001a 4C8D4424 		leaq	40(%rsp), %r8
  31      28
  32 001f FF5040   		call	*64(%rax)
  33              	.LVL2:
  34:C:/Users/victim/Desktop/dangerous/yuziakicin/UEFI/UEFI/Backend/gnu-efi-3.0.18/lib\misc.c ****     if (EFI_ERROR(Status)) {
  34              		.loc 1 34 5 is_stmt 1 view .LVU7
  35              		.loc 1 34 8 is_stmt 0 view .LVU8
  36 0022 4885C0   		testq	%rax, %rax
  37 0025 780A     		js	.L3
  38              	.L2:
  35:C:/Users/victim/Desktop/dangerous/yuziakicin/UEFI/UEFI/Backend/gnu-efi-3.0.18/lib\misc.c ****         DEBUG((D_ERROR, "AllocatePool: out of pool  %x\n", Status));
  36:C:/Users/victim/Desktop/dangerous/yuziakicin/UEFI/UEFI/Backend/gnu-efi-3.0.18/lib\misc.c ****         p = NULL;
  37:C:/Users/victim/Desktop/dangerous/yuziakicin/UEFI/UEFI/Backend/gnu-efi-3.0.18/lib\misc.c ****     }
  38:C:/Users/victim/Desktop/dangerous/yuziakicin/UEFI/UEFI/Backend/gnu-efi-3.0.18/lib\misc.c ****     return p;
  39              		.loc 1 38 5 is_stmt 1 view .LVU9
  39:C:/Users/victim/Desktop/dangerous/yuziakicin/UEFI/UEFI/Backend/gnu-efi-3.0.18/lib\misc.c **** }
  40              		.loc 1 39 1 is_stmt 0 view .LVU10
  41 0027 488B4424 		movq	40(%rsp), %rax
  41      28
  42              	.LVL3:
  43              		.loc 1 39 1 view .LVU11
  44 002c 4883C438 		addq	$56, %rsp
  45              		.cfi_remember_state
  46              		.cfi_def_cfa_offset 8
  47 0030 C3       		ret
  48              	.LVL4:
  49              	.L3:
  50              		.cfi_restore_state
  35:C:/Users/victim/Desktop/dangerous/yuziakicin/UEFI/UEFI/Backend/gnu-efi-3.0.18/lib\misc.c ****         DEBUG((D_ERROR, "AllocatePool: out of pool  %x\n", Status));
  51              		.loc 1 35 68 is_stmt 1 view .LVU12
  36:C:/Users/victim/Desktop/dangerous/yuziakicin/UEFI/UEFI/Backend/gnu-efi-3.0.18/lib\misc.c ****     }
  52              		.loc 1 36 9 view .LVU13
  36:C:/Users/victim/Desktop/dangerous/yuziakicin/UEFI/UEFI/Backend/gnu-efi-3.0.18/lib\misc.c ****     }
  53              		.loc 1 36 11 is_stmt 0 view .LVU14
  54 0031 48C74424 		movq	$0, 40(%rsp)
  54      28000000 
  54      00
  55 003a EBEB     		jmp	.L2
  56              		.cfi_endproc
  57              	.LFE2:
  58              		.seh_endproc
  59              		.globl	FreePool
  61              		.seh_proc	FreePool
  62              	FreePool:
  63              	.LVL5:
  64              	.LFB5:
  40:C:/Users/victim/Desktop/dangerous/yuziakicin/UEFI/UEFI/Backend/gnu-efi-3.0.18/lib\misc.c **** 
  41:C:/Users/victim/Desktop/dangerous/yuziakicin/UEFI/UEFI/Backend/gnu-efi-3.0.18/lib\misc.c **** VOID *
  42:C:/Users/victim/Desktop/dangerous/yuziakicin/UEFI/UEFI/Backend/gnu-efi-3.0.18/lib\misc.c **** AllocateZeroPool (
  43:C:/Users/victim/Desktop/dangerous/yuziakicin/UEFI/UEFI/Backend/gnu-efi-3.0.18/lib\misc.c ****     IN UINTN                Size
  44:C:/Users/victim/Desktop/dangerous/yuziakicin/UEFI/UEFI/Backend/gnu-efi-3.0.18/lib\misc.c ****     )
  45:C:/Users/victim/Desktop/dangerous/yuziakicin/UEFI/UEFI/Backend/gnu-efi-3.0.18/lib\misc.c **** {
  46:C:/Users/victim/Desktop/dangerous/yuziakicin/UEFI/UEFI/Backend/gnu-efi-3.0.18/lib\misc.c ****     VOID                    *p;
  47:C:/Users/victim/Desktop/dangerous/yuziakicin/UEFI/UEFI/Backend/gnu-efi-3.0.18/lib\misc.c **** 
  48:C:/Users/victim/Desktop/dangerous/yuziakicin/UEFI/UEFI/Backend/gnu-efi-3.0.18/lib\misc.c ****     p = AllocatePool (Size);
  49:C:/Users/victim/Desktop/dangerous/yuziakicin/UEFI/UEFI/Backend/gnu-efi-3.0.18/lib\misc.c ****     if (p) {
  50:C:/Users/victim/Desktop/dangerous/yuziakicin/UEFI/UEFI/Backend/gnu-efi-3.0.18/lib\misc.c ****         ZeroMem (p, Size);
  51:C:/Users/victim/Desktop/dangerous/yuziakicin/UEFI/UEFI/Backend/gnu-efi-3.0.18/lib\misc.c ****     }
  52:C:/Users/victim/Desktop/dangerous/yuziakicin/UEFI/UEFI/Backend/gnu-efi-3.0.18/lib\misc.c **** 
  53:C:/Users/victim/Desktop/dangerous/yuziakicin/UEFI/UEFI/Backend/gnu-efi-3.0.18/lib\misc.c ****     return p;
  54:C:/Users/victim/Desktop/dangerous/yuziakicin/UEFI/UEFI/Backend/gnu-efi-3.0.18/lib\misc.c **** }
  55:C:/Users/victim/Desktop/dangerous/yuziakicin/UEFI/UEFI/Backend/gnu-efi-3.0.18/lib\misc.c **** 
  56:C:/Users/victim/Desktop/dangerous/yuziakicin/UEFI/UEFI/Backend/gnu-efi-3.0.18/lib\misc.c **** VOID *
  57:C:/Users/victim/Desktop/dangerous/yuziakicin/UEFI/UEFI/Backend/gnu-efi-3.0.18/lib\misc.c **** ReallocatePool (
  58:C:/Users/victim/Desktop/dangerous/yuziakicin/UEFI/UEFI/Backend/gnu-efi-3.0.18/lib\misc.c ****     IN VOID                 *OldPool,
  59:C:/Users/victim/Desktop/dangerous/yuziakicin/UEFI/UEFI/Backend/gnu-efi-3.0.18/lib\misc.c ****     IN UINTN                OldSize,
  60:C:/Users/victim/Desktop/dangerous/yuziakicin/UEFI/UEFI/Backend/gnu-efi-3.0.18/lib\misc.c ****     IN UINTN                NewSize
  61:C:/Users/victim/Desktop/dangerous/yuziakicin/UEFI/UEFI/Backend/gnu-efi-3.0.18/lib\misc.c ****     )
  62:C:/Users/victim/Desktop/dangerous/yuziakicin/UEFI/UEFI/Backend/gnu-efi-3.0.18/lib\misc.c **** {
  63:C:/Users/victim/Desktop/dangerous/yuziakicin/UEFI/UEFI/Backend/gnu-efi-3.0.18/lib\misc.c ****     VOID                    *NewPool;
  64:C:/Users/victim/Desktop/dangerous/yuziakicin/UEFI/UEFI/Backend/gnu-efi-3.0.18/lib\misc.c **** 
  65:C:/Users/victim/Desktop/dangerous/yuziakicin/UEFI/UEFI/Backend/gnu-efi-3.0.18/lib\misc.c ****     NewPool = NULL;
  66:C:/Users/victim/Desktop/dangerous/yuziakicin/UEFI/UEFI/Backend/gnu-efi-3.0.18/lib\misc.c ****     if (NewSize) {
  67:C:/Users/victim/Desktop/dangerous/yuziakicin/UEFI/UEFI/Backend/gnu-efi-3.0.18/lib\misc.c ****         NewPool = AllocatePool (NewSize);
  68:C:/Users/victim/Desktop/dangerous/yuziakicin/UEFI/UEFI/Backend/gnu-efi-3.0.18/lib\misc.c ****     }
  69:C:/Users/victim/Desktop/dangerous/yuziakicin/UEFI/UEFI/Backend/gnu-efi-3.0.18/lib\misc.c **** 
  70:C:/Users/victim/Desktop/dangerous/yuziakicin/UEFI/UEFI/Backend/gnu-efi-3.0.18/lib\misc.c ****     if (OldPool) {
  71:C:/Users/victim/Desktop/dangerous/yuziakicin/UEFI/UEFI/Backend/gnu-efi-3.0.18/lib\misc.c ****         if (NewPool) {
  72:C:/Users/victim/Desktop/dangerous/yuziakicin/UEFI/UEFI/Backend/gnu-efi-3.0.18/lib\misc.c ****             CopyMem (NewPool, OldPool, OldSize < NewSize ? OldSize : NewSize);
  73:C:/Users/victim/Desktop/dangerous/yuziakicin/UEFI/UEFI/Backend/gnu-efi-3.0.18/lib\misc.c ****         }
  74:C:/Users/victim/Desktop/dangerous/yuziakicin/UEFI/UEFI/Backend/gnu-efi-3.0.18/lib\misc.c ****     
  75:C:/Users/victim/Desktop/dangerous/yuziakicin/UEFI/UEFI/Backend/gnu-efi-3.0.18/lib\misc.c ****         FreePool (OldPool);
  76:C:/Users/victim/Desktop/dangerous/yuziakicin/UEFI/UEFI/Backend/gnu-efi-3.0.18/lib\misc.c ****     }
  77:C:/Users/victim/Desktop/dangerous/yuziakicin/UEFI/UEFI/Backend/gnu-efi-3.0.18/lib\misc.c ****     
  78:C:/Users/victim/Desktop/dangerous/yuziakicin/UEFI/UEFI/Backend/gnu-efi-3.0.18/lib\misc.c ****     return NewPool;
  79:C:/Users/victim/Desktop/dangerous/yuziakicin/UEFI/UEFI/Backend/gnu-efi-3.0.18/lib\misc.c **** }
  80:C:/Users/victim/Desktop/dangerous/yuziakicin/UEFI/UEFI/Backend/gnu-efi-3.0.18/lib\misc.c **** 
  81:C:/Users/victim/Desktop/dangerous/yuziakicin/UEFI/UEFI/Backend/gnu-efi-3.0.18/lib\misc.c **** 
  82:C:/Users/victim/Desktop/dangerous/yuziakicin/UEFI/UEFI/Backend/gnu-efi-3.0.18/lib\misc.c **** VOID
  83:C:/Users/victim/Desktop/dangerous/yuziakicin/UEFI/UEFI/Backend/gnu-efi-3.0.18/lib\misc.c **** FreePool (
  84:C:/Users/victim/Desktop/dangerous/yuziakicin/UEFI/UEFI/Backend/gnu-efi-3.0.18/lib\misc.c ****     IN VOID                 *Buffer
  85:C:/Users/victim/Desktop/dangerous/yuziakicin/UEFI/UEFI/Backend/gnu-efi-3.0.18/lib\misc.c ****     )
  86:C:/Users/victim/Desktop/dangerous/yuziakicin/UEFI/UEFI/Backend/gnu-efi-3.0.18/lib\misc.c **** {
  65              		.loc 1 86 1 is_stmt 1 view -0
  66              		.cfi_startproc
  67              		.loc 1 86 1 is_stmt 0 view .LVU16
  68 003c 4883EC28 		subq	$40, %rsp
  69              		.seh_stackalloc	40
  70              		.cfi_def_cfa_offset 48
  71              		.seh_endprologue
  87:C:/Users/victim/Desktop/dangerous/yuziakicin/UEFI/UEFI/Backend/gnu-efi-3.0.18/lib\misc.c ****     uefi_call_wrapper(BS->FreePool, 1, Buffer);
  72              		.loc 1 87 5 is_stmt 1 view .LVU17
  73 0040 488B0500 		movq	.refptr.BS(%rip), %rax
  73      000000
  74 0047 488B00   		movq	(%rax), %rax
  75 004a FF5048   		call	*72(%rax)
  76 004d 90       		nop
  77              	.LVL6:
  88:C:/Users/victim/Desktop/dangerous/yuziakicin/UEFI/UEFI/Backend/gnu-efi-3.0.18/lib\misc.c **** }
  78              		.loc 1 88 1 is_stmt 0 view .LVU18
  79 004e 4883C428 		addq	$40, %rsp
  80              		.cfi_def_cfa_offset 8
  81 0052 C3       		ret
  82              		.cfi_endproc
  83              	.LFE5:
  84              		.seh_endproc
  85              		.globl	ZeroMem
  87              		.seh_proc	ZeroMem
  88              	ZeroMem:
  89              	.LVL7:
  90              	.LFB6:
  89:C:/Users/victim/Desktop/dangerous/yuziakicin/UEFI/UEFI/Backend/gnu-efi-3.0.18/lib\misc.c **** 
  90:C:/Users/victim/Desktop/dangerous/yuziakicin/UEFI/UEFI/Backend/gnu-efi-3.0.18/lib\misc.c **** 
  91:C:/Users/victim/Desktop/dangerous/yuziakicin/UEFI/UEFI/Backend/gnu-efi-3.0.18/lib\misc.c **** 
  92:C:/Users/victim/Desktop/dangerous/yuziakicin/UEFI/UEFI/Backend/gnu-efi-3.0.18/lib\misc.c **** VOID
  93:C:/Users/victim/Desktop/dangerous/yuziakicin/UEFI/UEFI/Backend/gnu-efi-3.0.18/lib\misc.c **** ZeroMem (
  94:C:/Users/victim/Desktop/dangerous/yuziakicin/UEFI/UEFI/Backend/gnu-efi-3.0.18/lib\misc.c ****     IN VOID     *Buffer,
  95:C:/Users/victim/Desktop/dangerous/yuziakicin/UEFI/UEFI/Backend/gnu-efi-3.0.18/lib\misc.c ****     IN UINTN    Size
  96:C:/Users/victim/Desktop/dangerous/yuziakicin/UEFI/UEFI/Backend/gnu-efi-3.0.18/lib\misc.c ****     )
  97:C:/Users/victim/Desktop/dangerous/yuziakicin/UEFI/UEFI/Backend/gnu-efi-3.0.18/lib\misc.c **** {
  91              		.loc 1 97 1 is_stmt 1 view -0
  92              		.cfi_startproc
  93              		.loc 1 97 1 is_stmt 0 view .LVU20
  94 0053 4883EC28 		subq	$40, %rsp
  95              		.seh_stackalloc	40
  96              		.cfi_def_cfa_offset 48
  97              		.seh_endprologue
  98:C:/Users/victim/Desktop/dangerous/yuziakicin/UEFI/UEFI/Backend/gnu-efi-3.0.18/lib\misc.c ****     RtZeroMem (Buffer, Size);
  98              		.loc 1 98 5 is_stmt 1 view .LVU21
  99 0057 E8000000 		call	RtZeroMem
  99      00
 100 005c 90       		nop
 101              	.LVL8:
  99:C:/Users/victim/Desktop/dangerous/yuziakicin/UEFI/UEFI/Backend/gnu-efi-3.0.18/lib\misc.c **** }
 102              		.loc 1 99 1 is_stmt 0 view .LVU22
 103 005d 4883C428 		addq	$40, %rsp
 104              		.cfi_def_cfa_offset 8
 105 0061 C3       		ret
 106              		.cfi_endproc
 107              	.LFE6:
 108              		.seh_endproc
 109              		.globl	AllocateZeroPool
 111              		.seh_proc	AllocateZeroPool
 112              	AllocateZeroPool:
 113              	.LVL9:
 114              	.LFB3:
  45:C:/Users/victim/Desktop/dangerous/yuziakicin/UEFI/UEFI/Backend/gnu-efi-3.0.18/lib\misc.c ****     VOID                    *p;
 115              		.loc 1 45 1 is_stmt 1 view -0
 116              		.cfi_startproc
  45:C:/Users/victim/Desktop/dangerous/yuziakicin/UEFI/UEFI/Backend/gnu-efi-3.0.18/lib\misc.c ****     VOID                    *p;
 117              		.loc 1 45 1 is_stmt 0 view .LVU24
 118 0062 56       		pushq	%rsi
 119              		.seh_pushreg	%rsi
 120              		.cfi_def_cfa_offset 16
 121              		.cfi_offset 4, -16
 122 0063 53       		pushq	%rbx
 123              		.seh_pushreg	%rbx
 124              		.cfi_def_cfa_offset 24
 125              		.cfi_offset 3, -24
 126 0064 4883EC28 		subq	$40, %rsp
 127              		.seh_stackalloc	40
 128              		.cfi_def_cfa_offset 64
 129              		.seh_endprologue
 130 0068 4889CE   		movq	%rcx, %rsi
  46:C:/Users/victim/Desktop/dangerous/yuziakicin/UEFI/UEFI/Backend/gnu-efi-3.0.18/lib\misc.c **** 
 131              		.loc 1 46 5 is_stmt 1 view .LVU25
  48:C:/Users/victim/Desktop/dangerous/yuziakicin/UEFI/UEFI/Backend/gnu-efi-3.0.18/lib\misc.c ****     if (p) {
 132              		.loc 1 48 5 view .LVU26
  48:C:/Users/victim/Desktop/dangerous/yuziakicin/UEFI/UEFI/Backend/gnu-efi-3.0.18/lib\misc.c ****     if (p) {
 133              		.loc 1 48 9 is_stmt 0 view .LVU27
 134 006b E890FFFF 		call	AllocatePool
 134      FF
 135              	.LVL10:
  48:C:/Users/victim/Desktop/dangerous/yuziakicin/UEFI/UEFI/Backend/gnu-efi-3.0.18/lib\misc.c ****     if (p) {
 136              		.loc 1 48 9 view .LVU28
 137 0070 4889C3   		movq	%rax, %rbx
 138              	.LVL11:
  49:C:/Users/victim/Desktop/dangerous/yuziakicin/UEFI/UEFI/Backend/gnu-efi-3.0.18/lib\misc.c ****         ZeroMem (p, Size);
 139              		.loc 1 49 5 is_stmt 1 view .LVU29
  49:C:/Users/victim/Desktop/dangerous/yuziakicin/UEFI/UEFI/Backend/gnu-efi-3.0.18/lib\misc.c ****         ZeroMem (p, Size);
 140              		.loc 1 49 8 is_stmt 0 view .LVU30
 141 0073 4885C0   		testq	%rax, %rax
 142 0076 740B     		je	.L6
  50:C:/Users/victim/Desktop/dangerous/yuziakicin/UEFI/UEFI/Backend/gnu-efi-3.0.18/lib\misc.c ****     }
 143              		.loc 1 50 9 is_stmt 1 view .LVU31
 144 0078 4889F2   		movq	%rsi, %rdx
 145 007b 4889C1   		movq	%rax, %rcx
 146 007e E8D0FFFF 		call	ZeroMem
 146      FF
 147              	.LVL12:
  53:C:/Users/victim/Desktop/dangerous/yuziakicin/UEFI/UEFI/Backend/gnu-efi-3.0.18/lib\misc.c **** }
 148              		.loc 1 53 5 view .LVU32
 149              	.L6:
  54:C:/Users/victim/Desktop/dangerous/yuziakicin/UEFI/UEFI/Backend/gnu-efi-3.0.18/lib\misc.c **** 
 150              		.loc 1 54 1 is_stmt 0 view .LVU33
 151 0083 4889D8   		movq	%rbx, %rax
 152 0086 4883C428 		addq	$40, %rsp
 153              		.cfi_def_cfa_offset 24
 154 008a 5B       		popq	%rbx
 155              		.cfi_restore 3
 156              		.cfi_def_cfa_offset 16
 157              	.LVL13:
  54:C:/Users/victim/Desktop/dangerous/yuziakicin/UEFI/UEFI/Backend/gnu-efi-3.0.18/lib\misc.c **** 
 158              		.loc 1 54 1 view .LVU34
 159 008b 5E       		popq	%rsi
 160              		.cfi_restore 4
 161              		.cfi_def_cfa_offset 8
 162              	.LVL14:
  54:C:/Users/victim/Desktop/dangerous/yuziakicin/UEFI/UEFI/Backend/gnu-efi-3.0.18/lib\misc.c **** 
 163              		.loc 1 54 1 view .LVU35
 164 008c C3       		ret
 165              		.cfi_endproc
 166              	.LFE3:
 167              		.seh_endproc
 168              		.globl	SetMem
 170              		.seh_proc	SetMem
 171              	SetMem:
 172              	.LVL15:
 173              	.LFB7:
 100:C:/Users/victim/Desktop/dangerous/yuziakicin/UEFI/UEFI/Backend/gnu-efi-3.0.18/lib\misc.c **** 
 101:C:/Users/victim/Desktop/dangerous/yuziakicin/UEFI/UEFI/Backend/gnu-efi-3.0.18/lib\misc.c **** VOID EFIAPI
 102:C:/Users/victim/Desktop/dangerous/yuziakicin/UEFI/UEFI/Backend/gnu-efi-3.0.18/lib\misc.c **** SetMem (
 103:C:/Users/victim/Desktop/dangerous/yuziakicin/UEFI/UEFI/Backend/gnu-efi-3.0.18/lib\misc.c ****     IN VOID     *Buffer,
 104:C:/Users/victim/Desktop/dangerous/yuziakicin/UEFI/UEFI/Backend/gnu-efi-3.0.18/lib\misc.c ****     IN UINTN    Size,
 105:C:/Users/victim/Desktop/dangerous/yuziakicin/UEFI/UEFI/Backend/gnu-efi-3.0.18/lib\misc.c ****     IN UINT8    Value    
 106:C:/Users/victim/Desktop/dangerous/yuziakicin/UEFI/UEFI/Backend/gnu-efi-3.0.18/lib\misc.c ****     )
 107:C:/Users/victim/Desktop/dangerous/yuziakicin/UEFI/UEFI/Backend/gnu-efi-3.0.18/lib\misc.c **** {
 174              		.loc 1 107 1 is_stmt 1 view -0
 175              		.cfi_startproc
 176              		.loc 1 107 1 is_stmt 0 view .LVU37
 177 008d 4883EC28 		subq	$40, %rsp
 178              		.seh_stackalloc	40
 179              		.cfi_def_cfa_offset 48
 180              		.seh_endprologue
 108:C:/Users/victim/Desktop/dangerous/yuziakicin/UEFI/UEFI/Backend/gnu-efi-3.0.18/lib\misc.c ****     RtSetMem (Buffer, Size, Value);
 181              		.loc 1 108 5 is_stmt 1 view .LVU38
 182 0091 450FB6C0 		movzbl	%r8b, %r8d
 183              		.loc 1 108 5 is_stmt 0 view .LVU39
 184 0095 E8000000 		call	RtSetMem
 184      00
 185 009a 90       		nop
 186              	.LVL16:
 109:C:/Users/victim/Desktop/dangerous/yuziakicin/UEFI/UEFI/Backend/gnu-efi-3.0.18/lib\misc.c **** }
 187              		.loc 1 109 1 view .LVU40
 188 009b 4883C428 		addq	$40, %rsp
 189              		.cfi_def_cfa_offset 8
 190 009f C3       		ret
 191              		.cfi_endproc
 192              	.LFE7:
 193              		.seh_endproc
 194              		.globl	CopyMem
 196              		.seh_proc	CopyMem
 197              	CopyMem:
 198              	.LVL17:
 199              	.LFB8:
 110:C:/Users/victim/Desktop/dangerous/yuziakicin/UEFI/UEFI/Backend/gnu-efi-3.0.18/lib\misc.c **** 
 111:C:/Users/victim/Desktop/dangerous/yuziakicin/UEFI/UEFI/Backend/gnu-efi-3.0.18/lib\misc.c **** VOID EFIAPI
 112:C:/Users/victim/Desktop/dangerous/yuziakicin/UEFI/UEFI/Backend/gnu-efi-3.0.18/lib\misc.c **** CopyMem (
 113:C:/Users/victim/Desktop/dangerous/yuziakicin/UEFI/UEFI/Backend/gnu-efi-3.0.18/lib\misc.c ****     IN VOID     *Dest,
 114:C:/Users/victim/Desktop/dangerous/yuziakicin/UEFI/UEFI/Backend/gnu-efi-3.0.18/lib\misc.c ****     IN VOID     *Src,
 115:C:/Users/victim/Desktop/dangerous/yuziakicin/UEFI/UEFI/Backend/gnu-efi-3.0.18/lib\misc.c ****     IN UINTN    len
 116:C:/Users/victim/Desktop/dangerous/yuziakicin/UEFI/UEFI/Backend/gnu-efi-3.0.18/lib\misc.c ****     )
 117:C:/Users/victim/Desktop/dangerous/yuziakicin/UEFI/UEFI/Backend/gnu-efi-3.0.18/lib\misc.c **** {
 200              		.loc 1 117 1 is_stmt 1 view -0
 201              		.cfi_startproc
 202              		.loc 1 117 1 is_stmt 0 view .LVU42
 203 00a0 4883EC28 		subq	$40, %rsp
 204              		.seh_stackalloc	40
 205              		.cfi_def_cfa_offset 48
 206              		.seh_endprologue
 118:C:/Users/victim/Desktop/dangerous/yuziakicin/UEFI/UEFI/Backend/gnu-efi-3.0.18/lib\misc.c ****     RtCopyMem (Dest, Src, len);
 207              		.loc 1 118 5 is_stmt 1 view .LVU43
 208 00a4 E8000000 		call	RtCopyMem
 208      00
 209 00a9 90       		nop
 210              	.LVL18:
 119:C:/Users/victim/Desktop/dangerous/yuziakicin/UEFI/UEFI/Backend/gnu-efi-3.0.18/lib\misc.c **** }
 211              		.loc 1 119 1 is_stmt 0 view .LVU44
 212 00aa 4883C428 		addq	$40, %rsp
 213              		.cfi_def_cfa_offset 8
 214 00ae C3       		ret
 215              		.cfi_endproc
 216              	.LFE8:
 217              		.seh_endproc
 218              		.globl	ReallocatePool
 220              		.seh_proc	ReallocatePool
 221              	ReallocatePool:
 222              	.LVL19:
 223              	.LFB4:
  62:C:/Users/victim/Desktop/dangerous/yuziakicin/UEFI/UEFI/Backend/gnu-efi-3.0.18/lib\misc.c ****     VOID                    *NewPool;
 224              		.loc 1 62 1 is_stmt 1 view -0
 225              		.cfi_startproc
  62:C:/Users/victim/Desktop/dangerous/yuziakicin/UEFI/UEFI/Backend/gnu-efi-3.0.18/lib\misc.c ****     VOID                    *NewPool;
 226              		.loc 1 62 1 is_stmt 0 view .LVU46
 227 00af 55       		pushq	%rbp
 228              		.seh_pushreg	%rbp
 229              		.cfi_def_cfa_offset 16
 230              		.cfi_offset 6, -16
 231 00b0 57       		pushq	%rdi
 232              		.seh_pushreg	%rdi
 233              		.cfi_def_cfa_offset 24
 234              		.cfi_offset 5, -24
 235 00b1 56       		pushq	%rsi
 236              		.seh_pushreg	%rsi
 237              		.cfi_def_cfa_offset 32
 238              		.cfi_offset 4, -32
 239 00b2 53       		pushq	%rbx
 240              		.seh_pushreg	%rbx
 241              		.cfi_def_cfa_offset 40
 242              		.cfi_offset 3, -40
 243 00b3 4883EC28 		subq	$40, %rsp
 244              		.seh_stackalloc	40
 245              		.cfi_def_cfa_offset 80
 246              		.seh_endprologue
 247 00b7 4889CE   		movq	%rcx, %rsi
 248 00ba 4889D5   		movq	%rdx, %rbp
 249 00bd 4C89C3   		movq	%r8, %rbx
  63:C:/Users/victim/Desktop/dangerous/yuziakicin/UEFI/UEFI/Backend/gnu-efi-3.0.18/lib\misc.c **** 
 250              		.loc 1 63 5 is_stmt 1 view .LVU47
  65:C:/Users/victim/Desktop/dangerous/yuziakicin/UEFI/UEFI/Backend/gnu-efi-3.0.18/lib\misc.c ****     if (NewSize) {
 251              		.loc 1 65 5 view .LVU48
 252              	.LVL20:
  66:C:/Users/victim/Desktop/dangerous/yuziakicin/UEFI/UEFI/Backend/gnu-efi-3.0.18/lib\misc.c ****         NewPool = AllocatePool (NewSize);
 253              		.loc 1 66 5 view .LVU49
  66:C:/Users/victim/Desktop/dangerous/yuziakicin/UEFI/UEFI/Backend/gnu-efi-3.0.18/lib\misc.c ****         NewPool = AllocatePool (NewSize);
 254              		.loc 1 66 8 is_stmt 0 view .LVU50
 255 00c0 4D85C0   		testq	%r8, %r8
 256 00c3 743E     		je	.L14
  67:C:/Users/victim/Desktop/dangerous/yuziakicin/UEFI/UEFI/Backend/gnu-efi-3.0.18/lib\misc.c ****     }
 257              		.loc 1 67 9 is_stmt 1 view .LVU51
  67:C:/Users/victim/Desktop/dangerous/yuziakicin/UEFI/UEFI/Backend/gnu-efi-3.0.18/lib\misc.c ****     }
 258              		.loc 1 67 19 is_stmt 0 view .LVU52
 259 00c5 4C89C1   		movq	%r8, %rcx
 260              	.LVL21:
  67:C:/Users/victim/Desktop/dangerous/yuziakicin/UEFI/UEFI/Backend/gnu-efi-3.0.18/lib\misc.c ****     }
 261              		.loc 1 67 19 view .LVU53
 262 00c8 E833FFFF 		call	AllocatePool
 262      FF
 263              	.LVL22:
  67:C:/Users/victim/Desktop/dangerous/yuziakicin/UEFI/UEFI/Backend/gnu-efi-3.0.18/lib\misc.c ****     }
 264              		.loc 1 67 19 view .LVU54
 265 00cd 4889C7   		movq	%rax, %rdi
 266              	.LVL23:
 267              	.L11:
  70:C:/Users/victim/Desktop/dangerous/yuziakicin/UEFI/UEFI/Backend/gnu-efi-3.0.18/lib\misc.c ****         if (NewPool) {
 268              		.loc 1 70 5 is_stmt 1 view .LVU55
  70:C:/Users/victim/Desktop/dangerous/yuziakicin/UEFI/UEFI/Backend/gnu-efi-3.0.18/lib\misc.c ****         if (NewPool) {
 269              		.loc 1 70 8 is_stmt 0 view .LVU56
 270 00d0 4885F6   		testq	%rsi, %rsi
 271 00d3 7422     		je	.L10
  71:C:/Users/victim/Desktop/dangerous/yuziakicin/UEFI/UEFI/Backend/gnu-efi-3.0.18/lib\misc.c ****             CopyMem (NewPool, OldPool, OldSize < NewSize ? OldSize : NewSize);
 272              		.loc 1 71 9 is_stmt 1 view .LVU57
  71:C:/Users/victim/Desktop/dangerous/yuziakicin/UEFI/UEFI/Backend/gnu-efi-3.0.18/lib\misc.c ****             CopyMem (NewPool, OldPool, OldSize < NewSize ? OldSize : NewSize);
 273              		.loc 1 71 12 is_stmt 0 view .LVU58
 274 00d5 4885FF   		testq	%rdi, %rdi
 275 00d8 7415     		je	.L13
  72:C:/Users/victim/Desktop/dangerous/yuziakicin/UEFI/UEFI/Backend/gnu-efi-3.0.18/lib\misc.c ****         }
 276              		.loc 1 72 13 is_stmt 1 view .LVU59
 277 00da 4839EB   		cmpq	%rbp, %rbx
 278 00dd 4989E8   		movq	%rbp, %r8
 279 00e0 4C0F46C3 		cmovbe	%rbx, %r8
 280 00e4 4889F2   		movq	%rsi, %rdx
 281 00e7 4889F9   		movq	%rdi, %rcx
 282 00ea E8B1FFFF 		call	CopyMem
 282      FF
 283              	.LVL24:
 284              	.L13:
  75:C:/Users/victim/Desktop/dangerous/yuziakicin/UEFI/UEFI/Backend/gnu-efi-3.0.18/lib\misc.c ****     }
 285              		.loc 1 75 9 view .LVU60
 286 00ef 4889F1   		movq	%rsi, %rcx
 287 00f2 E845FFFF 		call	FreePool
 287      FF
 288              	.LVL25:
  78:C:/Users/victim/Desktop/dangerous/yuziakicin/UEFI/UEFI/Backend/gnu-efi-3.0.18/lib\misc.c **** }
 289              		.loc 1 78 5 view .LVU61
 290              	.L10:
  79:C:/Users/victim/Desktop/dangerous/yuziakicin/UEFI/UEFI/Backend/gnu-efi-3.0.18/lib\misc.c **** 
 291              		.loc 1 79 1 is_stmt 0 view .LVU62
 292 00f7 4889F8   		movq	%rdi, %rax
 293 00fa 4883C428 		addq	$40, %rsp
 294              		.cfi_remember_state
 295              		.cfi_def_cfa_offset 40
 296 00fe 5B       		popq	%rbx
 297              		.cfi_restore 3
 298              		.cfi_def_cfa_offset 32
 299              	.LVL26:
  79:C:/Users/victim/Desktop/dangerous/yuziakicin/UEFI/UEFI/Backend/gnu-efi-3.0.18/lib\misc.c **** 
 300              		.loc 1 79 1 view .LVU63
 301 00ff 5E       		popq	%rsi
 302              		.cfi_restore 4
 303              		.cfi_def_cfa_offset 24
 304              	.LVL27:
  79:C:/Users/victim/Desktop/dangerous/yuziakicin/UEFI/UEFI/Backend/gnu-efi-3.0.18/lib\misc.c **** 
 305              		.loc 1 79 1 view .LVU64
 306 0100 5F       		popq	%rdi
 307              		.cfi_restore 5
 308              		.cfi_def_cfa_offset 16
 309              	.LVL28:
  79:C:/Users/victim/Desktop/dangerous/yuziakicin/UEFI/UEFI/Backend/gnu-efi-3.0.18/lib\misc.c **** 
 310              		.loc 1 79 1 view .LVU65
 311 0101 5D       		popq	%rbp
 312              		.cfi_restore 6
 313              		.cfi_def_cfa_offset 8
 314              	.LVL29:
  79:C:/Users/victim/Desktop/dangerous/yuziakicin/UEFI/UEFI/Backend/gnu-efi-3.0.18/lib\misc.c **** 
 315              		.loc 1 79 1 view .LVU66
 316 0102 C3       		ret
 317              	.LVL30:
 318              	.L14:
 319              		.cfi_restore_state
  65:C:/Users/victim/Desktop/dangerous/yuziakicin/UEFI/UEFI/Backend/gnu-efi-3.0.18/lib\misc.c ****     if (NewSize) {
 320              		.loc 1 65 13 view .LVU67
 321 0103 BF000000 		movl	$0, %edi
 321      00
 322 0108 EBC6     		jmp	.L11
 323              		.cfi_endproc
 324              	.LFE4:
 325              		.seh_endproc
 326              		.globl	CompareMem
 328              		.seh_proc	CompareMem
 329              	CompareMem:
 330              	.LVL31:
 331              	.LFB9:
 120:C:/Users/victim/Desktop/dangerous/yuziakicin/UEFI/UEFI/Backend/gnu-efi-3.0.18/lib\misc.c **** 
 121:C:/Users/victim/Desktop/dangerous/yuziakicin/UEFI/UEFI/Backend/gnu-efi-3.0.18/lib\misc.c **** INTN
 122:C:/Users/victim/Desktop/dangerous/yuziakicin/UEFI/UEFI/Backend/gnu-efi-3.0.18/lib\misc.c **** CompareMem (
 123:C:/Users/victim/Desktop/dangerous/yuziakicin/UEFI/UEFI/Backend/gnu-efi-3.0.18/lib\misc.c ****     IN CONST VOID     *Dest,
 124:C:/Users/victim/Desktop/dangerous/yuziakicin/UEFI/UEFI/Backend/gnu-efi-3.0.18/lib\misc.c ****     IN CONST VOID     *Src,
 125:C:/Users/victim/Desktop/dangerous/yuziakicin/UEFI/UEFI/Backend/gnu-efi-3.0.18/lib\misc.c ****     IN UINTN    len
 126:C:/Users/victim/Desktop/dangerous/yuziakicin/UEFI/UEFI/Backend/gnu-efi-3.0.18/lib\misc.c ****     )
 127:C:/Users/victim/Desktop/dangerous/yuziakicin/UEFI/UEFI/Backend/gnu-efi-3.0.18/lib\misc.c **** {
 332              		.loc 1 127 1 is_stmt 1 view -0
 333              		.cfi_startproc
 334              		.loc 1 127 1 is_stmt 0 view .LVU69
 335 010a 4883EC28 		subq	$40, %rsp
 336              		.seh_stackalloc	40
 337              		.cfi_def_cfa_offset 48
 338              		.seh_endprologue
 128:C:/Users/victim/Desktop/dangerous/yuziakicin/UEFI/UEFI/Backend/gnu-efi-3.0.18/lib\misc.c ****     return RtCompareMem (Dest, Src, len);
 339              		.loc 1 128 5 is_stmt 1 view .LVU70
 340              		.loc 1 128 12 is_stmt 0 view .LVU71
 341 010e E8000000 		call	RtCompareMem
 341      00
 342              	.LVL32:
 129:C:/Users/victim/Desktop/dangerous/yuziakicin/UEFI/UEFI/Backend/gnu-efi-3.0.18/lib\misc.c **** }
 343              		.loc 1 129 1 view .LVU72
 344 0113 4883C428 		addq	$40, %rsp
 345              		.cfi_def_cfa_offset 8
 346 0117 C3       		ret
 347              		.cfi_endproc
 348              	.LFE9:
 349              		.seh_endproc
 350              		.globl	GrowBuffer
 352              		.seh_proc	GrowBuffer
 353              	GrowBuffer:
 354              	.LVL33:
 355              	.LFB10:
 130:C:/Users/victim/Desktop/dangerous/yuziakicin/UEFI/UEFI/Backend/gnu-efi-3.0.18/lib\misc.c **** 
 131:C:/Users/victim/Desktop/dangerous/yuziakicin/UEFI/UEFI/Backend/gnu-efi-3.0.18/lib\misc.c **** BOOLEAN
 132:C:/Users/victim/Desktop/dangerous/yuziakicin/UEFI/UEFI/Backend/gnu-efi-3.0.18/lib\misc.c **** GrowBuffer(
 133:C:/Users/victim/Desktop/dangerous/yuziakicin/UEFI/UEFI/Backend/gnu-efi-3.0.18/lib\misc.c ****     IN OUT EFI_STATUS   *Status,
 134:C:/Users/victim/Desktop/dangerous/yuziakicin/UEFI/UEFI/Backend/gnu-efi-3.0.18/lib\misc.c ****     IN OUT VOID         **Buffer,
 135:C:/Users/victim/Desktop/dangerous/yuziakicin/UEFI/UEFI/Backend/gnu-efi-3.0.18/lib\misc.c ****     IN UINTN            BufferSize
 136:C:/Users/victim/Desktop/dangerous/yuziakicin/UEFI/UEFI/Backend/gnu-efi-3.0.18/lib\misc.c ****     )
 137:C:/Users/victim/Desktop/dangerous/yuziakicin/UEFI/UEFI/Backend/gnu-efi-3.0.18/lib\misc.c **** /*++
 138:C:/Users/victim/Desktop/dangerous/yuziakicin/UEFI/UEFI/Backend/gnu-efi-3.0.18/lib\misc.c **** 
 139:C:/Users/victim/Desktop/dangerous/yuziakicin/UEFI/UEFI/Backend/gnu-efi-3.0.18/lib\misc.c **** Routine Description:
 140:C:/Users/victim/Desktop/dangerous/yuziakicin/UEFI/UEFI/Backend/gnu-efi-3.0.18/lib\misc.c **** 
 141:C:/Users/victim/Desktop/dangerous/yuziakicin/UEFI/UEFI/Backend/gnu-efi-3.0.18/lib\misc.c ****     Helper function called as part of the code needed
 142:C:/Users/victim/Desktop/dangerous/yuziakicin/UEFI/UEFI/Backend/gnu-efi-3.0.18/lib\misc.c ****     to allocate the proper sized buffer for various 
 143:C:/Users/victim/Desktop/dangerous/yuziakicin/UEFI/UEFI/Backend/gnu-efi-3.0.18/lib\misc.c ****     EFI interfaces.
 144:C:/Users/victim/Desktop/dangerous/yuziakicin/UEFI/UEFI/Backend/gnu-efi-3.0.18/lib\misc.c **** 
 145:C:/Users/victim/Desktop/dangerous/yuziakicin/UEFI/UEFI/Backend/gnu-efi-3.0.18/lib\misc.c **** Arguments:
 146:C:/Users/victim/Desktop/dangerous/yuziakicin/UEFI/UEFI/Backend/gnu-efi-3.0.18/lib\misc.c **** 
 147:C:/Users/victim/Desktop/dangerous/yuziakicin/UEFI/UEFI/Backend/gnu-efi-3.0.18/lib\misc.c ****     Status      - Current status
 148:C:/Users/victim/Desktop/dangerous/yuziakicin/UEFI/UEFI/Backend/gnu-efi-3.0.18/lib\misc.c **** 
 149:C:/Users/victim/Desktop/dangerous/yuziakicin/UEFI/UEFI/Backend/gnu-efi-3.0.18/lib\misc.c ****     Buffer      - Current allocated buffer, or NULL
 150:C:/Users/victim/Desktop/dangerous/yuziakicin/UEFI/UEFI/Backend/gnu-efi-3.0.18/lib\misc.c **** 
 151:C:/Users/victim/Desktop/dangerous/yuziakicin/UEFI/UEFI/Backend/gnu-efi-3.0.18/lib\misc.c ****     BufferSize  - Current buffer size needed
 152:C:/Users/victim/Desktop/dangerous/yuziakicin/UEFI/UEFI/Backend/gnu-efi-3.0.18/lib\misc.c ****     
 153:C:/Users/victim/Desktop/dangerous/yuziakicin/UEFI/UEFI/Backend/gnu-efi-3.0.18/lib\misc.c **** Returns:
 154:C:/Users/victim/Desktop/dangerous/yuziakicin/UEFI/UEFI/Backend/gnu-efi-3.0.18/lib\misc.c ****     
 155:C:/Users/victim/Desktop/dangerous/yuziakicin/UEFI/UEFI/Backend/gnu-efi-3.0.18/lib\misc.c ****     TRUE - if the buffer was reallocated and the caller 
 156:C:/Users/victim/Desktop/dangerous/yuziakicin/UEFI/UEFI/Backend/gnu-efi-3.0.18/lib\misc.c ****     should try the API again.
 157:C:/Users/victim/Desktop/dangerous/yuziakicin/UEFI/UEFI/Backend/gnu-efi-3.0.18/lib\misc.c **** 
 158:C:/Users/victim/Desktop/dangerous/yuziakicin/UEFI/UEFI/Backend/gnu-efi-3.0.18/lib\misc.c **** --*/
 159:C:/Users/victim/Desktop/dangerous/yuziakicin/UEFI/UEFI/Backend/gnu-efi-3.0.18/lib\misc.c **** {
 356              		.loc 1 159 1 is_stmt 1 view -0
 357              		.cfi_startproc
 358              		.loc 1 159 1 is_stmt 0 view .LVU74
 359 0118 57       		pushq	%rdi
 360              		.seh_pushreg	%rdi
 361              		.cfi_def_cfa_offset 16
 362              		.cfi_offset 5, -16
 363 0119 56       		pushq	%rsi
 364              		.seh_pushreg	%rsi
 365              		.cfi_def_cfa_offset 24
 366              		.cfi_offset 4, -24
 367 011a 53       		pushq	%rbx
 368              		.seh_pushreg	%rbx
 369              		.cfi_def_cfa_offset 32
 370              		.cfi_offset 3, -32
 371 011b 4883EC20 		subq	$32, %rsp
 372              		.seh_stackalloc	32
 373              		.cfi_def_cfa_offset 64
 374              		.seh_endprologue
 375 011f 4889CF   		movq	%rcx, %rdi
 376 0122 4889D3   		movq	%rdx, %rbx
 377 0125 4C89C6   		movq	%r8, %rsi
 160:C:/Users/victim/Desktop/dangerous/yuziakicin/UEFI/UEFI/Backend/gnu-efi-3.0.18/lib\misc.c ****     BOOLEAN         TryAgain;
 378              		.loc 1 160 5 is_stmt 1 view .LVU75
 161:C:/Users/victim/Desktop/dangerous/yuziakicin/UEFI/UEFI/Backend/gnu-efi-3.0.18/lib\misc.c **** 
 162:C:/Users/victim/Desktop/dangerous/yuziakicin/UEFI/UEFI/Backend/gnu-efi-3.0.18/lib\misc.c ****     //
 163:C:/Users/victim/Desktop/dangerous/yuziakicin/UEFI/UEFI/Backend/gnu-efi-3.0.18/lib\misc.c ****     // If this is an initial request, buffer will be null with a new buffer size
 164:C:/Users/victim/Desktop/dangerous/yuziakicin/UEFI/UEFI/Backend/gnu-efi-3.0.18/lib\misc.c ****     //
 165:C:/Users/victim/Desktop/dangerous/yuziakicin/UEFI/UEFI/Backend/gnu-efi-3.0.18/lib\misc.c **** 
 166:C:/Users/victim/Desktop/dangerous/yuziakicin/UEFI/UEFI/Backend/gnu-efi-3.0.18/lib\misc.c ****     if (!*Buffer && BufferSize) {
 379              		.loc 1 166 5 view .LVU76
 380              		.loc 1 166 8 is_stmt 0 view .LVU77
 381 0128 48833A00 		cmpq	$0, (%rdx)
 382 012c 7422     		je	.L24
 383              	.L17:
 167:C:/Users/victim/Desktop/dangerous/yuziakicin/UEFI/UEFI/Backend/gnu-efi-3.0.18/lib\misc.c ****         *Status = EFI_BUFFER_TOO_SMALL;
 168:C:/Users/victim/Desktop/dangerous/yuziakicin/UEFI/UEFI/Backend/gnu-efi-3.0.18/lib\misc.c ****     }
 169:C:/Users/victim/Desktop/dangerous/yuziakicin/UEFI/UEFI/Backend/gnu-efi-3.0.18/lib\misc.c **** 
 170:C:/Users/victim/Desktop/dangerous/yuziakicin/UEFI/UEFI/Backend/gnu-efi-3.0.18/lib\misc.c ****     //
 171:C:/Users/victim/Desktop/dangerous/yuziakicin/UEFI/UEFI/Backend/gnu-efi-3.0.18/lib\misc.c ****     // If the status code is "buffer too small", resize the buffer
 172:C:/Users/victim/Desktop/dangerous/yuziakicin/UEFI/UEFI/Backend/gnu-efi-3.0.18/lib\misc.c ****     //
 173:C:/Users/victim/Desktop/dangerous/yuziakicin/UEFI/UEFI/Backend/gnu-efi-3.0.18/lib\misc.c ****         
 174:C:/Users/victim/Desktop/dangerous/yuziakicin/UEFI/UEFI/Backend/gnu-efi-3.0.18/lib\misc.c ****     TryAgain = FALSE;
 384              		.loc 1 174 5 is_stmt 1 view .LVU78
 385              	.LVL34:
 175:C:/Users/victim/Desktop/dangerous/yuziakicin/UEFI/UEFI/Backend/gnu-efi-3.0.18/lib\misc.c ****     if (*Status == EFI_BUFFER_TOO_SMALL) {
 386              		.loc 1 175 5 view .LVU79
 387              		.loc 1 175 8 is_stmt 0 view .LVU80
 388 012e 48B80500 		movabsq	$-9223372036854775803, %rax
 388      00000000 
 388      0080
 389 0138 483907   		cmpq	%rax, (%rdi)
 390 013b 7427     		je	.L25
 391              	.LVL35:
 392              	.L18:
 176:C:/Users/victim/Desktop/dangerous/yuziakicin/UEFI/UEFI/Backend/gnu-efi-3.0.18/lib\misc.c **** 
 177:C:/Users/victim/Desktop/dangerous/yuziakicin/UEFI/UEFI/Backend/gnu-efi-3.0.18/lib\misc.c ****         if (*Buffer) {
 178:C:/Users/victim/Desktop/dangerous/yuziakicin/UEFI/UEFI/Backend/gnu-efi-3.0.18/lib\misc.c ****             FreePool (*Buffer);
 179:C:/Users/victim/Desktop/dangerous/yuziakicin/UEFI/UEFI/Backend/gnu-efi-3.0.18/lib\misc.c ****         }
 180:C:/Users/victim/Desktop/dangerous/yuziakicin/UEFI/UEFI/Backend/gnu-efi-3.0.18/lib\misc.c **** 
 181:C:/Users/victim/Desktop/dangerous/yuziakicin/UEFI/UEFI/Backend/gnu-efi-3.0.18/lib\misc.c ****         *Buffer = AllocatePool (BufferSize);
 182:C:/Users/victim/Desktop/dangerous/yuziakicin/UEFI/UEFI/Backend/gnu-efi-3.0.18/lib\misc.c **** 
 183:C:/Users/victim/Desktop/dangerous/yuziakicin/UEFI/UEFI/Backend/gnu-efi-3.0.18/lib\misc.c ****         if (*Buffer) {
 184:C:/Users/victim/Desktop/dangerous/yuziakicin/UEFI/UEFI/Backend/gnu-efi-3.0.18/lib\misc.c ****             TryAgain = TRUE;
 185:C:/Users/victim/Desktop/dangerous/yuziakicin/UEFI/UEFI/Backend/gnu-efi-3.0.18/lib\misc.c ****         } else {    
 186:C:/Users/victim/Desktop/dangerous/yuziakicin/UEFI/UEFI/Backend/gnu-efi-3.0.18/lib\misc.c ****             *Status = EFI_OUT_OF_RESOURCES;
 187:C:/Users/victim/Desktop/dangerous/yuziakicin/UEFI/UEFI/Backend/gnu-efi-3.0.18/lib\misc.c ****         } 
 188:C:/Users/victim/Desktop/dangerous/yuziakicin/UEFI/UEFI/Backend/gnu-efi-3.0.18/lib\misc.c ****     }
 189:C:/Users/victim/Desktop/dangerous/yuziakicin/UEFI/UEFI/Backend/gnu-efi-3.0.18/lib\misc.c **** 
 190:C:/Users/victim/Desktop/dangerous/yuziakicin/UEFI/UEFI/Backend/gnu-efi-3.0.18/lib\misc.c ****     //
 191:C:/Users/victim/Desktop/dangerous/yuziakicin/UEFI/UEFI/Backend/gnu-efi-3.0.18/lib\misc.c ****     // If there's an error, free the buffer
 192:C:/Users/victim/Desktop/dangerous/yuziakicin/UEFI/UEFI/Backend/gnu-efi-3.0.18/lib\misc.c ****     //
 193:C:/Users/victim/Desktop/dangerous/yuziakicin/UEFI/UEFI/Backend/gnu-efi-3.0.18/lib\misc.c **** 
 194:C:/Users/victim/Desktop/dangerous/yuziakicin/UEFI/UEFI/Backend/gnu-efi-3.0.18/lib\misc.c ****     if (!TryAgain && EFI_ERROR(*Status) && *Buffer) {
 393              		.loc 1 194 19 discriminator 1 view .LVU81
 394 013d 48833F00 		cmpq	$0, (%rdi)
 395 0141 7854     		js	.L26
 396 0143 B8000000 		movl	$0, %eax
 396      00
 397              	.L16:
 195:C:/Users/victim/Desktop/dangerous/yuziakicin/UEFI/UEFI/Backend/gnu-efi-3.0.18/lib\misc.c ****         FreePool (*Buffer);
 196:C:/Users/victim/Desktop/dangerous/yuziakicin/UEFI/UEFI/Backend/gnu-efi-3.0.18/lib\misc.c ****         *Buffer = NULL;
 197:C:/Users/victim/Desktop/dangerous/yuziakicin/UEFI/UEFI/Backend/gnu-efi-3.0.18/lib\misc.c ****     }
 198:C:/Users/victim/Desktop/dangerous/yuziakicin/UEFI/UEFI/Backend/gnu-efi-3.0.18/lib\misc.c **** 
 199:C:/Users/victim/Desktop/dangerous/yuziakicin/UEFI/UEFI/Backend/gnu-efi-3.0.18/lib\misc.c ****     return TryAgain;
 200:C:/Users/victim/Desktop/dangerous/yuziakicin/UEFI/UEFI/Backend/gnu-efi-3.0.18/lib\misc.c **** }
 398              		.loc 1 200 1 view .LVU82
 399 0148 4883C420 		addq	$32, %rsp
 400              		.cfi_remember_state
 401              		.cfi_def_cfa_offset 32
 402 014c 5B       		popq	%rbx
 403              		.cfi_restore 3
 404              		.cfi_def_cfa_offset 24
 405              	.LVL36:
 406              		.loc 1 200 1 view .LVU83
 407 014d 5E       		popq	%rsi
 408              		.cfi_restore 4
 409              		.cfi_def_cfa_offset 16
 410              	.LVL37:
 411              		.loc 1 200 1 view .LVU84
 412 014e 5F       		popq	%rdi
 413              		.cfi_restore 5
 414              		.cfi_def_cfa_offset 8
 415              	.LVL38:
 416              		.loc 1 200 1 view .LVU85
 417 014f C3       		ret
 418              	.LVL39:
 419              	.L24:
 420              		.cfi_restore_state
 166:C:/Users/victim/Desktop/dangerous/yuziakicin/UEFI/UEFI/Backend/gnu-efi-3.0.18/lib\misc.c ****         *Status = EFI_BUFFER_TOO_SMALL;
 421              		.loc 1 166 18 discriminator 1 view .LVU86
 422 0150 4D85C0   		testq	%r8, %r8
 423 0153 74D9     		je	.L17
 167:C:/Users/victim/Desktop/dangerous/yuziakicin/UEFI/UEFI/Backend/gnu-efi-3.0.18/lib\misc.c ****     }
 424              		.loc 1 167 9 is_stmt 1 view .LVU87
 167:C:/Users/victim/Desktop/dangerous/yuziakicin/UEFI/UEFI/Backend/gnu-efi-3.0.18/lib\misc.c ****     }
 425              		.loc 1 167 17 is_stmt 0 view .LVU88
 426 0155 48B80500 		movabsq	$-9223372036854775803, %rax
 426      00000000 
 426      0080
 427 015f 488901   		movq	%rax, (%rcx)
 428 0162 EBCA     		jmp	.L17
 429              	.LVL40:
 430              	.L25:
 177:C:/Users/victim/Desktop/dangerous/yuziakicin/UEFI/UEFI/Backend/gnu-efi-3.0.18/lib\misc.c ****             FreePool (*Buffer);
 431              		.loc 1 177 9 is_stmt 1 view .LVU89
 177:C:/Users/victim/Desktop/dangerous/yuziakicin/UEFI/UEFI/Backend/gnu-efi-3.0.18/lib\misc.c ****             FreePool (*Buffer);
 432              		.loc 1 177 13 is_stmt 0 view .LVU90
 433 0164 488B0B   		movq	(%rbx), %rcx
 434              	.LVL41:
 177:C:/Users/victim/Desktop/dangerous/yuziakicin/UEFI/UEFI/Backend/gnu-efi-3.0.18/lib\misc.c ****             FreePool (*Buffer);
 435              		.loc 1 177 12 view .LVU91
 436 0167 4885C9   		testq	%rcx, %rcx
 437 016a 7405     		je	.L19
 178:C:/Users/victim/Desktop/dangerous/yuziakicin/UEFI/UEFI/Backend/gnu-efi-3.0.18/lib\misc.c ****         }
 438              		.loc 1 178 13 is_stmt 1 view .LVU92
 439 016c E8CBFEFF 		call	FreePool
 439      FF
 440              	.LVL42:
 441              	.L19:
 181:C:/Users/victim/Desktop/dangerous/yuziakicin/UEFI/UEFI/Backend/gnu-efi-3.0.18/lib\misc.c **** 
 442              		.loc 1 181 9 view .LVU93
 181:C:/Users/victim/Desktop/dangerous/yuziakicin/UEFI/UEFI/Backend/gnu-efi-3.0.18/lib\misc.c **** 
 443              		.loc 1 181 19 is_stmt 0 view .LVU94
 444 0171 4889F1   		movq	%rsi, %rcx
 445 0174 E887FEFF 		call	AllocatePool
 445      FF
 446              	.LVL43:
 181:C:/Users/victim/Desktop/dangerous/yuziakicin/UEFI/UEFI/Backend/gnu-efi-3.0.18/lib\misc.c **** 
 447              		.loc 1 181 17 discriminator 1 view .LVU95
 448 0179 488903   		movq	%rax, (%rbx)
 183:C:/Users/victim/Desktop/dangerous/yuziakicin/UEFI/UEFI/Backend/gnu-efi-3.0.18/lib\misc.c ****             TryAgain = TRUE;
 449              		.loc 1 183 9 is_stmt 1 view .LVU96
 183:C:/Users/victim/Desktop/dangerous/yuziakicin/UEFI/UEFI/Backend/gnu-efi-3.0.18/lib\misc.c ****             TryAgain = TRUE;
 450              		.loc 1 183 12 is_stmt 0 view .LVU97
 451 017c 4885C0   		testq	%rax, %rax
 452 017f 7407     		je	.L27
 184:C:/Users/victim/Desktop/dangerous/yuziakicin/UEFI/UEFI/Backend/gnu-efi-3.0.18/lib\misc.c ****         } else {    
 453              		.loc 1 184 22 view .LVU98
 454 0181 B8010000 		movl	$1, %eax
 454      00
 455 0186 EBC0     		jmp	.L16
 456              	.L27:
 186:C:/Users/victim/Desktop/dangerous/yuziakicin/UEFI/UEFI/Backend/gnu-efi-3.0.18/lib\misc.c ****         } 
 457              		.loc 1 186 13 is_stmt 1 view .LVU99
 186:C:/Users/victim/Desktop/dangerous/yuziakicin/UEFI/UEFI/Backend/gnu-efi-3.0.18/lib\misc.c ****         } 
 458              		.loc 1 186 21 is_stmt 0 view .LVU100
 459 0188 48B80900 		movabsq	$-9223372036854775799, %rax
 459      00000000 
 459      0080
 460 0192 488907   		movq	%rax, (%rdi)
 194:C:/Users/victim/Desktop/dangerous/yuziakicin/UEFI/UEFI/Backend/gnu-efi-3.0.18/lib\misc.c ****         FreePool (*Buffer);
 461              		.loc 1 194 5 is_stmt 1 view .LVU101
 462 0195 EBA6     		jmp	.L18
 463              	.LVL44:
 464              	.L26:
 194:C:/Users/victim/Desktop/dangerous/yuziakicin/UEFI/UEFI/Backend/gnu-efi-3.0.18/lib\misc.c ****         FreePool (*Buffer);
 465              		.loc 1 194 44 is_stmt 0 discriminator 2 view .LVU102
 466 0197 488B0B   		movq	(%rbx), %rcx
 194:C:/Users/victim/Desktop/dangerous/yuziakicin/UEFI/UEFI/Backend/gnu-efi-3.0.18/lib\misc.c ****         FreePool (*Buffer);
 467              		.loc 1 194 41 discriminator 2 view .LVU103
 468 019a 4885C9   		testq	%rcx, %rcx
 469 019d 7413     		je	.L23
 195:C:/Users/victim/Desktop/dangerous/yuziakicin/UEFI/UEFI/Backend/gnu-efi-3.0.18/lib\misc.c ****         *Buffer = NULL;
 470              		.loc 1 195 9 is_stmt 1 view .LVU104
 471 019f E898FEFF 		call	FreePool
 471      FF
 472              	.LVL45:
 196:C:/Users/victim/Desktop/dangerous/yuziakicin/UEFI/UEFI/Backend/gnu-efi-3.0.18/lib\misc.c ****     }
 473              		.loc 1 196 9 view .LVU105
 196:C:/Users/victim/Desktop/dangerous/yuziakicin/UEFI/UEFI/Backend/gnu-efi-3.0.18/lib\misc.c ****     }
 474              		.loc 1 196 17 is_stmt 0 view .LVU106
 475 01a4 48C70300 		movq	$0, (%rbx)
 475      000000
 476 01ab B8000000 		movl	$0, %eax
 476      00
 477 01b0 EB96     		jmp	.L16
 478              	.L23:
 479 01b2 B8000000 		movl	$0, %eax
 479      00
 199:C:/Users/victim/Desktop/dangerous/yuziakicin/UEFI/UEFI/Backend/gnu-efi-3.0.18/lib\misc.c **** }
 480              		.loc 1 199 5 is_stmt 1 view .LVU107
 199:C:/Users/victim/Desktop/dangerous/yuziakicin/UEFI/UEFI/Backend/gnu-efi-3.0.18/lib\misc.c **** }
 481              		.loc 1 199 12 is_stmt 0 view .LVU108
 482 01b7 EB8F     		jmp	.L16
 483              		.cfi_endproc
 484              	.LFE10:
 485              		.seh_endproc
 486              		.globl	LibMemoryMap
 488              		.seh_proc	LibMemoryMap
 489              	LibMemoryMap:
 490              	.LVL46:
 491              	.LFB11:
 201:C:/Users/victim/Desktop/dangerous/yuziakicin/UEFI/UEFI/Backend/gnu-efi-3.0.18/lib\misc.c **** 
 202:C:/Users/victim/Desktop/dangerous/yuziakicin/UEFI/UEFI/Backend/gnu-efi-3.0.18/lib\misc.c **** 
 203:C:/Users/victim/Desktop/dangerous/yuziakicin/UEFI/UEFI/Backend/gnu-efi-3.0.18/lib\misc.c **** EFI_MEMORY_DESCRIPTOR *
 204:C:/Users/victim/Desktop/dangerous/yuziakicin/UEFI/UEFI/Backend/gnu-efi-3.0.18/lib\misc.c **** LibMemoryMap (
 205:C:/Users/victim/Desktop/dangerous/yuziakicin/UEFI/UEFI/Backend/gnu-efi-3.0.18/lib\misc.c ****     OUT UINTN               *NoEntries,
 206:C:/Users/victim/Desktop/dangerous/yuziakicin/UEFI/UEFI/Backend/gnu-efi-3.0.18/lib\misc.c ****     OUT UINTN               *MapKey,
 207:C:/Users/victim/Desktop/dangerous/yuziakicin/UEFI/UEFI/Backend/gnu-efi-3.0.18/lib\misc.c ****     OUT UINTN               *DescriptorSize,
 208:C:/Users/victim/Desktop/dangerous/yuziakicin/UEFI/UEFI/Backend/gnu-efi-3.0.18/lib\misc.c ****     OUT UINT32              *DescriptorVersion
 209:C:/Users/victim/Desktop/dangerous/yuziakicin/UEFI/UEFI/Backend/gnu-efi-3.0.18/lib\misc.c ****     )
 210:C:/Users/victim/Desktop/dangerous/yuziakicin/UEFI/UEFI/Backend/gnu-efi-3.0.18/lib\misc.c **** {
 492              		.loc 1 210 1 is_stmt 1 view -0
 493              		.cfi_startproc
 494              		.loc 1 210 1 is_stmt 0 view .LVU110
 495 01b9 55       		pushq	%rbp
 496              		.seh_pushreg	%rbp
 497              		.cfi_def_cfa_offset 16
 498              		.cfi_offset 6, -16
 499 01ba 57       		pushq	%rdi
 500              		.seh_pushreg	%rdi
 501              		.cfi_def_cfa_offset 24
 502              		.cfi_offset 5, -24
 503 01bb 56       		pushq	%rsi
 504              		.seh_pushreg	%rsi
 505              		.cfi_def_cfa_offset 32
 506              		.cfi_offset 4, -32
 507 01bc 53       		pushq	%rbx
 508              		.seh_pushreg	%rbx
 509              		.cfi_def_cfa_offset 40
 510              		.cfi_offset 3, -40
 511 01bd 4883EC58 		subq	$88, %rsp
 512              		.seh_stackalloc	88
 513              		.cfi_def_cfa_offset 128
 514              		.seh_endprologue
 515 01c1 4889CD   		movq	%rcx, %rbp
 516 01c4 4889D7   		movq	%rdx, %rdi
 517 01c7 4C89C3   		movq	%r8, %rbx
 518 01ca 4C89CE   		movq	%r9, %rsi
 211:C:/Users/victim/Desktop/dangerous/yuziakicin/UEFI/UEFI/Backend/gnu-efi-3.0.18/lib\misc.c ****     EFI_STATUS              Status;
 519              		.loc 1 211 5 is_stmt 1 view .LVU111
 212:C:/Users/victim/Desktop/dangerous/yuziakicin/UEFI/UEFI/Backend/gnu-efi-3.0.18/lib\misc.c ****     EFI_MEMORY_DESCRIPTOR   *Buffer;
 520              		.loc 1 212 5 view .LVU112
 213:C:/Users/victim/Desktop/dangerous/yuziakicin/UEFI/UEFI/Backend/gnu-efi-3.0.18/lib\misc.c ****     UINTN                   BufferSize;
 521              		.loc 1 213 5 view .LVU113
 214:C:/Users/victim/Desktop/dangerous/yuziakicin/UEFI/UEFI/Backend/gnu-efi-3.0.18/lib\misc.c **** 
 215:C:/Users/victim/Desktop/dangerous/yuziakicin/UEFI/UEFI/Backend/gnu-efi-3.0.18/lib\misc.c ****     //
 216:C:/Users/victim/Desktop/dangerous/yuziakicin/UEFI/UEFI/Backend/gnu-efi-3.0.18/lib\misc.c ****     // Initialize for GrowBuffer loop
 217:C:/Users/victim/Desktop/dangerous/yuziakicin/UEFI/UEFI/Backend/gnu-efi-3.0.18/lib\misc.c ****     //
 218:C:/Users/victim/Desktop/dangerous/yuziakicin/UEFI/UEFI/Backend/gnu-efi-3.0.18/lib\misc.c **** 
 219:C:/Users/victim/Desktop/dangerous/yuziakicin/UEFI/UEFI/Backend/gnu-efi-3.0.18/lib\misc.c ****     Status = EFI_SUCCESS;
 522              		.loc 1 219 5 view .LVU114
 523              		.loc 1 219 12 is_stmt 0 view .LVU115
 524 01cd 48C74424 		movq	$0, 72(%rsp)
 524      48000000 
 524      00
 220:C:/Users/victim/Desktop/dangerous/yuziakicin/UEFI/UEFI/Backend/gnu-efi-3.0.18/lib\misc.c ****     Buffer = NULL;
 525              		.loc 1 220 5 is_stmt 1 view .LVU116
 526              		.loc 1 220 12 is_stmt 0 view .LVU117
 527 01d6 48C74424 		movq	$0, 64(%rsp)
 527      40000000 
 527      00
 221:C:/Users/victim/Desktop/dangerous/yuziakicin/UEFI/UEFI/Backend/gnu-efi-3.0.18/lib\misc.c ****     BufferSize = sizeof(EFI_MEMORY_DESCRIPTOR);
 528              		.loc 1 221 5 is_stmt 1 view .LVU118
 529              		.loc 1 221 16 is_stmt 0 view .LVU119
 530 01df 48C74424 		movq	$40, 56(%rsp)
 530      38280000 
 530      00
 222:C:/Users/victim/Desktop/dangerous/yuziakicin/UEFI/UEFI/Backend/gnu-efi-3.0.18/lib\misc.c **** 
 223:C:/Users/victim/Desktop/dangerous/yuziakicin/UEFI/UEFI/Backend/gnu-efi-3.0.18/lib\misc.c ****     //
 224:C:/Users/victim/Desktop/dangerous/yuziakicin/UEFI/UEFI/Backend/gnu-efi-3.0.18/lib\misc.c ****     // Call the real function
 225:C:/Users/victim/Desktop/dangerous/yuziakicin/UEFI/UEFI/Backend/gnu-efi-3.0.18/lib\misc.c ****     //
 226:C:/Users/victim/Desktop/dangerous/yuziakicin/UEFI/UEFI/Backend/gnu-efi-3.0.18/lib\misc.c **** 
 227:C:/Users/victim/Desktop/dangerous/yuziakicin/UEFI/UEFI/Backend/gnu-efi-3.0.18/lib\misc.c ****     while (GrowBuffer (&Status, (VOID **) &Buffer, BufferSize)) {
 531              		.loc 1 227 5 is_stmt 1 view .LVU120
 532              		.loc 1 227 11 is_stmt 0 view .LVU121
 533 01e8 EB2A     		jmp	.L29
 534              	.LVL47:
 535              	.L30:
 228:C:/Users/victim/Desktop/dangerous/yuziakicin/UEFI/UEFI/Backend/gnu-efi-3.0.18/lib\misc.c ****         Status = uefi_call_wrapper(BS->GetMemoryMap, 5, &BufferSize, Buffer, MapKey, DescriptorSize
 536              		.loc 1 228 9 is_stmt 1 view .LVU122
 537              		.loc 1 228 18 is_stmt 0 view .LVU123
 538 01ea 488B0500 		movq	.refptr.BS(%rip), %rax
 538      000000
 539 01f1 488B00   		movq	(%rax), %rax
 540 01f4 488B4038 		movq	56(%rax), %rax
 541 01f8 488D4C24 		leaq	56(%rsp), %rcx
 541      38
 542 01fd 48897424 		movq	%rsi, 32(%rsp)
 542      20
 543 0202 4989D9   		movq	%rbx, %r9
 544 0205 4989F8   		movq	%rdi, %r8
 545 0208 488B5424 		movq	64(%rsp), %rdx
 545      40
 546 020d FFD0     		call	*%rax
 547              	.LVL48:
 548              		.loc 1 228 16 discriminator 1 view .LVU124
 549 020f 48894424 		movq	%rax, 72(%rsp)
 549      48
 550              	.L29:
 227:C:/Users/victim/Desktop/dangerous/yuziakicin/UEFI/UEFI/Backend/gnu-efi-3.0.18/lib\misc.c ****         Status = uefi_call_wrapper(BS->GetMemoryMap, 5, &BufferSize, Buffer, MapKey, DescriptorSize
 551              		.loc 1 227 12 is_stmt 1 view .LVU125
 552 0214 488D5424 		leaq	64(%rsp), %rdx
 552      40
 553 0219 488D4C24 		leaq	72(%rsp), %rcx
 553      48
 554 021e 4C8B4424 		movq	56(%rsp), %r8
 554      38
 555 0223 E8F0FEFF 		call	GrowBuffer
 555      FF
 556              	.LVL49:
 227:C:/Users/victim/Desktop/dangerous/yuziakicin/UEFI/UEFI/Backend/gnu-efi-3.0.18/lib\misc.c ****         Status = uefi_call_wrapper(BS->GetMemoryMap, 5, &BufferSize, Buffer, MapKey, DescriptorSize
 557              		.loc 1 227 12 is_stmt 0 discriminator 1 view .LVU126
 558 0228 84C0     		testb	%al, %al
 559 022a 75BE     		jne	.L30
 229:C:/Users/victim/Desktop/dangerous/yuziakicin/UEFI/UEFI/Backend/gnu-efi-3.0.18/lib\misc.c ****     }
 230:C:/Users/victim/Desktop/dangerous/yuziakicin/UEFI/UEFI/Backend/gnu-efi-3.0.18/lib\misc.c **** 
 231:C:/Users/victim/Desktop/dangerous/yuziakicin/UEFI/UEFI/Backend/gnu-efi-3.0.18/lib\misc.c ****     //
 232:C:/Users/victim/Desktop/dangerous/yuziakicin/UEFI/UEFI/Backend/gnu-efi-3.0.18/lib\misc.c ****     // Convert buffer size to NoEntries
 233:C:/Users/victim/Desktop/dangerous/yuziakicin/UEFI/UEFI/Backend/gnu-efi-3.0.18/lib\misc.c ****     //
 234:C:/Users/victim/Desktop/dangerous/yuziakicin/UEFI/UEFI/Backend/gnu-efi-3.0.18/lib\misc.c **** 
 235:C:/Users/victim/Desktop/dangerous/yuziakicin/UEFI/UEFI/Backend/gnu-efi-3.0.18/lib\misc.c ****     if (!EFI_ERROR(Status)) {
 560              		.loc 1 235 5 is_stmt 1 view .LVU127
 561              		.loc 1 235 8 is_stmt 0 view .LVU128
 562 022c 48837C24 		cmpq	$0, 72(%rsp)
 562      4800
 563 0232 7811     		js	.L31
 236:C:/Users/victim/Desktop/dangerous/yuziakicin/UEFI/UEFI/Backend/gnu-efi-3.0.18/lib\misc.c ****         *NoEntries = BufferSize / *DescriptorSize;
 564              		.loc 1 236 9 is_stmt 1 view .LVU129
 565              		.loc 1 236 33 is_stmt 0 view .LVU130
 566 0234 488B4424 		movq	56(%rsp), %rax
 566      38
 567 0239 BA000000 		movl	$0, %edx
 567      00
 568 023e 48F733   		divq	(%rbx)
 569              		.loc 1 236 20 view .LVU131
 570 0241 48894500 		movq	%rax, 0(%rbp)
 571              	.L31:
 237:C:/Users/victim/Desktop/dangerous/yuziakicin/UEFI/UEFI/Backend/gnu-efi-3.0.18/lib\misc.c ****     }
 238:C:/Users/victim/Desktop/dangerous/yuziakicin/UEFI/UEFI/Backend/gnu-efi-3.0.18/lib\misc.c **** 
 239:C:/Users/victim/Desktop/dangerous/yuziakicin/UEFI/UEFI/Backend/gnu-efi-3.0.18/lib\misc.c ****     return Buffer;
 572              		.loc 1 239 5 is_stmt 1 view .LVU132
 240:C:/Users/victim/Desktop/dangerous/yuziakicin/UEFI/UEFI/Backend/gnu-efi-3.0.18/lib\misc.c **** }
 573              		.loc 1 240 1 is_stmt 0 view .LVU133
 574 0245 488B4424 		movq	64(%rsp), %rax
 574      40
 575 024a 4883C458 		addq	$88, %rsp
 576              		.cfi_def_cfa_offset 40
 577 024e 5B       		popq	%rbx
 578              		.cfi_restore 3
 579              		.cfi_def_cfa_offset 32
 580              	.LVL50:
 581              		.loc 1 240 1 view .LVU134
 582 024f 5E       		popq	%rsi
 583              		.cfi_restore 4
 584              		.cfi_def_cfa_offset 24
 585              	.LVL51:
 586              		.loc 1 240 1 view .LVU135
 587 0250 5F       		popq	%rdi
 588              		.cfi_restore 5
 589              		.cfi_def_cfa_offset 16
 590              	.LVL52:
 591              		.loc 1 240 1 view .LVU136
 592 0251 5D       		popq	%rbp
 593              		.cfi_restore 6
 594              		.cfi_def_cfa_offset 8
 595              	.LVL53:
 596              		.loc 1 240 1 view .LVU137
 597 0252 C3       		ret
 598              		.cfi_endproc
 599              	.LFE11:
 600              		.seh_endproc
 601              		.globl	LibGetVariableAndSize
 603              		.seh_proc	LibGetVariableAndSize
 604              	LibGetVariableAndSize:
 605              	.LVL54:
 606              	.LFB12:
 241:C:/Users/victim/Desktop/dangerous/yuziakicin/UEFI/UEFI/Backend/gnu-efi-3.0.18/lib\misc.c **** 
 242:C:/Users/victim/Desktop/dangerous/yuziakicin/UEFI/UEFI/Backend/gnu-efi-3.0.18/lib\misc.c **** VOID *
 243:C:/Users/victim/Desktop/dangerous/yuziakicin/UEFI/UEFI/Backend/gnu-efi-3.0.18/lib\misc.c **** LibGetVariableAndSize (
 244:C:/Users/victim/Desktop/dangerous/yuziakicin/UEFI/UEFI/Backend/gnu-efi-3.0.18/lib\misc.c ****     IN CHAR16               *Name,
 245:C:/Users/victim/Desktop/dangerous/yuziakicin/UEFI/UEFI/Backend/gnu-efi-3.0.18/lib\misc.c ****     IN EFI_GUID             *VendorGuid,
 246:C:/Users/victim/Desktop/dangerous/yuziakicin/UEFI/UEFI/Backend/gnu-efi-3.0.18/lib\misc.c ****     OUT UINTN               *VarSize
 247:C:/Users/victim/Desktop/dangerous/yuziakicin/UEFI/UEFI/Backend/gnu-efi-3.0.18/lib\misc.c ****     )
 248:C:/Users/victim/Desktop/dangerous/yuziakicin/UEFI/UEFI/Backend/gnu-efi-3.0.18/lib\misc.c **** {
 607              		.loc 1 248 1 is_stmt 1 view -0
 608              		.cfi_startproc
 609              		.loc 1 248 1 is_stmt 0 view .LVU139
 610 0253 57       		pushq	%rdi
 611              		.seh_pushreg	%rdi
 612              		.cfi_def_cfa_offset 16
 613              		.cfi_offset 5, -16
 614 0254 56       		pushq	%rsi
 615              		.seh_pushreg	%rsi
 616              		.cfi_def_cfa_offset 24
 617              		.cfi_offset 4, -24
 618 0255 53       		pushq	%rbx
 619              		.seh_pushreg	%rbx
 620              		.cfi_def_cfa_offset 32
 621              		.cfi_offset 3, -32
 622 0256 4883EC50 		subq	$80, %rsp
 623              		.seh_stackalloc	80
 624              		.cfi_def_cfa_offset 112
 625              		.seh_endprologue
 626 025a 4889CE   		movq	%rcx, %rsi
 627 025d 4889D3   		movq	%rdx, %rbx
 628 0260 4C89C7   		movq	%r8, %rdi
 249:C:/Users/victim/Desktop/dangerous/yuziakicin/UEFI/UEFI/Backend/gnu-efi-3.0.18/lib\misc.c ****     EFI_STATUS              Status = EFI_SUCCESS;
 629              		.loc 1 249 5 is_stmt 1 view .LVU140
 630              		.loc 1 249 29 is_stmt 0 view .LVU141
 631 0263 48C74424 		movq	$0, 72(%rsp)
 631      48000000 
 631      00
 250:C:/Users/victim/Desktop/dangerous/yuziakicin/UEFI/UEFI/Backend/gnu-efi-3.0.18/lib\misc.c ****     VOID                    *Buffer;
 632              		.loc 1 250 5 is_stmt 1 view .LVU142
 251:C:/Users/victim/Desktop/dangerous/yuziakicin/UEFI/UEFI/Backend/gnu-efi-3.0.18/lib\misc.c ****     UINTN                   BufferSize;
 633              		.loc 1 251 5 view .LVU143
 252:C:/Users/victim/Desktop/dangerous/yuziakicin/UEFI/UEFI/Backend/gnu-efi-3.0.18/lib\misc.c **** 
 253:C:/Users/victim/Desktop/dangerous/yuziakicin/UEFI/UEFI/Backend/gnu-efi-3.0.18/lib\misc.c ****     //
 254:C:/Users/victim/Desktop/dangerous/yuziakicin/UEFI/UEFI/Backend/gnu-efi-3.0.18/lib\misc.c ****     // Initialize for GrowBuffer loop
 255:C:/Users/victim/Desktop/dangerous/yuziakicin/UEFI/UEFI/Backend/gnu-efi-3.0.18/lib\misc.c ****     //
 256:C:/Users/victim/Desktop/dangerous/yuziakicin/UEFI/UEFI/Backend/gnu-efi-3.0.18/lib\misc.c **** 
 257:C:/Users/victim/Desktop/dangerous/yuziakicin/UEFI/UEFI/Backend/gnu-efi-3.0.18/lib\misc.c ****     Buffer = NULL;
 634              		.loc 1 257 5 view .LVU144
 635              		.loc 1 257 12 is_stmt 0 view .LVU145
 636 026c 48C74424 		movq	$0, 64(%rsp)
 636      40000000 
 636      00
 258:C:/Users/victim/Desktop/dangerous/yuziakicin/UEFI/UEFI/Backend/gnu-efi-3.0.18/lib\misc.c ****     BufferSize = 100;
 637              		.loc 1 258 5 is_stmt 1 view .LVU146
 638              		.loc 1 258 16 is_stmt 0 view .LVU147
 639 0275 48C74424 		movq	$100, 56(%rsp)
 639      38640000 
 639      00
 259:C:/Users/victim/Desktop/dangerous/yuziakicin/UEFI/UEFI/Backend/gnu-efi-3.0.18/lib\misc.c **** 
 260:C:/Users/victim/Desktop/dangerous/yuziakicin/UEFI/UEFI/Backend/gnu-efi-3.0.18/lib\misc.c ****     //
 261:C:/Users/victim/Desktop/dangerous/yuziakicin/UEFI/UEFI/Backend/gnu-efi-3.0.18/lib\misc.c ****     // Call the real function
 262:C:/Users/victim/Desktop/dangerous/yuziakicin/UEFI/UEFI/Backend/gnu-efi-3.0.18/lib\misc.c ****     //
 263:C:/Users/victim/Desktop/dangerous/yuziakicin/UEFI/UEFI/Backend/gnu-efi-3.0.18/lib\misc.c **** 
 264:C:/Users/victim/Desktop/dangerous/yuziakicin/UEFI/UEFI/Backend/gnu-efi-3.0.18/lib\misc.c ****     while (GrowBuffer (&Status, &Buffer, BufferSize)) {
 640              		.loc 1 264 5 is_stmt 1 view .LVU148
 641              		.loc 1 264 11 is_stmt 0 view .LVU149
 642 027e EB30     		jmp	.L33
 643              	.LVL55:
 644              	.L34:
 265:C:/Users/victim/Desktop/dangerous/yuziakicin/UEFI/UEFI/Backend/gnu-efi-3.0.18/lib\misc.c ****         Status = uefi_call_wrapper(
 645              		.loc 1 265 9 is_stmt 1 view .LVU150
 646              		.loc 1 265 18 is_stmt 0 view .LVU151
 647 0280 488B0500 		movq	.refptr.RT(%rip), %rax
 647      000000
 648 0287 488B00   		movq	(%rax), %rax
 649 028a 488B4048 		movq	72(%rax), %rax
 650 028e 488B5424 		movq	64(%rsp), %rdx
 650      40
 651 0293 48895424 		movq	%rdx, 32(%rsp)
 651      20
 652 0298 4C8D4C24 		leaq	56(%rsp), %r9
 652      38
 653 029d 41B80000 		movl	$0, %r8d
 653      0000
 654 02a3 4889DA   		movq	%rbx, %rdx
 655 02a6 4889F1   		movq	%rsi, %rcx
 656 02a9 FFD0     		call	*%rax
 657              	.LVL56:
 658              		.loc 1 265 16 discriminator 1 view .LVU152
 659 02ab 48894424 		movq	%rax, 72(%rsp)
 659      48
 660              	.L33:
 264:C:/Users/victim/Desktop/dangerous/yuziakicin/UEFI/UEFI/Backend/gnu-efi-3.0.18/lib\misc.c ****         Status = uefi_call_wrapper(
 661              		.loc 1 264 12 is_stmt 1 view .LVU153
 662 02b0 488D5424 		leaq	64(%rsp), %rdx
 662      40
 663 02b5 488D4C24 		leaq	72(%rsp), %rcx
 663      48
 664 02ba 4C8B4424 		movq	56(%rsp), %r8
 664      38
 665 02bf E854FEFF 		call	GrowBuffer
 665      FF
 666              	.LVL57:
 264:C:/Users/victim/Desktop/dangerous/yuziakicin/UEFI/UEFI/Backend/gnu-efi-3.0.18/lib\misc.c ****         Status = uefi_call_wrapper(
 667              		.loc 1 264 12 is_stmt 0 discriminator 1 view .LVU154
 668 02c4 84C0     		testb	%al, %al
 669 02c6 75B8     		jne	.L34
 266:C:/Users/victim/Desktop/dangerous/yuziakicin/UEFI/UEFI/Backend/gnu-efi-3.0.18/lib\misc.c **** 		    RT->GetVariable,
 267:C:/Users/victim/Desktop/dangerous/yuziakicin/UEFI/UEFI/Backend/gnu-efi-3.0.18/lib\misc.c **** 			5,
 268:C:/Users/victim/Desktop/dangerous/yuziakicin/UEFI/UEFI/Backend/gnu-efi-3.0.18/lib\misc.c ****                     Name,
 269:C:/Users/victim/Desktop/dangerous/yuziakicin/UEFI/UEFI/Backend/gnu-efi-3.0.18/lib\misc.c ****                     VendorGuid,
 270:C:/Users/victim/Desktop/dangerous/yuziakicin/UEFI/UEFI/Backend/gnu-efi-3.0.18/lib\misc.c ****                     NULL,
 271:C:/Users/victim/Desktop/dangerous/yuziakicin/UEFI/UEFI/Backend/gnu-efi-3.0.18/lib\misc.c ****                     &BufferSize,
 272:C:/Users/victim/Desktop/dangerous/yuziakicin/UEFI/UEFI/Backend/gnu-efi-3.0.18/lib\misc.c ****                     Buffer
 273:C:/Users/victim/Desktop/dangerous/yuziakicin/UEFI/UEFI/Backend/gnu-efi-3.0.18/lib\misc.c ****                     );
 274:C:/Users/victim/Desktop/dangerous/yuziakicin/UEFI/UEFI/Backend/gnu-efi-3.0.18/lib\misc.c ****     }
 275:C:/Users/victim/Desktop/dangerous/yuziakicin/UEFI/UEFI/Backend/gnu-efi-3.0.18/lib\misc.c ****     if (Buffer) {
 670              		.loc 1 275 5 is_stmt 1 view .LVU155
 671              		.loc 1 275 8 is_stmt 0 view .LVU156
 672 02c8 48837C24 		cmpq	$0, 64(%rsp)
 672      4000
 673 02ce 7415     		je	.L35
 276:C:/Users/victim/Desktop/dangerous/yuziakicin/UEFI/UEFI/Backend/gnu-efi-3.0.18/lib\misc.c ****         *VarSize = BufferSize;
 674              		.loc 1 276 9 is_stmt 1 view .LVU157
 675              		.loc 1 276 18 is_stmt 0 view .LVU158
 676 02d0 488B4424 		movq	56(%rsp), %rax
 676      38
 677 02d5 488907   		movq	%rax, (%rdi)
 678              	.L36:
 277:C:/Users/victim/Desktop/dangerous/yuziakicin/UEFI/UEFI/Backend/gnu-efi-3.0.18/lib\misc.c ****     } else {
 278:C:/Users/victim/Desktop/dangerous/yuziakicin/UEFI/UEFI/Backend/gnu-efi-3.0.18/lib\misc.c ****         *VarSize = 0;
 279:C:/Users/victim/Desktop/dangerous/yuziakicin/UEFI/UEFI/Backend/gnu-efi-3.0.18/lib\misc.c ****     }
 280:C:/Users/victim/Desktop/dangerous/yuziakicin/UEFI/UEFI/Backend/gnu-efi-3.0.18/lib\misc.c ****     return Buffer;
 679              		.loc 1 280 5 is_stmt 1 view .LVU159
 281:C:/Users/victim/Desktop/dangerous/yuziakicin/UEFI/UEFI/Backend/gnu-efi-3.0.18/lib\misc.c **** }
 680              		.loc 1 281 1 is_stmt 0 view .LVU160
 681 02d8 488B4424 		movq	64(%rsp), %rax
 681      40
 682 02dd 4883C450 		addq	$80, %rsp
 683              		.cfi_remember_state
 684              		.cfi_def_cfa_offset 32
 685 02e1 5B       		popq	%rbx
 686              		.cfi_restore 3
 687              		.cfi_def_cfa_offset 24
 688              	.LVL58:
 689              		.loc 1 281 1 view .LVU161
 690 02e2 5E       		popq	%rsi
 691              		.cfi_restore 4
 692              		.cfi_def_cfa_offset 16
 693              	.LVL59:
 694              		.loc 1 281 1 view .LVU162
 695 02e3 5F       		popq	%rdi
 696              		.cfi_restore 5
 697              		.cfi_def_cfa_offset 8
 698              	.LVL60:
 699              		.loc 1 281 1 view .LVU163
 700 02e4 C3       		ret
 701              	.LVL61:
 702              	.L35:
 703              		.cfi_restore_state
 278:C:/Users/victim/Desktop/dangerous/yuziakicin/UEFI/UEFI/Backend/gnu-efi-3.0.18/lib\misc.c ****     }
 704              		.loc 1 278 9 is_stmt 1 view .LVU164
 278:C:/Users/victim/Desktop/dangerous/yuziakicin/UEFI/UEFI/Backend/gnu-efi-3.0.18/lib\misc.c ****     }
 705              		.loc 1 278 18 is_stmt 0 view .LVU165
 706 02e5 48C70700 		movq	$0, (%rdi)
 706      000000
 707 02ec EBEA     		jmp	.L36
 708              		.cfi_endproc
 709              	.LFE12:
 710              		.seh_endproc
 711              		.globl	LibGetVariable
 713              		.seh_proc	LibGetVariable
 714              	LibGetVariable:
 715              	.LVL62:
 716              	.LFB13:
 282:C:/Users/victim/Desktop/dangerous/yuziakicin/UEFI/UEFI/Backend/gnu-efi-3.0.18/lib\misc.c ****     
 283:C:/Users/victim/Desktop/dangerous/yuziakicin/UEFI/UEFI/Backend/gnu-efi-3.0.18/lib\misc.c **** VOID *
 284:C:/Users/victim/Desktop/dangerous/yuziakicin/UEFI/UEFI/Backend/gnu-efi-3.0.18/lib\misc.c **** LibGetVariable (
 285:C:/Users/victim/Desktop/dangerous/yuziakicin/UEFI/UEFI/Backend/gnu-efi-3.0.18/lib\misc.c ****     IN CHAR16               *Name,
 286:C:/Users/victim/Desktop/dangerous/yuziakicin/UEFI/UEFI/Backend/gnu-efi-3.0.18/lib\misc.c ****     IN EFI_GUID             *VendorGuid
 287:C:/Users/victim/Desktop/dangerous/yuziakicin/UEFI/UEFI/Backend/gnu-efi-3.0.18/lib\misc.c ****     )
 288:C:/Users/victim/Desktop/dangerous/yuziakicin/UEFI/UEFI/Backend/gnu-efi-3.0.18/lib\misc.c **** {
 717              		.loc 1 288 1 is_stmt 1 view -0
 718              		.cfi_startproc
 719              		.loc 1 288 1 is_stmt 0 view .LVU167
 720 02ee 4883EC38 		subq	$56, %rsp
 721              		.seh_stackalloc	56
 722              		.cfi_def_cfa_offset 64
 723              		.seh_endprologue
 289:C:/Users/victim/Desktop/dangerous/yuziakicin/UEFI/UEFI/Backend/gnu-efi-3.0.18/lib\misc.c ****     UINTN   VarSize;
 724              		.loc 1 289 5 is_stmt 1 view .LVU168
 290:C:/Users/victim/Desktop/dangerous/yuziakicin/UEFI/UEFI/Backend/gnu-efi-3.0.18/lib\misc.c **** 
 291:C:/Users/victim/Desktop/dangerous/yuziakicin/UEFI/UEFI/Backend/gnu-efi-3.0.18/lib\misc.c ****     return LibGetVariableAndSize (Name, VendorGuid, &VarSize);
 725              		.loc 1 291 5 view .LVU169
 726              		.loc 1 291 12 is_stmt 0 view .LVU170
 727 02f2 4C8D4424 		leaq	40(%rsp), %r8
 727      28
 728 02f7 E857FFFF 		call	LibGetVariableAndSize
 728      FF
 729              	.LVL63:
 292:C:/Users/victim/Desktop/dangerous/yuziakicin/UEFI/UEFI/Backend/gnu-efi-3.0.18/lib\misc.c **** }
 730              		.loc 1 292 1 view .LVU171
 731 02fc 4883C438 		addq	$56, %rsp
 732              		.cfi_def_cfa_offset 8
 733 0300 C3       		ret
 734              		.cfi_endproc
 735              	.LFE13:
 736              		.seh_endproc
 737              		.globl	LibDeleteVariable
 739              		.seh_proc	LibDeleteVariable
 740              	LibDeleteVariable:
 741              	.LVL64:
 742              	.LFB14:
 293:C:/Users/victim/Desktop/dangerous/yuziakicin/UEFI/UEFI/Backend/gnu-efi-3.0.18/lib\misc.c **** 
 294:C:/Users/victim/Desktop/dangerous/yuziakicin/UEFI/UEFI/Backend/gnu-efi-3.0.18/lib\misc.c **** EFI_STATUS
 295:C:/Users/victim/Desktop/dangerous/yuziakicin/UEFI/UEFI/Backend/gnu-efi-3.0.18/lib\misc.c **** LibDeleteVariable (
 296:C:/Users/victim/Desktop/dangerous/yuziakicin/UEFI/UEFI/Backend/gnu-efi-3.0.18/lib\misc.c ****     IN CHAR16   *VarName,
 297:C:/Users/victim/Desktop/dangerous/yuziakicin/UEFI/UEFI/Backend/gnu-efi-3.0.18/lib\misc.c ****     IN EFI_GUID *VarGuid
 298:C:/Users/victim/Desktop/dangerous/yuziakicin/UEFI/UEFI/Backend/gnu-efi-3.0.18/lib\misc.c ****     )
 299:C:/Users/victim/Desktop/dangerous/yuziakicin/UEFI/UEFI/Backend/gnu-efi-3.0.18/lib\misc.c **** {
 743              		.loc 1 299 1 is_stmt 1 view -0
 744              		.cfi_startproc
 745              		.loc 1 299 1 is_stmt 0 view .LVU173
 746 0301 57       		pushq	%rdi
 747              		.seh_pushreg	%rdi
 748              		.cfi_def_cfa_offset 16
 749              		.cfi_offset 5, -16
 750 0302 56       		pushq	%rsi
 751              		.seh_pushreg	%rsi
 752              		.cfi_def_cfa_offset 24
 753              		.cfi_offset 4, -24
 754 0303 53       		pushq	%rbx
 755              		.seh_pushreg	%rbx
 756              		.cfi_def_cfa_offset 32
 757              		.cfi_offset 3, -32
 758 0304 4883EC30 		subq	$48, %rsp
 759              		.seh_stackalloc	48
 760              		.cfi_def_cfa_offset 80
 761              		.seh_endprologue
 762 0308 4889CE   		movq	%rcx, %rsi
 763 030b 4889D7   		movq	%rdx, %rdi
 300:C:/Users/victim/Desktop/dangerous/yuziakicin/UEFI/UEFI/Backend/gnu-efi-3.0.18/lib\misc.c ****     VOID        *VarBuf;
 764              		.loc 1 300 5 is_stmt 1 view .LVU174
 301:C:/Users/victim/Desktop/dangerous/yuziakicin/UEFI/UEFI/Backend/gnu-efi-3.0.18/lib\misc.c ****     EFI_STATUS  Status;
 765              		.loc 1 301 5 view .LVU175
 302:C:/Users/victim/Desktop/dangerous/yuziakicin/UEFI/UEFI/Backend/gnu-efi-3.0.18/lib\misc.c **** 
 303:C:/Users/victim/Desktop/dangerous/yuziakicin/UEFI/UEFI/Backend/gnu-efi-3.0.18/lib\misc.c ****     VarBuf = LibGetVariable(VarName,VarGuid);
 766              		.loc 1 303 5 view .LVU176
 767              		.loc 1 303 14 is_stmt 0 view .LVU177
 768 030e E8DBFFFF 		call	LibGetVariable
 768      FF
 769              	.LVL65:
 770              		.loc 1 303 14 view .LVU178
 771 0313 4889C3   		movq	%rax, %rbx
 772              	.LVL66:
 304:C:/Users/victim/Desktop/dangerous/yuziakicin/UEFI/UEFI/Backend/gnu-efi-3.0.18/lib\misc.c **** 
 305:C:/Users/victim/Desktop/dangerous/yuziakicin/UEFI/UEFI/Backend/gnu-efi-3.0.18/lib\misc.c ****     Status = EFI_NOT_FOUND;
 773              		.loc 1 305 5 is_stmt 1 view .LVU179
 306:C:/Users/victim/Desktop/dangerous/yuziakicin/UEFI/UEFI/Backend/gnu-efi-3.0.18/lib\misc.c **** 
 307:C:/Users/victim/Desktop/dangerous/yuziakicin/UEFI/UEFI/Backend/gnu-efi-3.0.18/lib\misc.c ****     if (VarBuf) {
 774              		.loc 1 307 5 view .LVU180
 775              		.loc 1 307 8 is_stmt 0 view .LVU181
 776 0316 4885C0   		testq	%rax, %rax
 777 0319 7441     		je	.L40
 308:C:/Users/victim/Desktop/dangerous/yuziakicin/UEFI/UEFI/Backend/gnu-efi-3.0.18/lib\misc.c ****         //
 309:C:/Users/victim/Desktop/dangerous/yuziakicin/UEFI/UEFI/Backend/gnu-efi-3.0.18/lib\misc.c ****         // Delete variable from Storage
 310:C:/Users/victim/Desktop/dangerous/yuziakicin/UEFI/UEFI/Backend/gnu-efi-3.0.18/lib\misc.c ****         //
 311:C:/Users/victim/Desktop/dangerous/yuziakicin/UEFI/UEFI/Backend/gnu-efi-3.0.18/lib\misc.c ****         Status = uefi_call_wrapper(
 778              		.loc 1 311 9 is_stmt 1 view .LVU182
 779              		.loc 1 311 18 is_stmt 0 view .LVU183
 780 031b 488B0500 		movq	.refptr.RT(%rip), %rax
 780      000000
 781              	.LVL67:
 782              		.loc 1 311 18 view .LVU184
 783 0322 488B00   		movq	(%rax), %rax
 784 0325 488B4058 		movq	88(%rax), %rax
 785 0329 48C74424 		movq	$0, 32(%rsp)
 785      20000000 
 785      00
 786 0332 41B90000 		movl	$0, %r9d
 786      0000
 787 0338 41B80700 		movl	$7, %r8d
 787      0000
 788 033e 4889FA   		movq	%rdi, %rdx
 789 0341 4889F1   		movq	%rsi, %rcx
 790 0344 FFD0     		call	*%rax
 791              	.LVL68:
 792 0346 4889C6   		movq	%rax, %rsi
 793              	.LVL69:
 312:C:/Users/victim/Desktop/dangerous/yuziakicin/UEFI/UEFI/Backend/gnu-efi-3.0.18/lib\misc.c **** 		    RT->SetVariable,
 313:C:/Users/victim/Desktop/dangerous/yuziakicin/UEFI/UEFI/Backend/gnu-efi-3.0.18/lib\misc.c **** 			5,
 314:C:/Users/victim/Desktop/dangerous/yuziakicin/UEFI/UEFI/Backend/gnu-efi-3.0.18/lib\misc.c ****                     VarName, VarGuid,
 315:C:/Users/victim/Desktop/dangerous/yuziakicin/UEFI/UEFI/Backend/gnu-efi-3.0.18/lib\misc.c ****                     EFI_VARIABLE_BOOTSERVICE_ACCESS | EFI_VARIABLE_RUNTIME_ACCESS | EFI_VARIABLE_NO
 316:C:/Users/victim/Desktop/dangerous/yuziakicin/UEFI/UEFI/Backend/gnu-efi-3.0.18/lib\misc.c ****                     0, NULL
 317:C:/Users/victim/Desktop/dangerous/yuziakicin/UEFI/UEFI/Backend/gnu-efi-3.0.18/lib\misc.c ****                  );
 318:C:/Users/victim/Desktop/dangerous/yuziakicin/UEFI/UEFI/Backend/gnu-efi-3.0.18/lib\misc.c ****         ASSERT (!EFI_ERROR(Status));
 794              		.loc 1 318 36 is_stmt 1 view .LVU185
 319:C:/Users/victim/Desktop/dangerous/yuziakicin/UEFI/UEFI/Backend/gnu-efi-3.0.18/lib\misc.c ****         FreePool(VarBuf);
 795              		.loc 1 319 9 view .LVU186
 796 0349 4889D9   		movq	%rbx, %rcx
 797 034c E8EBFCFF 		call	FreePool
 797      FF
 798              	.LVL70:
 799              	.L38:
 320:C:/Users/victim/Desktop/dangerous/yuziakicin/UEFI/UEFI/Backend/gnu-efi-3.0.18/lib\misc.c ****     }
 321:C:/Users/victim/Desktop/dangerous/yuziakicin/UEFI/UEFI/Backend/gnu-efi-3.0.18/lib\misc.c **** 
 322:C:/Users/victim/Desktop/dangerous/yuziakicin/UEFI/UEFI/Backend/gnu-efi-3.0.18/lib\misc.c ****     return (Status);
 323:C:/Users/victim/Desktop/dangerous/yuziakicin/UEFI/UEFI/Backend/gnu-efi-3.0.18/lib\misc.c **** }
 800              		.loc 1 323 1 is_stmt 0 view .LVU187
 801 0351 4889F0   		movq	%rsi, %rax
 802 0354 4883C430 		addq	$48, %rsp
 803              		.cfi_remember_state
 804              		.cfi_def_cfa_offset 32
 805 0358 5B       		popq	%rbx
 806              		.cfi_restore 3
 807              		.cfi_def_cfa_offset 24
 808              	.LVL71:
 809              		.loc 1 323 1 view .LVU188
 810 0359 5E       		popq	%rsi
 811              		.cfi_restore 4
 812              		.cfi_def_cfa_offset 16
 813 035a 5F       		popq	%rdi
 814              		.cfi_restore 5
 815              		.cfi_def_cfa_offset 8
 816              	.LVL72:
 817              		.loc 1 323 1 view .LVU189
 818 035b C3       		ret
 819              	.LVL73:
 820              	.L40:
 821              		.cfi_restore_state
 305:C:/Users/victim/Desktop/dangerous/yuziakicin/UEFI/UEFI/Backend/gnu-efi-3.0.18/lib\misc.c **** 
 822              		.loc 1 305 12 view .LVU190
 823 035c 48BE0E00 		movabsq	$-9223372036854775794, %rsi
 823      00000000 
 823      0080
 824              	.LVL74:
 322:C:/Users/victim/Desktop/dangerous/yuziakicin/UEFI/UEFI/Backend/gnu-efi-3.0.18/lib\misc.c **** }
 825              		.loc 1 322 5 is_stmt 1 view .LVU191
 322:C:/Users/victim/Desktop/dangerous/yuziakicin/UEFI/UEFI/Backend/gnu-efi-3.0.18/lib\misc.c **** }
 826              		.loc 1 322 12 is_stmt 0 view .LVU192
 827 0366 EBE9     		jmp	.L38
 828              		.cfi_endproc
 829              	.LFE14:
 830              		.seh_endproc
 831              		.globl	LibSetNVVariable
 833              		.seh_proc	LibSetNVVariable
 834              	LibSetNVVariable:
 835              	.LVL75:
 836              	.LFB15:
 324:C:/Users/victim/Desktop/dangerous/yuziakicin/UEFI/UEFI/Backend/gnu-efi-3.0.18/lib\misc.c **** 
 325:C:/Users/victim/Desktop/dangerous/yuziakicin/UEFI/UEFI/Backend/gnu-efi-3.0.18/lib\misc.c **** EFI_STATUS
 326:C:/Users/victim/Desktop/dangerous/yuziakicin/UEFI/UEFI/Backend/gnu-efi-3.0.18/lib\misc.c **** LibSetNVVariable (
 327:C:/Users/victim/Desktop/dangerous/yuziakicin/UEFI/UEFI/Backend/gnu-efi-3.0.18/lib\misc.c ****     IN CHAR16   *VarName,
 328:C:/Users/victim/Desktop/dangerous/yuziakicin/UEFI/UEFI/Backend/gnu-efi-3.0.18/lib\misc.c ****     IN EFI_GUID *VarGuid,
 329:C:/Users/victim/Desktop/dangerous/yuziakicin/UEFI/UEFI/Backend/gnu-efi-3.0.18/lib\misc.c ****     IN UINTN	 DataSize,
 330:C:/Users/victim/Desktop/dangerous/yuziakicin/UEFI/UEFI/Backend/gnu-efi-3.0.18/lib\misc.c ****     IN VOID     *Data
 331:C:/Users/victim/Desktop/dangerous/yuziakicin/UEFI/UEFI/Backend/gnu-efi-3.0.18/lib\misc.c ****     )
 332:C:/Users/victim/Desktop/dangerous/yuziakicin/UEFI/UEFI/Backend/gnu-efi-3.0.18/lib\misc.c **** {
 837              		.loc 1 332 1 is_stmt 1 view -0
 838              		.cfi_startproc
 839              		.loc 1 332 1 is_stmt 0 view .LVU194
 840 0368 4883EC38 		subq	$56, %rsp
 841              		.seh_stackalloc	56
 842              		.cfi_def_cfa_offset 64
 843              		.seh_endprologue
 333:C:/Users/victim/Desktop/dangerous/yuziakicin/UEFI/UEFI/Backend/gnu-efi-3.0.18/lib\misc.c ****     EFI_STATUS  Status;
 844              		.loc 1 333 5 is_stmt 1 view .LVU195
 334:C:/Users/victim/Desktop/dangerous/yuziakicin/UEFI/UEFI/Backend/gnu-efi-3.0.18/lib\misc.c **** 
 335:C:/Users/victim/Desktop/dangerous/yuziakicin/UEFI/UEFI/Backend/gnu-efi-3.0.18/lib\misc.c ****     Status = uefi_call_wrapper(
 845              		.loc 1 335 5 view .LVU196
 846              		.loc 1 335 14 is_stmt 0 view .LVU197
 847 036c 488B0500 		movq	.refptr.RT(%rip), %rax
 847      000000
 848 0373 488B00   		movq	(%rax), %rax
 849 0376 488B4058 		movq	88(%rax), %rax
 850 037a 4C894C24 		movq	%r9, 32(%rsp)
 850      20
 851 037f 4D89C1   		movq	%r8, %r9
 852              	.LVL76:
 853              		.loc 1 335 14 view .LVU198
 854 0382 41B80700 		movl	$7, %r8d
 854      0000
 855              	.LVL77:
 856              		.loc 1 335 14 view .LVU199
 857 0388 FFD0     		call	*%rax
 858              	.LVL78:
 336:C:/Users/victim/Desktop/dangerous/yuziakicin/UEFI/UEFI/Backend/gnu-efi-3.0.18/lib\misc.c **** 	    RT->SetVariable,
 337:C:/Users/victim/Desktop/dangerous/yuziakicin/UEFI/UEFI/Backend/gnu-efi-3.0.18/lib\misc.c **** 	    5,
 338:C:/Users/victim/Desktop/dangerous/yuziakicin/UEFI/UEFI/Backend/gnu-efi-3.0.18/lib\misc.c **** 	    VarName, VarGuid,
 339:C:/Users/victim/Desktop/dangerous/yuziakicin/UEFI/UEFI/Backend/gnu-efi-3.0.18/lib\misc.c **** 	    EFI_VARIABLE_BOOTSERVICE_ACCESS | EFI_VARIABLE_RUNTIME_ACCESS | EFI_VARIABLE_NON_VOLATILE,
 340:C:/Users/victim/Desktop/dangerous/yuziakicin/UEFI/UEFI/Backend/gnu-efi-3.0.18/lib\misc.c **** 	    DataSize, Data
 341:C:/Users/victim/Desktop/dangerous/yuziakicin/UEFI/UEFI/Backend/gnu-efi-3.0.18/lib\misc.c **** 	    );
 342:C:/Users/victim/Desktop/dangerous/yuziakicin/UEFI/UEFI/Backend/gnu-efi-3.0.18/lib\misc.c ****     ASSERT (!EFI_ERROR(Status));
 859              		.loc 1 342 32 is_stmt 1 view .LVU200
 343:C:/Users/victim/Desktop/dangerous/yuziakicin/UEFI/UEFI/Backend/gnu-efi-3.0.18/lib\misc.c ****     return (Status);
 860              		.loc 1 343 5 view .LVU201
 344:C:/Users/victim/Desktop/dangerous/yuziakicin/UEFI/UEFI/Backend/gnu-efi-3.0.18/lib\misc.c **** }
 861              		.loc 1 344 1 is_stmt 0 view .LVU202
 862 038a 4883C438 		addq	$56, %rsp
 863              		.cfi_def_cfa_offset 8
 864 038e C3       		ret
 865              		.cfi_endproc
 866              	.LFE15:
 867              		.seh_endproc
 868              		.globl	LibSetVariable
 870              		.seh_proc	LibSetVariable
 871              	LibSetVariable:
 872              	.LVL79:
 873              	.LFB16:
 345:C:/Users/victim/Desktop/dangerous/yuziakicin/UEFI/UEFI/Backend/gnu-efi-3.0.18/lib\misc.c **** 
 346:C:/Users/victim/Desktop/dangerous/yuziakicin/UEFI/UEFI/Backend/gnu-efi-3.0.18/lib\misc.c **** EFI_STATUS
 347:C:/Users/victim/Desktop/dangerous/yuziakicin/UEFI/UEFI/Backend/gnu-efi-3.0.18/lib\misc.c **** LibSetVariable (
 348:C:/Users/victim/Desktop/dangerous/yuziakicin/UEFI/UEFI/Backend/gnu-efi-3.0.18/lib\misc.c ****     IN CHAR16   *VarName,
 349:C:/Users/victim/Desktop/dangerous/yuziakicin/UEFI/UEFI/Backend/gnu-efi-3.0.18/lib\misc.c ****     IN EFI_GUID *VarGuid,
 350:C:/Users/victim/Desktop/dangerous/yuziakicin/UEFI/UEFI/Backend/gnu-efi-3.0.18/lib\misc.c ****     IN UINTN	 DataSize,
 351:C:/Users/victim/Desktop/dangerous/yuziakicin/UEFI/UEFI/Backend/gnu-efi-3.0.18/lib\misc.c ****     IN VOID     *Data
 352:C:/Users/victim/Desktop/dangerous/yuziakicin/UEFI/UEFI/Backend/gnu-efi-3.0.18/lib\misc.c ****     )
 353:C:/Users/victim/Desktop/dangerous/yuziakicin/UEFI/UEFI/Backend/gnu-efi-3.0.18/lib\misc.c **** {
 874              		.loc 1 353 1 is_stmt 1 view -0
 875              		.cfi_startproc
 876              		.loc 1 353 1 is_stmt 0 view .LVU204
 877 038f 4883EC38 		subq	$56, %rsp
 878              		.seh_stackalloc	56
 879              		.cfi_def_cfa_offset 64
 880              		.seh_endprologue
 354:C:/Users/victim/Desktop/dangerous/yuziakicin/UEFI/UEFI/Backend/gnu-efi-3.0.18/lib\misc.c ****     EFI_STATUS  Status;
 881              		.loc 1 354 5 is_stmt 1 view .LVU205
 355:C:/Users/victim/Desktop/dangerous/yuziakicin/UEFI/UEFI/Backend/gnu-efi-3.0.18/lib\misc.c **** 
 356:C:/Users/victim/Desktop/dangerous/yuziakicin/UEFI/UEFI/Backend/gnu-efi-3.0.18/lib\misc.c ****     Status = uefi_call_wrapper(
 882              		.loc 1 356 5 view .LVU206
 883              		.loc 1 356 14 is_stmt 0 view .LVU207
 884 0393 488B0500 		movq	.refptr.RT(%rip), %rax
 884      000000
 885 039a 488B00   		movq	(%rax), %rax
 886 039d 488B4058 		movq	88(%rax), %rax
 887 03a1 4C894C24 		movq	%r9, 32(%rsp)
 887      20
 888 03a6 4D89C1   		movq	%r8, %r9
 889              	.LVL80:
 890              		.loc 1 356 14 view .LVU208
 891 03a9 41B80600 		movl	$6, %r8d
 891      0000
 892              	.LVL81:
 893              		.loc 1 356 14 view .LVU209
 894 03af FFD0     		call	*%rax
 895              	.LVL82:
 357:C:/Users/victim/Desktop/dangerous/yuziakicin/UEFI/UEFI/Backend/gnu-efi-3.0.18/lib\misc.c **** 	    RT->SetVariable,
 358:C:/Users/victim/Desktop/dangerous/yuziakicin/UEFI/UEFI/Backend/gnu-efi-3.0.18/lib\misc.c **** 	    5,
 359:C:/Users/victim/Desktop/dangerous/yuziakicin/UEFI/UEFI/Backend/gnu-efi-3.0.18/lib\misc.c **** 	    VarName, VarGuid,
 360:C:/Users/victim/Desktop/dangerous/yuziakicin/UEFI/UEFI/Backend/gnu-efi-3.0.18/lib\misc.c **** 	    EFI_VARIABLE_BOOTSERVICE_ACCESS | EFI_VARIABLE_RUNTIME_ACCESS,
 361:C:/Users/victim/Desktop/dangerous/yuziakicin/UEFI/UEFI/Backend/gnu-efi-3.0.18/lib\misc.c **** 	    DataSize, Data
 362:C:/Users/victim/Desktop/dangerous/yuziakicin/UEFI/UEFI/Backend/gnu-efi-3.0.18/lib\misc.c **** 	    );
 363:C:/Users/victim/Desktop/dangerous/yuziakicin/UEFI/UEFI/Backend/gnu-efi-3.0.18/lib\misc.c ****     ASSERT (!EFI_ERROR(Status));
 896              		.loc 1 363 32 is_stmt 1 view .LVU210
 364:C:/Users/victim/Desktop/dangerous/yuziakicin/UEFI/UEFI/Backend/gnu-efi-3.0.18/lib\misc.c ****     return (Status);
 897              		.loc 1 364 5 view .LVU211
 365:C:/Users/victim/Desktop/dangerous/yuziakicin/UEFI/UEFI/Backend/gnu-efi-3.0.18/lib\misc.c **** }
 898              		.loc 1 365 1 is_stmt 0 view .LVU212
 899 03b1 4883C438 		addq	$56, %rsp
 900              		.cfi_def_cfa_offset 8
 901 03b5 C3       		ret
 902              		.cfi_endproc
 903              	.LFE16:
 904              		.seh_endproc
 905              		.section .rdata,"dr"
 906              		.align 2
 907              	.LC0:
 908 0000 42006F00 		.ascii "B\0o\0o\0t\0O\0r\0d\0e\0r\0\0\0"
 908      6F007400 
 908      4F007200 
 908      64006500 
 908      72000000 
 909 0014 00000000 		.text
 909      00000000 
 909      00000000 
 910              		.globl	LibInsertToTailOfBootOrder
 912              		.seh_proc	LibInsertToTailOfBootOrder
 913              	LibInsertToTailOfBootOrder:
 914              	.LVL83:
 915              	.LFB17:
 366:C:/Users/victim/Desktop/dangerous/yuziakicin/UEFI/UEFI/Backend/gnu-efi-3.0.18/lib\misc.c **** 
 367:C:/Users/victim/Desktop/dangerous/yuziakicin/UEFI/UEFI/Backend/gnu-efi-3.0.18/lib\misc.c **** EFI_STATUS
 368:C:/Users/victim/Desktop/dangerous/yuziakicin/UEFI/UEFI/Backend/gnu-efi-3.0.18/lib\misc.c **** LibInsertToTailOfBootOrder (
 369:C:/Users/victim/Desktop/dangerous/yuziakicin/UEFI/UEFI/Backend/gnu-efi-3.0.18/lib\misc.c ****     IN  UINT16  BootOption,
 370:C:/Users/victim/Desktop/dangerous/yuziakicin/UEFI/UEFI/Backend/gnu-efi-3.0.18/lib\misc.c ****     IN  BOOLEAN OnlyInsertIfEmpty
 371:C:/Users/victim/Desktop/dangerous/yuziakicin/UEFI/UEFI/Backend/gnu-efi-3.0.18/lib\misc.c ****     )
 372:C:/Users/victim/Desktop/dangerous/yuziakicin/UEFI/UEFI/Backend/gnu-efi-3.0.18/lib\misc.c **** {
 916              		.loc 1 372 1 is_stmt 1 view -0
 917              		.cfi_startproc
 918              		.loc 1 372 1 is_stmt 0 view .LVU214
 919 03b6 57       		pushq	%rdi
 920              		.seh_pushreg	%rdi
 921              		.cfi_def_cfa_offset 16
 922              		.cfi_offset 5, -16
 923 03b7 56       		pushq	%rsi
 924              		.seh_pushreg	%rsi
 925              		.cfi_def_cfa_offset 24
 926              		.cfi_offset 4, -24
 927 03b8 53       		pushq	%rbx
 928              		.seh_pushreg	%rbx
 929              		.cfi_def_cfa_offset 32
 930              		.cfi_offset 3, -32
 931 03b9 4883EC40 		subq	$64, %rsp
 932              		.seh_stackalloc	64
 933              		.cfi_def_cfa_offset 96
 934              		.seh_endprologue
 935 03bd 89CF     		movl	%ecx, %edi
 936 03bf 89D3     		movl	%edx, %ebx
 373:C:/Users/victim/Desktop/dangerous/yuziakicin/UEFI/UEFI/Backend/gnu-efi-3.0.18/lib\misc.c ****     UINT16      *BootOptionArray;
 937              		.loc 1 373 5 is_stmt 1 view .LVU215
 374:C:/Users/victim/Desktop/dangerous/yuziakicin/UEFI/UEFI/Backend/gnu-efi-3.0.18/lib\misc.c ****     UINT16      *NewBootOptionArray;
 938              		.loc 1 374 5 view .LVU216
 375:C:/Users/victim/Desktop/dangerous/yuziakicin/UEFI/UEFI/Backend/gnu-efi-3.0.18/lib\misc.c ****     UINTN       VarSize;
 939              		.loc 1 375 5 view .LVU217
 376:C:/Users/victim/Desktop/dangerous/yuziakicin/UEFI/UEFI/Backend/gnu-efi-3.0.18/lib\misc.c ****     UINTN       Index;
 940              		.loc 1 376 5 view .LVU218
 377:C:/Users/victim/Desktop/dangerous/yuziakicin/UEFI/UEFI/Backend/gnu-efi-3.0.18/lib\misc.c ****     EFI_STATUS  Status;
 941              		.loc 1 377 5 view .LVU219
 378:C:/Users/victim/Desktop/dangerous/yuziakicin/UEFI/UEFI/Backend/gnu-efi-3.0.18/lib\misc.c **** 
 379:C:/Users/victim/Desktop/dangerous/yuziakicin/UEFI/UEFI/Backend/gnu-efi-3.0.18/lib\misc.c ****     BootOptionArray = LibGetVariableAndSize (VarBootOrder, &EfiGlobalVariable, &VarSize);    
 942              		.loc 1 379 5 view .LVU220
 943              		.loc 1 379 23 is_stmt 0 view .LVU221
 944 03c1 4C8D4424 		leaq	56(%rsp), %r8
 944      38
 945 03c6 488B1500 		movq	.refptr.gEfiGlobalVariableGuid(%rip), %rdx
 945      000000
 946              	.LVL84:
 947              		.loc 1 379 23 view .LVU222
 948 03cd 488D0D00 		leaq	.LC0(%rip), %rcx
 948      000000
 949              	.LVL85:
 950              		.loc 1 379 23 view .LVU223
 951 03d4 E87AFEFF 		call	LibGetVariableAndSize
 951      FF
 952              	.LVL86:
 953 03d9 4889C6   		movq	%rax, %rsi
 954              	.LVL87:
 380:C:/Users/victim/Desktop/dangerous/yuziakicin/UEFI/UEFI/Backend/gnu-efi-3.0.18/lib\misc.c ****     if (VarSize != 0 && OnlyInsertIfEmpty) {
 955              		.loc 1 380 5 is_stmt 1 view .LVU224
 956              		.loc 1 380 17 is_stmt 0 view .LVU225
 957 03dc 488B4C24 		movq	56(%rsp), %rcx
 957      38
 958              		.loc 1 380 8 view .LVU226
 959 03e1 4885C9   		testq	%rcx, %rcx
 960 03e4 7404     		je	.L44
 961              		.loc 1 380 22 discriminator 1 view .LVU227
 962 03e6 84DB     		testb	%bl, %bl
 963 03e8 7521     		jne	.L50
 964              	.L44:
 381:C:/Users/victim/Desktop/dangerous/yuziakicin/UEFI/UEFI/Backend/gnu-efi-3.0.18/lib\misc.c ****         if (BootOptionArray) {
 382:C:/Users/victim/Desktop/dangerous/yuziakicin/UEFI/UEFI/Backend/gnu-efi-3.0.18/lib\misc.c ****             FreePool (BootOptionArray);
 383:C:/Users/victim/Desktop/dangerous/yuziakicin/UEFI/UEFI/Backend/gnu-efi-3.0.18/lib\misc.c ****         }
 384:C:/Users/victim/Desktop/dangerous/yuziakicin/UEFI/UEFI/Backend/gnu-efi-3.0.18/lib\misc.c ****         return EFI_UNSUPPORTED;
 385:C:/Users/victim/Desktop/dangerous/yuziakicin/UEFI/UEFI/Backend/gnu-efi-3.0.18/lib\misc.c ****     }
 386:C:/Users/victim/Desktop/dangerous/yuziakicin/UEFI/UEFI/Backend/gnu-efi-3.0.18/lib\misc.c **** 
 387:C:/Users/victim/Desktop/dangerous/yuziakicin/UEFI/UEFI/Backend/gnu-efi-3.0.18/lib\misc.c ****     VarSize += sizeof(UINT16);
 965              		.loc 1 387 5 is_stmt 1 view .LVU228
 966              		.loc 1 387 13 is_stmt 0 view .LVU229
 967 03ea 4883C102 		addq	$2, %rcx
 968 03ee 48894C24 		movq	%rcx, 56(%rsp)
 968      38
 388:C:/Users/victim/Desktop/dangerous/yuziakicin/UEFI/UEFI/Backend/gnu-efi-3.0.18/lib\misc.c ****     NewBootOptionArray = AllocatePool (VarSize);
 969              		.loc 1 388 5 is_stmt 1 view .LVU230
 970              		.loc 1 388 26 is_stmt 0 view .LVU231
 971 03f3 E808FCFF 		call	AllocatePool
 971      FF
 972              	.LVL88:
 973              		.loc 1 388 26 view .LVU232
 974 03f8 4889C3   		movq	%rax, %rbx
 975              	.LVL89:
 389:C:/Users/victim/Desktop/dangerous/yuziakicin/UEFI/UEFI/Backend/gnu-efi-3.0.18/lib\misc.c ****     if (!NewBootOptionArray)
 976              		.loc 1 389 5 is_stmt 1 view .LVU233
 977              		.loc 1 389 8 is_stmt 0 view .LVU234
 978 03fb 4885C0   		testq	%rax, %rax
 979 03fe 0F849200 		je	.L49
 979      0000
 390:C:/Users/victim/Desktop/dangerous/yuziakicin/UEFI/UEFI/Backend/gnu-efi-3.0.18/lib\misc.c ****         return EFI_OUT_OF_RESOURCES;
 391:C:/Users/victim/Desktop/dangerous/yuziakicin/UEFI/UEFI/Backend/gnu-efi-3.0.18/lib\misc.c **** 
 392:C:/Users/victim/Desktop/dangerous/yuziakicin/UEFI/UEFI/Backend/gnu-efi-3.0.18/lib\misc.c ****     for (Index = 0; Index < ((VarSize/sizeof(UINT16)) - 1); Index++) {
 980              		.loc 1 392 16 view .LVU235
 981 0404 BA000000 		movl	$0, %edx
 981      00
 982 0409 EB25     		jmp	.L47
 983              	.LVL90:
 984              	.L50:
 381:C:/Users/victim/Desktop/dangerous/yuziakicin/UEFI/UEFI/Backend/gnu-efi-3.0.18/lib\misc.c ****             FreePool (BootOptionArray);
 985              		.loc 1 381 9 is_stmt 1 view .LVU236
 381:C:/Users/victim/Desktop/dangerous/yuziakicin/UEFI/UEFI/Backend/gnu-efi-3.0.18/lib\misc.c ****             FreePool (BootOptionArray);
 986              		.loc 1 381 12 is_stmt 0 view .LVU237
 987 040b 4885C0   		testq	%rax, %rax
 988 040e 7408     		je	.L45
 382:C:/Users/victim/Desktop/dangerous/yuziakicin/UEFI/UEFI/Backend/gnu-efi-3.0.18/lib\misc.c ****         }
 989              		.loc 1 382 13 is_stmt 1 view .LVU238
 990 0410 4889C1   		movq	%rax, %rcx
 991 0413 E824FCFF 		call	FreePool
 991      FF
 992              	.LVL91:
 993              	.L45:
 384:C:/Users/victim/Desktop/dangerous/yuziakicin/UEFI/UEFI/Backend/gnu-efi-3.0.18/lib\misc.c ****     }
 994              		.loc 1 384 9 view .LVU239
 384:C:/Users/victim/Desktop/dangerous/yuziakicin/UEFI/UEFI/Backend/gnu-efi-3.0.18/lib\misc.c ****     }
 995              		.loc 1 384 16 is_stmt 0 view .LVU240
 996 0418 48BF0300 		movabsq	$-9223372036854775805, %rdi
 996      00000000 
 996      0080
 997              	.LVL92:
 384:C:/Users/victim/Desktop/dangerous/yuziakicin/UEFI/UEFI/Backend/gnu-efi-3.0.18/lib\misc.c ****     }
 998              		.loc 1 384 16 view .LVU241
 999 0422 EB67     		jmp	.L43
 1000              	.LVL93:
 1001              	.L48:
 393:C:/Users/victim/Desktop/dangerous/yuziakicin/UEFI/UEFI/Backend/gnu-efi-3.0.18/lib\misc.c ****         NewBootOptionArray[Index] = BootOptionArray[Index];
 1002              		.loc 1 393 9 is_stmt 1 view .LVU242
 1003              		.loc 1 393 52 is_stmt 0 view .LVU243
 1004 0424 0FB70456 		movzwl	(%rsi,%rdx,2), %eax
 1005              		.loc 1 393 35 view .LVU244
 1006 0428 66890453 		movw	%ax, (%rbx,%rdx,2)
 392:C:/Users/victim/Desktop/dangerous/yuziakicin/UEFI/UEFI/Backend/gnu-efi-3.0.18/lib\misc.c ****         NewBootOptionArray[Index] = BootOptionArray[Index];
 1007              		.loc 1 392 66 is_stmt 1 discriminator 3 view .LVU245
 1008 042c 4883C201 		addq	$1, %rdx
 1009              	.LVL94:
 1010              	.L47:
 392:C:/Users/victim/Desktop/dangerous/yuziakicin/UEFI/UEFI/Backend/gnu-efi-3.0.18/lib\misc.c ****         NewBootOptionArray[Index] = BootOptionArray[Index];
 1011              		.loc 1 392 27 discriminator 1 view .LVU246
 392:C:/Users/victim/Desktop/dangerous/yuziakicin/UEFI/UEFI/Backend/gnu-efi-3.0.18/lib\misc.c ****         NewBootOptionArray[Index] = BootOptionArray[Index];
 1012              		.loc 1 392 38 is_stmt 0 discriminator 1 view .LVU247
 1013 0430 488B4424 		movq	56(%rsp), %rax
 1013      38
 1014 0435 48D1E8   		shrq	%rax
 392:C:/Users/victim/Desktop/dangerous/yuziakicin/UEFI/UEFI/Backend/gnu-efi-3.0.18/lib\misc.c ****         NewBootOptionArray[Index] = BootOptionArray[Index];
 1015              		.loc 1 392 55 discriminator 1 view .LVU248
 1016 0438 4883E801 		subq	$1, %rax
 392:C:/Users/victim/Desktop/dangerous/yuziakicin/UEFI/UEFI/Backend/gnu-efi-3.0.18/lib\misc.c ****         NewBootOptionArray[Index] = BootOptionArray[Index];
 1017              		.loc 1 392 27 discriminator 1 view .LVU249
 1018 043c 4839C2   		cmpq	%rax, %rdx
 1019 043f 72E3     		jb	.L48
 394:C:/Users/victim/Desktop/dangerous/yuziakicin/UEFI/UEFI/Backend/gnu-efi-3.0.18/lib\misc.c ****     }
 395:C:/Users/victim/Desktop/dangerous/yuziakicin/UEFI/UEFI/Backend/gnu-efi-3.0.18/lib\misc.c ****     //
 396:C:/Users/victim/Desktop/dangerous/yuziakicin/UEFI/UEFI/Backend/gnu-efi-3.0.18/lib\misc.c ****     // Insert in the tail of the array
 397:C:/Users/victim/Desktop/dangerous/yuziakicin/UEFI/UEFI/Backend/gnu-efi-3.0.18/lib\misc.c ****     //
 398:C:/Users/victim/Desktop/dangerous/yuziakicin/UEFI/UEFI/Backend/gnu-efi-3.0.18/lib\misc.c ****     NewBootOptionArray[Index] = BootOption;
 1020              		.loc 1 398 5 is_stmt 1 view .LVU250
 1021              		.loc 1 398 31 is_stmt 0 view .LVU251
 1022 0441 66893C53 		movw	%di, (%rbx,%rdx,2)
 399:C:/Users/victim/Desktop/dangerous/yuziakicin/UEFI/UEFI/Backend/gnu-efi-3.0.18/lib\misc.c **** 
 400:C:/Users/victim/Desktop/dangerous/yuziakicin/UEFI/UEFI/Backend/gnu-efi-3.0.18/lib\misc.c ****     Status = uefi_call_wrapper(
 1023              		.loc 1 400 5 is_stmt 1 view .LVU252
 1024              		.loc 1 400 14 is_stmt 0 view .LVU253
 1025 0445 488B0500 		movq	.refptr.RT(%rip), %rax
 1025      000000
 1026 044c 488B00   		movq	(%rax), %rax
 1027 044f 488B4058 		movq	88(%rax), %rax
 1028 0453 48895C24 		movq	%rbx, 32(%rsp)
 1028      20
 1029 0458 4C8B4C24 		movq	56(%rsp), %r9
 1029      38
 1030 045d 41B80700 		movl	$7, %r8d
 1030      0000
 1031 0463 488B1500 		movq	.refptr.gEfiGlobalVariableGuid(%rip), %rdx
 1031      000000
 1032              	.LVL95:
 1033              		.loc 1 400 14 view .LVU254
 1034 046a 488D0D00 		leaq	.LC0(%rip), %rcx
 1034      000000
 1035 0471 FFD0     		call	*%rax
 1036              	.LVL96:
 1037 0473 4889C7   		movq	%rax, %rdi
 1038              	.LVL97:
 401:C:/Users/victim/Desktop/dangerous/yuziakicin/UEFI/UEFI/Backend/gnu-efi-3.0.18/lib\misc.c **** 		RT->SetVariable,
 402:C:/Users/victim/Desktop/dangerous/yuziakicin/UEFI/UEFI/Backend/gnu-efi-3.0.18/lib\misc.c **** 		5,
 403:C:/Users/victim/Desktop/dangerous/yuziakicin/UEFI/UEFI/Backend/gnu-efi-3.0.18/lib\misc.c ****                 VarBootOrder, &EfiGlobalVariable,
 404:C:/Users/victim/Desktop/dangerous/yuziakicin/UEFI/UEFI/Backend/gnu-efi-3.0.18/lib\misc.c ****                 EFI_VARIABLE_BOOTSERVICE_ACCESS | EFI_VARIABLE_RUNTIME_ACCESS | EFI_VARIABLE_NON_VO
 405:C:/Users/victim/Desktop/dangerous/yuziakicin/UEFI/UEFI/Backend/gnu-efi-3.0.18/lib\misc.c ****                 VarSize, (VOID*) NewBootOptionArray
 406:C:/Users/victim/Desktop/dangerous/yuziakicin/UEFI/UEFI/Backend/gnu-efi-3.0.18/lib\misc.c ****                 );
 407:C:/Users/victim/Desktop/dangerous/yuziakicin/UEFI/UEFI/Backend/gnu-efi-3.0.18/lib\misc.c **** 
 408:C:/Users/victim/Desktop/dangerous/yuziakicin/UEFI/UEFI/Backend/gnu-efi-3.0.18/lib\misc.c ****     FreePool (NewBootOptionArray);
 1039              		.loc 1 408 5 is_stmt 1 view .LVU255
 1040 0476 4889D9   		movq	%rbx, %rcx
 1041 0479 E8BEFBFF 		call	FreePool
 1041      FF
 1042              	.LVL98:
 409:C:/Users/victim/Desktop/dangerous/yuziakicin/UEFI/UEFI/Backend/gnu-efi-3.0.18/lib\misc.c ****     if (BootOptionArray) {
 1043              		.loc 1 409 5 view .LVU256
 1044              		.loc 1 409 8 is_stmt 0 view .LVU257
 1045 047e 4885F6   		testq	%rsi, %rsi
 1046 0481 7408     		je	.L43
 410:C:/Users/victim/Desktop/dangerous/yuziakicin/UEFI/UEFI/Backend/gnu-efi-3.0.18/lib\misc.c ****         FreePool (BootOptionArray);
 1047              		.loc 1 410 9 is_stmt 1 view .LVU258
 1048 0483 4889F1   		movq	%rsi, %rcx
 1049 0486 E8B1FBFF 		call	FreePool
 1049      FF
 1050              	.LVL99:
 1051              	.L43:
 411:C:/Users/victim/Desktop/dangerous/yuziakicin/UEFI/UEFI/Backend/gnu-efi-3.0.18/lib\misc.c ****     }
 412:C:/Users/victim/Desktop/dangerous/yuziakicin/UEFI/UEFI/Backend/gnu-efi-3.0.18/lib\misc.c ****     return Status;
 413:C:/Users/victim/Desktop/dangerous/yuziakicin/UEFI/UEFI/Backend/gnu-efi-3.0.18/lib\misc.c **** }
 1052              		.loc 1 413 1 is_stmt 0 view .LVU259
 1053 048b 4889F8   		movq	%rdi, %rax
 1054 048e 4883C440 		addq	$64, %rsp
 1055              		.cfi_remember_state
 1056              		.cfi_def_cfa_offset 32
 1057 0492 5B       		popq	%rbx
 1058              		.cfi_restore 3
 1059              		.cfi_def_cfa_offset 24
 1060 0493 5E       		popq	%rsi
 1061              		.cfi_restore 4
 1062              		.cfi_def_cfa_offset 16
 1063              	.LVL100:
 1064              		.loc 1 413 1 view .LVU260
 1065 0494 5F       		popq	%rdi
 1066              		.cfi_restore 5
 1067              		.cfi_def_cfa_offset 8
 1068 0495 C3       		ret
 1069              	.LVL101:
 1070              	.L49:
 1071              		.cfi_restore_state
 390:C:/Users/victim/Desktop/dangerous/yuziakicin/UEFI/UEFI/Backend/gnu-efi-3.0.18/lib\misc.c **** 
 1072              		.loc 1 390 16 view .LVU261
 1073 0496 48BF0900 		movabsq	$-9223372036854775799, %rdi
 1073      00000000 
 1073      0080
 1074 04a0 EBE9     		jmp	.L43
 1075              		.cfi_endproc
 1076              	.LFE17:
 1077              		.seh_endproc
 1078              		.globl	ValidMBR
 1080              		.seh_proc	ValidMBR
 1081              	ValidMBR:
 1082              	.LVL102:
 1083              	.LFB18:
 414:C:/Users/victim/Desktop/dangerous/yuziakicin/UEFI/UEFI/Backend/gnu-efi-3.0.18/lib\misc.c **** 
 415:C:/Users/victim/Desktop/dangerous/yuziakicin/UEFI/UEFI/Backend/gnu-efi-3.0.18/lib\misc.c **** 
 416:C:/Users/victim/Desktop/dangerous/yuziakicin/UEFI/UEFI/Backend/gnu-efi-3.0.18/lib\misc.c **** BOOLEAN
 417:C:/Users/victim/Desktop/dangerous/yuziakicin/UEFI/UEFI/Backend/gnu-efi-3.0.18/lib\misc.c **** ValidMBR(
 418:C:/Users/victim/Desktop/dangerous/yuziakicin/UEFI/UEFI/Backend/gnu-efi-3.0.18/lib\misc.c ****     IN  MASTER_BOOT_RECORD  *Mbr,
 419:C:/Users/victim/Desktop/dangerous/yuziakicin/UEFI/UEFI/Backend/gnu-efi-3.0.18/lib\misc.c ****     IN  EFI_BLOCK_IO        *BlkIo
 420:C:/Users/victim/Desktop/dangerous/yuziakicin/UEFI/UEFI/Backend/gnu-efi-3.0.18/lib\misc.c ****     )
 421:C:/Users/victim/Desktop/dangerous/yuziakicin/UEFI/UEFI/Backend/gnu-efi-3.0.18/lib\misc.c **** {
 1084              		.loc 1 421 1 is_stmt 1 view -0
 1085              		.cfi_startproc
 1086              		.loc 1 421 1 is_stmt 0 view .LVU263
 1087 04a2 57       		pushq	%rdi
 1088              		.seh_pushreg	%rdi
 1089              		.cfi_def_cfa_offset 16
 1090              		.cfi_offset 5, -16
 1091 04a3 56       		pushq	%rsi
 1092              		.seh_pushreg	%rsi
 1093              		.cfi_def_cfa_offset 24
 1094              		.cfi_offset 4, -24
 1095 04a4 53       		pushq	%rbx
 1096              		.seh_pushreg	%rbx
 1097              		.cfi_def_cfa_offset 32
 1098              		.cfi_offset 3, -32
 1099              		.seh_endprologue
 1100 04a5 4989C8   		movq	%rcx, %r8
 1101 04a8 4889D3   		movq	%rdx, %rbx
 422:C:/Users/victim/Desktop/dangerous/yuziakicin/UEFI/UEFI/Backend/gnu-efi-3.0.18/lib\misc.c ****     UINT32      StartingLBA, EndingLBA;
 1102              		.loc 1 422 5 is_stmt 1 view .LVU264
 423:C:/Users/victim/Desktop/dangerous/yuziakicin/UEFI/UEFI/Backend/gnu-efi-3.0.18/lib\misc.c ****     UINT32      NewEndingLBA;
 1103              		.loc 1 423 5 view .LVU265
 424:C:/Users/victim/Desktop/dangerous/yuziakicin/UEFI/UEFI/Backend/gnu-efi-3.0.18/lib\misc.c ****     INTN        i, j;
 1104              		.loc 1 424 5 view .LVU266
 425:C:/Users/victim/Desktop/dangerous/yuziakicin/UEFI/UEFI/Backend/gnu-efi-3.0.18/lib\misc.c ****     BOOLEAN     ValidMbr;
 1105              		.loc 1 425 5 view .LVU267
 426:C:/Users/victim/Desktop/dangerous/yuziakicin/UEFI/UEFI/Backend/gnu-efi-3.0.18/lib\misc.c **** 
 427:C:/Users/victim/Desktop/dangerous/yuziakicin/UEFI/UEFI/Backend/gnu-efi-3.0.18/lib\misc.c ****     if (Mbr->Signature != MBR_SIGNATURE) {
 1106              		.loc 1 427 5 view .LVU268
 1107              		.loc 1 427 8 is_stmt 0 view .LVU269
 1108 04ab 6681B9FE 		cmpw	$-21931, 510(%rcx)
 1108      01000055 
 1108      AA
 1109 04b4 0F85B001 		jne	.L61
 1109      0000
 428:C:/Users/victim/Desktop/dangerous/yuziakicin/UEFI/UEFI/Backend/gnu-efi-3.0.18/lib\misc.c ****         //
 429:C:/Users/victim/Desktop/dangerous/yuziakicin/UEFI/UEFI/Backend/gnu-efi-3.0.18/lib\misc.c ****         // The BPB also has this signature, so it can not be used alone.
 430:C:/Users/victim/Desktop/dangerous/yuziakicin/UEFI/UEFI/Backend/gnu-efi-3.0.18/lib\misc.c ****         //
 431:C:/Users/victim/Desktop/dangerous/yuziakicin/UEFI/UEFI/Backend/gnu-efi-3.0.18/lib\misc.c ****         return FALSE;
 432:C:/Users/victim/Desktop/dangerous/yuziakicin/UEFI/UEFI/Backend/gnu-efi-3.0.18/lib\misc.c ****     } 
 433:C:/Users/victim/Desktop/dangerous/yuziakicin/UEFI/UEFI/Backend/gnu-efi-3.0.18/lib\misc.c **** 
 434:C:/Users/victim/Desktop/dangerous/yuziakicin/UEFI/UEFI/Backend/gnu-efi-3.0.18/lib\misc.c ****     ValidMbr = FALSE;
 1110              		.loc 1 434 14 view .LVU270
 1111 04ba 41B90000 		movl	$0, %r9d
 1111      0000
 435:C:/Users/victim/Desktop/dangerous/yuziakicin/UEFI/UEFI/Backend/gnu-efi-3.0.18/lib\misc.c ****     for (i=0; i<MAX_MBR_PARTITIONS; i++) {
 1112              		.loc 1 435 11 view .LVU271
 1113 04c0 41BA0000 		movl	$0, %r10d
 1113      0000
 1114 04c6 E9D70000 		jmp	.L53
 1114      00
 1115              	.LVL103:
 1116              	.L58:
 436:C:/Users/victim/Desktop/dangerous/yuziakicin/UEFI/UEFI/Backend/gnu-efi-3.0.18/lib\misc.c ****         if ( Mbr->Partition[i].OSIndicator == 0x00 || EXTRACT_UINT32(Mbr->Partition[i].SizeInLBA) =
 437:C:/Users/victim/Desktop/dangerous/yuziakicin/UEFI/UEFI/Backend/gnu-efi-3.0.18/lib\misc.c ****             continue;
 438:C:/Users/victim/Desktop/dangerous/yuziakicin/UEFI/UEFI/Backend/gnu-efi-3.0.18/lib\misc.c ****         }
 439:C:/Users/victim/Desktop/dangerous/yuziakicin/UEFI/UEFI/Backend/gnu-efi-3.0.18/lib\misc.c ****         ValidMbr = TRUE;
 440:C:/Users/victim/Desktop/dangerous/yuziakicin/UEFI/UEFI/Backend/gnu-efi-3.0.18/lib\misc.c ****         StartingLBA = EXTRACT_UINT32(Mbr->Partition[i].StartingLBA);
 441:C:/Users/victim/Desktop/dangerous/yuziakicin/UEFI/UEFI/Backend/gnu-efi-3.0.18/lib\misc.c ****         EndingLBA = StartingLBA + EXTRACT_UINT32(Mbr->Partition[i].SizeInLBA) - 1;
 442:C:/Users/victim/Desktop/dangerous/yuziakicin/UEFI/UEFI/Backend/gnu-efi-3.0.18/lib\misc.c ****         if (EndingLBA > BlkIo->Media->LastBlock) {
 443:C:/Users/victim/Desktop/dangerous/yuziakicin/UEFI/UEFI/Backend/gnu-efi-3.0.18/lib\misc.c ****             //
 444:C:/Users/victim/Desktop/dangerous/yuziakicin/UEFI/UEFI/Backend/gnu-efi-3.0.18/lib\misc.c ****             // Compatability Errata:
 445:C:/Users/victim/Desktop/dangerous/yuziakicin/UEFI/UEFI/Backend/gnu-efi-3.0.18/lib\misc.c ****             //  Some systems try to hide drive space with thier INT 13h driver
 446:C:/Users/victim/Desktop/dangerous/yuziakicin/UEFI/UEFI/Backend/gnu-efi-3.0.18/lib\misc.c ****             //  This does not hide space from the OS driver. This means the MBR
 447:C:/Users/victim/Desktop/dangerous/yuziakicin/UEFI/UEFI/Backend/gnu-efi-3.0.18/lib\misc.c ****             //  that gets created from DOS is smaller than the MBR created from 
 448:C:/Users/victim/Desktop/dangerous/yuziakicin/UEFI/UEFI/Backend/gnu-efi-3.0.18/lib\misc.c ****             //  a real OS (NT & Win98). This leads to BlkIo->LastBlock being 
 449:C:/Users/victim/Desktop/dangerous/yuziakicin/UEFI/UEFI/Backend/gnu-efi-3.0.18/lib\misc.c ****             //  wrong on some systems FDISKed by the OS.
 450:C:/Users/victim/Desktop/dangerous/yuziakicin/UEFI/UEFI/Backend/gnu-efi-3.0.18/lib\misc.c ****             //
 451:C:/Users/victim/Desktop/dangerous/yuziakicin/UEFI/UEFI/Backend/gnu-efi-3.0.18/lib\misc.c ****             //
 452:C:/Users/victim/Desktop/dangerous/yuziakicin/UEFI/UEFI/Backend/gnu-efi-3.0.18/lib\misc.c ****             if (BlkIo->Media->LastBlock < MIN_MBR_DEVICE_SIZE) {
 453:C:/Users/victim/Desktop/dangerous/yuziakicin/UEFI/UEFI/Backend/gnu-efi-3.0.18/lib\misc.c ****                 //
 454:C:/Users/victim/Desktop/dangerous/yuziakicin/UEFI/UEFI/Backend/gnu-efi-3.0.18/lib\misc.c ****                 // If this is a very small device then trust the BlkIo->LastBlock
 455:C:/Users/victim/Desktop/dangerous/yuziakicin/UEFI/UEFI/Backend/gnu-efi-3.0.18/lib\misc.c ****                 //
 456:C:/Users/victim/Desktop/dangerous/yuziakicin/UEFI/UEFI/Backend/gnu-efi-3.0.18/lib\misc.c ****                 return FALSE;
 457:C:/Users/victim/Desktop/dangerous/yuziakicin/UEFI/UEFI/Backend/gnu-efi-3.0.18/lib\misc.c ****             }
 458:C:/Users/victim/Desktop/dangerous/yuziakicin/UEFI/UEFI/Backend/gnu-efi-3.0.18/lib\misc.c **** 
 459:C:/Users/victim/Desktop/dangerous/yuziakicin/UEFI/UEFI/Backend/gnu-efi-3.0.18/lib\misc.c ****             if (EndingLBA > (BlkIo->Media->LastBlock + MBR_ERRATA_PAD)) {
 460:C:/Users/victim/Desktop/dangerous/yuziakicin/UEFI/UEFI/Backend/gnu-efi-3.0.18/lib\misc.c ****                 return FALSE;
 461:C:/Users/victim/Desktop/dangerous/yuziakicin/UEFI/UEFI/Backend/gnu-efi-3.0.18/lib\misc.c ****             }
 462:C:/Users/victim/Desktop/dangerous/yuziakicin/UEFI/UEFI/Backend/gnu-efi-3.0.18/lib\misc.c **** 
 463:C:/Users/victim/Desktop/dangerous/yuziakicin/UEFI/UEFI/Backend/gnu-efi-3.0.18/lib\misc.c ****         }
 464:C:/Users/victim/Desktop/dangerous/yuziakicin/UEFI/UEFI/Backend/gnu-efi-3.0.18/lib\misc.c ****         for (j=i+1; j<MAX_MBR_PARTITIONS; j++) {
 465:C:/Users/victim/Desktop/dangerous/yuziakicin/UEFI/UEFI/Backend/gnu-efi-3.0.18/lib\misc.c ****             if (Mbr->Partition[j].OSIndicator == 0x00 || EXTRACT_UINT32(Mbr->Partition[j].SizeInLBA
 466:C:/Users/victim/Desktop/dangerous/yuziakicin/UEFI/UEFI/Backend/gnu-efi-3.0.18/lib\misc.c ****                 continue;
 467:C:/Users/victim/Desktop/dangerous/yuziakicin/UEFI/UEFI/Backend/gnu-efi-3.0.18/lib\misc.c ****             }
 468:C:/Users/victim/Desktop/dangerous/yuziakicin/UEFI/UEFI/Backend/gnu-efi-3.0.18/lib\misc.c ****             if (   EXTRACT_UINT32(Mbr->Partition[j].StartingLBA) >= StartingLBA && 
 469:C:/Users/victim/Desktop/dangerous/yuziakicin/UEFI/UEFI/Backend/gnu-efi-3.0.18/lib\misc.c ****                    EXTRACT_UINT32(Mbr->Partition[j].StartingLBA) <= EndingLBA       ) {
 470:C:/Users/victim/Desktop/dangerous/yuziakicin/UEFI/UEFI/Backend/gnu-efi-3.0.18/lib\misc.c ****                 //
 471:C:/Users/victim/Desktop/dangerous/yuziakicin/UEFI/UEFI/Backend/gnu-efi-3.0.18/lib\misc.c ****                 // The Start of this region overlaps with the i'th region
 472:C:/Users/victim/Desktop/dangerous/yuziakicin/UEFI/UEFI/Backend/gnu-efi-3.0.18/lib\misc.c ****                 //
 473:C:/Users/victim/Desktop/dangerous/yuziakicin/UEFI/UEFI/Backend/gnu-efi-3.0.18/lib\misc.c ****                 return FALSE;
 474:C:/Users/victim/Desktop/dangerous/yuziakicin/UEFI/UEFI/Backend/gnu-efi-3.0.18/lib\misc.c ****             } 
 475:C:/Users/victim/Desktop/dangerous/yuziakicin/UEFI/UEFI/Backend/gnu-efi-3.0.18/lib\misc.c ****             NewEndingLBA = EXTRACT_UINT32(Mbr->Partition[j].StartingLBA) + EXTRACT_UINT32(Mbr->Part
 1117              		.loc 1 475 13 is_stmt 1 view .LVU272
 1118              		.loc 1 475 26 is_stmt 0 view .LVU273
 1119 04cb 8D540AFF 		leal	-1(%rdx,%rcx), %edx
 1120              	.LVL104:
 476:C:/Users/victim/Desktop/dangerous/yuziakicin/UEFI/UEFI/Backend/gnu-efi-3.0.18/lib\misc.c ****             if ( NewEndingLBA >= StartingLBA && NewEndingLBA <= EndingLBA ) {
 1121              		.loc 1 476 13 is_stmt 1 view .LVU274
 1122              		.loc 1 476 31 is_stmt 0 view .LVU275
 1123 04cf 4439CA   		cmpl	%r9d, %edx
 1124 04d2 0F93C1   		setnb	%cl
 1125              		.loc 1 476 62 view .LVU276
 1126 04d5 4139D3   		cmpl	%edx, %r11d
 1127 04d8 0F93C2   		setnb	%dl
 1128              	.LVL105:
 1129              		.loc 1 476 16 view .LVU277
 1130 04db 84D1     		testb	%dl, %cl
 1131 04dd 0F85A401 		jne	.L65
 1131      0000
 1132              	.LVL106:
 1133              	.L57:
 464:C:/Users/victim/Desktop/dangerous/yuziakicin/UEFI/UEFI/Backend/gnu-efi-3.0.18/lib\misc.c ****             if (Mbr->Partition[j].OSIndicator == 0x00 || EXTRACT_UINT32(Mbr->Partition[j].SizeInLBA
 1134              		.loc 1 464 44 is_stmt 1 discriminator 2 view .LVU278
 1135 04e3 4883C001 		addq	$1, %rax
 1136              	.LVL107:
 1137              	.L56:
 464:C:/Users/victim/Desktop/dangerous/yuziakicin/UEFI/UEFI/Backend/gnu-efi-3.0.18/lib\misc.c ****             if (Mbr->Partition[j].OSIndicator == 0x00 || EXTRACT_UINT32(Mbr->Partition[j].SizeInLBA
 1138              		.loc 1 464 22 discriminator 1 view .LVU279
 1139 04e7 4883F803 		cmpq	$3, %rax
 1140 04eb 0F8FA700 		jg	.L66
 1140      0000
 465:C:/Users/victim/Desktop/dangerous/yuziakicin/UEFI/UEFI/Backend/gnu-efi-3.0.18/lib\misc.c ****                 continue;
 1141              		.loc 1 465 13 view .LVU280
 465:C:/Users/victim/Desktop/dangerous/yuziakicin/UEFI/UEFI/Backend/gnu-efi-3.0.18/lib\misc.c ****                 continue;
 1142              		.loc 1 465 34 is_stmt 0 view .LVU281
 1143 04f1 488D501B 		leaq	27(%rax), %rdx
 1144 04f5 48C1E204 		salq	$4, %rdx
 465:C:/Users/victim/Desktop/dangerous/yuziakicin/UEFI/UEFI/Backend/gnu-efi-3.0.18/lib\misc.c ****                 continue;
 1145              		.loc 1 465 16 view .LVU282
 1146 04f9 41807C10 		cmpb	$0, 18(%r8,%rdx)
 1146      1200
 1147 04ff 74E2     		je	.L57
 465:C:/Users/victim/Desktop/dangerous/yuziakicin/UEFI/UEFI/Backend/gnu-efi-3.0.18/lib\misc.c ****                 continue;
 1148              		.loc 1 465 58 discriminator 2 view .LVU283
 1149 0501 488D501B 		leaq	27(%rax), %rdx
 1150 0505 48C1E204 		salq	$4, %rdx
 1151 0509 410FB654 		movzbl	26(%r8,%rdx), %edx
 1151      101A
 1152 050f 4889C1   		movq	%rax, %rcx
 1153 0512 48C1E104 		salq	$4, %rcx
 1154 0516 4C01C1   		addq	%r8, %rcx
 1155 0519 0FB6B1CB 		movzbl	459(%rcx), %esi
 1155      010000
 1156 0520 C1E608   		sall	$8, %esi
 1157 0523 09F2     		orl	%esi, %edx
 1158 0525 0FB6B1CC 		movzbl	460(%rcx), %esi
 1158      010000
 1159 052c C1E610   		sall	$16, %esi
 1160 052f 09F2     		orl	%esi, %edx
 1161 0531 0FB689CD 		movzbl	461(%rcx), %ecx
 1161      010000
 1162 0538 C1E118   		sall	$24, %ecx
 465:C:/Users/victim/Desktop/dangerous/yuziakicin/UEFI/UEFI/Backend/gnu-efi-3.0.18/lib\misc.c ****                 continue;
 1163              		.loc 1 465 55 discriminator 2 view .LVU284
 1164 053b 09CA     		orl	%ecx, %edx
 1165 053d 74A4     		je	.L57
 468:C:/Users/victim/Desktop/dangerous/yuziakicin/UEFI/UEFI/Backend/gnu-efi-3.0.18/lib\misc.c ****                    EXTRACT_UINT32(Mbr->Partition[j].StartingLBA) <= EndingLBA       ) {
 1166              		.loc 1 468 13 is_stmt 1 view .LVU285
 468:C:/Users/victim/Desktop/dangerous/yuziakicin/UEFI/UEFI/Backend/gnu-efi-3.0.18/lib\misc.c ****                    EXTRACT_UINT32(Mbr->Partition[j].StartingLBA) <= EndingLBA       ) {
 1167              		.loc 1 468 20 is_stmt 0 view .LVU286
 1168 053f 488D481B 		leaq	27(%rax), %rcx
 1169 0543 48C1E104 		salq	$4, %rcx
 1170 0547 410FB64C 		movzbl	22(%r8,%rcx), %ecx
 1170      0816
 1171 054d 4889C6   		movq	%rax, %rsi
 1172 0550 48C1E604 		salq	$4, %rsi
 1173 0554 4C01C6   		addq	%r8, %rsi
 1174 0557 0FB6BEC7 		movzbl	455(%rsi), %edi
 1174      010000
 1175 055e C1E708   		sall	$8, %edi
 1176 0561 09F9     		orl	%edi, %ecx
 1177 0563 0FB6BEC8 		movzbl	456(%rsi), %edi
 1177      010000
 1178 056a C1E710   		sall	$16, %edi
 1179 056d 09F9     		orl	%edi, %ecx
 1180 056f 0FB6B6C9 		movzbl	457(%rsi), %esi
 1180      010000
 1181 0576 C1E618   		sall	$24, %esi
 1182 0579 09F1     		orl	%esi, %ecx
 468:C:/Users/victim/Desktop/dangerous/yuziakicin/UEFI/UEFI/Backend/gnu-efi-3.0.18/lib\misc.c ****                    EXTRACT_UINT32(Mbr->Partition[j].StartingLBA) <= EndingLBA       ) {
 1183              		.loc 1 468 16 view .LVU287
 1184 057b 4439C9   		cmpl	%r9d, %ecx
 1185 057e 0F8247FF 		jb	.L58
 1185      FFFF
 468:C:/Users/victim/Desktop/dangerous/yuziakicin/UEFI/UEFI/Backend/gnu-efi-3.0.18/lib\misc.c ****                    EXTRACT_UINT32(Mbr->Partition[j].StartingLBA) <= EndingLBA       ) {
 1186              		.loc 1 468 81 discriminator 1 view .LVU288
 1187 0584 4139CB   		cmpl	%ecx, %r11d
 1188 0587 0F823EFF 		jb	.L58
 1188      FFFF
 473:C:/Users/victim/Desktop/dangerous/yuziakicin/UEFI/UEFI/Backend/gnu-efi-3.0.18/lib\misc.c ****             } 
 1189              		.loc 1 473 24 view .LVU289
 1190 058d 41B90000 		movl	$0, %r9d
 1190      0000
 1191              	.LVL108:
 473:C:/Users/victim/Desktop/dangerous/yuziakicin/UEFI/UEFI/Backend/gnu-efi-3.0.18/lib\misc.c ****             } 
 1192              		.loc 1 473 24 view .LVU290
 1193 0593 E9D80000 		jmp	.L51
 1193      00
 1194              	.LVL109:
 1195              	.L66:
 439:C:/Users/victim/Desktop/dangerous/yuziakicin/UEFI/UEFI/Backend/gnu-efi-3.0.18/lib\misc.c ****         StartingLBA = EXTRACT_UINT32(Mbr->Partition[i].StartingLBA);
 1196              		.loc 1 439 18 view .LVU291
 1197 0598 41B90100 		movl	$1, %r9d
 1197      0000
 1198              	.LVL110:
 1199              	.L54:
 435:C:/Users/victim/Desktop/dangerous/yuziakicin/UEFI/UEFI/Backend/gnu-efi-3.0.18/lib\misc.c ****         if ( Mbr->Partition[i].OSIndicator == 0x00 || EXTRACT_UINT32(Mbr->Partition[i].SizeInLBA) =
 1200              		.loc 1 435 38 is_stmt 1 discriminator 2 view .LVU292
 1201 059e 4983C201 		addq	$1, %r10
 1202              	.LVL111:
 1203              	.L53:
 435:C:/Users/victim/Desktop/dangerous/yuziakicin/UEFI/UEFI/Backend/gnu-efi-3.0.18/lib\misc.c ****         if ( Mbr->Partition[i].OSIndicator == 0x00 || EXTRACT_UINT32(Mbr->Partition[i].SizeInLBA) =
 1204              		.loc 1 435 16 discriminator 1 view .LVU293
 1205 05a2 4983FA03 		cmpq	$3, %r10
 1206 05a6 0F8FC400 		jg	.L51
 1206      0000
 436:C:/Users/victim/Desktop/dangerous/yuziakicin/UEFI/UEFI/Backend/gnu-efi-3.0.18/lib\misc.c ****             continue;
 1207              		.loc 1 436 9 view .LVU294
 436:C:/Users/victim/Desktop/dangerous/yuziakicin/UEFI/UEFI/Backend/gnu-efi-3.0.18/lib\misc.c ****             continue;
 1208              		.loc 1 436 31 is_stmt 0 view .LVU295
 1209 05ac 498D421B 		leaq	27(%r10), %rax
 1210 05b0 48C1E004 		salq	$4, %rax
 436:C:/Users/victim/Desktop/dangerous/yuziakicin/UEFI/UEFI/Backend/gnu-efi-3.0.18/lib\misc.c ****             continue;
 1211              		.loc 1 436 12 view .LVU296
 1212 05b4 41807C00 		cmpb	$0, 18(%r8,%rax)
 1212      1200
 1213 05ba 74E2     		je	.L54
 436:C:/Users/victim/Desktop/dangerous/yuziakicin/UEFI/UEFI/Backend/gnu-efi-3.0.18/lib\misc.c ****             continue;
 1214              		.loc 1 436 55 discriminator 2 view .LVU297
 1215 05bc 498D421B 		leaq	27(%r10), %rax
 1216 05c0 48C1E004 		salq	$4, %rax
 1217 05c4 410FB644 		movzbl	26(%r8,%rax), %eax
 1217      001A
 1218 05ca 4C89D2   		movq	%r10, %rdx
 1219 05cd 48C1E204 		salq	$4, %rdx
 1220 05d1 4C01C2   		addq	%r8, %rdx
 1221 05d4 0FB68ACB 		movzbl	459(%rdx), %ecx
 1221      010000
 1222 05db C1E108   		sall	$8, %ecx
 1223 05de 09C8     		orl	%ecx, %eax
 1224 05e0 0FB68ACC 		movzbl	460(%rdx), %ecx
 1224      010000
 1225 05e7 C1E110   		sall	$16, %ecx
 1226 05ea 09C8     		orl	%ecx, %eax
 1227 05ec 0FB692CD 		movzbl	461(%rdx), %edx
 1227      010000
 1228 05f3 C1E218   		sall	$24, %edx
 436:C:/Users/victim/Desktop/dangerous/yuziakicin/UEFI/UEFI/Backend/gnu-efi-3.0.18/lib\misc.c ****             continue;
 1229              		.loc 1 436 52 discriminator 2 view .LVU298
 1230 05f6 09D0     		orl	%edx, %eax
 1231 05f8 74A4     		je	.L54
 439:C:/Users/victim/Desktop/dangerous/yuziakicin/UEFI/UEFI/Backend/gnu-efi-3.0.18/lib\misc.c ****         StartingLBA = EXTRACT_UINT32(Mbr->Partition[i].StartingLBA);
 1232              		.loc 1 439 9 is_stmt 1 view .LVU299
 1233              	.LVL112:
 440:C:/Users/victim/Desktop/dangerous/yuziakicin/UEFI/UEFI/Backend/gnu-efi-3.0.18/lib\misc.c ****         EndingLBA = StartingLBA + EXTRACT_UINT32(Mbr->Partition[i].SizeInLBA) - 1;
 1234              		.loc 1 440 9 view .LVU300
 440:C:/Users/victim/Desktop/dangerous/yuziakicin/UEFI/UEFI/Backend/gnu-efi-3.0.18/lib\misc.c ****         EndingLBA = StartingLBA + EXTRACT_UINT32(Mbr->Partition[i].SizeInLBA) - 1;
 1235              		.loc 1 440 23 is_stmt 0 view .LVU301
 1236 05fa 498D521B 		leaq	27(%r10), %rdx
 1237 05fe 48C1E204 		salq	$4, %rdx
 1238 0602 450FB64C 		movzbl	22(%r8,%rdx), %r9d
 1238      1016
 1239 0608 4C89D2   		movq	%r10, %rdx
 1240 060b 48C1E204 		salq	$4, %rdx
 1241 060f 4C01C2   		addq	%r8, %rdx
 1242 0612 0FB68AC7 		movzbl	455(%rdx), %ecx
 1242      010000
 1243 0619 C1E108   		sall	$8, %ecx
 1244 061c 4109C9   		orl	%ecx, %r9d
 1245 061f 0FB68AC8 		movzbl	456(%rdx), %ecx
 1245      010000
 1246 0626 C1E110   		sall	$16, %ecx
 1247 0629 4109C9   		orl	%ecx, %r9d
 1248 062c 0FB692C9 		movzbl	457(%rdx), %edx
 1248      010000
 1249 0633 C1E218   		sall	$24, %edx
 1250 0636 4109D1   		orl	%edx, %r9d
 1251              	.LVL113:
 441:C:/Users/victim/Desktop/dangerous/yuziakicin/UEFI/UEFI/Backend/gnu-efi-3.0.18/lib\misc.c ****         if (EndingLBA > BlkIo->Media->LastBlock) {
 1252              		.loc 1 441 9 is_stmt 1 view .LVU302
 441:C:/Users/victim/Desktop/dangerous/yuziakicin/UEFI/UEFI/Backend/gnu-efi-3.0.18/lib\misc.c ****         if (EndingLBA > BlkIo->Media->LastBlock) {
 1253              		.loc 1 441 19 is_stmt 0 view .LVU303
 1254 0639 468D5C08 		leal	-1(%rax,%r9), %r11d
 1254      FF
 1255              	.LVL114:
 442:C:/Users/victim/Desktop/dangerous/yuziakicin/UEFI/UEFI/Backend/gnu-efi-3.0.18/lib\misc.c ****             //
 1256              		.loc 1 442 9 is_stmt 1 view .LVU304
 442:C:/Users/victim/Desktop/dangerous/yuziakicin/UEFI/UEFI/Backend/gnu-efi-3.0.18/lib\misc.c ****             //
 1257              		.loc 1 442 23 is_stmt 0 view .LVU305
 1258 063e 4489DA   		movl	%r11d, %edx
 442:C:/Users/victim/Desktop/dangerous/yuziakicin/UEFI/UEFI/Backend/gnu-efi-3.0.18/lib\misc.c ****             //
 1259              		.loc 1 442 30 view .LVU306
 1260 0641 488B4308 		movq	8(%rbx), %rax
 442:C:/Users/victim/Desktop/dangerous/yuziakicin/UEFI/UEFI/Backend/gnu-efi-3.0.18/lib\misc.c ****             //
 1261              		.loc 1 442 37 view .LVU307
 1262 0645 488B4018 		movq	24(%rax), %rax
 442:C:/Users/victim/Desktop/dangerous/yuziakicin/UEFI/UEFI/Backend/gnu-efi-3.0.18/lib\misc.c ****             //
 1263              		.loc 1 442 12 view .LVU308
 1264 0649 4839D0   		cmpq	%rdx, %rax
 1265 064c 7313     		jnb	.L55
 452:C:/Users/victim/Desktop/dangerous/yuziakicin/UEFI/UEFI/Backend/gnu-efi-3.0.18/lib\misc.c ****                 //
 1266              		.loc 1 452 13 is_stmt 1 view .LVU309
 452:C:/Users/victim/Desktop/dangerous/yuziakicin/UEFI/UEFI/Backend/gnu-efi-3.0.18/lib\misc.c ****                 //
 1267              		.loc 1 452 16 is_stmt 0 view .LVU310
 1268 064e 483DFFFF 		cmpq	$524287, %rax
 1268      0700
 1269 0654 7621     		jbe	.L62
 459:C:/Users/victim/Desktop/dangerous/yuziakicin/UEFI/UEFI/Backend/gnu-efi-3.0.18/lib\misc.c ****                 return FALSE;
 1270              		.loc 1 459 13 is_stmt 1 view .LVU311
 459:C:/Users/victim/Desktop/dangerous/yuziakicin/UEFI/UEFI/Backend/gnu-efi-3.0.18/lib\misc.c ****                 return FALSE;
 1271              		.loc 1 459 54 is_stmt 0 view .LVU312
 1272 0656 48050000 		addq	$262144, %rax
 1272      0400
 459:C:/Users/victim/Desktop/dangerous/yuziakicin/UEFI/UEFI/Backend/gnu-efi-3.0.18/lib\misc.c ****                 return FALSE;
 1273              		.loc 1 459 16 view .LVU313
 1274 065c 4839D0   		cmpq	%rdx, %rax
 1275 065f 721E     		jb	.L63
 1276              	.L55:
 464:C:/Users/victim/Desktop/dangerous/yuziakicin/UEFI/UEFI/Backend/gnu-efi-3.0.18/lib\misc.c ****             if (Mbr->Partition[j].OSIndicator == 0x00 || EXTRACT_UINT32(Mbr->Partition[j].SizeInLBA
 1277              		.loc 1 464 9 is_stmt 1 view .LVU314
 464:C:/Users/victim/Desktop/dangerous/yuziakicin/UEFI/UEFI/Backend/gnu-efi-3.0.18/lib\misc.c ****             if (Mbr->Partition[j].OSIndicator == 0x00 || EXTRACT_UINT32(Mbr->Partition[j].SizeInLBA
 1278              		.loc 1 464 15 is_stmt 0 view .LVU315
 1279 0661 498D4201 		leaq	1(%r10), %rax
 1280              	.LVL115:
 464:C:/Users/victim/Desktop/dangerous/yuziakicin/UEFI/UEFI/Backend/gnu-efi-3.0.18/lib\misc.c ****             if (Mbr->Partition[j].OSIndicator == 0x00 || EXTRACT_UINT32(Mbr->Partition[j].SizeInLBA
 1281              		.loc 1 464 9 view .LVU316
 1282 0665 E97DFEFF 		jmp	.L56
 1282      FF
 1283              	.LVL116:
 1284              	.L61:
 431:C:/Users/victim/Desktop/dangerous/yuziakicin/UEFI/UEFI/Backend/gnu-efi-3.0.18/lib\misc.c ****     } 
 1285              		.loc 1 431 16 view .LVU317
 1286 066a 41B90000 		movl	$0, %r9d
 1286      0000
 1287              	.LVL117:
 1288              	.L51:
 477:C:/Users/victim/Desktop/dangerous/yuziakicin/UEFI/UEFI/Backend/gnu-efi-3.0.18/lib\misc.c ****                 //
 478:C:/Users/victim/Desktop/dangerous/yuziakicin/UEFI/UEFI/Backend/gnu-efi-3.0.18/lib\misc.c ****                 // The End of this region overlaps with the i'th region
 479:C:/Users/victim/Desktop/dangerous/yuziakicin/UEFI/UEFI/Backend/gnu-efi-3.0.18/lib\misc.c ****                 //
 480:C:/Users/victim/Desktop/dangerous/yuziakicin/UEFI/UEFI/Backend/gnu-efi-3.0.18/lib\misc.c ****                 return FALSE;
 481:C:/Users/victim/Desktop/dangerous/yuziakicin/UEFI/UEFI/Backend/gnu-efi-3.0.18/lib\misc.c ****             }
 482:C:/Users/victim/Desktop/dangerous/yuziakicin/UEFI/UEFI/Backend/gnu-efi-3.0.18/lib\misc.c ****         }
 483:C:/Users/victim/Desktop/dangerous/yuziakicin/UEFI/UEFI/Backend/gnu-efi-3.0.18/lib\misc.c ****     }
 484:C:/Users/victim/Desktop/dangerous/yuziakicin/UEFI/UEFI/Backend/gnu-efi-3.0.18/lib\misc.c ****     //
 485:C:/Users/victim/Desktop/dangerous/yuziakicin/UEFI/UEFI/Backend/gnu-efi-3.0.18/lib\misc.c ****     // Non of the regions overlapped so MBR is O.K.
 486:C:/Users/victim/Desktop/dangerous/yuziakicin/UEFI/UEFI/Backend/gnu-efi-3.0.18/lib\misc.c ****     //
 487:C:/Users/victim/Desktop/dangerous/yuziakicin/UEFI/UEFI/Backend/gnu-efi-3.0.18/lib\misc.c ****     return ValidMbr;
 488:C:/Users/victim/Desktop/dangerous/yuziakicin/UEFI/UEFI/Backend/gnu-efi-3.0.18/lib\misc.c **** } 
 1289              		.loc 1 488 1 view .LVU318
 1290 0670 4489C8   		movl	%r9d, %eax
 1291 0673 5B       		popq	%rbx
 1292              		.cfi_remember_state
 1293              		.cfi_restore 3
 1294              		.cfi_def_cfa_offset 24
 1295              	.LVL118:
 1296              		.loc 1 488 1 view .LVU319
 1297 0674 5E       		popq	%rsi
 1298              		.cfi_restore 4
 1299              		.cfi_def_cfa_offset 16
 1300 0675 5F       		popq	%rdi
 1301              		.cfi_restore 5
 1302              		.cfi_def_cfa_offset 8
 1303 0676 C3       		ret
 1304              	.LVL119:
 1305              	.L62:
 1306              		.cfi_restore_state
 456:C:/Users/victim/Desktop/dangerous/yuziakicin/UEFI/UEFI/Backend/gnu-efi-3.0.18/lib\misc.c ****             }
 1307              		.loc 1 456 24 view .LVU320
 1308 0677 41B90000 		movl	$0, %r9d
 1308      0000
 1309              	.LVL120:
 456:C:/Users/victim/Desktop/dangerous/yuziakicin/UEFI/UEFI/Backend/gnu-efi-3.0.18/lib\misc.c ****             }
 1310              		.loc 1 456 24 view .LVU321
 1311 067d EBF1     		jmp	.L51
 1312              	.LVL121:
 1313              	.L63:
 460:C:/Users/victim/Desktop/dangerous/yuziakicin/UEFI/UEFI/Backend/gnu-efi-3.0.18/lib\misc.c ****             }
 1314              		.loc 1 460 24 view .LVU322
 1315 067f 41B90000 		movl	$0, %r9d
 1315      0000
 1316              	.LVL122:
 460:C:/Users/victim/Desktop/dangerous/yuziakicin/UEFI/UEFI/Backend/gnu-efi-3.0.18/lib\misc.c ****             }
 1317              		.loc 1 460 24 view .LVU323
 1318 0685 EBE9     		jmp	.L51
 1319              	.LVL123:
 1320              	.L65:
 480:C:/Users/victim/Desktop/dangerous/yuziakicin/UEFI/UEFI/Backend/gnu-efi-3.0.18/lib\misc.c ****             }
 1321              		.loc 1 480 24 view .LVU324
 1322 0687 41B90000 		movl	$0, %r9d
 1322      0000
 1323              	.LVL124:
 480:C:/Users/victim/Desktop/dangerous/yuziakicin/UEFI/UEFI/Backend/gnu-efi-3.0.18/lib\misc.c ****             }
 1324              		.loc 1 480 24 view .LVU325
 1325 068d EBE1     		jmp	.L51
 1326              		.cfi_endproc
 1327              	.LFE18:
 1328              		.seh_endproc
 1329              		.globl	DecimaltoBCD
 1331              		.seh_proc	DecimaltoBCD
 1332              	DecimaltoBCD:
 1333              	.LVL125:
 1334              	.LFB19:
 489:C:/Users/victim/Desktop/dangerous/yuziakicin/UEFI/UEFI/Backend/gnu-efi-3.0.18/lib\misc.c ****    
 490:C:/Users/victim/Desktop/dangerous/yuziakicin/UEFI/UEFI/Backend/gnu-efi-3.0.18/lib\misc.c **** 
 491:C:/Users/victim/Desktop/dangerous/yuziakicin/UEFI/UEFI/Backend/gnu-efi-3.0.18/lib\misc.c **** UINT8
 492:C:/Users/victim/Desktop/dangerous/yuziakicin/UEFI/UEFI/Backend/gnu-efi-3.0.18/lib\misc.c **** DecimaltoBCD(
 493:C:/Users/victim/Desktop/dangerous/yuziakicin/UEFI/UEFI/Backend/gnu-efi-3.0.18/lib\misc.c ****     IN  UINT8 DecValue
 494:C:/Users/victim/Desktop/dangerous/yuziakicin/UEFI/UEFI/Backend/gnu-efi-3.0.18/lib\misc.c ****     )
 495:C:/Users/victim/Desktop/dangerous/yuziakicin/UEFI/UEFI/Backend/gnu-efi-3.0.18/lib\misc.c **** {
 1335              		.loc 1 495 1 is_stmt 1 view -0
 1336              		.cfi_startproc
 1337              		.loc 1 495 1 is_stmt 0 view .LVU327
 1338 068f 4883EC28 		subq	$40, %rsp
 1339              		.seh_stackalloc	40
 1340              		.cfi_def_cfa_offset 48
 1341              		.seh_endprologue
 496:C:/Users/victim/Desktop/dangerous/yuziakicin/UEFI/UEFI/Backend/gnu-efi-3.0.18/lib\misc.c ****     return RtDecimaltoBCD (DecValue);
 1342              		.loc 1 496 5 is_stmt 1 view .LVU328
 1343              		.loc 1 496 12 is_stmt 0 view .LVU329
 1344 0693 0FB6C9   		movzbl	%cl, %ecx
 1345              		.loc 1 496 12 view .LVU330
 1346 0696 E8000000 		call	RtDecimaltoBCD
 1346      00
 1347              	.LVL126:
 497:C:/Users/victim/Desktop/dangerous/yuziakicin/UEFI/UEFI/Backend/gnu-efi-3.0.18/lib\misc.c **** }
 1348              		.loc 1 497 1 view .LVU331
 1349 069b 4883C428 		addq	$40, %rsp
 1350              		.cfi_def_cfa_offset 8
 1351 069f C3       		ret
 1352              		.cfi_endproc
 1353              	.LFE19:
 1354              		.seh_endproc
 1355              		.globl	BCDtoDecimal
 1357              		.seh_proc	BCDtoDecimal
 1358              	BCDtoDecimal:
 1359              	.LVL127:
 1360              	.LFB20:
 498:C:/Users/victim/Desktop/dangerous/yuziakicin/UEFI/UEFI/Backend/gnu-efi-3.0.18/lib\misc.c **** 
 499:C:/Users/victim/Desktop/dangerous/yuziakicin/UEFI/UEFI/Backend/gnu-efi-3.0.18/lib\misc.c **** 
 500:C:/Users/victim/Desktop/dangerous/yuziakicin/UEFI/UEFI/Backend/gnu-efi-3.0.18/lib\misc.c **** UINT8
 501:C:/Users/victim/Desktop/dangerous/yuziakicin/UEFI/UEFI/Backend/gnu-efi-3.0.18/lib\misc.c **** BCDtoDecimal(
 502:C:/Users/victim/Desktop/dangerous/yuziakicin/UEFI/UEFI/Backend/gnu-efi-3.0.18/lib\misc.c ****     IN  UINT8 BcdValue
 503:C:/Users/victim/Desktop/dangerous/yuziakicin/UEFI/UEFI/Backend/gnu-efi-3.0.18/lib\misc.c ****     )
 504:C:/Users/victim/Desktop/dangerous/yuziakicin/UEFI/UEFI/Backend/gnu-efi-3.0.18/lib\misc.c **** {
 1361              		.loc 1 504 1 is_stmt 1 view -0
 1362              		.cfi_startproc
 1363              		.loc 1 504 1 is_stmt 0 view .LVU333
 1364 06a0 4883EC28 		subq	$40, %rsp
 1365              		.seh_stackalloc	40
 1366              		.cfi_def_cfa_offset 48
 1367              		.seh_endprologue
 505:C:/Users/victim/Desktop/dangerous/yuziakicin/UEFI/UEFI/Backend/gnu-efi-3.0.18/lib\misc.c ****     return RtBCDtoDecimal (BcdValue);
 1368              		.loc 1 505 5 is_stmt 1 view .LVU334
 1369              		.loc 1 505 12 is_stmt 0 view .LVU335
 1370 06a4 0FB6C9   		movzbl	%cl, %ecx
 1371              		.loc 1 505 12 view .LVU336
 1372 06a7 E8000000 		call	RtBCDtoDecimal
 1372      00
 1373              	.LVL128:
 506:C:/Users/victim/Desktop/dangerous/yuziakicin/UEFI/UEFI/Backend/gnu-efi-3.0.18/lib\misc.c **** }
 1374              		.loc 1 506 1 view .LVU337
 1375 06ac 4883C428 		addq	$40, %rsp
 1376              		.cfi_def_cfa_offset 8
 1377 06b0 C3       		ret
 1378              		.cfi_endproc
 1379              	.LFE20:
 1380              		.seh_endproc
 1381              		.globl	LibGetSystemConfigurationTable
 1383              		.seh_proc	LibGetSystemConfigurationTable
 1384              	LibGetSystemConfigurationTable:
 1385              	.LVL129:
 1386              	.LFB21:
 507:C:/Users/victim/Desktop/dangerous/yuziakicin/UEFI/UEFI/Backend/gnu-efi-3.0.18/lib\misc.c **** 
 508:C:/Users/victim/Desktop/dangerous/yuziakicin/UEFI/UEFI/Backend/gnu-efi-3.0.18/lib\misc.c **** EFI_STATUS
 509:C:/Users/victim/Desktop/dangerous/yuziakicin/UEFI/UEFI/Backend/gnu-efi-3.0.18/lib\misc.c **** LibGetSystemConfigurationTable(
 510:C:/Users/victim/Desktop/dangerous/yuziakicin/UEFI/UEFI/Backend/gnu-efi-3.0.18/lib\misc.c ****     IN EFI_GUID *TableGuid,
 511:C:/Users/victim/Desktop/dangerous/yuziakicin/UEFI/UEFI/Backend/gnu-efi-3.0.18/lib\misc.c ****     IN OUT VOID **Table
 512:C:/Users/victim/Desktop/dangerous/yuziakicin/UEFI/UEFI/Backend/gnu-efi-3.0.18/lib\misc.c ****     )
 513:C:/Users/victim/Desktop/dangerous/yuziakicin/UEFI/UEFI/Backend/gnu-efi-3.0.18/lib\misc.c **** 
 514:C:/Users/victim/Desktop/dangerous/yuziakicin/UEFI/UEFI/Backend/gnu-efi-3.0.18/lib\misc.c **** {
 1387              		.loc 1 514 1 is_stmt 1 view -0
 1388              		.cfi_startproc
 1389              		.loc 1 514 1 is_stmt 0 view .LVU339
 1390 06b1 55       		pushq	%rbp
 1391              		.seh_pushreg	%rbp
 1392              		.cfi_def_cfa_offset 16
 1393              		.cfi_offset 6, -16
 1394 06b2 57       		pushq	%rdi
 1395              		.seh_pushreg	%rdi
 1396              		.cfi_def_cfa_offset 24
 1397              		.cfi_offset 5, -24
 1398 06b3 56       		pushq	%rsi
 1399              		.seh_pushreg	%rsi
 1400              		.cfi_def_cfa_offset 32
 1401              		.cfi_offset 4, -32
 1402 06b4 53       		pushq	%rbx
 1403              		.seh_pushreg	%rbx
 1404              		.cfi_def_cfa_offset 40
 1405              		.cfi_offset 3, -40
 1406 06b5 4883EC28 		subq	$40, %rsp
 1407              		.seh_stackalloc	40
 1408              		.cfi_def_cfa_offset 80
 1409              		.seh_endprologue
 1410 06b9 4889CD   		movq	%rcx, %rbp
 1411 06bc 4889D7   		movq	%rdx, %rdi
 515:C:/Users/victim/Desktop/dangerous/yuziakicin/UEFI/UEFI/Backend/gnu-efi-3.0.18/lib\misc.c ****     UINTN Index;
 1412              		.loc 1 515 5 is_stmt 1 view .LVU340
 516:C:/Users/victim/Desktop/dangerous/yuziakicin/UEFI/UEFI/Backend/gnu-efi-3.0.18/lib\misc.c **** 
 517:C:/Users/victim/Desktop/dangerous/yuziakicin/UEFI/UEFI/Backend/gnu-efi-3.0.18/lib\misc.c ****     for(Index=0;Index<ST->NumberOfTableEntries;Index++) {
 1413              		.loc 1 517 5 view .LVU341
 1414              	.LVL130:
 1415              		.loc 1 517 14 is_stmt 0 view .LVU342
 1416 06bf BB000000 		movl	$0, %ebx
 1416      00
 1417              		.loc 1 517 5 view .LVU343
 1418 06c4 EB04     		jmp	.L70
 1419              	.LVL131:
 1420              	.L71:
 1421              		.loc 1 517 53 is_stmt 1 discriminator 2 view .LVU344
 1422 06c6 4883C301 		addq	$1, %rbx
 1423              	.LVL132:
 1424              	.L70:
 1425              		.loc 1 517 22 discriminator 1 view .LVU345
 1426              		.loc 1 517 25 is_stmt 0 discriminator 1 view .LVU346
 1427 06ca 488B0500 		movq	.refptr.ST(%rip), %rax
 1427      000000
 1428 06d1 488B00   		movq	(%rax), %rax
 1429              		.loc 1 517 22 discriminator 1 view .LVU347
 1430 06d4 483B5868 		cmpq	104(%rax), %rbx
 1431 06d8 7338     		jnb	.L74
 518:C:/Users/victim/Desktop/dangerous/yuziakicin/UEFI/UEFI/Backend/gnu-efi-3.0.18/lib\misc.c ****         if (CompareGuid(TableGuid,&(ST->ConfigurationTable[Index].VendorGuid))==0) {
 1432              		.loc 1 518 9 is_stmt 1 view .LVU348
 1433              		.loc 1 518 59 is_stmt 0 view .LVU349
 1434 06da 488D345B 		leaq	(%rbx,%rbx,2), %rsi
 1435 06de 48C1E603 		salq	$3, %rsi
 1436 06e2 4889F2   		movq	%rsi, %rdx
 1437 06e5 48035070 		addq	112(%rax), %rdx
 1438              		.loc 1 518 13 view .LVU350
 1439 06e9 4889E9   		movq	%rbp, %rcx
 1440 06ec E8000000 		call	CompareGuid
 1440      00
 1441              	.LVL133:
 1442              		.loc 1 518 12 discriminator 1 view .LVU351
 1443 06f1 4885C0   		testq	%rax, %rax
 1444 06f4 75D0     		jne	.L71
 519:C:/Users/victim/Desktop/dangerous/yuziakicin/UEFI/UEFI/Backend/gnu-efi-3.0.18/lib\misc.c ****             *Table = ST->ConfigurationTable[Index].VendorTable;
 1445              		.loc 1 519 13 is_stmt 1 view .LVU352
 1446              		.loc 1 519 24 is_stmt 0 view .LVU353
 1447 06f6 488B0500 		movq	.refptr.ST(%rip), %rax
 1447      000000
 1448 06fd 488B00   		movq	(%rax), %rax
 1449              		.loc 1 519 44 view .LVU354
 1450 0700 48037070 		addq	112(%rax), %rsi
 1451              		.loc 1 519 51 view .LVU355
 1452 0704 488B4610 		movq	16(%rsi), %rax
 1453              		.loc 1 519 20 view .LVU356
 1454 0708 488907   		movq	%rax, (%rdi)
 520:C:/Users/victim/Desktop/dangerous/yuziakicin/UEFI/UEFI/Backend/gnu-efi-3.0.18/lib\misc.c ****             return EFI_SUCCESS;
 1455              		.loc 1 520 13 is_stmt 1 view .LVU357
 1456              		.loc 1 520 20 is_stmt 0 view .LVU358
 1457 070b B8000000 		movl	$0, %eax
 1457      00
 1458 0710 EB0A     		jmp	.L69
 1459              	.L74:
 521:C:/Users/victim/Desktop/dangerous/yuziakicin/UEFI/UEFI/Backend/gnu-efi-3.0.18/lib\misc.c ****         }
 522:C:/Users/victim/Desktop/dangerous/yuziakicin/UEFI/UEFI/Backend/gnu-efi-3.0.18/lib\misc.c ****     }
 523:C:/Users/victim/Desktop/dangerous/yuziakicin/UEFI/UEFI/Backend/gnu-efi-3.0.18/lib\misc.c ****     return EFI_NOT_FOUND;
 1460              		.loc 1 523 12 view .LVU359
 1461 0712 48B80E00 		movabsq	$-9223372036854775794, %rax
 1461      00000000 
 1461      0080
 1462              	.L69:
 524:C:/Users/victim/Desktop/dangerous/yuziakicin/UEFI/UEFI/Backend/gnu-efi-3.0.18/lib\misc.c **** }
 1463              		.loc 1 524 1 view .LVU360
 1464 071c 4883C428 		addq	$40, %rsp
 1465              		.cfi_def_cfa_offset 40
 1466 0720 5B       		popq	%rbx
 1467              		.cfi_restore 3
 1468              		.cfi_def_cfa_offset 32
 1469              	.LVL134:
 1470              		.loc 1 524 1 view .LVU361
 1471 0721 5E       		popq	%rsi
 1472              		.cfi_restore 4
 1473              		.cfi_def_cfa_offset 24
 1474 0722 5F       		popq	%rdi
 1475              		.cfi_restore 5
 1476              		.cfi_def_cfa_offset 16
 1477              	.LVL135:
 1478              		.loc 1 524 1 view .LVU362
 1479 0723 5D       		popq	%rbp
 1480              		.cfi_restore 6
 1481              		.cfi_def_cfa_offset 8
 1482              	.LVL136:
 1483              		.loc 1 524 1 view .LVU363
 1484 0724 C3       		ret
 1485              		.cfi_endproc
 1486              	.LFE21:
 1487              		.seh_endproc
 1488              		.globl	LibGetUiString
 1490              		.seh_proc	LibGetUiString
 1491              	LibGetUiString:
 1492              	.LVL137:
 1493              	.LFB22:
 525:C:/Users/victim/Desktop/dangerous/yuziakicin/UEFI/UEFI/Backend/gnu-efi-3.0.18/lib\misc.c **** 
 526:C:/Users/victim/Desktop/dangerous/yuziakicin/UEFI/UEFI/Backend/gnu-efi-3.0.18/lib\misc.c **** 
 527:C:/Users/victim/Desktop/dangerous/yuziakicin/UEFI/UEFI/Backend/gnu-efi-3.0.18/lib\misc.c **** CHAR16 *
 528:C:/Users/victim/Desktop/dangerous/yuziakicin/UEFI/UEFI/Backend/gnu-efi-3.0.18/lib\misc.c **** LibGetUiString (
 529:C:/Users/victim/Desktop/dangerous/yuziakicin/UEFI/UEFI/Backend/gnu-efi-3.0.18/lib\misc.c ****     IN  EFI_HANDLE      Handle,
 530:C:/Users/victim/Desktop/dangerous/yuziakicin/UEFI/UEFI/Backend/gnu-efi-3.0.18/lib\misc.c ****     IN  UI_STRING_TYPE  StringType,
 531:C:/Users/victim/Desktop/dangerous/yuziakicin/UEFI/UEFI/Backend/gnu-efi-3.0.18/lib\misc.c ****     IN  ISO_639_2       *LangCode,
 532:C:/Users/victim/Desktop/dangerous/yuziakicin/UEFI/UEFI/Backend/gnu-efi-3.0.18/lib\misc.c ****     IN  BOOLEAN         ReturnDevicePathStrOnMismatch
 533:C:/Users/victim/Desktop/dangerous/yuziakicin/UEFI/UEFI/Backend/gnu-efi-3.0.18/lib\misc.c ****     )
 534:C:/Users/victim/Desktop/dangerous/yuziakicin/UEFI/UEFI/Backend/gnu-efi-3.0.18/lib\misc.c **** {
 1494              		.loc 1 534 1 is_stmt 1 view -0
 1495              		.cfi_startproc
 1496              		.loc 1 534 1 is_stmt 0 view .LVU365
 1497 0725 4154     		pushq	%r12
 1498              		.seh_pushreg	%r12
 1499              		.cfi_def_cfa_offset 16
 1500              		.cfi_offset 12, -16
 1501 0727 55       		pushq	%rbp
 1502              		.seh_pushreg	%rbp
 1503              		.cfi_def_cfa_offset 24
 1504              		.cfi_offset 6, -24
 1505 0728 57       		pushq	%rdi
 1506              		.seh_pushreg	%rdi
 1507              		.cfi_def_cfa_offset 32
 1508              		.cfi_offset 5, -32
 1509 0729 56       		pushq	%rsi
 1510              		.seh_pushreg	%rsi
 1511              		.cfi_def_cfa_offset 40
 1512              		.cfi_offset 4, -40
 1513 072a 53       		pushq	%rbx
 1514              		.seh_pushreg	%rbx
 1515              		.cfi_def_cfa_offset 48
 1516              		.cfi_offset 3, -48
 1517 072b 4883EC30 		subq	$48, %rsp
 1518              		.seh_stackalloc	48
 1519              		.cfi_def_cfa_offset 96
 1520              		.seh_endprologue
 1521 072f 4889CD   		movq	%rcx, %rbp
 1522 0732 89D6     		movl	%edx, %esi
 1523 0734 4C89C7   		movq	%r8, %rdi
 1524 0737 4589CC   		movl	%r9d, %r12d
 535:C:/Users/victim/Desktop/dangerous/yuziakicin/UEFI/UEFI/Backend/gnu-efi-3.0.18/lib\misc.c ****     UI_INTERFACE    *Ui;
 1525              		.loc 1 535 5 is_stmt 1 view .LVU366
 536:C:/Users/victim/Desktop/dangerous/yuziakicin/UEFI/UEFI/Backend/gnu-efi-3.0.18/lib\misc.c ****     UI_STRING_TYPE  Index;
 1526              		.loc 1 536 5 view .LVU367
 537:C:/Users/victim/Desktop/dangerous/yuziakicin/UEFI/UEFI/Backend/gnu-efi-3.0.18/lib\misc.c ****     UI_STRING_ENTRY *Array;
 1527              		.loc 1 537 5 view .LVU368
 538:C:/Users/victim/Desktop/dangerous/yuziakicin/UEFI/UEFI/Backend/gnu-efi-3.0.18/lib\misc.c ****     EFI_STATUS      Status;
 1528              		.loc 1 538 5 view .LVU369
 539:C:/Users/victim/Desktop/dangerous/yuziakicin/UEFI/UEFI/Backend/gnu-efi-3.0.18/lib\misc.c ****     
 540:C:/Users/victim/Desktop/dangerous/yuziakicin/UEFI/UEFI/Backend/gnu-efi-3.0.18/lib\misc.c ****     Status = uefi_call_wrapper(BS->HandleProtocol, 3, Handle, &UiProtocol, (VOID *)&Ui);
 1529              		.loc 1 540 5 view .LVU370
 1530              		.loc 1 540 14 is_stmt 0 view .LVU371
 1531 073a 488B0500 		movq	.refptr.BS(%rip), %rax
 1531      000000
 1532 0741 488B00   		movq	(%rax), %rax
 1533 0744 4C8D4424 		leaq	40(%rsp), %r8
 1533      28
 1534              	.LVL138:
 1535              		.loc 1 540 14 view .LVU372
 1536 0749 488B1500 		movq	.refptr.gEFiUiInterfaceProtocolGuid(%rip), %rdx
 1536      000000
 1537              	.LVL139:
 1538              		.loc 1 540 14 view .LVU373
 1539 0750 FF909800 		call	*152(%rax)
 1539      0000
 1540              	.LVL140:
 541:C:/Users/victim/Desktop/dangerous/yuziakicin/UEFI/UEFI/Backend/gnu-efi-3.0.18/lib\misc.c ****     if (EFI_ERROR(Status)) {
 1541              		.loc 1 541 5 is_stmt 1 view .LVU374
 1542              		.loc 1 541 8 is_stmt 0 view .LVU375
 1543 0756 4885C0   		testq	%rax, %rax
 1544 0759 7810     		js	.L85
 542:C:/Users/victim/Desktop/dangerous/yuziakicin/UEFI/UEFI/Backend/gnu-efi-3.0.18/lib\misc.c ****         return (ReturnDevicePathStrOnMismatch) ? DevicePathToStr(DevicePathFromHandle(Handle)) : NU
 543:C:/Users/victim/Desktop/dangerous/yuziakicin/UEFI/UEFI/Backend/gnu-efi-3.0.18/lib\misc.c ****     }
 544:C:/Users/victim/Desktop/dangerous/yuziakicin/UEFI/UEFI/Backend/gnu-efi-3.0.18/lib\misc.c **** 
 545:C:/Users/victim/Desktop/dangerous/yuziakicin/UEFI/UEFI/Backend/gnu-efi-3.0.18/lib\misc.c ****     //
 546:C:/Users/victim/Desktop/dangerous/yuziakicin/UEFI/UEFI/Backend/gnu-efi-3.0.18/lib\misc.c ****     // Skip the first strings
 547:C:/Users/victim/Desktop/dangerous/yuziakicin/UEFI/UEFI/Backend/gnu-efi-3.0.18/lib\misc.c ****     //
 548:C:/Users/victim/Desktop/dangerous/yuziakicin/UEFI/UEFI/Backend/gnu-efi-3.0.18/lib\misc.c ****     for (Index = UiDeviceString, Array = Ui->Entry; Index < StringType; Index++, Array++) {
 1545              		.loc 1 548 5 is_stmt 1 view .LVU376
 1546              	.LVL141:
 1547              		.loc 1 548 44 is_stmt 0 view .LVU377
 1548 075b 488B4424 		movq	40(%rsp), %rax
 1548      28
 1549              	.LVL142:
 1550              		.loc 1 548 40 view .LVU378
 1551 0760 488B5808 		movq	8(%rax), %rbx
 1552              	.LVL143:
 1553              		.loc 1 548 16 view .LVU379
 1554 0764 B8000000 		movl	$0, %eax
 1554      00
 1555              		.loc 1 548 5 view .LVU380
 1556 0769 EB32     		jmp	.L79
 1557              	.LVL144:
 1558              	.L85:
 542:C:/Users/victim/Desktop/dangerous/yuziakicin/UEFI/UEFI/Backend/gnu-efi-3.0.18/lib\misc.c ****         return (ReturnDevicePathStrOnMismatch) ? DevicePathToStr(DevicePathFromHandle(Handle)) : NU
 1559              		.loc 1 542 9 is_stmt 1 view .LVU381
 542:C:/Users/victim/Desktop/dangerous/yuziakicin/UEFI/UEFI/Backend/gnu-efi-3.0.18/lib\misc.c ****         return (ReturnDevicePathStrOnMismatch) ? DevicePathToStr(DevicePathFromHandle(Handle)) : NU
 1560              		.loc 1 542 96 is_stmt 0 view .LVU382
 1561 076b 4584E4   		testb	%r12b, %r12b
 1562 076e 7507     		jne	.L86
 542:C:/Users/victim/Desktop/dangerous/yuziakicin/UEFI/UEFI/Backend/gnu-efi-3.0.18/lib\misc.c ****         return (ReturnDevicePathStrOnMismatch) ? DevicePathToStr(DevicePathFromHandle(Handle)) : NU
 1563              		.loc 1 542 96 discriminator 2 view .LVU383
 1564 0770 B9000000 		movl	$0, %ecx
 1564      00
 542:C:/Users/victim/Desktop/dangerous/yuziakicin/UEFI/UEFI/Backend/gnu-efi-3.0.18/lib\misc.c ****         return (ReturnDevicePathStrOnMismatch) ? DevicePathToStr(DevicePathFromHandle(Handle)) : NU
 1565              		.loc 1 542 96 view .LVU384
 1566 0775 EB43     		jmp	.L75
 1567              	.L86:
 542:C:/Users/victim/Desktop/dangerous/yuziakicin/UEFI/UEFI/Backend/gnu-efi-3.0.18/lib\misc.c ****         return (ReturnDevicePathStrOnMismatch) ? DevicePathToStr(DevicePathFromHandle(Handle)) : NU
 1568              		.loc 1 542 50 discriminator 1 view .LVU385
 1569 0777 4889E9   		movq	%rbp, %rcx
 1570 077a E8000000 		call	DevicePathFromHandle
 1570      00
 1571              	.LVL145:
 542:C:/Users/victim/Desktop/dangerous/yuziakicin/UEFI/UEFI/Backend/gnu-efi-3.0.18/lib\misc.c ****         return (ReturnDevicePathStrOnMismatch) ? DevicePathToStr(DevicePathFromHandle(Handle)) : NU
 1572              		.loc 1 542 50 discriminator 1 view .LVU386
 1573 077f 4889C1   		movq	%rax, %rcx
 1574 0782 E8000000 		call	DevicePathToStr
 1574      00
 1575              	.LVL146:
 1576 0787 4889C1   		movq	%rax, %rcx
 1577 078a EB2E     		jmp	.L75
 1578              	.LVL147:
 1579              	.L80:
 549:C:/Users/victim/Desktop/dangerous/yuziakicin/UEFI/UEFI/Backend/gnu-efi-3.0.18/lib\misc.c ****         while (Array->LangCode) {
 550:C:/Users/victim/Desktop/dangerous/yuziakicin/UEFI/UEFI/Backend/gnu-efi-3.0.18/lib\misc.c ****             Array++;
 1580              		.loc 1 550 13 is_stmt 1 view .LVU387
 1581              		.loc 1 550 18 is_stmt 0 view .LVU388
 1582 078c 4883C310 		addq	$16, %rbx
 1583              	.LVL148:
 1584              	.L81:
 549:C:/Users/victim/Desktop/dangerous/yuziakicin/UEFI/UEFI/Backend/gnu-efi-3.0.18/lib\misc.c ****         while (Array->LangCode) {
 1585              		.loc 1 549 16 is_stmt 1 view .LVU389
 1586 0790 48833B00 		cmpq	$0, (%rbx)
 1587 0794 75F6     		jne	.L80
 548:C:/Users/victim/Desktop/dangerous/yuziakicin/UEFI/UEFI/Backend/gnu-efi-3.0.18/lib\misc.c ****         while (Array->LangCode) {
 1588              		.loc 1 548 80 discriminator 2 view .LVU390
 548:C:/Users/victim/Desktop/dangerous/yuziakicin/UEFI/UEFI/Backend/gnu-efi-3.0.18/lib\misc.c ****         while (Array->LangCode) {
 1589              		.loc 1 548 78 is_stmt 0 discriminator 2 view .LVU391
 1590 0796 83C001   		addl	$1, %eax
 1591              	.LVL149:
 548:C:/Users/victim/Desktop/dangerous/yuziakicin/UEFI/UEFI/Backend/gnu-efi-3.0.18/lib\misc.c ****         while (Array->LangCode) {
 1592              		.loc 1 548 87 discriminator 2 view .LVU392
 1593 0799 4883C310 		addq	$16, %rbx
 1594              	.LVL150:
 1595              	.L79:
 548:C:/Users/victim/Desktop/dangerous/yuziakicin/UEFI/UEFI/Backend/gnu-efi-3.0.18/lib\misc.c ****         while (Array->LangCode) {
 1596              		.loc 1 548 59 is_stmt 1 discriminator 1 view .LVU393
 1597 079d 39F0     		cmpl	%esi, %eax
 1598 079f 72EF     		jb	.L81
 1599              	.LVL151:
 1600              	.L82:
 551:C:/Users/victim/Desktop/dangerous/yuziakicin/UEFI/UEFI/Backend/gnu-efi-3.0.18/lib\misc.c ****         }
 552:C:/Users/victim/Desktop/dangerous/yuziakicin/UEFI/UEFI/Backend/gnu-efi-3.0.18/lib\misc.c ****     }
 553:C:/Users/victim/Desktop/dangerous/yuziakicin/UEFI/UEFI/Backend/gnu-efi-3.0.18/lib\misc.c **** 
 554:C:/Users/victim/Desktop/dangerous/yuziakicin/UEFI/UEFI/Backend/gnu-efi-3.0.18/lib\misc.c ****     //
 555:C:/Users/victim/Desktop/dangerous/yuziakicin/UEFI/UEFI/Backend/gnu-efi-3.0.18/lib\misc.c ****     // Search for the match
 556:C:/Users/victim/Desktop/dangerous/yuziakicin/UEFI/UEFI/Backend/gnu-efi-3.0.18/lib\misc.c ****     //
 557:C:/Users/victim/Desktop/dangerous/yuziakicin/UEFI/UEFI/Backend/gnu-efi-3.0.18/lib\misc.c ****     while (Array->LangCode) {
 1601              		.loc 1 557 12 view .LVU394
 1602              		.loc 1 557 17 is_stmt 0 view .LVU395
 1603 07a1 488B0B   		movq	(%rbx), %rcx
 1604              		.loc 1 557 12 view .LVU396
 1605 07a4 4885C9   		testq	%rcx, %rcx
 1606 07a7 741F     		je	.L87
 558:C:/Users/victim/Desktop/dangerous/yuziakicin/UEFI/UEFI/Backend/gnu-efi-3.0.18/lib\misc.c ****         if (strcmpa (Array->LangCode, LangCode) == 0) {
 1607              		.loc 1 558 9 is_stmt 1 view .LVU397
 1608              		.loc 1 558 13 is_stmt 0 view .LVU398
 1609 07a9 4889FA   		movq	%rdi, %rdx
 1610 07ac E8000000 		call	strcmpa
 1610      00
 1611              	.LVL152:
 1612              		.loc 1 558 12 discriminator 1 view .LVU399
 1613 07b1 4885C0   		testq	%rax, %rax
 1614 07b4 75EB     		jne	.L82
 559:C:/Users/victim/Desktop/dangerous/yuziakicin/UEFI/UEFI/Backend/gnu-efi-3.0.18/lib\misc.c ****             return Array->UiString; 
 1615              		.loc 1 559 13 is_stmt 1 view .LVU400
 1616              		.loc 1 559 25 is_stmt 0 view .LVU401
 1617 07b6 488B4B08 		movq	8(%rbx), %rcx
 1618              	.LVL153:
 1619              	.L75:
 560:C:/Users/victim/Desktop/dangerous/yuziakicin/UEFI/UEFI/Backend/gnu-efi-3.0.18/lib\misc.c ****         }
 561:C:/Users/victim/Desktop/dangerous/yuziakicin/UEFI/UEFI/Backend/gnu-efi-3.0.18/lib\misc.c ****     }
 562:C:/Users/victim/Desktop/dangerous/yuziakicin/UEFI/UEFI/Backend/gnu-efi-3.0.18/lib\misc.c ****     return (ReturnDevicePathStrOnMismatch) ? DevicePathToStr(DevicePathFromHandle(Handle)) : NULL;
 563:C:/Users/victim/Desktop/dangerous/yuziakicin/UEFI/UEFI/Backend/gnu-efi-3.0.18/lib\misc.c **** }
 1620              		.loc 1 563 1 view .LVU402
 1621 07ba 4889C8   		movq	%rcx, %rax
 1622 07bd 4883C430 		addq	$48, %rsp
 1623              		.cfi_remember_state
 1624              		.cfi_def_cfa_offset 48
 1625 07c1 5B       		popq	%rbx
 1626              		.cfi_restore 3
 1627              		.cfi_def_cfa_offset 40
 1628 07c2 5E       		popq	%rsi
 1629              		.cfi_restore 4
 1630              		.cfi_def_cfa_offset 32
 1631              	.LVL154:
 1632              		.loc 1 563 1 view .LVU403
 1633 07c3 5F       		popq	%rdi
 1634              		.cfi_restore 5
 1635              		.cfi_def_cfa_offset 24
 1636              	.LVL155:
 1637              		.loc 1 563 1 view .LVU404
 1638 07c4 5D       		popq	%rbp
 1639              		.cfi_restore 6
 1640              		.cfi_def_cfa_offset 16
 1641              	.LVL156:
 1642              		.loc 1 563 1 view .LVU405
 1643 07c5 415C     		popq	%r12
 1644              		.cfi_restore 12
 1645              		.cfi_def_cfa_offset 8
 1646              	.LVL157:
 1647              		.loc 1 563 1 view .LVU406
 1648 07c7 C3       		ret
 1649              	.LVL158:
 1650              	.L87:
 1651              		.cfi_restore_state
 562:C:/Users/victim/Desktop/dangerous/yuziakicin/UEFI/UEFI/Backend/gnu-efi-3.0.18/lib\misc.c **** }
 1652              		.loc 1 562 5 is_stmt 1 view .LVU407
 562:C:/Users/victim/Desktop/dangerous/yuziakicin/UEFI/UEFI/Backend/gnu-efi-3.0.18/lib\misc.c **** }
 1653              		.loc 1 562 92 is_stmt 0 view .LVU408
 1654 07c8 4584E4   		testb	%r12b, %r12b
 1655 07cb 74ED     		je	.L75
 562:C:/Users/victim/Desktop/dangerous/yuziakicin/UEFI/UEFI/Backend/gnu-efi-3.0.18/lib\misc.c **** }
 1656              		.loc 1 562 46 discriminator 1 view .LVU409
 1657 07cd 4889E9   		movq	%rbp, %rcx
 1658 07d0 E8000000 		call	DevicePathFromHandle
 1658      00
 1659              	.LVL159:
 1660 07d5 4889C1   		movq	%rax, %rcx
 1661 07d8 E8000000 		call	DevicePathToStr
 1661      00
 1662              	.LVL160:
 1663 07dd 4889C1   		movq	%rax, %rcx
 1664 07e0 EBD8     		jmp	.L75
 1665              		.cfi_endproc
 1666              	.LFE22:
 1667              		.seh_endproc
 1668              	.Letext0:
 1669              		.file 2 "C:/Users/victim/Desktop/dangerous/yuziakicin/UEFI/UEFI/Backend/mingw64/lib/gcc/x86_64-w64
 1670              		.file 3 "C:/Users/victim/Desktop/dangerous/yuziakicin/UEFI/UEFI/Backend/mingw64/include/corecrt.h"
 1671              		.file 4 "gnu-efi-3.0.18/inc/x86_64/efibind.h"
 1672              		.file 5 "gnu-efi-3.0.18/inc/efidef.h"
 1673              		.file 6 "gnu-efi-3.0.18/inc/efidevp.h"
 1674              		.file 7 "gnu-efi-3.0.18/inc/efiprot.h"
 1675              		.file 8 "gnu-efi-3.0.18/inc/efiapi.h"
 1676              		.file 9 "gnu-efi-3.0.18/inc/eficon.h"
 1677              		.file 10 "gnu-efi-3.0.18/inc/efiui.h"
 1678              		.file 11 "gnu-efi-3.0.18/inc/efipart.h"
 1679              		.file 12 "gnu-efi-3.0.18/inc/efilib.h"
 1680              		.file 13 "gnu-efi-3.0.18/inc/efirtlib.h"
 1681 07e2 90909090 		.section	.debug_info,"dr"
 1681      90909090 
 1681      90909090 
 1681      9090
 1682              	.Ldebug_info0:
 1683 0000 183C0000 		.long	0x3c18
 1684 0004 0500     		.word	0x5
 1685 0006 01       		.byte	0x1
 1686 0007 08       		.byte	0x8
 1687 0008 00000000 		.secrel32	.Ldebug_abbrev0
 1688 000c 30       		.uleb128 0x30
 1689 000d 474E5520 		.ascii "GNU C11 13.2.0 -mno-stack-arg-probe -m64 -mno-red-zone -maccumulate-outgoing-args -mtune=g
 1689      43313120 
 1689      31332E32 
 1689      2E30202D 
 1689      6D6E6F2D 
 1690 0111 1D       		.byte	0x1d
 1691 0112 3F000000 		.secrel32	.LASF0
 1692 0116 00000000 		.secrel32	.LASF1
 1693 011a 00000000 		.quad	.Ltext0
 1693      00000000 
 1694 0122 E2070000 		.quad	.Letext0-.Ltext0
 1694      00000000 
 1695 012a 00000000 		.secrel32	.Ldebug_line0
 1696 012e 00000000 		.secrel32	.Ldebug_macro0
 1697 0132 0E       		.uleb128 0xe
 1698 0133 01       		.byte	0x1
 1699 0134 06       		.byte	0x6
 1700 0135 7369676E 		.ascii "signed char\0"
 1700      65642063 
 1700      68617200 
 1701 0141 03       		.uleb128 0x3
 1702 0142 696E7431 		.ascii "int16_t\0"
 1702      365F7400 
 1703 014a 02       		.byte	0x2
 1704 014b 25       		.byte	0x25
 1705 014c 18       		.byte	0x18
 1706 014d 51010000 		.long	0x151
 1707 0151 0E       		.uleb128 0xe
 1708 0152 02       		.byte	0x2
 1709 0153 05       		.byte	0x5
 1710 0154 73686F72 		.ascii "short int\0"
 1710      7420696E 
 1710      7400
 1711 015e 03       		.uleb128 0x3
 1712 015f 696E7433 		.ascii "int32_t\0"
 1712      325F7400 
 1713 0167 02       		.byte	0x2
 1714 0168 28       		.byte	0x28
 1715 0169 18       		.byte	0x18
 1716 016a 6E010000 		.long	0x16e
 1717 016e 0E       		.uleb128 0xe
 1718 016f 04       		.byte	0x4
 1719 0170 05       		.byte	0x5
 1720 0171 696E7400 		.ascii "int\0"
 1721 0175 03       		.uleb128 0x3
 1722 0176 696E7436 		.ascii "int64_t\0"
 1722      345F7400 
 1723 017e 02       		.byte	0x2
 1724 017f 2B       		.byte	0x2b
 1725 0180 18       		.byte	0x18
 1726 0181 85010000 		.long	0x185
 1727 0185 0E       		.uleb128 0xe
 1728 0186 08       		.byte	0x8
 1729 0187 05       		.byte	0x5
 1730 0188 6C6F6E67 		.ascii "long long int\0"
 1730      206C6F6E 
 1730      6720696E 
 1730      7400
 1731 0196 03       		.uleb128 0x3
 1732 0197 75696E74 		.ascii "uint8_t\0"
 1732      385F7400 
 1733 019f 02       		.byte	0x2
 1734 01a0 2E       		.byte	0x2e
 1735 01a1 18       		.byte	0x18
 1736 01a2 A6010000 		.long	0x1a6
 1737 01a6 0E       		.uleb128 0xe
 1738 01a7 01       		.byte	0x1
 1739 01a8 08       		.byte	0x8
 1740 01a9 756E7369 		.ascii "unsigned char\0"
 1740      676E6564 
 1740      20636861 
 1740      7200
 1741 01b7 03       		.uleb128 0x3
 1742 01b8 75696E74 		.ascii "uint16_t\0"
 1742      31365F74 
 1742      00
 1743 01c1 02       		.byte	0x2
 1744 01c2 31       		.byte	0x31
 1745 01c3 19       		.byte	0x19
 1746 01c4 C8010000 		.long	0x1c8
 1747 01c8 0E       		.uleb128 0xe
 1748 01c9 02       		.byte	0x2
 1749 01ca 07       		.byte	0x7
 1750 01cb 73686F72 		.ascii "short unsigned int\0"
 1750      7420756E 
 1750      7369676E 
 1750      65642069 
 1750      6E7400
 1751 01de 03       		.uleb128 0x3
 1752 01df 75696E74 		.ascii "uint32_t\0"
 1752      33325F74 
 1752      00
 1753 01e8 02       		.byte	0x2
 1754 01e9 34       		.byte	0x34
 1755 01ea 19       		.byte	0x19
 1756 01eb EF010000 		.long	0x1ef
 1757 01ef 0E       		.uleb128 0xe
 1758 01f0 04       		.byte	0x4
 1759 01f1 07       		.byte	0x7
 1760 01f2 756E7369 		.ascii "unsigned int\0"
 1760      676E6564 
 1760      20696E74 
 1760      00
 1761 01ff 03       		.uleb128 0x3
 1762 0200 75696E74 		.ascii "uint64_t\0"
 1762      36345F74 
 1762      00
 1763 0209 02       		.byte	0x2
 1764 020a 37       		.byte	0x37
 1765 020b 19       		.byte	0x19
 1766 020c 10020000 		.long	0x210
 1767 0210 0E       		.uleb128 0xe
 1768 0211 08       		.byte	0x8
 1769 0212 07       		.byte	0x7
 1770 0213 6C6F6E67 		.ascii "long long unsigned int\0"
 1770      206C6F6E 
 1770      6720756E 
 1770      7369676E 
 1770      65642069 
 1771 022a 0E       		.uleb128 0xe
 1772 022b 01       		.byte	0x1
 1773 022c 06       		.byte	0x6
 1774 022d 63686172 		.ascii "char\0"
 1774      00
 1775 0232 03       		.uleb128 0x3
 1776 0233 77636861 		.ascii "wchar_t\0"
 1776      725F7400 
 1777 023b 03       		.byte	0x3
 1778 023c 62       		.byte	0x62
 1779 023d 18       		.byte	0x18
 1780 023e C8010000 		.long	0x1c8
 1781 0242 0E       		.uleb128 0xe
 1782 0243 04       		.byte	0x4
 1783 0244 05       		.byte	0x5
 1784 0245 6C6F6E67 		.ascii "long int\0"
 1784      20696E74 
 1784      00
 1785 024e 0E       		.uleb128 0xe
 1786 024f 04       		.byte	0x4
 1787 0250 07       		.byte	0x7
 1788 0251 6C6F6E67 		.ascii "long unsigned int\0"
 1788      20756E73 
 1788      69676E65 
 1788      6420696E 
 1788      7400
 1789 0263 0E       		.uleb128 0xe
 1790 0264 10       		.byte	0x10
 1791 0265 04       		.byte	0x4
 1792 0266 6C6F6E67 		.ascii "long double\0"
 1792      20646F75 
 1792      626C6500 
 1793 0272 03       		.uleb128 0x3
 1794 0273 43484152 		.ascii "CHAR16\0"
 1794      313600
 1795 027a 04       		.byte	0x4
 1796 027b 65       		.byte	0x65
 1797 027c 11       		.byte	0x11
 1798 027d 32020000 		.long	0x232
 1799 0281 03       		.uleb128 0x3
 1800 0282 55494E54 		.ascii "UINT64\0"
 1800      363400
 1801 0289 04       		.byte	0x4
 1802 028a 68       		.byte	0x68
 1803 028b 14       		.byte	0x14
 1804 028c FF010000 		.long	0x1ff
 1805 0290 03       		.uleb128 0x3
 1806 0291 55494E54 		.ascii "UINT32\0"
 1806      333200
 1807 0298 04       		.byte	0x4
 1808 0299 6C       		.byte	0x6c
 1809 029a 18       		.byte	0x18
 1810 029b DE010000 		.long	0x1de
 1811 029f 03       		.uleb128 0x3
 1812 02a0 494E5433 		.ascii "INT32\0"
 1812      3200
 1813 02a6 04       		.byte	0x4
 1814 02a7 6D       		.byte	0x6d
 1815 02a8 18       		.byte	0x18
 1816 02a9 5E010000 		.long	0x15e
 1817 02ad 03       		.uleb128 0x3
 1818 02ae 55494E54 		.ascii "UINT16\0"
 1818      313600
 1819 02b5 04       		.byte	0x4
 1820 02b6 70       		.byte	0x70
 1821 02b7 14       		.byte	0x14
 1822 02b8 B7010000 		.long	0x1b7
 1823 02bc 03       		.uleb128 0x3
 1824 02bd 494E5431 		.ascii "INT16\0"
 1824      3600
 1825 02c3 04       		.byte	0x4
 1826 02c4 71       		.byte	0x71
 1827 02c5 14       		.byte	0x14
 1828 02c6 41010000 		.long	0x141
 1829 02ca 03       		.uleb128 0x3
 1830 02cb 55494E54 		.ascii "UINT8\0"
 1830      3800
 1831 02d1 04       		.byte	0x4
 1832 02d2 73       		.byte	0x73
 1833 02d3 14       		.byte	0x14
 1834 02d4 96010000 		.long	0x196
 1835 02d8 03       		.uleb128 0x3
 1836 02d9 43484152 		.ascii "CHAR8\0"
 1836      3800
 1837 02df 04       		.byte	0x4
 1838 02e0 74       		.byte	0x74
 1839 02e1 14       		.byte	0x14
 1840 02e2 2A020000 		.long	0x22a
 1841 02e6 26       		.uleb128 0x26
 1842 02e7 D8020000 		.long	0x2d8
 1843 02eb 31       		.uleb128 0x31
 1844 02ec 564F4944 		.ascii "VOID\0"
 1844      00
 1845 02f1 04       		.byte	0x4
 1846 02f2 78       		.byte	0x78
 1847 02f3 14       		.byte	0x14
 1848 02f4 26       		.uleb128 0x26
 1849 02f5 EB020000 		.long	0x2eb
 1850 02f9 03       		.uleb128 0x3
 1851 02fa 494E544E 		.ascii "INTN\0"
 1851      00
 1852 02ff 04       		.byte	0x4
 1853 0300 7B       		.byte	0x7b
 1854 0301 14       		.byte	0x14
 1855 0302 75010000 		.long	0x175
 1856 0306 03       		.uleb128 0x3
 1857 0307 55494E54 		.ascii "UINTN\0"
 1857      4E00
 1858 030d 04       		.byte	0x4
 1859 030e 7C       		.byte	0x7c
 1860 030f 14       		.byte	0x14
 1861 0310 FF010000 		.long	0x1ff
 1862 0314 03       		.uleb128 0x3
 1863 0315 424F4F4C 		.ascii "BOOLEAN\0"
 1863      45414E00 
 1864 031d 05       		.byte	0x5
 1865 031e 19       		.byte	0x19
 1866 031f 0F       		.byte	0xf
 1867 0320 24030000 		.long	0x324
 1868 0324 0E       		.uleb128 0xe
 1869 0325 01       		.byte	0x1
 1870 0326 02       		.byte	0x2
 1871 0327 5F426F6F 		.ascii "_Bool\0"
 1871      6C00
 1872 032d 03       		.uleb128 0x3
 1873 032e 4546495F 		.ascii "EFI_STATUS\0"
 1873      53544154 
 1873      555300
 1874 0339 05       		.byte	0x5
 1875 033a 3A       		.byte	0x3a
 1876 033b 19       		.byte	0x19
 1877 033c 06030000 		.long	0x306
 1878 0340 03       		.uleb128 0x3
 1879 0341 4546495F 		.ascii "EFI_LBA\0"
 1879      4C424100 
 1880 0349 05       		.byte	0x5
 1881 034a 3B       		.byte	0x3b
 1882 034b 19       		.byte	0x19
 1883 034c 81020000 		.long	0x281
 1884 0350 03       		.uleb128 0x3
 1885 0351 4546495F 		.ascii "EFI_TPL\0"
 1885      54504C00 
 1886 0359 05       		.byte	0x5
 1887 035a 3C       		.byte	0x3c
 1888 035b 19       		.byte	0x19
 1889 035c 06030000 		.long	0x306
 1890 0360 03       		.uleb128 0x3
 1891 0361 4546495F 		.ascii "EFI_HANDLE\0"
 1891      48414E44 
 1891      4C4500
 1892 036c 05       		.byte	0x5
 1893 036d 3D       		.byte	0x3d
 1894 036e 1A       		.byte	0x1a
 1895 036f 73030000 		.long	0x373
 1896 0373 02       		.uleb128 0x2
 1897 0374 EB020000 		.long	0x2eb
 1898 0378 03       		.uleb128 0x3
 1899 0379 4546495F 		.ascii "EFI_EVENT\0"
 1899      4556454E 
 1899      5400
 1900 0383 05       		.byte	0x5
 1901 0384 3E       		.byte	0x3e
 1902 0385 1A       		.byte	0x1a
 1903 0386 73030000 		.long	0x373
 1904 038a 13       		.uleb128 0x13
 1905 038b 10       		.byte	0x10
 1906 038c 05       		.byte	0x5
 1907 038d 55       		.byte	0x55
 1908 038e CF030000 		.long	0x3cf
 1909 0392 06       		.uleb128 0x6
 1910 0393 44617461 		.ascii "Data1\0"
 1910      3100
 1911 0399 05       		.byte	0x5
 1912 039a 56       		.byte	0x56
 1913 039b 0D       		.byte	0xd
 1914 039c 90020000 		.long	0x290
 1915 03a0 00       		.byte	0
 1916 03a1 06       		.uleb128 0x6
 1917 03a2 44617461 		.ascii "Data2\0"
 1917      3200
 1918 03a8 05       		.byte	0x5
 1919 03a9 57       		.byte	0x57
 1920 03aa 0D       		.byte	0xd
 1921 03ab AD020000 		.long	0x2ad
 1922 03af 04       		.byte	0x4
 1923 03b0 06       		.uleb128 0x6
 1924 03b1 44617461 		.ascii "Data3\0"
 1924      3300
 1925 03b7 05       		.byte	0x5
 1926 03b8 58       		.byte	0x58
 1927 03b9 0D       		.byte	0xd
 1928 03ba AD020000 		.long	0x2ad
 1929 03be 06       		.byte	0x6
 1930 03bf 06       		.uleb128 0x6
 1931 03c0 44617461 		.ascii "Data4\0"
 1931      3400
 1932 03c6 05       		.byte	0x5
 1933 03c7 59       		.byte	0x59
 1934 03c8 0D       		.byte	0xd
 1935 03c9 CF030000 		.long	0x3cf
 1936 03cd 08       		.byte	0x8
 1937 03ce 00       		.byte	0
 1938 03cf 1A       		.uleb128 0x1a
 1939 03d0 CA020000 		.long	0x2ca
 1940 03d4 DF030000 		.long	0x3df
 1941 03d8 1E       		.uleb128 0x1e
 1942 03d9 10020000 		.long	0x210
 1943 03dd 07       		.byte	0x7
 1944 03de 00       		.byte	0
 1945 03df 03       		.uleb128 0x3
 1946 03e0 4546495F 		.ascii "EFI_GUID\0"
 1946      47554944 
 1946      00
 1947 03e9 05       		.byte	0x5
 1948 03ea 5A       		.byte	0x5a
 1949 03eb 03       		.byte	0x3
 1950 03ec 8A030000 		.long	0x38a
 1951 03f0 26       		.uleb128 0x26
 1952 03f1 DF030000 		.long	0x3df
 1953 03f5 13       		.uleb128 0x13
 1954 03f6 10       		.byte	0x10
 1955 03f7 05       		.byte	0x5
 1956 03f8 61       		.byte	0x61
 1957 03f9 AA040000 		.long	0x4aa
 1958 03fd 06       		.uleb128 0x6
 1959 03fe 59656172 		.ascii "Year\0"
 1959      00
 1960 0403 05       		.byte	0x5
 1961 0404 62       		.byte	0x62
 1962 0405 11       		.byte	0x11
 1963 0406 AD020000 		.long	0x2ad
 1964 040a 00       		.byte	0
 1965 040b 06       		.uleb128 0x6
 1966 040c 4D6F6E74 		.ascii "Month\0"
 1966      6800
 1967 0412 05       		.byte	0x5
 1968 0413 63       		.byte	0x63
 1969 0414 11       		.byte	0x11
 1970 0415 CA020000 		.long	0x2ca
 1971 0419 02       		.byte	0x2
 1972 041a 06       		.uleb128 0x6
 1973 041b 44617900 		.ascii "Day\0"
 1974 041f 05       		.byte	0x5
 1975 0420 64       		.byte	0x64
 1976 0421 11       		.byte	0x11
 1977 0422 CA020000 		.long	0x2ca
 1978 0426 03       		.byte	0x3
 1979 0427 06       		.uleb128 0x6
 1980 0428 486F7572 		.ascii "Hour\0"
 1980      00
 1981 042d 05       		.byte	0x5
 1982 042e 65       		.byte	0x65
 1983 042f 11       		.byte	0x11
 1984 0430 CA020000 		.long	0x2ca
 1985 0434 04       		.byte	0x4
 1986 0435 06       		.uleb128 0x6
 1987 0436 4D696E75 		.ascii "Minute\0"
 1987      746500
 1988 043d 05       		.byte	0x5
 1989 043e 66       		.byte	0x66
 1990 043f 11       		.byte	0x11
 1991 0440 CA020000 		.long	0x2ca
 1992 0444 05       		.byte	0x5
 1993 0445 06       		.uleb128 0x6
 1994 0446 5365636F 		.ascii "Second\0"
 1994      6E6400
 1995 044d 05       		.byte	0x5
 1996 044e 67       		.byte	0x67
 1997 044f 11       		.byte	0x11
 1998 0450 CA020000 		.long	0x2ca
 1999 0454 06       		.byte	0x6
 2000 0455 06       		.uleb128 0x6
 2001 0456 50616431 		.ascii "Pad1\0"
 2001      00
 2002 045b 05       		.byte	0x5
 2003 045c 68       		.byte	0x68
 2004 045d 11       		.byte	0x11
 2005 045e CA020000 		.long	0x2ca
 2006 0462 07       		.byte	0x7
 2007 0463 06       		.uleb128 0x6
 2008 0464 4E616E6F 		.ascii "Nanosecond\0"
 2008      7365636F 
 2008      6E6400
 2009 046f 05       		.byte	0x5
 2010 0470 69       		.byte	0x69
 2011 0471 11       		.byte	0x11
 2012 0472 90020000 		.long	0x290
 2013 0476 08       		.byte	0x8
 2014 0477 06       		.uleb128 0x6
 2015 0478 54696D65 		.ascii "TimeZone\0"
 2015      5A6F6E65 
 2015      00
 2016 0481 05       		.byte	0x5
 2017 0482 6A       		.byte	0x6a
 2018 0483 11       		.byte	0x11
 2019 0484 BC020000 		.long	0x2bc
 2020 0488 0C       		.byte	0xc
 2021 0489 06       		.uleb128 0x6
 2022 048a 4461796C 		.ascii "Daylight\0"
 2022      69676874 
 2022      00
 2023 0493 05       		.byte	0x5
 2024 0494 6B       		.byte	0x6b
 2025 0495 11       		.byte	0x11
 2026 0496 CA020000 		.long	0x2ca
 2027 049a 0E       		.byte	0xe
 2028 049b 06       		.uleb128 0x6
 2029 049c 50616432 		.ascii "Pad2\0"
 2029      00
 2030 04a1 05       		.byte	0x5
 2031 04a2 6C       		.byte	0x6c
 2032 04a3 11       		.byte	0x11
 2033 04a4 CA020000 		.long	0x2ca
 2034 04a8 0F       		.byte	0xf
 2035 04a9 00       		.byte	0
 2036 04aa 03       		.uleb128 0x3
 2037 04ab 4546495F 		.ascii "EFI_TIME\0"
 2037      54494D45 
 2037      00
 2038 04b4 05       		.byte	0x5
 2039 04b5 6D       		.byte	0x6d
 2040 04b6 03       		.byte	0x3
 2041 04b7 F5030000 		.long	0x3f5
 2042 04bb 1A       		.uleb128 0x1a
 2043 04bc CA020000 		.long	0x2ca
 2044 04c0 CB040000 		.long	0x4cb
 2045 04c4 1E       		.uleb128 0x1e
 2046 04c5 10020000 		.long	0x210
 2047 04c9 03       		.byte	0x3
 2048 04ca 00       		.byte	0
 2049 04cb 03       		.uleb128 0x3
 2050 04cc 4546495F 		.ascii "EFI_PHYSICAL_ADDRESS\0"
 2050      50485953 
 2050      4943414C 
 2050      5F414444 
 2050      52455353 
 2051 04e1 05       		.byte	0x5
 2052 04e2 99       		.byte	0x99
 2053 04e3 19       		.byte	0x19
 2054 04e4 81020000 		.long	0x281
 2055 04e8 03       		.uleb128 0x3
 2056 04e9 4546495F 		.ascii "EFI_VIRTUAL_ADDRESS\0"
 2056      56495254 
 2056      55414C5F 
 2056      41444452 
 2056      45535300 
 2057 04fd 05       		.byte	0x5
 2058 04fe 9A       		.byte	0x9a
 2059 04ff 19       		.byte	0x19
 2060 0500 81020000 		.long	0x281
 2061 0504 1F       		.uleb128 0x1f
 2062 0505 EF010000 		.long	0x1ef
 2063 0509 05       		.byte	0x5
 2064 050a 9C       		.byte	0x9c
 2065 050b 5C050000 		.long	0x55c
 2066 050f 09       		.uleb128 0x9
 2067 0510 416C6C6F 		.ascii "AllocateAnyPages\0"
 2067      63617465 
 2067      416E7950 
 2067      61676573 
 2067      00
 2068 0521 00       		.byte	0
 2069 0522 09       		.uleb128 0x9
 2070 0523 416C6C6F 		.ascii "AllocateMaxAddress\0"
 2070      63617465 
 2070      4D617841 
 2070      64647265 
 2070      737300
 2071 0536 01       		.byte	0x1
 2072 0537 09       		.uleb128 0x9
 2073 0538 416C6C6F 		.ascii "AllocateAddress\0"
 2073      63617465 
 2073      41646472 
 2073      65737300 
 2074 0548 02       		.byte	0x2
 2075 0549 09       		.uleb128 0x9
 2076 054a 4D617841 		.ascii "MaxAllocateType\0"
 2076      6C6C6F63 
 2076      61746554 
 2076      79706500 
 2077 055a 03       		.byte	0x3
 2078 055b 00       		.byte	0
 2079 055c 03       		.uleb128 0x3
 2080 055d 4546495F 		.ascii "EFI_ALLOCATE_TYPE\0"
 2080      414C4C4F 
 2080      43415445 
 2080      5F545950 
 2080      4500
 2081 056f 05       		.byte	0x5
 2082 0570 A1       		.byte	0xa1
 2083 0571 03       		.byte	0x3
 2084 0572 04050000 		.long	0x504
 2085 0576 1F       		.uleb128 0x1f
 2086 0577 EF010000 		.long	0x1ef
 2087 057b 05       		.byte	0x5
 2088 057c AA       		.byte	0xaa
 2089 057d EF060000 		.long	0x6ef
 2090 0581 09       		.uleb128 0x9
 2091 0582 45666952 		.ascii "EfiReservedMemoryType\0"
 2091      65736572 
 2091      7665644D 
 2091      656D6F72 
 2091      79547970 
 2092 0598 00       		.byte	0
 2093 0599 09       		.uleb128 0x9
 2094 059a 4566694C 		.ascii "EfiLoaderCode\0"
 2094      6F616465 
 2094      72436F64 
 2094      6500
 2095 05a8 01       		.byte	0x1
 2096 05a9 09       		.uleb128 0x9
 2097 05aa 4566694C 		.ascii "EfiLoaderData\0"
 2097      6F616465 
 2097      72446174 
 2097      6100
 2098 05b8 02       		.byte	0x2
 2099 05b9 09       		.uleb128 0x9
 2100 05ba 45666942 		.ascii "EfiBootServicesCode\0"
 2100      6F6F7453 
 2100      65727669 
 2100      63657343 
 2100      6F646500 
 2101 05ce 03       		.byte	0x3
 2102 05cf 09       		.uleb128 0x9
 2103 05d0 45666942 		.ascii "EfiBootServicesData\0"
 2103      6F6F7453 
 2103      65727669 
 2103      63657344 
 2103      61746100 
 2104 05e4 04       		.byte	0x4
 2105 05e5 09       		.uleb128 0x9
 2106 05e6 45666952 		.ascii "EfiRuntimeServicesCode\0"
 2106      756E7469 
 2106      6D655365 
 2106      72766963 
 2106      6573436F 
 2107 05fd 05       		.byte	0x5
 2108 05fe 09       		.uleb128 0x9
 2109 05ff 45666952 		.ascii "EfiRuntimeServicesData\0"
 2109      756E7469 
 2109      6D655365 
 2109      72766963 
 2109      65734461 
 2110 0616 06       		.byte	0x6
 2111 0617 09       		.uleb128 0x9
 2112 0618 45666943 		.ascii "EfiConventionalMemory\0"
 2112      6F6E7665 
 2112      6E74696F 
 2112      6E616C4D 
 2112      656D6F72 
 2113 062e 07       		.byte	0x7
 2114 062f 09       		.uleb128 0x9
 2115 0630 45666955 		.ascii "EfiUnusableMemory\0"
 2115      6E757361 
 2115      626C654D 
 2115      656D6F72 
 2115      7900
 2116 0642 08       		.byte	0x8
 2117 0643 09       		.uleb128 0x9
 2118 0644 45666941 		.ascii "EfiACPIReclaimMemory\0"
 2118      43504952 
 2118      65636C61 
 2118      696D4D65 
 2118      6D6F7279 
 2119 0659 09       		.byte	0x9
 2120 065a 09       		.uleb128 0x9
 2121 065b 45666941 		.ascii "EfiACPIMemoryNVS\0"
 2121      4350494D 
 2121      656D6F72 
 2121      794E5653 
 2121      00
 2122 066c 0A       		.byte	0xa
 2123 066d 09       		.uleb128 0x9
 2124 066e 4566694D 		.ascii "EfiMemoryMappedIO\0"
 2124      656D6F72 
 2124      794D6170 
 2124      70656449 
 2124      4F00
 2125 0680 0B       		.byte	0xb
 2126 0681 09       		.uleb128 0x9
 2127 0682 4566694D 		.ascii "EfiMemoryMappedIOPortSpace\0"
 2127      656D6F72 
 2127      794D6170 
 2127      70656449 
 2127      4F506F72 
 2128 069d 0C       		.byte	0xc
 2129 069e 09       		.uleb128 0x9
 2130 069f 45666950 		.ascii "EfiPalCode\0"
 2130      616C436F 
 2130      646500
 2131 06aa 0D       		.byte	0xd
 2132 06ab 09       		.uleb128 0x9
 2133 06ac 45666950 		.ascii "EfiPersistentMemory\0"
 2133      65727369 
 2133      7374656E 
 2133      744D656D 
 2133      6F727900 
 2134 06c0 0E       		.byte	0xe
 2135 06c1 09       		.uleb128 0x9
 2136 06c2 45666955 		.ascii "EfiUnacceptedMemoryType\0"
 2136      6E616363 
 2136      65707465 
 2136      644D656D 
 2136      6F727954 
 2137 06da 0F       		.byte	0xf
 2138 06db 09       		.uleb128 0x9
 2139 06dc 4566694D 		.ascii "EfiMaxMemoryType\0"
 2139      61784D65 
 2139      6D6F7279 
 2139      54797065 
 2139      00
 2140 06ed 10       		.byte	0x10
 2141 06ee 00       		.byte	0
 2142 06ef 03       		.uleb128 0x3
 2143 06f0 4546495F 		.ascii "EFI_MEMORY_TYPE\0"
 2143      4D454D4F 
 2143      52595F54 
 2143      59504500 
 2144 0700 05       		.byte	0x5
 2145 0701 BC       		.byte	0xbc
 2146 0702 03       		.byte	0x3
 2147 0703 76050000 		.long	0x576
 2148 0707 13       		.uleb128 0x13
 2149 0708 28       		.byte	0x28
 2150 0709 05       		.byte	0x5
 2151 070a D9       		.byte	0xd9
 2152 070b 7C070000 		.long	0x77c
 2153 070f 06       		.uleb128 0x6
 2154 0710 54797065 		.ascii "Type\0"
 2154      00
 2155 0715 05       		.byte	0x5
 2156 0716 DA       		.byte	0xda
 2157 0717 25       		.byte	0x25
 2158 0718 90020000 		.long	0x290
 2159 071c 00       		.byte	0
 2160 071d 06       		.uleb128 0x6
 2161 071e 50616400 		.ascii "Pad\0"
 2162 0722 05       		.byte	0x5
 2163 0723 DB       		.byte	0xdb
 2164 0724 25       		.byte	0x25
 2165 0725 90020000 		.long	0x290
 2166 0729 04       		.byte	0x4
 2167 072a 06       		.uleb128 0x6
 2168 072b 50687973 		.ascii "PhysicalStart\0"
 2168      6963616C 
 2168      53746172 
 2168      7400
 2169 0739 05       		.byte	0x5
 2170 073a DC       		.byte	0xdc
 2171 073b 25       		.byte	0x25
 2172 073c CB040000 		.long	0x4cb
 2173 0740 08       		.byte	0x8
 2174 0741 06       		.uleb128 0x6
 2175 0742 56697274 		.ascii "VirtualStart\0"
 2175      75616C53 
 2175      74617274 
 2175      00
 2176 074f 05       		.byte	0x5
 2177 0750 DD       		.byte	0xdd
 2178 0751 25       		.byte	0x25
 2179 0752 E8040000 		.long	0x4e8
 2180 0756 10       		.byte	0x10
 2181 0757 06       		.uleb128 0x6
 2182 0758 4E756D62 		.ascii "NumberOfPages\0"
 2182      65724F66 
 2182      50616765 
 2182      7300
 2183 0766 05       		.byte	0x5
 2184 0767 DE       		.byte	0xde
 2185 0768 25       		.byte	0x25
 2186 0769 81020000 		.long	0x281
 2187 076d 18       		.byte	0x18
 2188 076e 1B       		.uleb128 0x1b
 2189 076f 25000000 		.secrel32	.LASF2
 2190 0773 05       		.byte	0x5
 2191 0774 DF       		.byte	0xdf
 2192 0775 25       		.byte	0x25
 2193 0776 81020000 		.long	0x281
 2194 077a 20       		.byte	0x20
 2195 077b 00       		.byte	0
 2196 077c 03       		.uleb128 0x3
 2197 077d 4546495F 		.ascii "EFI_MEMORY_DESCRIPTOR\0"
 2197      4D454D4F 
 2197      52595F44 
 2197      45534352 
 2197      4950544F 
 2198 0793 05       		.byte	0x5
 2199 0794 E0       		.byte	0xe0
 2200 0795 03       		.byte	0x3
 2201 0796 07070000 		.long	0x707
 2202 079a 03       		.uleb128 0x3
 2203 079b 49534F5F 		.ascii "ISO_639_2\0"
 2203      3633395F 
 2203      3200
 2204 07a5 05       		.byte	0x5
 2205 07a6 E6       		.byte	0xe6
 2206 07a7 0F       		.byte	0xf
 2207 07a8 D8020000 		.long	0x2d8
 2208 07ac 20       		.uleb128 0x20
 2209 07ad 5F454649 		.ascii "_EFI_DEVICE_PATH_PROTOCOL\0"
 2209      5F444556 
 2209      4943455F 
 2209      50415448 
 2209      5F50524F 
 2210 07c7 04       		.byte	0x4
 2211 07c8 06       		.byte	0x6
 2212 07c9 1A       		.byte	0x1a
 2213 07ca FE070000 		.long	0x7fe
 2214 07ce 06       		.uleb128 0x6
 2215 07cf 54797065 		.ascii "Type\0"
 2215      00
 2216 07d4 06       		.byte	0x6
 2217 07d5 1B       		.byte	0x1b
 2218 07d6 29       		.byte	0x29
 2219 07d7 CA020000 		.long	0x2ca
 2220 07db 00       		.byte	0
 2221 07dc 06       		.uleb128 0x6
 2222 07dd 53756254 		.ascii "SubType\0"
 2222      79706500 
 2223 07e5 06       		.byte	0x6
 2224 07e6 1C       		.byte	0x1c
 2225 07e7 29       		.byte	0x29
 2226 07e8 CA020000 		.long	0x2ca
 2227 07ec 01       		.byte	0x1
 2228 07ed 06       		.uleb128 0x6
 2229 07ee 4C656E67 		.ascii "Length\0"
 2229      746800
 2230 07f5 06       		.byte	0x6
 2231 07f6 1D       		.byte	0x1d
 2232 07f7 29       		.byte	0x29
 2233 07f8 FE070000 		.long	0x7fe
 2234 07fc 02       		.byte	0x2
 2235 07fd 00       		.byte	0
 2236 07fe 1A       		.uleb128 0x1a
 2237 07ff CA020000 		.long	0x2ca
 2238 0803 0E080000 		.long	0x80e
 2239 0807 1E       		.uleb128 0x1e
 2240 0808 10020000 		.long	0x210
 2241 080c 01       		.byte	0x1
 2242 080d 00       		.byte	0
 2243 080e 03       		.uleb128 0x3
 2244 080f 4546495F 		.ascii "EFI_DEVICE_PATH_PROTOCOL\0"
 2244      44455649 
 2244      43455F50 
 2244      4154485F 
 2244      50524F54 
 2245 0828 06       		.byte	0x6
 2246 0829 1E       		.byte	0x1e
 2247 082a 03       		.byte	0x3
 2248 082b AC070000 		.long	0x7ac
 2249 082f 03       		.uleb128 0x3
 2250 0830 4546495F 		.ascii "EFI_DEVICE_PATH\0"
 2250      44455649 
 2250      43455F50 
 2250      41544800 
 2251 0840 06       		.byte	0x6
 2252 0841 21       		.byte	0x21
 2253 0842 22       		.byte	0x22
 2254 0843 0E080000 		.long	0x80e
 2255 0847 02       		.uleb128 0x2
 2256 0848 72020000 		.long	0x272
 2257 084c 02       		.uleb128 0x2
 2258 084d 06030000 		.long	0x306
 2259 0851 02       		.uleb128 0x2
 2260 0852 81020000 		.long	0x281
 2261 0856 02       		.uleb128 0x2
 2262 0857 73030000 		.long	0x373
 2263 085b 02       		.uleb128 0x2
 2264 085c CB040000 		.long	0x4cb
 2265 0860 03       		.uleb128 0x3
 2266 0861 4546495F 		.ascii "EFI_BLOCK_RESET\0"
 2266      424C4F43 
 2266      4B5F5245 
 2266      53455400 
 2267 0871 07       		.byte	0x7
 2268 0872 39       		.byte	0x39
 2269 0873 0A       		.byte	0xa
 2270 0874 78080000 		.long	0x878
 2271 0878 02       		.uleb128 0x2
 2272 0879 7D080000 		.long	0x87d
 2273 087d 07       		.uleb128 0x7
 2274 087e 2D030000 		.long	0x32d
 2275 0882 91080000 		.long	0x891
 2276 0886 01       		.uleb128 0x1
 2277 0887 91080000 		.long	0x891
 2278 088b 01       		.uleb128 0x1
 2279 088c 14030000 		.long	0x314
 2280 0890 00       		.byte	0
 2281 0891 02       		.uleb128 0x2
 2282 0892 96080000 		.long	0x896
 2283 0896 20       		.uleb128 0x20
 2284 0897 5F454649 		.ascii "_EFI_BLOCK_IO_PROTOCOL\0"
 2284      5F424C4F 
 2284      434B5F49 
 2284      4F5F5052 
 2284      4F544F43 
 2285 08ae 30       		.byte	0x30
 2286 08af 07       		.byte	0x7
 2287 08b0 71       		.byte	0x71
 2288 08b1 1F090000 		.long	0x91f
 2289 08b5 1B       		.uleb128 0x1b
 2290 08b6 7B000000 		.secrel32	.LASF3
 2291 08ba 07       		.byte	0x7
 2292 08bb 72       		.byte	0x72
 2293 08bc 1D       		.byte	0x1d
 2294 08bd 81020000 		.long	0x281
 2295 08c1 00       		.byte	0
 2296 08c2 06       		.uleb128 0x6
 2297 08c3 4D656469 		.ascii "Media\0"
 2297      6100
 2298 08c9 07       		.byte	0x7
 2299 08ca 74       		.byte	0x74
 2300 08cb 1E       		.byte	0x1e
 2301 08cc E90A0000 		.long	0xae9
 2302 08d0 08       		.byte	0x8
 2303 08d1 06       		.uleb128 0x6
 2304 08d2 52657365 		.ascii "Reset\0"
 2304      7400
 2305 08d8 07       		.byte	0x7
 2306 08d9 76       		.byte	0x76
 2307 08da 1D       		.byte	0x1d
 2308 08db 60080000 		.long	0x860
 2309 08df 10       		.byte	0x10
 2310 08e0 06       		.uleb128 0x6
 2311 08e1 52656164 		.ascii "ReadBlocks\0"
 2311      426C6F63 
 2311      6B7300
 2312 08ec 07       		.byte	0x7
 2313 08ed 77       		.byte	0x77
 2314 08ee 1D       		.byte	0x1d
 2315 08ef 1F090000 		.long	0x91f
 2316 08f3 18       		.byte	0x18
 2317 08f4 06       		.uleb128 0x6
 2318 08f5 57726974 		.ascii "WriteBlocks\0"
 2318      65426C6F 
 2318      636B7300 
 2319 0901 07       		.byte	0x7
 2320 0902 78       		.byte	0x78
 2321 0903 1D       		.byte	0x1d
 2322 0904 5E090000 		.long	0x95e
 2323 0908 20       		.byte	0x20
 2324 0909 06       		.uleb128 0x6
 2325 090a 466C7573 		.ascii "FlushBlocks\0"
 2325      68426C6F 
 2325      636B7300 
 2326 0916 07       		.byte	0x7
 2327 0917 79       		.byte	0x79
 2328 0918 1D       		.byte	0x1d
 2329 0919 76090000 		.long	0x976
 2330 091d 28       		.byte	0x28
 2331 091e 00       		.byte	0
 2332 091f 03       		.uleb128 0x3
 2333 0920 4546495F 		.ascii "EFI_BLOCK_READ\0"
 2333      424C4F43 
 2333      4B5F5245 
 2333      414400
 2334 092f 07       		.byte	0x7
 2335 0930 40       		.byte	0x40
 2336 0931 0A       		.byte	0xa
 2337 0932 36090000 		.long	0x936
 2338 0936 02       		.uleb128 0x2
 2339 0937 3B090000 		.long	0x93b
 2340 093b 07       		.uleb128 0x7
 2341 093c 2D030000 		.long	0x32d
 2342 0940 5E090000 		.long	0x95e
 2343 0944 01       		.uleb128 0x1
 2344 0945 91080000 		.long	0x891
 2345 0949 01       		.uleb128 0x1
 2346 094a 90020000 		.long	0x290
 2347 094e 01       		.uleb128 0x1
 2348 094f 40030000 		.long	0x340
 2349 0953 01       		.uleb128 0x1
 2350 0954 06030000 		.long	0x306
 2351 0958 01       		.uleb128 0x1
 2352 0959 73030000 		.long	0x373
 2353 095d 00       		.byte	0
 2354 095e 03       		.uleb128 0x3
 2355 095f 4546495F 		.ascii "EFI_BLOCK_WRITE\0"
 2355      424C4F43 
 2355      4B5F5752 
 2355      49544500 
 2356 096f 07       		.byte	0x7
 2357 0970 4B       		.byte	0x4b
 2358 0971 0A       		.byte	0xa
 2359 0972 36090000 		.long	0x936
 2360 0976 03       		.uleb128 0x3
 2361 0977 4546495F 		.ascii "EFI_BLOCK_FLUSH\0"
 2361      424C4F43 
 2361      4B5F464C 
 2361      55534800 
 2362 0987 07       		.byte	0x7
 2363 0988 56       		.byte	0x56
 2364 0989 0A       		.byte	0xa
 2365 098a 8E090000 		.long	0x98e
 2366 098e 02       		.uleb128 0x2
 2367 098f 93090000 		.long	0x993
 2368 0993 07       		.uleb128 0x7
 2369 0994 2D030000 		.long	0x32d
 2370 0998 A2090000 		.long	0x9a2
 2371 099c 01       		.uleb128 0x1
 2372 099d 91080000 		.long	0x891
 2373 09a1 00       		.byte	0
 2374 09a2 13       		.uleb128 0x13
 2375 09a3 30       		.byte	0x30
 2376 09a4 07       		.byte	0x7
 2377 09a5 5C       		.byte	0x5c
 2378 09a6 CE0A0000 		.long	0xace
 2379 09aa 06       		.uleb128 0x6
 2380 09ab 4D656469 		.ascii "MediaId\0"
 2380      61496400 
 2381 09b3 07       		.byte	0x7
 2382 09b4 5D       		.byte	0x5d
 2383 09b5 19       		.byte	0x19
 2384 09b6 90020000 		.long	0x290
 2385 09ba 00       		.byte	0
 2386 09bb 06       		.uleb128 0x6
 2387 09bc 52656D6F 		.ascii "RemovableMedia\0"
 2387      7661626C 
 2387      654D6564 
 2387      696100
 2388 09cb 07       		.byte	0x7
 2389 09cc 5E       		.byte	0x5e
 2390 09cd 19       		.byte	0x19
 2391 09ce 14030000 		.long	0x314
 2392 09d2 04       		.byte	0x4
 2393 09d3 06       		.uleb128 0x6
 2394 09d4 4D656469 		.ascii "MediaPresent\0"
 2394      61507265 
 2394      73656E74 
 2394      00
 2395 09e1 07       		.byte	0x7
 2396 09e2 5F       		.byte	0x5f
 2397 09e3 19       		.byte	0x19
 2398 09e4 14030000 		.long	0x314
 2399 09e8 05       		.byte	0x5
 2400 09e9 06       		.uleb128 0x6
 2401 09ea 4C6F6769 		.ascii "LogicalPartition\0"
 2401      63616C50 
 2401      61727469 
 2401      74696F6E 
 2401      00
 2402 09fb 07       		.byte	0x7
 2403 09fc 61       		.byte	0x61
 2404 09fd 19       		.byte	0x19
 2405 09fe 14030000 		.long	0x314
 2406 0a02 06       		.byte	0x6
 2407 0a03 06       		.uleb128 0x6
 2408 0a04 52656164 		.ascii "ReadOnly\0"
 2408      4F6E6C79 
 2408      00
 2409 0a0d 07       		.byte	0x7
 2410 0a0e 62       		.byte	0x62
 2411 0a0f 19       		.byte	0x19
 2412 0a10 14030000 		.long	0x314
 2413 0a14 07       		.byte	0x7
 2414 0a15 06       		.uleb128 0x6
 2415 0a16 57726974 		.ascii "WriteCaching\0"
 2415      65436163 
 2415      68696E67 
 2415      00
 2416 0a23 07       		.byte	0x7
 2417 0a24 63       		.byte	0x63
 2418 0a25 19       		.byte	0x19
 2419 0a26 14030000 		.long	0x314
 2420 0a2a 08       		.byte	0x8
 2421 0a2b 06       		.uleb128 0x6
 2422 0a2c 426C6F63 		.ascii "BlockSize\0"
 2422      6B53697A 
 2422      6500
 2423 0a36 07       		.byte	0x7
 2424 0a37 65       		.byte	0x65
 2425 0a38 19       		.byte	0x19
 2426 0a39 90020000 		.long	0x290
 2427 0a3d 0C       		.byte	0xc
 2428 0a3e 06       		.uleb128 0x6
 2429 0a3f 496F416C 		.ascii "IoAlign\0"
 2429      69676E00 
 2430 0a47 07       		.byte	0x7
 2431 0a48 66       		.byte	0x66
 2432 0a49 19       		.byte	0x19
 2433 0a4a 90020000 		.long	0x290
 2434 0a4e 10       		.byte	0x10
 2435 0a4f 06       		.uleb128 0x6
 2436 0a50 4C617374 		.ascii "LastBlock\0"
 2436      426C6F63 
 2436      6B00
 2437 0a5a 07       		.byte	0x7
 2438 0a5b 68       		.byte	0x68
 2439 0a5c 19       		.byte	0x19
 2440 0a5d 40030000 		.long	0x340
 2441 0a61 18       		.byte	0x18
 2442 0a62 06       		.uleb128 0x6
 2443 0a63 4C6F7765 		.ascii "LowestAlignedLba\0"
 2443      7374416C 
 2443      69676E65 
 2443      644C6261 
 2443      00
 2444 0a74 07       		.byte	0x7
 2445 0a75 6B       		.byte	0x6b
 2446 0a76 19       		.byte	0x19
 2447 0a77 40030000 		.long	0x340
 2448 0a7b 20       		.byte	0x20
 2449 0a7c 06       		.uleb128 0x6
 2450 0a7d 4C6F6769 		.ascii "LogicalBlocksPerPhysicalBlock\0"
 2450      63616C42 
 2450      6C6F636B 
 2450      73506572 
 2450      50687973 
 2451 0a9b 07       		.byte	0x7
 2452 0a9c 6C       		.byte	0x6c
 2453 0a9d 19       		.byte	0x19
 2454 0a9e 90020000 		.long	0x290
 2455 0aa2 28       		.byte	0x28
 2456 0aa3 06       		.uleb128 0x6
 2457 0aa4 4F707469 		.ascii "OptimalTransferLengthGranularity\0"
 2457      6D616C54 
 2457      72616E73 
 2457      6665724C 
 2457      656E6774 
 2458 0ac5 07       		.byte	0x7
 2459 0ac6 6E       		.byte	0x6e
 2460 0ac7 19       		.byte	0x19
 2461 0ac8 90020000 		.long	0x290
 2462 0acc 2C       		.byte	0x2c
 2463 0acd 00       		.byte	0
 2464 0ace 03       		.uleb128 0x3
 2465 0acf 4546495F 		.ascii "EFI_BLOCK_IO_MEDIA\0"
 2465      424C4F43 
 2465      4B5F494F 
 2465      5F4D4544 
 2465      494100
 2466 0ae2 07       		.byte	0x7
 2467 0ae3 6F       		.byte	0x6f
 2468 0ae4 03       		.byte	0x3
 2469 0ae5 A2090000 		.long	0x9a2
 2470 0ae9 02       		.uleb128 0x2
 2471 0aea CE0A0000 		.long	0xace
 2472 0aee 03       		.uleb128 0x3
 2473 0aef 4546495F 		.ascii "EFI_BLOCK_IO_PROTOCOL\0"
 2473      424C4F43 
 2473      4B5F494F 
 2473      5F50524F 
 2473      544F434F 
 2474 0b05 07       		.byte	0x7
 2475 0b06 7B       		.byte	0x7b
 2476 0b07 03       		.byte	0x3
 2477 0b08 96080000 		.long	0x896
 2478 0b0c 03       		.uleb128 0x3
 2479 0b0d 4546495F 		.ascii "EFI_BLOCK_IO\0"
 2479      424C4F43 
 2479      4B5F494F 
 2479      00
 2480 0b1a 07       		.byte	0x7
 2481 0b1b 7E       		.byte	0x7e
 2482 0b1c 1F       		.byte	0x1f
 2483 0b1d EE0A0000 		.long	0xaee
 2484 0b21 02       		.uleb128 0x2
 2485 0b22 DF030000 		.long	0x3df
 2486 0b26 02       		.uleb128 0x2
 2487 0b27 2F080000 		.long	0x82f
 2488 0b2b 02       		.uleb128 0x2
 2489 0b2c 260B0000 		.long	0xb26
 2490 0b30 02       		.uleb128 0x2
 2491 0b31 F0030000 		.long	0x3f0
 2492 0b35 02       		.uleb128 0x2
 2493 0b36 60030000 		.long	0x360
 2494 0b3a 02       		.uleb128 0x2
 2495 0b3b 90020000 		.long	0x290
 2496 0b3f 02       		.uleb128 0x2
 2497 0b40 47080000 		.long	0x847
 2498 0b44 08       		.uleb128 0x8
 2499 0b45 4546495F 		.ascii "EFI_IMAGE_UNLOAD\0"
 2499      494D4147 
 2499      455F554E 
 2499      4C4F4144 
 2499      00
 2500 0b56 07       		.byte	0x7
 2501 0b57 C604     		.word	0x4c6
 2502 0b59 0A       		.byte	0xa
 2503 0b5a 5E0B0000 		.long	0xb5e
 2504 0b5e 02       		.uleb128 0x2
 2505 0b5f 630B0000 		.long	0xb63
 2506 0b63 07       		.uleb128 0x7
 2507 0b64 2D030000 		.long	0x32d
 2508 0b68 720B0000 		.long	0xb72
 2509 0b6c 01       		.uleb128 0x1
 2510 0b6d 60030000 		.long	0x360
 2511 0b71 00       		.byte	0
 2512 0b72 21       		.uleb128 0x21
 2513 0b73 5F454649 		.ascii "_EFI_SYSTEM_TABLE\0"
 2513      5F535953 
 2513      54454D5F 
 2513      5441424C 
 2513      4500
 2514 0b85 78       		.byte	0x78
 2515 0b86 08       		.byte	0x8
 2516 0b87 F203     		.word	0x3f2
 2517 0b89 C20C0000 		.long	0xcc2
 2518 0b8d 04       		.uleb128 0x4
 2519 0b8e 48647200 		.ascii "Hdr\0"
 2520 0b92 08       		.byte	0x8
 2521 0b93 F303     		.word	0x3f3
 2522 0b95 25       		.byte	0x25
 2523 0b96 F7210000 		.long	0x21f7
 2524 0b9a 00       		.byte	0
 2525 0b9b 04       		.uleb128 0x4
 2526 0b9c 4669726D 		.ascii "FirmwareVendor\0"
 2526      77617265 
 2526      56656E64 
 2526      6F7200
 2527 0bab 08       		.byte	0x8
 2528 0bac F503     		.word	0x3f5
 2529 0bae 26       		.byte	0x26
 2530 0baf 47080000 		.long	0x847
 2531 0bb3 18       		.byte	0x18
 2532 0bb4 04       		.uleb128 0x4
 2533 0bb5 4669726D 		.ascii "FirmwareRevision\0"
 2533      77617265 
 2533      52657669 
 2533      73696F6E 
 2533      00
 2534 0bc6 08       		.byte	0x8
 2535 0bc7 F603     		.word	0x3f6
 2536 0bc9 25       		.byte	0x25
 2537 0bca 90020000 		.long	0x290
 2538 0bce 20       		.byte	0x20
 2539 0bcf 04       		.uleb128 0x4
 2540 0bd0 436F6E73 		.ascii "ConsoleInHandle\0"
 2540      6F6C6549 
 2540      6E48616E 
 2540      646C6500 
 2541 0be0 08       		.byte	0x8
 2542 0be1 F803     		.word	0x3f8
 2543 0be3 25       		.byte	0x25
 2544 0be4 60030000 		.long	0x360
 2545 0be8 28       		.byte	0x28
 2546 0be9 04       		.uleb128 0x4
 2547 0bea 436F6E49 		.ascii "ConIn\0"
 2547      6E00
 2548 0bf0 08       		.byte	0x8
 2549 0bf1 F903     		.word	0x3f9
 2550 0bf3 26       		.byte	0x26
 2551 0bf4 BA280000 		.long	0x28ba
 2552 0bf8 30       		.byte	0x30
 2553 0bf9 04       		.uleb128 0x4
 2554 0bfa 436F6E73 		.ascii "ConsoleOutHandle\0"
 2554      6F6C654F 
 2554      75744861 
 2554      6E646C65 
 2554      00
 2555 0c0b 08       		.byte	0x8
 2556 0c0c FB03     		.word	0x3fb
 2557 0c0e 25       		.byte	0x25
 2558 0c0f 60030000 		.long	0x360
 2559 0c13 38       		.byte	0x38
 2560 0c14 04       		.uleb128 0x4
 2561 0c15 436F6E4F 		.ascii "ConOut\0"
 2561      757400
 2562 0c1c 08       		.byte	0x8
 2563 0c1d FC03     		.word	0x3fc
 2564 0c1f 26       		.byte	0x26
 2565 0c20 BF280000 		.long	0x28bf
 2566 0c24 40       		.byte	0x40
 2567 0c25 04       		.uleb128 0x4
 2568 0c26 5374616E 		.ascii "StandardErrorHandle\0"
 2568      64617264 
 2568      4572726F 
 2568      7248616E 
 2568      646C6500 
 2569 0c3a 08       		.byte	0x8
 2570 0c3b FE03     		.word	0x3fe
 2571 0c3d 25       		.byte	0x25
 2572 0c3e 60030000 		.long	0x360
 2573 0c42 48       		.byte	0x48
 2574 0c43 04       		.uleb128 0x4
 2575 0c44 53746445 		.ascii "StdErr\0"
 2575      727200
 2576 0c4b 08       		.byte	0x8
 2577 0c4c FF03     		.word	0x3ff
 2578 0c4e 26       		.byte	0x26
 2579 0c4f BF280000 		.long	0x28bf
 2580 0c53 50       		.byte	0x50
 2581 0c54 04       		.uleb128 0x4
 2582 0c55 52756E74 		.ascii "RuntimeServices\0"
 2582      696D6553 
 2582      65727669 
 2582      63657300 
 2583 0c65 08       		.byte	0x8
 2584 0c66 0104     		.word	0x401
 2585 0c68 26       		.byte	0x26
 2586 0c69 C4280000 		.long	0x28c4
 2587 0c6d 58       		.byte	0x58
 2588 0c6e 04       		.uleb128 0x4
 2589 0c6f 426F6F74 		.ascii "BootServices\0"
 2589      53657276 
 2589      69636573 
 2589      00
 2590 0c7c 08       		.byte	0x8
 2591 0c7d 0204     		.word	0x402
 2592 0c7f 26       		.byte	0x26
 2593 0c80 C9280000 		.long	0x28c9
 2594 0c84 60       		.byte	0x60
 2595 0c85 04       		.uleb128 0x4
 2596 0c86 4E756D62 		.ascii "NumberOfTableEntries\0"
 2596      65724F66 
 2596      5461626C 
 2596      65456E74 
 2596      72696573 
 2597 0c9b 08       		.byte	0x8
 2598 0c9c 0404     		.word	0x404
 2599 0c9e 25       		.byte	0x25
 2600 0c9f 06030000 		.long	0x306
 2601 0ca3 68       		.byte	0x68
 2602 0ca4 04       		.uleb128 0x4
 2603 0ca5 436F6E66 		.ascii "ConfigurationTable\0"
 2603      69677572 
 2603      6174696F 
 2603      6E546162 
 2603      6C6500
 2604 0cb8 08       		.byte	0x8
 2605 0cb9 0504     		.word	0x405
 2606 0cbb 26       		.byte	0x26
 2607 0cbc CE280000 		.long	0x28ce
 2608 0cc0 70       		.byte	0x70
 2609 0cc1 00       		.byte	0
 2610 0cc2 03       		.uleb128 0x3
 2611 0cc3 4546495F 		.ascii "EFI_TEXT_RESET\0"
 2611      54455854 
 2611      5F524553 
 2611      455400
 2612 0cd2 09       		.byte	0x9
 2613 0cd3 22       		.byte	0x22
 2614 0cd4 0A       		.byte	0xa
 2615 0cd5 D90C0000 		.long	0xcd9
 2616 0cd9 02       		.uleb128 0x2
 2617 0cda DE0C0000 		.long	0xcde
 2618 0cde 07       		.uleb128 0x7
 2619 0cdf 2D030000 		.long	0x32d
 2620 0ce3 F20C0000 		.long	0xcf2
 2621 0ce7 01       		.uleb128 0x1
 2622 0ce8 F20C0000 		.long	0xcf2
 2623 0cec 01       		.uleb128 0x1
 2624 0ced 14030000 		.long	0x314
 2625 0cf1 00       		.byte	0
 2626 0cf2 02       		.uleb128 0x2
 2627 0cf3 F70C0000 		.long	0xcf7
 2628 0cf7 20       		.uleb128 0x20
 2629 0cf8 5F53494D 		.ascii "_SIMPLE_TEXT_OUTPUT_INTERFACE\0"
 2629      504C455F 
 2629      54455854 
 2629      5F4F5554 
 2629      5055545F 
 2630 0d16 50       		.byte	0x50
 2631 0d17 09       		.byte	0x9
 2632 0d18 89       		.byte	0x89
 2633 0d19 E50D0000 		.long	0xde5
 2634 0d1d 06       		.uleb128 0x6
 2635 0d1e 52657365 		.ascii "Reset\0"
 2635      7400
 2636 0d24 09       		.byte	0x9
 2637 0d25 8A       		.byte	0x8a
 2638 0d26 25       		.byte	0x25
 2639 0d27 C20C0000 		.long	0xcc2
 2640 0d2b 00       		.byte	0
 2641 0d2c 06       		.uleb128 0x6
 2642 0d2d 4F757470 		.ascii "OutputString\0"
 2642      75745374 
 2642      72696E67 
 2642      00
 2643 0d3a 09       		.byte	0x9
 2644 0d3b 8C       		.byte	0x8c
 2645 0d3c 25       		.byte	0x25
 2646 0d3d E50D0000 		.long	0xde5
 2647 0d41 08       		.byte	0x8
 2648 0d42 06       		.uleb128 0x6
 2649 0d43 54657374 		.ascii "TestString\0"
 2649      53747269 
 2649      6E6700
 2650 0d4e 09       		.byte	0x9
 2651 0d4f 8D       		.byte	0x8d
 2652 0d50 25       		.byte	0x25
 2653 0d51 1D0E0000 		.long	0xe1d
 2654 0d55 10       		.byte	0x10
 2655 0d56 06       		.uleb128 0x6
 2656 0d57 51756572 		.ascii "QueryMode\0"
 2656      794D6F64 
 2656      6500
 2657 0d61 09       		.byte	0x9
 2658 0d62 8F       		.byte	0x8f
 2659 0d63 25       		.byte	0x25
 2660 0d64 3A0E0000 		.long	0xe3a
 2661 0d68 18       		.byte	0x18
 2662 0d69 06       		.uleb128 0x6
 2663 0d6a 5365744D 		.ascii "SetMode\0"
 2663      6F646500 
 2664 0d72 09       		.byte	0x9
 2665 0d73 90       		.byte	0x90
 2666 0d74 25       		.byte	0x25
 2667 0d75 790E0000 		.long	0xe79
 2668 0d79 20       		.byte	0x20
 2669 0d7a 06       		.uleb128 0x6
 2670 0d7b 53657441 		.ascii "SetAttribute\0"
 2670      74747269 
 2670      62757465 
 2670      00
 2671 0d88 09       		.byte	0x9
 2672 0d89 91       		.byte	0x91
 2673 0d8a 25       		.byte	0x25
 2674 0d8b AC0E0000 		.long	0xeac
 2675 0d8f 28       		.byte	0x28
 2676 0d90 06       		.uleb128 0x6
 2677 0d91 436C6561 		.ascii "ClearScreen\0"
 2677      72536372 
 2677      65656E00 
 2678 0d9d 09       		.byte	0x9
 2679 0d9e 93       		.byte	0x93
 2680 0d9f 25       		.byte	0x25
 2681 0da0 CB0E0000 		.long	0xecb
 2682 0da4 30       		.byte	0x30
 2683 0da5 06       		.uleb128 0x6
 2684 0da6 53657443 		.ascii "SetCursorPosition\0"
 2684      7572736F 
 2684      72506F73 
 2684      6974696F 
 2684      6E00
 2685 0db8 09       		.byte	0x9
 2686 0db9 94       		.byte	0x94
 2687 0dba 25       		.byte	0x25
 2688 0dbb FD0E0000 		.long	0xefd
 2689 0dbf 38       		.byte	0x38
 2690 0dc0 06       		.uleb128 0x6
 2691 0dc1 456E6162 		.ascii "EnableCursor\0"
 2691      6C654375 
 2691      72736F72 
 2691      00
 2692 0dce 09       		.byte	0x9
 2693 0dcf 95       		.byte	0x95
 2694 0dd0 25       		.byte	0x25
 2695 0dd1 400F0000 		.long	0xf40
 2696 0dd5 40       		.byte	0x40
 2697 0dd6 06       		.uleb128 0x6
 2698 0dd7 4D6F6465 		.ascii "Mode\0"
 2698      00
 2699 0ddc 09       		.byte	0x9
 2700 0ddd 98       		.byte	0x98
 2701 0dde 26       		.byte	0x26
 2702 0ddf F40F0000 		.long	0xff4
 2703 0de3 48       		.byte	0x48
 2704 0de4 00       		.byte	0
 2705 0de5 03       		.uleb128 0x3
 2706 0de6 4546495F 		.ascii "EFI_TEXT_OUTPUT_STRING\0"
 2706      54455854 
 2706      5F4F5554 
 2706      5055545F 
 2706      53545249 
 2707 0dfd 09       		.byte	0x9
 2708 0dfe 29       		.byte	0x29
 2709 0dff 0A       		.byte	0xa
 2710 0e00 040E0000 		.long	0xe04
 2711 0e04 02       		.uleb128 0x2
 2712 0e05 090E0000 		.long	0xe09
 2713 0e09 07       		.uleb128 0x7
 2714 0e0a 2D030000 		.long	0x32d
 2715 0e0e 1D0E0000 		.long	0xe1d
 2716 0e12 01       		.uleb128 0x1
 2717 0e13 F20C0000 		.long	0xcf2
 2718 0e17 01       		.uleb128 0x1
 2719 0e18 47080000 		.long	0x847
 2720 0e1c 00       		.byte	0
 2721 0e1d 03       		.uleb128 0x3
 2722 0e1e 4546495F 		.ascii "EFI_TEXT_TEST_STRING\0"
 2722      54455854 
 2722      5F544553 
 2722      545F5354 
 2722      52494E47 
 2723 0e33 09       		.byte	0x9
 2724 0e34 30       		.byte	0x30
 2725 0e35 0A       		.byte	0xa
 2726 0e36 040E0000 		.long	0xe04
 2727 0e3a 03       		.uleb128 0x3
 2728 0e3b 4546495F 		.ascii "EFI_TEXT_QUERY_MODE\0"
 2728      54455854 
 2728      5F515545 
 2728      52595F4D 
 2728      4F444500 
 2729 0e4f 09       		.byte	0x9
 2730 0e50 37       		.byte	0x37
 2731 0e51 0A       		.byte	0xa
 2732 0e52 560E0000 		.long	0xe56
 2733 0e56 02       		.uleb128 0x2
 2734 0e57 5B0E0000 		.long	0xe5b
 2735 0e5b 07       		.uleb128 0x7
 2736 0e5c 2D030000 		.long	0x32d
 2737 0e60 790E0000 		.long	0xe79
 2738 0e64 01       		.uleb128 0x1
 2739 0e65 F20C0000 		.long	0xcf2
 2740 0e69 01       		.uleb128 0x1
 2741 0e6a 06030000 		.long	0x306
 2742 0e6e 01       		.uleb128 0x1
 2743 0e6f 4C080000 		.long	0x84c
 2744 0e73 01       		.uleb128 0x1
 2745 0e74 4C080000 		.long	0x84c
 2746 0e78 00       		.byte	0
 2747 0e79 03       		.uleb128 0x3
 2748 0e7a 4546495F 		.ascii "EFI_TEXT_SET_MODE\0"
 2748      54455854 
 2748      5F534554 
 2748      5F4D4F44 
 2748      4500
 2749 0e8c 09       		.byte	0x9
 2750 0e8d 40       		.byte	0x40
 2751 0e8e 0A       		.byte	0xa
 2752 0e8f 930E0000 		.long	0xe93
 2753 0e93 02       		.uleb128 0x2
 2754 0e94 980E0000 		.long	0xe98
 2755 0e98 07       		.uleb128 0x7
 2756 0e99 2D030000 		.long	0x32d
 2757 0e9d AC0E0000 		.long	0xeac
 2758 0ea1 01       		.uleb128 0x1
 2759 0ea2 F20C0000 		.long	0xcf2
 2760 0ea6 01       		.uleb128 0x1
 2761 0ea7 06030000 		.long	0x306
 2762 0eab 00       		.byte	0
 2763 0eac 03       		.uleb128 0x3
 2764 0ead 4546495F 		.ascii "EFI_TEXT_SET_ATTRIBUTE\0"
 2764      54455854 
 2764      5F534554 
 2764      5F415454 
 2764      52494255 
 2765 0ec4 09       		.byte	0x9
 2766 0ec5 47       		.byte	0x47
 2767 0ec6 0A       		.byte	0xa
 2768 0ec7 930E0000 		.long	0xe93
 2769 0ecb 03       		.uleb128 0x3
 2770 0ecc 4546495F 		.ascii "EFI_TEXT_CLEAR_SCREEN\0"
 2770      54455854 
 2770      5F434C45 
 2770      41525F53 
 2770      43524545 
 2771 0ee2 09       		.byte	0x9
 2772 0ee3 6C       		.byte	0x6c
 2773 0ee4 0A       		.byte	0xa
 2774 0ee5 E90E0000 		.long	0xee9
 2775 0ee9 02       		.uleb128 0x2
 2776 0eea EE0E0000 		.long	0xeee
 2777 0eee 07       		.uleb128 0x7
 2778 0eef 2D030000 		.long	0x32d
 2779 0ef3 FD0E0000 		.long	0xefd
 2780 0ef7 01       		.uleb128 0x1
 2781 0ef8 F20C0000 		.long	0xcf2
 2782 0efc 00       		.byte	0
 2783 0efd 03       		.uleb128 0x3
 2784 0efe 4546495F 		.ascii "EFI_TEXT_SET_CURSOR_POSITION\0"
 2784      54455854 
 2784      5F534554 
 2784      5F435552 
 2784      534F525F 
 2785 0f1b 09       		.byte	0x9
 2786 0f1c 72       		.byte	0x72
 2787 0f1d 0A       		.byte	0xa
 2788 0f1e 220F0000 		.long	0xf22
 2789 0f22 02       		.uleb128 0x2
 2790 0f23 270F0000 		.long	0xf27
 2791 0f27 07       		.uleb128 0x7
 2792 0f28 2D030000 		.long	0x32d
 2793 0f2c 400F0000 		.long	0xf40
 2794 0f30 01       		.uleb128 0x1
 2795 0f31 F20C0000 		.long	0xcf2
 2796 0f35 01       		.uleb128 0x1
 2797 0f36 06030000 		.long	0x306
 2798 0f3a 01       		.uleb128 0x1
 2799 0f3b 06030000 		.long	0x306
 2800 0f3f 00       		.byte	0
 2801 0f40 03       		.uleb128 0x3
 2802 0f41 4546495F 		.ascii "EFI_TEXT_ENABLE_CURSOR\0"
 2802      54455854 
 2802      5F454E41 
 2802      424C455F 
 2802      43555253 
 2803 0f58 09       		.byte	0x9
 2804 0f59 7A       		.byte	0x7a
 2805 0f5a 0A       		.byte	0xa
 2806 0f5b D90C0000 		.long	0xcd9
 2807 0f5f 13       		.uleb128 0x13
 2808 0f60 18       		.byte	0x18
 2809 0f61 09       		.byte	0x9
 2810 0f62 7F       		.byte	0x7f
 2811 0f63 D40F0000 		.long	0xfd4
 2812 0f67 06       		.uleb128 0x6
 2813 0f68 4D61784D 		.ascii "MaxMode\0"
 2813      6F646500 
 2814 0f70 09       		.byte	0x9
 2815 0f71 80       		.byte	0x80
 2816 0f72 25       		.byte	0x25
 2817 0f73 9F020000 		.long	0x29f
 2818 0f77 00       		.byte	0
 2819 0f78 06       		.uleb128 0x6
 2820 0f79 4D6F6465 		.ascii "Mode\0"
 2820      00
 2821 0f7e 09       		.byte	0x9
 2822 0f7f 82       		.byte	0x82
 2823 0f80 25       		.byte	0x25
 2824 0f81 9F020000 		.long	0x29f
 2825 0f85 04       		.byte	0x4
 2826 0f86 1B       		.uleb128 0x1b
 2827 0f87 25000000 		.secrel32	.LASF2
 2828 0f8b 09       		.byte	0x9
 2829 0f8c 83       		.byte	0x83
 2830 0f8d 25       		.byte	0x25
 2831 0f8e 9F020000 		.long	0x29f
 2832 0f92 08       		.byte	0x8
 2833 0f93 06       		.uleb128 0x6
 2834 0f94 43757273 		.ascii "CursorColumn\0"
 2834      6F72436F 
 2834      6C756D6E 
 2834      00
 2835 0fa1 09       		.byte	0x9
 2836 0fa2 84       		.byte	0x84
 2837 0fa3 25       		.byte	0x25
 2838 0fa4 9F020000 		.long	0x29f
 2839 0fa8 0C       		.byte	0xc
 2840 0fa9 06       		.uleb128 0x6
 2841 0faa 43757273 		.ascii "CursorRow\0"
 2841      6F72526F 
 2841      7700
 2842 0fb4 09       		.byte	0x9
 2843 0fb5 85       		.byte	0x85
 2844 0fb6 25       		.byte	0x25
 2845 0fb7 9F020000 		.long	0x29f
 2846 0fbb 10       		.byte	0x10
 2847 0fbc 06       		.uleb128 0x6
 2848 0fbd 43757273 		.ascii "CursorVisible\0"
 2848      6F725669 
 2848      7369626C 
 2848      6500
 2849 0fcb 09       		.byte	0x9
 2850 0fcc 86       		.byte	0x86
 2851 0fcd 25       		.byte	0x25
 2852 0fce 14030000 		.long	0x314
 2853 0fd2 14       		.byte	0x14
 2854 0fd3 00       		.byte	0
 2855 0fd4 03       		.uleb128 0x3
 2856 0fd5 53494D50 		.ascii "SIMPLE_TEXT_OUTPUT_MODE\0"
 2856      4C455F54 
 2856      4558545F 
 2856      4F555450 
 2856      55545F4D 
 2857 0fed 09       		.byte	0x9
 2858 0fee 87       		.byte	0x87
 2859 0fef 03       		.byte	0x3
 2860 0ff0 5F0F0000 		.long	0xf5f
 2861 0ff4 02       		.uleb128 0x2
 2862 0ff5 D40F0000 		.long	0xfd4
 2863 0ff9 03       		.uleb128 0x3
 2864 0ffa 53494D50 		.ascii "SIMPLE_TEXT_OUTPUT_INTERFACE\0"
 2864      4C455F54 
 2864      4558545F 
 2864      4F555450 
 2864      55545F49 
 2865 1017 09       		.byte	0x9
 2866 1018 99       		.byte	0x99
 2867 1019 03       		.byte	0x3
 2868 101a F70C0000 		.long	0xcf7
 2869 101e 13       		.uleb128 0x13
 2870 101f 04       		.byte	0x4
 2871 1020 09       		.byte	0x9
 2872 1021 F1       		.byte	0xf1
 2873 1022 4E100000 		.long	0x104e
 2874 1026 06       		.uleb128 0x6
 2875 1027 5363616E 		.ascii "ScanCode\0"
 2875      436F6465 
 2875      00
 2876 1030 09       		.byte	0x9
 2877 1031 F2       		.byte	0xf2
 2878 1032 29       		.byte	0x29
 2879 1033 AD020000 		.long	0x2ad
 2880 1037 00       		.byte	0
 2881 1038 06       		.uleb128 0x6
 2882 1039 556E6963 		.ascii "UnicodeChar\0"
 2882      6F646543 
 2882      68617200 
 2883 1045 09       		.byte	0x9
 2884 1046 F3       		.byte	0xf3
 2885 1047 29       		.byte	0x29
 2886 1048 72020000 		.long	0x272
 2887 104c 02       		.byte	0x2
 2888 104d 00       		.byte	0
 2889 104e 03       		.uleb128 0x3
 2890 104f 4546495F 		.ascii "EFI_INPUT_KEY\0"
 2890      494E5055 
 2890      545F4B45 
 2890      5900
 2891 105d 09       		.byte	0x9
 2892 105e F4       		.byte	0xf4
 2893 105f 03       		.byte	0x3
 2894 1060 1E100000 		.long	0x101e
 2895 1064 08       		.uleb128 0x8
 2896 1065 4546495F 		.ascii "EFI_INPUT_RESET\0"
 2896      494E5055 
 2896      545F5245 
 2896      53455400 
 2897 1075 09       		.byte	0x9
 2898 1076 1F01     		.word	0x11f
 2899 1078 0A       		.byte	0xa
 2900 1079 7D100000 		.long	0x107d
 2901 107d 02       		.uleb128 0x2
 2902 107e 82100000 		.long	0x1082
 2903 1082 07       		.uleb128 0x7
 2904 1083 2D030000 		.long	0x32d
 2905 1087 96100000 		.long	0x1096
 2906 108b 01       		.uleb128 0x1
 2907 108c 96100000 		.long	0x1096
 2908 1090 01       		.uleb128 0x1
 2909 1091 14030000 		.long	0x314
 2910 1095 00       		.byte	0
 2911 1096 02       		.uleb128 0x2
 2912 1097 9B100000 		.long	0x109b
 2913 109b 21       		.uleb128 0x21
 2914 109c 5F53494D 		.ascii "_SIMPLE_INPUT_INTERFACE\0"
 2914      504C455F 
 2914      494E5055 
 2914      545F494E 
 2914      54455246 
 2915 10b4 18       		.byte	0x18
 2916 10b5 09       		.byte	0x9
 2917 10b6 2B01     		.word	0x12b
 2918 10b8 FA100000 		.long	0x10fa
 2919 10bc 04       		.uleb128 0x4
 2920 10bd 52657365 		.ascii "Reset\0"
 2920      7400
 2921 10c3 09       		.byte	0x9
 2922 10c4 2C01     		.word	0x12c
 2923 10c6 29       		.byte	0x29
 2924 10c7 64100000 		.long	0x1064
 2925 10cb 00       		.byte	0
 2926 10cc 04       		.uleb128 0x4
 2927 10cd 52656164 		.ascii "ReadKeyStroke\0"
 2927      4B657953 
 2927      74726F6B 
 2927      6500
 2928 10db 09       		.byte	0x9
 2929 10dc 2D01     		.word	0x12d
 2930 10de 29       		.byte	0x29
 2931 10df FA100000 		.long	0x10fa
 2932 10e3 08       		.byte	0x8
 2933 10e4 04       		.uleb128 0x4
 2934 10e5 57616974 		.ascii "WaitForKey\0"
 2934      466F724B 
 2934      657900
 2935 10f0 09       		.byte	0x9
 2936 10f1 2E01     		.word	0x12e
 2937 10f3 29       		.byte	0x29
 2938 10f4 78030000 		.long	0x378
 2939 10f8 10       		.byte	0x10
 2940 10f9 00       		.byte	0
 2941 10fa 08       		.uleb128 0x8
 2942 10fb 4546495F 		.ascii "EFI_INPUT_READ_KEY\0"
 2942      494E5055 
 2942      545F5245 
 2942      41445F4B 
 2942      455900
 2943 110e 09       		.byte	0x9
 2944 110f 2601     		.word	0x126
 2945 1111 0A       		.byte	0xa
 2946 1112 16110000 		.long	0x1116
 2947 1116 02       		.uleb128 0x2
 2948 1117 1B110000 		.long	0x111b
 2949 111b 07       		.uleb128 0x7
 2950 111c 2D030000 		.long	0x32d
 2951 1120 2F110000 		.long	0x112f
 2952 1124 01       		.uleb128 0x1
 2953 1125 96100000 		.long	0x1096
 2954 1129 01       		.uleb128 0x1
 2955 112a 2F110000 		.long	0x112f
 2956 112e 00       		.byte	0
 2957 112f 02       		.uleb128 0x2
 2958 1130 4E100000 		.long	0x104e
 2959 1134 08       		.uleb128 0x8
 2960 1135 53494D50 		.ascii "SIMPLE_INPUT_INTERFACE\0"
 2960      4C455F49 
 2960      4E505554 
 2960      5F494E54 
 2960      45524641 
 2961 114c 09       		.byte	0x9
 2962 114d 2F01     		.word	0x12f
 2963 114f 03       		.byte	0x3
 2964 1150 9B100000 		.long	0x109b
 2965 1154 02       		.uleb128 0x2
 2966 1155 AD020000 		.long	0x2ad
 2967 1159 02       		.uleb128 0x2
 2968 115a 14030000 		.long	0x314
 2969 115e 03       		.uleb128 0x3
 2970 115f 4546495F 		.ascii "EFI_ALLOCATE_PAGES\0"
 2970      414C4C4F 
 2970      43415445 
 2970      5F504147 
 2970      455300
 2971 1172 08       		.byte	0x8
 2972 1173 2C       		.byte	0x2c
 2973 1174 0A       		.byte	0xa
 2974 1175 79110000 		.long	0x1179
 2975 1179 02       		.uleb128 0x2
 2976 117a 7E110000 		.long	0x117e
 2977 117e 07       		.uleb128 0x7
 2978 117f 2D030000 		.long	0x32d
 2979 1183 9C110000 		.long	0x119c
 2980 1187 01       		.uleb128 0x1
 2981 1188 5C050000 		.long	0x55c
 2982 118c 01       		.uleb128 0x1
 2983 118d EF060000 		.long	0x6ef
 2984 1191 01       		.uleb128 0x1
 2985 1192 06030000 		.long	0x306
 2986 1196 01       		.uleb128 0x1
 2987 1197 5B080000 		.long	0x85b
 2988 119b 00       		.byte	0
 2989 119c 03       		.uleb128 0x3
 2990 119d 4546495F 		.ascii "EFI_FREE_PAGES\0"
 2990      46524545 
 2990      5F504147 
 2990      455300
 2991 11ac 08       		.byte	0x8
 2992 11ad 35       		.byte	0x35
 2993 11ae 0A       		.byte	0xa
 2994 11af B3110000 		.long	0x11b3
 2995 11b3 02       		.uleb128 0x2
 2996 11b4 B8110000 		.long	0x11b8
 2997 11b8 07       		.uleb128 0x7
 2998 11b9 2D030000 		.long	0x32d
 2999 11bd CC110000 		.long	0x11cc
 3000 11c1 01       		.uleb128 0x1
 3001 11c2 CB040000 		.long	0x4cb
 3002 11c6 01       		.uleb128 0x1
 3003 11c7 06030000 		.long	0x306
 3004 11cb 00       		.byte	0
 3005 11cc 03       		.uleb128 0x3
 3006 11cd 4546495F 		.ascii "EFI_GET_MEMORY_MAP\0"
 3006      4745545F 
 3006      4D454D4F 
 3006      52595F4D 
 3006      415000
 3007 11e0 08       		.byte	0x8
 3008 11e1 3C       		.byte	0x3c
 3009 11e2 0A       		.byte	0xa
 3010 11e3 E7110000 		.long	0x11e7
 3011 11e7 02       		.uleb128 0x2
 3012 11e8 EC110000 		.long	0x11ec
 3013 11ec 07       		.uleb128 0x7
 3014 11ed 2D030000 		.long	0x32d
 3015 11f1 0F120000 		.long	0x120f
 3016 11f5 01       		.uleb128 0x1
 3017 11f6 4C080000 		.long	0x84c
 3018 11fa 01       		.uleb128 0x1
 3019 11fb 0F120000 		.long	0x120f
 3020 11ff 01       		.uleb128 0x1
 3021 1200 4C080000 		.long	0x84c
 3022 1204 01       		.uleb128 0x1
 3023 1205 4C080000 		.long	0x84c
 3024 1209 01       		.uleb128 0x1
 3025 120a 3A0B0000 		.long	0xb3a
 3026 120e 00       		.byte	0
 3027 120f 02       		.uleb128 0x2
 3028 1210 7C070000 		.long	0x77c
 3029 1214 03       		.uleb128 0x3
 3030 1215 4546495F 		.ascii "EFI_ALLOCATE_POOL\0"
 3030      414C4C4F 
 3030      43415445 
 3030      5F504F4F 
 3030      4C00
 3031 1227 08       		.byte	0x8
 3032 1228 49       		.byte	0x49
 3033 1229 0A       		.byte	0xa
 3034 122a 2E120000 		.long	0x122e
 3035 122e 02       		.uleb128 0x2
 3036 122f 33120000 		.long	0x1233
 3037 1233 07       		.uleb128 0x7
 3038 1234 2D030000 		.long	0x32d
 3039 1238 4C120000 		.long	0x124c
 3040 123c 01       		.uleb128 0x1
 3041 123d EF060000 		.long	0x6ef
 3042 1241 01       		.uleb128 0x1
 3043 1242 06030000 		.long	0x306
 3044 1246 01       		.uleb128 0x1
 3045 1247 56080000 		.long	0x856
 3046 124b 00       		.byte	0
 3047 124c 03       		.uleb128 0x3
 3048 124d 4546495F 		.ascii "EFI_FREE_POOL\0"
 3048      46524545 
 3048      5F504F4F 
 3048      4C00
 3049 125b 08       		.byte	0x8
 3050 125c 51       		.byte	0x51
 3051 125d 0A       		.byte	0xa
 3052 125e 62120000 		.long	0x1262
 3053 1262 02       		.uleb128 0x2
 3054 1263 67120000 		.long	0x1267
 3055 1267 07       		.uleb128 0x7
 3056 1268 2D030000 		.long	0x32d
 3057 126c 76120000 		.long	0x1276
 3058 1270 01       		.uleb128 0x1
 3059 1271 73030000 		.long	0x373
 3060 1275 00       		.byte	0
 3061 1276 03       		.uleb128 0x3
 3062 1277 4546495F 		.ascii "EFI_SET_VIRTUAL_ADDRESS_MAP\0"
 3062      5345545F 
 3062      56495254 
 3062      55414C5F 
 3062      41444452 
 3063 1293 08       		.byte	0x8
 3064 1294 57       		.byte	0x57
 3065 1295 0A       		.byte	0xa
 3066 1296 9A120000 		.long	0x129a
 3067 129a 02       		.uleb128 0x2
 3068 129b 9F120000 		.long	0x129f
 3069 129f 07       		.uleb128 0x7
 3070 12a0 2D030000 		.long	0x32d
 3071 12a4 BD120000 		.long	0x12bd
 3072 12a8 01       		.uleb128 0x1
 3073 12a9 06030000 		.long	0x306
 3074 12ad 01       		.uleb128 0x1
 3075 12ae 06030000 		.long	0x306
 3076 12b2 01       		.uleb128 0x1
 3077 12b3 90020000 		.long	0x290
 3078 12b7 01       		.uleb128 0x1
 3079 12b8 0F120000 		.long	0x120f
 3080 12bc 00       		.byte	0
 3081 12bd 03       		.uleb128 0x3
 3082 12be 4546495F 		.ascii "EFI_CONVERT_POINTER\0"
 3082      434F4E56 
 3082      4552545F 
 3082      504F494E 
 3082      54455200 
 3083 12d2 08       		.byte	0x8
 3084 12d3 66       		.byte	0x66
 3085 12d4 0A       		.byte	0xa
 3086 12d5 D9120000 		.long	0x12d9
 3087 12d9 02       		.uleb128 0x2
 3088 12da DE120000 		.long	0x12de
 3089 12de 07       		.uleb128 0x7
 3090 12df 2D030000 		.long	0x32d
 3091 12e3 F2120000 		.long	0x12f2
 3092 12e7 01       		.uleb128 0x1
 3093 12e8 06030000 		.long	0x306
 3094 12ec 01       		.uleb128 0x1
 3095 12ed 56080000 		.long	0x856
 3096 12f1 00       		.byte	0
 3097 12f2 03       		.uleb128 0x3
 3098 12f3 4546495F 		.ascii "EFI_EVENT_NOTIFY\0"
 3098      4556454E 
 3098      545F4E4F 
 3098      54494659 
 3098      00
 3099 1304 08       		.byte	0x8
 3100 1305 8A       		.byte	0x8a
 3101 1306 0A       		.byte	0xa
 3102 1307 0B130000 		.long	0x130b
 3103 130b 02       		.uleb128 0x2
 3104 130c 10130000 		.long	0x1310
 3105 1310 22       		.uleb128 0x22
 3106 1311 20130000 		.long	0x1320
 3107 1315 01       		.uleb128 0x1
 3108 1316 78030000 		.long	0x378
 3109 131a 01       		.uleb128 0x1
 3110 131b 73030000 		.long	0x373
 3111 131f 00       		.byte	0
 3112 1320 03       		.uleb128 0x3
 3113 1321 4546495F 		.ascii "EFI_CREATE_EVENT\0"
 3113      43524541 
 3113      54455F45 
 3113      56454E54 
 3113      00
 3114 1332 08       		.byte	0x8
 3115 1333 91       		.byte	0x91
 3116 1334 0A       		.byte	0xa
 3117 1335 39130000 		.long	0x1339
 3118 1339 02       		.uleb128 0x2
 3119 133a 3E130000 		.long	0x133e
 3120 133e 07       		.uleb128 0x7
 3121 133f 2D030000 		.long	0x32d
 3122 1343 61130000 		.long	0x1361
 3123 1347 01       		.uleb128 0x1
 3124 1348 90020000 		.long	0x290
 3125 134c 01       		.uleb128 0x1
 3126 134d 50030000 		.long	0x350
 3127 1351 01       		.uleb128 0x1
 3128 1352 F2120000 		.long	0x12f2
 3129 1356 01       		.uleb128 0x1
 3130 1357 73030000 		.long	0x373
 3131 135b 01       		.uleb128 0x1
 3132 135c 61130000 		.long	0x1361
 3133 1360 00       		.byte	0
 3134 1361 02       		.uleb128 0x2
 3135 1362 78030000 		.long	0x378
 3136 1366 1F       		.uleb128 0x1f
 3137 1367 EF010000 		.long	0x1ef
 3138 136b 08       		.byte	0x8
 3139 136c 99       		.byte	0x99
 3140 136d AF130000 		.long	0x13af
 3141 1371 09       		.uleb128 0x9
 3142 1372 54696D65 		.ascii "TimerCancel\0"
 3142      7243616E 
 3142      63656C00 
 3143 137e 00       		.byte	0
 3144 137f 09       		.uleb128 0x9
 3145 1380 54696D65 		.ascii "TimerPeriodic\0"
 3145      72506572 
 3145      696F6469 
 3145      6300
 3146 138e 01       		.byte	0x1
 3147 138f 09       		.uleb128 0x9
 3148 1390 54696D65 		.ascii "TimerRelative\0"
 3148      7252656C 
 3148      61746976 
 3148      6500
 3149 139e 02       		.byte	0x2
 3150 139f 09       		.uleb128 0x9
 3151 13a0 54696D65 		.ascii "TimerTypeMax\0"
 3151      72547970 
 3151      654D6178 
 3151      00
 3152 13ad 03       		.byte	0x3
 3153 13ae 00       		.byte	0
 3154 13af 03       		.uleb128 0x3
 3155 13b0 4546495F 		.ascii "EFI_TIMER_DELAY\0"
 3155      54494D45 
 3155      525F4445 
 3155      4C415900 
 3156 13c0 08       		.byte	0x8
 3157 13c1 9E       		.byte	0x9e
 3158 13c2 03       		.byte	0x3
 3159 13c3 66130000 		.long	0x1366
 3160 13c7 03       		.uleb128 0x3
 3161 13c8 4546495F 		.ascii "EFI_SET_TIMER\0"
 3161      5345545F 
 3161      54494D45 
 3161      5200
 3162 13d6 08       		.byte	0x8
 3163 13d7 A2       		.byte	0xa2
 3164 13d8 0A       		.byte	0xa
 3165 13d9 DD130000 		.long	0x13dd
 3166 13dd 02       		.uleb128 0x2
 3167 13de E2130000 		.long	0x13e2
 3168 13e2 07       		.uleb128 0x7
 3169 13e3 2D030000 		.long	0x32d
 3170 13e7 FB130000 		.long	0x13fb
 3171 13eb 01       		.uleb128 0x1
 3172 13ec 78030000 		.long	0x378
 3173 13f0 01       		.uleb128 0x1
 3174 13f1 AF130000 		.long	0x13af
 3175 13f5 01       		.uleb128 0x1
 3176 13f6 81020000 		.long	0x281
 3177 13fa 00       		.byte	0
 3178 13fb 03       		.uleb128 0x3
 3179 13fc 4546495F 		.ascii "EFI_SIGNAL_EVENT\0"
 3179      5349474E 
 3179      414C5F45 
 3179      56454E54 
 3179      00
 3180 140d 08       		.byte	0x8
 3181 140e AA       		.byte	0xaa
 3182 140f 0A       		.byte	0xa
 3183 1410 14140000 		.long	0x1414
 3184 1414 02       		.uleb128 0x2
 3185 1415 19140000 		.long	0x1419
 3186 1419 07       		.uleb128 0x7
 3187 141a 2D030000 		.long	0x32d
 3188 141e 28140000 		.long	0x1428
 3189 1422 01       		.uleb128 0x1
 3190 1423 78030000 		.long	0x378
 3191 1427 00       		.byte	0
 3192 1428 03       		.uleb128 0x3
 3193 1429 4546495F 		.ascii "EFI_WAIT_FOR_EVENT\0"
 3193      57414954 
 3193      5F464F52 
 3193      5F455645 
 3193      4E5400
 3194 143c 08       		.byte	0x8
 3195 143d B0       		.byte	0xb0
 3196 143e 0A       		.byte	0xa
 3197 143f 43140000 		.long	0x1443
 3198 1443 02       		.uleb128 0x2
 3199 1444 48140000 		.long	0x1448
 3200 1448 07       		.uleb128 0x7
 3201 1449 2D030000 		.long	0x32d
 3202 144d 61140000 		.long	0x1461
 3203 1451 01       		.uleb128 0x1
 3204 1452 06030000 		.long	0x306
 3205 1456 01       		.uleb128 0x1
 3206 1457 61130000 		.long	0x1361
 3207 145b 01       		.uleb128 0x1
 3208 145c 4C080000 		.long	0x84c
 3209 1460 00       		.byte	0
 3210 1461 03       		.uleb128 0x3
 3211 1462 4546495F 		.ascii "EFI_CLOSE_EVENT\0"
 3211      434C4F53 
 3211      455F4556 
 3211      454E5400 
 3212 1472 08       		.byte	0x8
 3213 1473 B8       		.byte	0xb8
 3214 1474 0A       		.byte	0xa
 3215 1475 14140000 		.long	0x1414
 3216 1479 03       		.uleb128 0x3
 3217 147a 4546495F 		.ascii "EFI_CHECK_EVENT\0"
 3217      43484543 
 3217      4B5F4556 
 3217      454E5400 
 3218 148a 08       		.byte	0x8
 3219 148b BE       		.byte	0xbe
 3220 148c 0A       		.byte	0xa
 3221 148d 14140000 		.long	0x1414
 3222 1491 03       		.uleb128 0x3
 3223 1492 4546495F 		.ascii "EFI_RAISE_TPL\0"
 3223      52414953 
 3223      455F5450 
 3223      4C00
 3224 14a0 08       		.byte	0x8
 3225 14a1 D0       		.byte	0xd0
 3226 14a2 0A       		.byte	0xa
 3227 14a3 A7140000 		.long	0x14a7
 3228 14a7 02       		.uleb128 0x2
 3229 14a8 AC140000 		.long	0x14ac
 3230 14ac 07       		.uleb128 0x7
 3231 14ad 50030000 		.long	0x350
 3232 14b1 BB140000 		.long	0x14bb
 3233 14b5 01       		.uleb128 0x1
 3234 14b6 50030000 		.long	0x350
 3235 14ba 00       		.byte	0
 3236 14bb 03       		.uleb128 0x3
 3237 14bc 4546495F 		.ascii "EFI_RESTORE_TPL\0"
 3237      52455354 
 3237      4F52455F 
 3237      54504C00 
 3238 14cc 08       		.byte	0x8
 3239 14cd D6       		.byte	0xd6
 3240 14ce 0A       		.byte	0xa
 3241 14cf D3140000 		.long	0x14d3
 3242 14d3 02       		.uleb128 0x2
 3243 14d4 D8140000 		.long	0x14d8
 3244 14d8 22       		.uleb128 0x22
 3245 14d9 E3140000 		.long	0x14e3
 3246 14dd 01       		.uleb128 0x1
 3247 14de 50030000 		.long	0x350
 3248 14e2 00       		.byte	0
 3249 14e3 03       		.uleb128 0x3
 3250 14e4 4546495F 		.ascii "EFI_GET_VARIABLE\0"
 3250      4745545F 
 3250      56415249 
 3250      41424C45 
 3250      00
 3251 14f5 08       		.byte	0x8
 3252 14f6 F1       		.byte	0xf1
 3253 14f7 0A       		.byte	0xa
 3254 14f8 FC140000 		.long	0x14fc
 3255 14fc 02       		.uleb128 0x2
 3256 14fd 01150000 		.long	0x1501
 3257 1501 07       		.uleb128 0x7
 3258 1502 2D030000 		.long	0x32d
 3259 1506 24150000 		.long	0x1524
 3260 150a 01       		.uleb128 0x1
 3261 150b 47080000 		.long	0x847
 3262 150f 01       		.uleb128 0x1
 3263 1510 210B0000 		.long	0xb21
 3264 1514 01       		.uleb128 0x1
 3265 1515 3A0B0000 		.long	0xb3a
 3266 1519 01       		.uleb128 0x1
 3267 151a 4C080000 		.long	0x84c
 3268 151e 01       		.uleb128 0x1
 3269 151f 73030000 		.long	0x373
 3270 1523 00       		.byte	0
 3271 1524 03       		.uleb128 0x3
 3272 1525 4546495F 		.ascii "EFI_GET_NEXT_VARIABLE_NAME\0"
 3272      4745545F 
 3272      4E455854 
 3272      5F564152 
 3272      4941424C 
 3273 1540 08       		.byte	0x8
 3274 1541 FB       		.byte	0xfb
 3275 1542 0A       		.byte	0xa
 3276 1543 47150000 		.long	0x1547
 3277 1547 02       		.uleb128 0x2
 3278 1548 4C150000 		.long	0x154c
 3279 154c 07       		.uleb128 0x7
 3280 154d 2D030000 		.long	0x32d
 3281 1551 65150000 		.long	0x1565
 3282 1555 01       		.uleb128 0x1
 3283 1556 4C080000 		.long	0x84c
 3284 155a 01       		.uleb128 0x1
 3285 155b 47080000 		.long	0x847
 3286 155f 01       		.uleb128 0x1
 3287 1560 210B0000 		.long	0xb21
 3288 1564 00       		.byte	0
 3289 1565 08       		.uleb128 0x8
 3290 1566 4546495F 		.ascii "EFI_SET_VARIABLE\0"
 3290      5345545F 
 3290      56415249 
 3290      41424C45 
 3290      00
 3291 1577 08       		.byte	0x8
 3292 1578 0401     		.word	0x104
 3293 157a 0A       		.byte	0xa
 3294 157b 7F150000 		.long	0x157f
 3295 157f 02       		.uleb128 0x2
 3296 1580 84150000 		.long	0x1584
 3297 1584 07       		.uleb128 0x7
 3298 1585 2D030000 		.long	0x32d
 3299 1589 A7150000 		.long	0x15a7
 3300 158d 01       		.uleb128 0x1
 3301 158e 47080000 		.long	0x847
 3302 1592 01       		.uleb128 0x1
 3303 1593 210B0000 		.long	0xb21
 3304 1597 01       		.uleb128 0x1
 3305 1598 90020000 		.long	0x290
 3306 159c 01       		.uleb128 0x1
 3307 159d 06030000 		.long	0x306
 3308 15a1 01       		.uleb128 0x1
 3309 15a2 73030000 		.long	0x373
 3310 15a6 00       		.byte	0
 3311 15a7 23       		.uleb128 0x23
 3312 15a8 0C       		.byte	0xc
 3313 15a9 1101     		.word	0x111
 3314 15ab ED150000 		.long	0x15ed
 3315 15af 04       		.uleb128 0x4
 3316 15b0 5265736F 		.ascii "Resolution\0"
 3316      6C757469 
 3316      6F6E00
 3317 15bb 08       		.byte	0x8
 3318 15bc 1201     		.word	0x112
 3319 15be 25       		.byte	0x25
 3320 15bf 90020000 		.long	0x290
 3321 15c3 00       		.byte	0
 3322 15c4 04       		.uleb128 0x4
 3323 15c5 41636375 		.ascii "Accuracy\0"
 3323      72616379 
 3323      00
 3324 15ce 08       		.byte	0x8
 3325 15cf 1301     		.word	0x113
 3326 15d1 25       		.byte	0x25
 3327 15d2 90020000 		.long	0x290
 3328 15d6 04       		.byte	0x4
 3329 15d7 04       		.uleb128 0x4
 3330 15d8 53657473 		.ascii "SetsToZero\0"
 3330      546F5A65 
 3330      726F00
 3331 15e3 08       		.byte	0x8
 3332 15e4 1401     		.word	0x114
 3333 15e6 25       		.byte	0x25
 3334 15e7 14030000 		.long	0x314
 3335 15eb 08       		.byte	0x8
 3336 15ec 00       		.byte	0
 3337 15ed 08       		.uleb128 0x8
 3338 15ee 4546495F 		.ascii "EFI_TIME_CAPABILITIES\0"
 3338      54494D45 
 3338      5F434150 
 3338      4142494C 
 3338      49544945 
 3339 1604 08       		.byte	0x8
 3340 1605 1501     		.word	0x115
 3341 1607 03       		.byte	0x3
 3342 1608 A7150000 		.long	0x15a7
 3343 160c 08       		.uleb128 0x8
 3344 160d 4546495F 		.ascii "EFI_GET_TIME\0"
 3344      4745545F 
 3344      54494D45 
 3344      00
 3345 161a 08       		.byte	0x8
 3346 161b 1A01     		.word	0x11a
 3347 161d 0A       		.byte	0xa
 3348 161e 22160000 		.long	0x1622
 3349 1622 02       		.uleb128 0x2
 3350 1623 27160000 		.long	0x1627
 3351 1627 07       		.uleb128 0x7
 3352 1628 2D030000 		.long	0x32d
 3353 162c 3B160000 		.long	0x163b
 3354 1630 01       		.uleb128 0x1
 3355 1631 3B160000 		.long	0x163b
 3356 1635 01       		.uleb128 0x1
 3357 1636 40160000 		.long	0x1640
 3358 163a 00       		.byte	0
 3359 163b 02       		.uleb128 0x2
 3360 163c AA040000 		.long	0x4aa
 3361 1640 02       		.uleb128 0x2
 3362 1641 ED150000 		.long	0x15ed
 3363 1645 08       		.uleb128 0x8
 3364 1646 4546495F 		.ascii "EFI_SET_TIME\0"
 3364      5345545F 
 3364      54494D45 
 3364      00
 3365 1653 08       		.byte	0x8
 3366 1654 2101     		.word	0x121
 3367 1656 0A       		.byte	0xa
 3368 1657 5B160000 		.long	0x165b
 3369 165b 02       		.uleb128 0x2
 3370 165c 60160000 		.long	0x1660
 3371 1660 07       		.uleb128 0x7
 3372 1661 2D030000 		.long	0x32d
 3373 1665 6F160000 		.long	0x166f
 3374 1669 01       		.uleb128 0x1
 3375 166a 3B160000 		.long	0x163b
 3376 166e 00       		.byte	0
 3377 166f 08       		.uleb128 0x8
 3378 1670 4546495F 		.ascii "EFI_GET_WAKEUP_TIME\0"
 3378      4745545F 
 3378      57414B45 
 3378      55505F54 
 3378      494D4500 
 3379 1684 08       		.byte	0x8
 3380 1685 2701     		.word	0x127
 3381 1687 0A       		.byte	0xa
 3382 1688 8C160000 		.long	0x168c
 3383 168c 02       		.uleb128 0x2
 3384 168d 91160000 		.long	0x1691
 3385 1691 07       		.uleb128 0x7
 3386 1692 2D030000 		.long	0x32d
 3387 1696 AA160000 		.long	0x16aa
 3388 169a 01       		.uleb128 0x1
 3389 169b 59110000 		.long	0x1159
 3390 169f 01       		.uleb128 0x1
 3391 16a0 59110000 		.long	0x1159
 3392 16a4 01       		.uleb128 0x1
 3393 16a5 3B160000 		.long	0x163b
 3394 16a9 00       		.byte	0
 3395 16aa 08       		.uleb128 0x8
 3396 16ab 4546495F 		.ascii "EFI_SET_WAKEUP_TIME\0"
 3396      5345545F 
 3396      57414B45 
 3396      55505F54 
 3396      494D4500 
 3397 16bf 08       		.byte	0x8
 3398 16c0 2F01     		.word	0x12f
 3399 16c2 0A       		.byte	0xa
 3400 16c3 C7160000 		.long	0x16c7
 3401 16c7 02       		.uleb128 0x2
 3402 16c8 CC160000 		.long	0x16cc
 3403 16cc 07       		.uleb128 0x7
 3404 16cd 2D030000 		.long	0x32d
 3405 16d1 E0160000 		.long	0x16e0
 3406 16d5 01       		.uleb128 0x1
 3407 16d6 14030000 		.long	0x314
 3408 16da 01       		.uleb128 0x1
 3409 16db 3B160000 		.long	0x163b
 3410 16df 00       		.byte	0
 3411 16e0 08       		.uleb128 0x8
 3412 16e1 4546495F 		.ascii "EFI_IMAGE_LOAD\0"
 3412      494D4147 
 3412      455F4C4F 
 3412      414400
 3413 16f0 08       		.byte	0x8
 3414 16f1 7B01     		.word	0x17b
 3415 16f3 0A       		.byte	0xa
 3416 16f4 F8160000 		.long	0x16f8
 3417 16f8 02       		.uleb128 0x2
 3418 16f9 FD160000 		.long	0x16fd
 3419 16fd 07       		.uleb128 0x7
 3420 16fe 2D030000 		.long	0x32d
 3421 1702 25170000 		.long	0x1725
 3422 1706 01       		.uleb128 0x1
 3423 1707 14030000 		.long	0x314
 3424 170b 01       		.uleb128 0x1
 3425 170c 60030000 		.long	0x360
 3426 1710 01       		.uleb128 0x1
 3427 1711 260B0000 		.long	0xb26
 3428 1715 01       		.uleb128 0x1
 3429 1716 73030000 		.long	0x373
 3430 171a 01       		.uleb128 0x1
 3431 171b 06030000 		.long	0x306
 3432 171f 01       		.uleb128 0x1
 3433 1720 350B0000 		.long	0xb35
 3434 1724 00       		.byte	0
 3435 1725 08       		.uleb128 0x8
 3436 1726 4546495F 		.ascii "EFI_IMAGE_START\0"
 3436      494D4147 
 3436      455F5354 
 3436      41525400 
 3437 1736 08       		.byte	0x8
 3438 1737 8601     		.word	0x186
 3439 1739 0A       		.byte	0xa
 3440 173a 3E170000 		.long	0x173e
 3441 173e 02       		.uleb128 0x2
 3442 173f 43170000 		.long	0x1743
 3443 1743 07       		.uleb128 0x7
 3444 1744 2D030000 		.long	0x32d
 3445 1748 5C170000 		.long	0x175c
 3446 174c 01       		.uleb128 0x1
 3447 174d 60030000 		.long	0x360
 3448 1751 01       		.uleb128 0x1
 3449 1752 4C080000 		.long	0x84c
 3450 1756 01       		.uleb128 0x1
 3451 1757 3F0B0000 		.long	0xb3f
 3452 175b 00       		.byte	0
 3453 175c 08       		.uleb128 0x8
 3454 175d 4546495F 		.ascii "EFI_EXIT\0"
 3454      45584954 
 3454      00
 3455 1766 08       		.byte	0x8
 3456 1767 8E01     		.word	0x18e
 3457 1769 0A       		.byte	0xa
 3458 176a 6E170000 		.long	0x176e
 3459 176e 02       		.uleb128 0x2
 3460 176f 73170000 		.long	0x1773
 3461 1773 07       		.uleb128 0x7
 3462 1774 2D030000 		.long	0x32d
 3463 1778 91170000 		.long	0x1791
 3464 177c 01       		.uleb128 0x1
 3465 177d 60030000 		.long	0x360
 3466 1781 01       		.uleb128 0x1
 3467 1782 2D030000 		.long	0x32d
 3468 1786 01       		.uleb128 0x1
 3469 1787 06030000 		.long	0x306
 3470 178b 01       		.uleb128 0x1
 3471 178c 47080000 		.long	0x847
 3472 1790 00       		.byte	0
 3473 1791 08       		.uleb128 0x8
 3474 1792 4546495F 		.ascii "EFI_EXIT_BOOT_SERVICES\0"
 3474      45584954 
 3474      5F424F4F 
 3474      545F5345 
 3474      52564943 
 3475 17a9 08       		.byte	0x8
 3476 17aa B701     		.word	0x1b7
 3477 17ac 0A       		.byte	0xa
 3478 17ad B1170000 		.long	0x17b1
 3479 17b1 02       		.uleb128 0x2
 3480 17b2 B6170000 		.long	0x17b6
 3481 17b6 07       		.uleb128 0x7
 3482 17b7 2D030000 		.long	0x32d
 3483 17bb CA170000 		.long	0x17ca
 3484 17bf 01       		.uleb128 0x1
 3485 17c0 60030000 		.long	0x360
 3486 17c4 01       		.uleb128 0x1
 3487 17c5 06030000 		.long	0x306
 3488 17c9 00       		.byte	0
 3489 17ca 08       		.uleb128 0x8
 3490 17cb 4546495F 		.ascii "EFI_STALL\0"
 3490      5354414C 
 3490      4C00
 3491 17d5 08       		.byte	0x8
 3492 17d6 C301     		.word	0x1c3
 3493 17d8 0A       		.byte	0xa
 3494 17d9 DD170000 		.long	0x17dd
 3495 17dd 02       		.uleb128 0x2
 3496 17de E2170000 		.long	0x17e2
 3497 17e2 07       		.uleb128 0x7
 3498 17e3 2D030000 		.long	0x32d
 3499 17e7 F1170000 		.long	0x17f1
 3500 17eb 01       		.uleb128 0x1
 3501 17ec 06030000 		.long	0x306
 3502 17f0 00       		.byte	0
 3503 17f1 08       		.uleb128 0x8
 3504 17f2 4546495F 		.ascii "EFI_SET_WATCHDOG_TIMER\0"
 3504      5345545F 
 3504      57415443 
 3504      48444F47 
 3504      5F54494D 
 3505 1809 08       		.byte	0x8
 3506 180a C901     		.word	0x1c9
 3507 180c 0A       		.byte	0xa
 3508 180d 11180000 		.long	0x1811
 3509 1811 02       		.uleb128 0x2
 3510 1812 16180000 		.long	0x1816
 3511 1816 07       		.uleb128 0x7
 3512 1817 2D030000 		.long	0x32d
 3513 181b 34180000 		.long	0x1834
 3514 181f 01       		.uleb128 0x1
 3515 1820 06030000 		.long	0x306
 3516 1824 01       		.uleb128 0x1
 3517 1825 81020000 		.long	0x281
 3518 1829 01       		.uleb128 0x1
 3519 182a 06030000 		.long	0x306
 3520 182e 01       		.uleb128 0x1
 3521 182f 47080000 		.long	0x847
 3522 1833 00       		.byte	0
 3523 1834 08       		.uleb128 0x8
 3524 1835 4546495F 		.ascii "EFI_CONNECT_CONTROLLER\0"
 3524      434F4E4E 
 3524      4543545F 
 3524      434F4E54 
 3524      524F4C4C 
 3525 184c 08       		.byte	0x8
 3526 184d D201     		.word	0x1d2
 3527 184f 0A       		.byte	0xa
 3528 1850 54180000 		.long	0x1854
 3529 1854 02       		.uleb128 0x2
 3530 1855 59180000 		.long	0x1859
 3531 1859 07       		.uleb128 0x7
 3532 185a 2D030000 		.long	0x32d
 3533 185e 77180000 		.long	0x1877
 3534 1862 01       		.uleb128 0x1
 3535 1863 60030000 		.long	0x360
 3536 1867 01       		.uleb128 0x1
 3537 1868 350B0000 		.long	0xb35
 3538 186c 01       		.uleb128 0x1
 3539 186d 260B0000 		.long	0xb26
 3540 1871 01       		.uleb128 0x1
 3541 1872 14030000 		.long	0x314
 3542 1876 00       		.byte	0
 3543 1877 08       		.uleb128 0x8
 3544 1878 4546495F 		.ascii "EFI_DISCONNECT_CONTROLLER\0"
 3544      44495343 
 3544      4F4E4E45 
 3544      43545F43 
 3544      4F4E5452 
 3545 1892 08       		.byte	0x8
 3546 1893 DB01     		.word	0x1db
 3547 1895 0A       		.byte	0xa
 3548 1896 9A180000 		.long	0x189a
 3549 189a 02       		.uleb128 0x2
 3550 189b 9F180000 		.long	0x189f
 3551 189f 07       		.uleb128 0x7
 3552 18a0 2D030000 		.long	0x32d
 3553 18a4 B8180000 		.long	0x18b8
 3554 18a8 01       		.uleb128 0x1
 3555 18a9 60030000 		.long	0x360
 3556 18ad 01       		.uleb128 0x1
 3557 18ae 60030000 		.long	0x360
 3558 18b2 01       		.uleb128 0x1
 3559 18b3 60030000 		.long	0x360
 3560 18b7 00       		.byte	0
 3561 18b8 08       		.uleb128 0x8
 3562 18b9 4546495F 		.ascii "EFI_OPEN_PROTOCOL\0"
 3562      4F50454E 
 3562      5F50524F 
 3562      544F434F 
 3562      4C00
 3563 18cb 08       		.byte	0x8
 3564 18cc EA01     		.word	0x1ea
 3565 18ce 0A       		.byte	0xa
 3566 18cf D3180000 		.long	0x18d3
 3567 18d3 02       		.uleb128 0x2
 3568 18d4 D8180000 		.long	0x18d8
 3569 18d8 07       		.uleb128 0x7
 3570 18d9 2D030000 		.long	0x32d
 3571 18dd 00190000 		.long	0x1900
 3572 18e1 01       		.uleb128 0x1
 3573 18e2 60030000 		.long	0x360
 3574 18e6 01       		.uleb128 0x1
 3575 18e7 210B0000 		.long	0xb21
 3576 18eb 01       		.uleb128 0x1
 3577 18ec 56080000 		.long	0x856
 3578 18f0 01       		.uleb128 0x1
 3579 18f1 60030000 		.long	0x360
 3580 18f5 01       		.uleb128 0x1
 3581 18f6 60030000 		.long	0x360
 3582 18fa 01       		.uleb128 0x1
 3583 18fb 90020000 		.long	0x290
 3584 18ff 00       		.byte	0
 3585 1900 08       		.uleb128 0x8
 3586 1901 4546495F 		.ascii "EFI_CLOSE_PROTOCOL\0"
 3586      434C4F53 
 3586      455F5052 
 3586      4F544F43 
 3586      4F4C00
 3587 1914 08       		.byte	0x8
 3588 1915 F501     		.word	0x1f5
 3589 1917 0A       		.byte	0xa
 3590 1918 1C190000 		.long	0x191c
 3591 191c 02       		.uleb128 0x2
 3592 191d 21190000 		.long	0x1921
 3593 1921 07       		.uleb128 0x7
 3594 1922 2D030000 		.long	0x32d
 3595 1926 3F190000 		.long	0x193f
 3596 192a 01       		.uleb128 0x1
 3597 192b 60030000 		.long	0x360
 3598 192f 01       		.uleb128 0x1
 3599 1930 210B0000 		.long	0xb21
 3600 1934 01       		.uleb128 0x1
 3601 1935 60030000 		.long	0x360
 3602 1939 01       		.uleb128 0x1
 3603 193a 60030000 		.long	0x360
 3604 193e 00       		.byte	0
 3605 193f 23       		.uleb128 0x23
 3606 1940 18       		.byte	0x18
 3607 1941 FC01     		.word	0x1fc
 3608 1943 A2190000 		.long	0x19a2
 3609 1947 04       		.uleb128 0x4
 3610 1948 4167656E 		.ascii "AgentHandle\0"
 3610      7448616E 
 3610      646C6500 
 3611 1954 08       		.byte	0x8
 3612 1955 FD01     		.word	0x1fd
 3613 1957 21       		.byte	0x21
 3614 1958 60030000 		.long	0x360
 3615 195c 00       		.byte	0
 3616 195d 04       		.uleb128 0x4
 3617 195e 436F6E74 		.ascii "ControllerHandle\0"
 3617      726F6C6C 
 3617      65724861 
 3617      6E646C65 
 3617      00
 3618 196f 08       		.byte	0x8
 3619 1970 FE01     		.word	0x1fe
 3620 1972 21       		.byte	0x21
 3621 1973 60030000 		.long	0x360
 3622 1977 08       		.byte	0x8
 3623 1978 04       		.uleb128 0x4
 3624 1979 41747472 		.ascii "Attributes\0"
 3624      69627574 
 3624      657300
 3625 1984 08       		.byte	0x8
 3626 1985 FF01     		.word	0x1ff
 3627 1987 21       		.byte	0x21
 3628 1988 90020000 		.long	0x290
 3629 198c 10       		.byte	0x10
 3630 198d 04       		.uleb128 0x4
 3631 198e 4F70656E 		.ascii "OpenCount\0"
 3631      436F756E 
 3631      7400
 3632 1998 08       		.byte	0x8
 3633 1999 0002     		.word	0x200
 3634 199b 21       		.byte	0x21
 3635 199c 90020000 		.long	0x290
 3636 19a0 14       		.byte	0x14
 3637 19a1 00       		.byte	0
 3638 19a2 08       		.uleb128 0x8
 3639 19a3 4546495F 		.ascii "EFI_OPEN_PROTOCOL_INFORMATION_ENTRY\0"
 3639      4F50454E 
 3639      5F50524F 
 3639      544F434F 
 3639      4C5F494E 
 3640 19c7 08       		.byte	0x8
 3641 19c8 0102     		.word	0x201
 3642 19ca 03       		.byte	0x3
 3643 19cb 3F190000 		.long	0x193f
 3644 19cf 08       		.uleb128 0x8
 3645 19d0 4546495F 		.ascii "EFI_OPEN_PROTOCOL_INFORMATION\0"
 3645      4F50454E 
 3645      5F50524F 
 3645      544F434F 
 3645      4C5F494E 
 3646 19ee 08       		.byte	0x8
 3647 19ef 0502     		.word	0x205
 3648 19f1 0A       		.byte	0xa
 3649 19f2 F6190000 		.long	0x19f6
 3650 19f6 02       		.uleb128 0x2
 3651 19f7 FB190000 		.long	0x19fb
 3652 19fb 07       		.uleb128 0x7
 3653 19fc 2D030000 		.long	0x32d
 3654 1a00 191A0000 		.long	0x1a19
 3655 1a04 01       		.uleb128 0x1
 3656 1a05 60030000 		.long	0x360
 3657 1a09 01       		.uleb128 0x1
 3658 1a0a 210B0000 		.long	0xb21
 3659 1a0e 01       		.uleb128 0x1
 3660 1a0f 191A0000 		.long	0x1a19
 3661 1a13 01       		.uleb128 0x1
 3662 1a14 4C080000 		.long	0x84c
 3663 1a18 00       		.byte	0
 3664 1a19 02       		.uleb128 0x2
 3665 1a1a 1E1A0000 		.long	0x1a1e
 3666 1a1e 02       		.uleb128 0x2
 3667 1a1f A2190000 		.long	0x19a2
 3668 1a23 08       		.uleb128 0x8
 3669 1a24 4546495F 		.ascii "EFI_PROTOCOLS_PER_HANDLE\0"
 3669      50524F54 
 3669      4F434F4C 
 3669      535F5045 
 3669      525F4841 
 3670 1a3d 08       		.byte	0x8
 3671 1a3e 0E02     		.word	0x20e
 3672 1a40 0A       		.byte	0xa
 3673 1a41 451A0000 		.long	0x1a45
 3674 1a45 02       		.uleb128 0x2
 3675 1a46 4A1A0000 		.long	0x1a4a
 3676 1a4a 07       		.uleb128 0x7
 3677 1a4b 2D030000 		.long	0x32d
 3678 1a4f 631A0000 		.long	0x1a63
 3679 1a53 01       		.uleb128 0x1
 3680 1a54 60030000 		.long	0x360
 3681 1a58 01       		.uleb128 0x1
 3682 1a59 631A0000 		.long	0x1a63
 3683 1a5d 01       		.uleb128 0x1
 3684 1a5e 4C080000 		.long	0x84c
 3685 1a62 00       		.byte	0
 3686 1a63 02       		.uleb128 0x2
 3687 1a64 681A0000 		.long	0x1a68
 3688 1a68 02       		.uleb128 0x2
 3689 1a69 210B0000 		.long	0xb21
 3690 1a6d 27       		.uleb128 0x27
 3691 1a6e EF010000 		.long	0x1ef
 3692 1a72 1402     		.word	0x214
 3693 1a74 A61A0000 		.long	0x1aa6
 3694 1a78 09       		.uleb128 0x9
 3695 1a79 416C6C48 		.ascii "AllHandles\0"
 3695      616E646C 
 3695      657300
 3696 1a84 00       		.byte	0
 3697 1a85 09       		.uleb128 0x9
 3698 1a86 42795265 		.ascii "ByRegisterNotify\0"
 3698      67697374 
 3698      65724E6F 
 3698      74696679 
 3698      00
 3699 1a97 01       		.byte	0x1
 3700 1a98 09       		.uleb128 0x9
 3701 1a99 42795072 		.ascii "ByProtocol\0"
 3701      6F746F63 
 3701      6F6C00
 3702 1aa4 02       		.byte	0x2
 3703 1aa5 00       		.byte	0
 3704 1aa6 08       		.uleb128 0x8
 3705 1aa7 4546495F 		.ascii "EFI_LOCATE_SEARCH_TYPE\0"
 3705      4C4F4341 
 3705      54455F53 
 3705      45415243 
 3705      485F5459 
 3706 1abe 08       		.byte	0x8
 3707 1abf 1802     		.word	0x218
 3708 1ac1 03       		.byte	0x3
 3709 1ac2 6D1A0000 		.long	0x1a6d
 3710 1ac6 08       		.uleb128 0x8
 3711 1ac7 4546495F 		.ascii "EFI_LOCATE_HANDLE_BUFFER\0"
 3711      4C4F4341 
 3711      54455F48 
 3711      414E444C 
 3711      455F4255 
 3712 1ae0 08       		.byte	0x8
 3713 1ae1 1C02     		.word	0x21c
 3714 1ae3 0A       		.byte	0xa
 3715 1ae4 E81A0000 		.long	0x1ae8
 3716 1ae8 02       		.uleb128 0x2
 3717 1ae9 ED1A0000 		.long	0x1aed
 3718 1aed 07       		.uleb128 0x7
 3719 1aee 2D030000 		.long	0x32d
 3720 1af2 101B0000 		.long	0x1b10
 3721 1af6 01       		.uleb128 0x1
 3722 1af7 A61A0000 		.long	0x1aa6
 3723 1afb 01       		.uleb128 0x1
 3724 1afc 210B0000 		.long	0xb21
 3725 1b00 01       		.uleb128 0x1
 3726 1b01 73030000 		.long	0x373
 3727 1b05 01       		.uleb128 0x1
 3728 1b06 4C080000 		.long	0x84c
 3729 1b0a 01       		.uleb128 0x1
 3730 1b0b 101B0000 		.long	0x1b10
 3731 1b0f 00       		.byte	0
 3732 1b10 02       		.uleb128 0x2
 3733 1b11 350B0000 		.long	0xb35
 3734 1b15 08       		.uleb128 0x8
 3735 1b16 4546495F 		.ascii "EFI_LOCATE_PROTOCOL\0"
 3735      4C4F4341 
 3735      54455F50 
 3735      524F544F 
 3735      434F4C00 
 3736 1b2a 08       		.byte	0x8
 3737 1b2b 2602     		.word	0x226
 3738 1b2d 0A       		.byte	0xa
 3739 1b2e 321B0000 		.long	0x1b32
 3740 1b32 02       		.uleb128 0x2
 3741 1b33 371B0000 		.long	0x1b37
 3742 1b37 07       		.uleb128 0x7
 3743 1b38 2D030000 		.long	0x32d
 3744 1b3c 501B0000 		.long	0x1b50
 3745 1b40 01       		.uleb128 0x1
 3746 1b41 210B0000 		.long	0xb21
 3747 1b45 01       		.uleb128 0x1
 3748 1b46 73030000 		.long	0x373
 3749 1b4a 01       		.uleb128 0x1
 3750 1b4b 56080000 		.long	0x856
 3751 1b4f 00       		.byte	0
 3752 1b50 08       		.uleb128 0x8
 3753 1b51 4546495F 		.ascii "EFI_INSTALL_MULTIPLE_PROTOCOL_INTERFACES\0"
 3753      494E5354 
 3753      414C4C5F 
 3753      4D554C54 
 3753      49504C45 
 3754 1b7a 08       		.byte	0x8
 3755 1b7b 2E02     		.word	0x22e
 3756 1b7d 0A       		.byte	0xa
 3757 1b7e 821B0000 		.long	0x1b82
 3758 1b82 02       		.uleb128 0x2
 3759 1b83 871B0000 		.long	0x1b87
 3760 1b87 07       		.uleb128 0x7
 3761 1b88 2D030000 		.long	0x32d
 3762 1b8c 971B0000 		.long	0x1b97
 3763 1b90 01       		.uleb128 0x1
 3764 1b91 350B0000 		.long	0xb35
 3765 1b95 2E       		.uleb128 0x2e
 3766 1b96 00       		.byte	0
 3767 1b97 08       		.uleb128 0x8
 3768 1b98 4546495F 		.ascii "EFI_UNINSTALL_MULTIPLE_PROTOCOL_INTERFACES\0"
 3768      554E494E 
 3768      5354414C 
 3768      4C5F4D55 
 3768      4C544950 
 3769 1bc3 08       		.byte	0x8
 3770 1bc4 3502     		.word	0x235
 3771 1bc6 0A       		.byte	0xa
 3772 1bc7 CB1B0000 		.long	0x1bcb
 3773 1bcb 02       		.uleb128 0x2
 3774 1bcc D01B0000 		.long	0x1bd0
 3775 1bd0 07       		.uleb128 0x7
 3776 1bd1 2D030000 		.long	0x32d
 3777 1bd5 E01B0000 		.long	0x1be0
 3778 1bd9 01       		.uleb128 0x1
 3779 1bda 60030000 		.long	0x360
 3780 1bde 2E       		.uleb128 0x2e
 3781 1bdf 00       		.byte	0
 3782 1be0 08       		.uleb128 0x8
 3783 1be1 4546495F 		.ascii "EFI_CALCULATE_CRC32\0"
 3783      43414C43 
 3783      554C4154 
 3783      455F4352 
 3783      43333200 
 3784 1bf5 08       		.byte	0x8
 3785 1bf6 3C02     		.word	0x23c
 3786 1bf8 0A       		.byte	0xa
 3787 1bf9 FD1B0000 		.long	0x1bfd
 3788 1bfd 02       		.uleb128 0x2
 3789 1bfe 021C0000 		.long	0x1c02
 3790 1c02 07       		.uleb128 0x7
 3791 1c03 2D030000 		.long	0x32d
 3792 1c07 1B1C0000 		.long	0x1c1b
 3793 1c0b 01       		.uleb128 0x1
 3794 1c0c 73030000 		.long	0x373
 3795 1c10 01       		.uleb128 0x1
 3796 1c11 06030000 		.long	0x306
 3797 1c15 01       		.uleb128 0x1
 3798 1c16 3A0B0000 		.long	0xb3a
 3799 1c1a 00       		.byte	0
 3800 1c1b 08       		.uleb128 0x8
 3801 1c1c 4546495F 		.ascii "EFI_COPY_MEM\0"
 3801      434F5059 
 3801      5F4D454D 
 3801      00
 3802 1c29 08       		.byte	0x8
 3803 1c2a 4402     		.word	0x244
 3804 1c2c 0A       		.byte	0xa
 3805 1c2d 311C0000 		.long	0x1c31
 3806 1c31 02       		.uleb128 0x2
 3807 1c32 361C0000 		.long	0x1c36
 3808 1c36 22       		.uleb128 0x22
 3809 1c37 4B1C0000 		.long	0x1c4b
 3810 1c3b 01       		.uleb128 0x1
 3811 1c3c 73030000 		.long	0x373
 3812 1c40 01       		.uleb128 0x1
 3813 1c41 73030000 		.long	0x373
 3814 1c45 01       		.uleb128 0x1
 3815 1c46 06030000 		.long	0x306
 3816 1c4a 00       		.byte	0
 3817 1c4b 08       		.uleb128 0x8
 3818 1c4c 4546495F 		.ascii "EFI_SET_MEM\0"
 3818      5345545F 
 3818      4D454D00 
 3819 1c58 08       		.byte	0x8
 3820 1c59 4C02     		.word	0x24c
 3821 1c5b 0A       		.byte	0xa
 3822 1c5c 601C0000 		.long	0x1c60
 3823 1c60 02       		.uleb128 0x2
 3824 1c61 651C0000 		.long	0x1c65
 3825 1c65 22       		.uleb128 0x22
 3826 1c66 7A1C0000 		.long	0x1c7a
 3827 1c6a 01       		.uleb128 0x1
 3828 1c6b 73030000 		.long	0x373
 3829 1c6f 01       		.uleb128 0x1
 3830 1c70 06030000 		.long	0x306
 3831 1c74 01       		.uleb128 0x1
 3832 1c75 CA020000 		.long	0x2ca
 3833 1c79 00       		.byte	0
 3834 1c7a 08       		.uleb128 0x8
 3835 1c7b 4546495F 		.ascii "EFI_CREATE_EVENT_EX\0"
 3835      43524541 
 3835      54455F45 
 3835      56454E54 
 3835      5F455800 
 3836 1c8f 08       		.byte	0x8
 3837 1c90 5502     		.word	0x255
 3838 1c92 0A       		.byte	0xa
 3839 1c93 971C0000 		.long	0x1c97
 3840 1c97 02       		.uleb128 0x2
 3841 1c98 9C1C0000 		.long	0x1c9c
 3842 1c9c 07       		.uleb128 0x7
 3843 1c9d 2D030000 		.long	0x32d
 3844 1ca1 C41C0000 		.long	0x1cc4
 3845 1ca5 01       		.uleb128 0x1
 3846 1ca6 90020000 		.long	0x290
 3847 1caa 01       		.uleb128 0x1
 3848 1cab 50030000 		.long	0x350
 3849 1caf 01       		.uleb128 0x1
 3850 1cb0 F2120000 		.long	0x12f2
 3851 1cb4 01       		.uleb128 0x1
 3852 1cb5 C41C0000 		.long	0x1cc4
 3853 1cb9 01       		.uleb128 0x1
 3854 1cba 300B0000 		.long	0xb30
 3855 1cbe 01       		.uleb128 0x1
 3856 1cbf 61130000 		.long	0x1361
 3857 1cc3 00       		.byte	0
 3858 1cc4 02       		.uleb128 0x2
 3859 1cc5 F4020000 		.long	0x2f4
 3860 1cc9 27       		.uleb128 0x27
 3861 1cca EF010000 		.long	0x1ef
 3862 1cce 5E02     		.word	0x25e
 3863 1cd0 061D0000 		.long	0x1d06
 3864 1cd4 09       		.uleb128 0x9
 3865 1cd5 45666952 		.ascii "EfiResetCold\0"
 3865      65736574 
 3865      436F6C64 
 3865      00
 3866 1ce2 00       		.byte	0
 3867 1ce3 09       		.uleb128 0x9
 3868 1ce4 45666952 		.ascii "EfiResetWarm\0"
 3868      65736574 
 3868      5761726D 
 3868      00
 3869 1cf1 01       		.byte	0x1
 3870 1cf2 09       		.uleb128 0x9
 3871 1cf3 45666952 		.ascii "EfiResetShutdown\0"
 3871      65736574 
 3871      53687574 
 3871      646F776E 
 3871      00
 3872 1d04 02       		.byte	0x2
 3873 1d05 00       		.byte	0
 3874 1d06 08       		.uleb128 0x8
 3875 1d07 4546495F 		.ascii "EFI_RESET_TYPE\0"
 3875      52455345 
 3875      545F5459 
 3875      504500
 3876 1d16 08       		.byte	0x8
 3877 1d17 6202     		.word	0x262
 3878 1d19 03       		.byte	0x3
 3879 1d1a C91C0000 		.long	0x1cc9
 3880 1d1e 08       		.uleb128 0x8
 3881 1d1f 4546495F 		.ascii "EFI_RESET_SYSTEM\0"
 3881      52455345 
 3881      545F5359 
 3881      5354454D 
 3881      00
 3882 1d30 08       		.byte	0x8
 3883 1d31 6602     		.word	0x266
 3884 1d33 0A       		.byte	0xa
 3885 1d34 381D0000 		.long	0x1d38
 3886 1d38 02       		.uleb128 0x2
 3887 1d39 3D1D0000 		.long	0x1d3d
 3888 1d3d 07       		.uleb128 0x7
 3889 1d3e 2D030000 		.long	0x32d
 3890 1d42 5B1D0000 		.long	0x1d5b
 3891 1d46 01       		.uleb128 0x1
 3892 1d47 061D0000 		.long	0x1d06
 3893 1d4b 01       		.uleb128 0x1
 3894 1d4c 2D030000 		.long	0x32d
 3895 1d50 01       		.uleb128 0x1
 3896 1d51 06030000 		.long	0x306
 3897 1d55 01       		.uleb128 0x1
 3898 1d56 47080000 		.long	0x847
 3899 1d5a 00       		.byte	0
 3900 1d5b 08       		.uleb128 0x8
 3901 1d5c 4546495F 		.ascii "EFI_GET_NEXT_MONOTONIC_COUNT\0"
 3901      4745545F 
 3901      4E455854 
 3901      5F4D4F4E 
 3901      4F544F4E 
 3902 1d79 08       		.byte	0x8
 3903 1d7a 6F02     		.word	0x26f
 3904 1d7c 0A       		.byte	0xa
 3905 1d7d 811D0000 		.long	0x1d81
 3906 1d81 02       		.uleb128 0x2
 3907 1d82 861D0000 		.long	0x1d86
 3908 1d86 07       		.uleb128 0x7
 3909 1d87 2D030000 		.long	0x32d
 3910 1d8b 951D0000 		.long	0x1d95
 3911 1d8f 01       		.uleb128 0x1
 3912 1d90 51080000 		.long	0x851
 3913 1d94 00       		.byte	0
 3914 1d95 08       		.uleb128 0x8
 3915 1d96 4546495F 		.ascii "EFI_GET_NEXT_HIGH_MONO_COUNT\0"
 3915      4745545F 
 3915      4E455854 
 3915      5F484947 
 3915      485F4D4F 
 3916 1db3 08       		.byte	0x8
 3917 1db4 7502     		.word	0x275
 3918 1db6 0A       		.byte	0xa
 3919 1db7 BB1D0000 		.long	0x1dbb
 3920 1dbb 02       		.uleb128 0x2
 3921 1dbc C01D0000 		.long	0x1dc0
 3922 1dc0 07       		.uleb128 0x7
 3923 1dc1 2D030000 		.long	0x32d
 3924 1dc5 CF1D0000 		.long	0x1dcf
 3925 1dc9 01       		.uleb128 0x1
 3926 1dca 3A0B0000 		.long	0xb3a
 3927 1dce 00       		.byte	0
 3928 1dcf 23       		.uleb128 0x23
 3929 1dd0 1C       		.byte	0x1c
 3930 1dd1 8102     		.word	0x281
 3931 1dd3 261E0000 		.long	0x1e26
 3932 1dd7 04       		.uleb128 0x4
 3933 1dd8 43617073 		.ascii "CapsuleGuid\0"
 3933      756C6547 
 3933      75696400 
 3934 1de4 08       		.byte	0x8
 3935 1de5 8202     		.word	0x282
 3936 1de7 21       		.byte	0x21
 3937 1de8 DF030000 		.long	0x3df
 3938 1dec 00       		.byte	0
 3939 1ded 15       		.uleb128 0x15
 3940 1dee 8D000000 		.secrel32	.LASF4
 3941 1df2 8302     		.word	0x283
 3942 1df4 21       		.byte	0x21
 3943 1df5 90020000 		.long	0x290
 3944 1df9 10       		.byte	0x10
 3945 1dfa 04       		.uleb128 0x4
 3946 1dfb 466C6167 		.ascii "Flags\0"
 3946      7300
 3947 1e01 08       		.byte	0x8
 3948 1e02 8402     		.word	0x284
 3949 1e04 21       		.byte	0x21
 3950 1e05 90020000 		.long	0x290
 3951 1e09 14       		.byte	0x14
 3952 1e0a 04       		.uleb128 0x4
 3953 1e0b 43617073 		.ascii "CapsuleImageSize\0"
 3953      756C6549 
 3953      6D616765 
 3953      53697A65 
 3953      00
 3954 1e1c 08       		.byte	0x8
 3955 1e1d 8502     		.word	0x285
 3956 1e1f 21       		.byte	0x21
 3957 1e20 90020000 		.long	0x290
 3958 1e24 18       		.byte	0x18
 3959 1e25 00       		.byte	0
 3960 1e26 08       		.uleb128 0x8
 3961 1e27 4546495F 		.ascii "EFI_CAPSULE_HEADER\0"
 3961      43415053 
 3961      554C455F 
 3961      48454144 
 3961      455200
 3962 1e3a 08       		.byte	0x8
 3963 1e3b 8602     		.word	0x286
 3964 1e3d 03       		.byte	0x3
 3965 1e3e CF1D0000 		.long	0x1dcf
 3966 1e42 08       		.uleb128 0x8
 3967 1e43 4546495F 		.ascii "EFI_UPDATE_CAPSULE\0"
 3967      55504441 
 3967      54455F43 
 3967      41505355 
 3967      4C4500
 3968 1e56 08       		.byte	0x8
 3969 1e57 8E02     		.word	0x28e
 3970 1e59 0A       		.byte	0xa
 3971 1e5a 5E1E0000 		.long	0x1e5e
 3972 1e5e 02       		.uleb128 0x2
 3973 1e5f 631E0000 		.long	0x1e63
 3974 1e63 07       		.uleb128 0x7
 3975 1e64 2D030000 		.long	0x32d
 3976 1e68 7C1E0000 		.long	0x1e7c
 3977 1e6c 01       		.uleb128 0x1
 3978 1e6d 7C1E0000 		.long	0x1e7c
 3979 1e71 01       		.uleb128 0x1
 3980 1e72 06030000 		.long	0x306
 3981 1e76 01       		.uleb128 0x1
 3982 1e77 CB040000 		.long	0x4cb
 3983 1e7b 00       		.byte	0
 3984 1e7c 02       		.uleb128 0x2
 3985 1e7d 811E0000 		.long	0x1e81
 3986 1e81 02       		.uleb128 0x2
 3987 1e82 261E0000 		.long	0x1e26
 3988 1e86 08       		.uleb128 0x8
 3989 1e87 4546495F 		.ascii "EFI_QUERY_CAPSULE_CAPABILITIES\0"
 3989      51554552 
 3989      595F4341 
 3989      5053554C 
 3989      455F4341 
 3990 1ea6 08       		.byte	0x8
 3991 1ea7 9602     		.word	0x296
 3992 1ea9 0A       		.byte	0xa
 3993 1eaa AE1E0000 		.long	0x1eae
 3994 1eae 02       		.uleb128 0x2
 3995 1eaf B31E0000 		.long	0x1eb3
 3996 1eb3 07       		.uleb128 0x7
 3997 1eb4 2D030000 		.long	0x32d
 3998 1eb8 D11E0000 		.long	0x1ed1
 3999 1ebc 01       		.uleb128 0x1
 4000 1ebd 7C1E0000 		.long	0x1e7c
 4001 1ec1 01       		.uleb128 0x1
 4002 1ec2 06030000 		.long	0x306
 4003 1ec6 01       		.uleb128 0x1
 4004 1ec7 51080000 		.long	0x851
 4005 1ecb 01       		.uleb128 0x1
 4006 1ecc D11E0000 		.long	0x1ed1
 4007 1ed0 00       		.byte	0
 4008 1ed1 02       		.uleb128 0x2
 4009 1ed2 061D0000 		.long	0x1d06
 4010 1ed6 08       		.uleb128 0x8
 4011 1ed7 4546495F 		.ascii "EFI_QUERY_VARIABLE_INFO\0"
 4011      51554552 
 4011      595F5641 
 4011      52494142 
 4011      4C455F49 
 4012 1eef 08       		.byte	0x8
 4013 1ef0 9F02     		.word	0x29f
 4014 1ef2 0A       		.byte	0xa
 4015 1ef3 F71E0000 		.long	0x1ef7
 4016 1ef7 02       		.uleb128 0x2
 4017 1ef8 FC1E0000 		.long	0x1efc
 4018 1efc 07       		.uleb128 0x7
 4019 1efd 2D030000 		.long	0x32d
 4020 1f01 1A1F0000 		.long	0x1f1a
 4021 1f05 01       		.uleb128 0x1
 4022 1f06 90020000 		.long	0x290
 4023 1f0a 01       		.uleb128 0x1
 4024 1f0b 51080000 		.long	0x851
 4025 1f0f 01       		.uleb128 0x1
 4026 1f10 51080000 		.long	0x851
 4027 1f14 01       		.uleb128 0x1
 4028 1f15 51080000 		.long	0x851
 4029 1f19 00       		.byte	0
 4030 1f1a 27       		.uleb128 0x27
 4031 1f1b EF010000 		.long	0x1ef
 4032 1f1f AA02     		.word	0x2aa
 4033 1f21 531F0000 		.long	0x1f53
 4034 1f25 09       		.uleb128 0x9
 4035 1f26 4546495F 		.ascii "EFI_NATIVE_INTERFACE\0"
 4035      4E415449 
 4035      56455F49 
 4035      4E544552 
 4035      46414345 
 4036 1f3b 00       		.byte	0
 4037 1f3c 09       		.uleb128 0x9
 4038 1f3d 4546495F 		.ascii "EFI_PCODE_INTERFACE\0"
 4038      50434F44 
 4038      455F494E 
 4038      54455246 
 4038      41434500 
 4039 1f51 01       		.byte	0x1
 4040 1f52 00       		.byte	0
 4041 1f53 08       		.uleb128 0x8
 4042 1f54 4546495F 		.ascii "EFI_INTERFACE_TYPE\0"
 4042      494E5445 
 4042      52464143 
 4042      455F5459 
 4042      504500
 4043 1f67 08       		.byte	0x8
 4044 1f68 AD02     		.word	0x2ad
 4045 1f6a 03       		.byte	0x3
 4046 1f6b 1A1F0000 		.long	0x1f1a
 4047 1f6f 08       		.uleb128 0x8
 4048 1f70 4546495F 		.ascii "EFI_INSTALL_PROTOCOL_INTERFACE\0"
 4048      494E5354 
 4048      414C4C5F 
 4048      50524F54 
 4048      4F434F4C 
 4049 1f8f 08       		.byte	0x8
 4050 1f90 B102     		.word	0x2b1
 4051 1f92 0A       		.byte	0xa
 4052 1f93 971F0000 		.long	0x1f97
 4053 1f97 02       		.uleb128 0x2
 4054 1f98 9C1F0000 		.long	0x1f9c
 4055 1f9c 07       		.uleb128 0x7
 4056 1f9d 2D030000 		.long	0x32d
 4057 1fa1 BA1F0000 		.long	0x1fba
 4058 1fa5 01       		.uleb128 0x1
 4059 1fa6 350B0000 		.long	0xb35
 4060 1faa 01       		.uleb128 0x1
 4061 1fab 210B0000 		.long	0xb21
 4062 1faf 01       		.uleb128 0x1
 4063 1fb0 531F0000 		.long	0x1f53
 4064 1fb4 01       		.uleb128 0x1
 4065 1fb5 73030000 		.long	0x373
 4066 1fb9 00       		.byte	0
 4067 1fba 08       		.uleb128 0x8
 4068 1fbb 4546495F 		.ascii "EFI_REINSTALL_PROTOCOL_INTERFACE\0"
 4068      5245494E 
 4068      5354414C 
 4068      4C5F5052 
 4068      4F544F43 
 4069 1fdc 08       		.byte	0x8
 4070 1fdd BA02     		.word	0x2ba
 4071 1fdf 0A       		.byte	0xa
 4072 1fe0 E41F0000 		.long	0x1fe4
 4073 1fe4 02       		.uleb128 0x2
 4074 1fe5 E91F0000 		.long	0x1fe9
 4075 1fe9 07       		.uleb128 0x7
 4076 1fea 2D030000 		.long	0x32d
 4077 1fee 07200000 		.long	0x2007
 4078 1ff2 01       		.uleb128 0x1
 4079 1ff3 60030000 		.long	0x360
 4080 1ff7 01       		.uleb128 0x1
 4081 1ff8 210B0000 		.long	0xb21
 4082 1ffc 01       		.uleb128 0x1
 4083 1ffd 73030000 		.long	0x373
 4084 2001 01       		.uleb128 0x1
 4085 2002 73030000 		.long	0x373
 4086 2006 00       		.byte	0
 4087 2007 08       		.uleb128 0x8
 4088 2008 4546495F 		.ascii "EFI_UNINSTALL_PROTOCOL_INTERFACE\0"
 4088      554E494E 
 4088      5354414C 
 4088      4C5F5052 
 4088      4F544F43 
 4089 2029 08       		.byte	0x8
 4090 202a C302     		.word	0x2c3
 4091 202c 0A       		.byte	0xa
 4092 202d 31200000 		.long	0x2031
 4093 2031 02       		.uleb128 0x2
 4094 2032 36200000 		.long	0x2036
 4095 2036 07       		.uleb128 0x7
 4096 2037 2D030000 		.long	0x32d
 4097 203b 4F200000 		.long	0x204f
 4098 203f 01       		.uleb128 0x1
 4099 2040 60030000 		.long	0x360
 4100 2044 01       		.uleb128 0x1
 4101 2045 210B0000 		.long	0xb21
 4102 2049 01       		.uleb128 0x1
 4103 204a 73030000 		.long	0x373
 4104 204e 00       		.byte	0
 4105 204f 08       		.uleb128 0x8
 4106 2050 4546495F 		.ascii "EFI_HANDLE_PROTOCOL\0"
 4106      48414E44 
 4106      4C455F50 
 4106      524F544F 
 4106      434F4C00 
 4107 2064 08       		.byte	0x8
 4108 2065 CB02     		.word	0x2cb
 4109 2067 0A       		.byte	0xa
 4110 2068 6C200000 		.long	0x206c
 4111 206c 02       		.uleb128 0x2
 4112 206d 71200000 		.long	0x2071
 4113 2071 07       		.uleb128 0x7
 4114 2072 2D030000 		.long	0x32d
 4115 2076 8A200000 		.long	0x208a
 4116 207a 01       		.uleb128 0x1
 4117 207b 60030000 		.long	0x360
 4118 207f 01       		.uleb128 0x1
 4119 2080 210B0000 		.long	0xb21
 4120 2084 01       		.uleb128 0x1
 4121 2085 56080000 		.long	0x856
 4122 2089 00       		.byte	0
 4123 208a 08       		.uleb128 0x8
 4124 208b 4546495F 		.ascii "EFI_REGISTER_PROTOCOL_NOTIFY\0"
 4124      52454749 
 4124      53544552 
 4124      5F50524F 
 4124      544F434F 
 4125 20a8 08       		.byte	0x8
 4126 20a9 D302     		.word	0x2d3
 4127 20ab 0A       		.byte	0xa
 4128 20ac B0200000 		.long	0x20b0
 4129 20b0 02       		.uleb128 0x2
 4130 20b1 B5200000 		.long	0x20b5
 4131 20b5 07       		.uleb128 0x7
 4132 20b6 2D030000 		.long	0x32d
 4133 20ba CE200000 		.long	0x20ce
 4134 20be 01       		.uleb128 0x1
 4135 20bf 210B0000 		.long	0xb21
 4136 20c3 01       		.uleb128 0x1
 4137 20c4 78030000 		.long	0x378
 4138 20c8 01       		.uleb128 0x1
 4139 20c9 56080000 		.long	0x856
 4140 20cd 00       		.byte	0
 4141 20ce 08       		.uleb128 0x8
 4142 20cf 4546495F 		.ascii "EFI_LOCATE_HANDLE\0"
 4142      4C4F4341 
 4142      54455F48 
 4142      414E444C 
 4142      4500
 4143 20e1 08       		.byte	0x8
 4144 20e2 DB02     		.word	0x2db
 4145 20e4 0A       		.byte	0xa
 4146 20e5 E9200000 		.long	0x20e9
 4147 20e9 02       		.uleb128 0x2
 4148 20ea EE200000 		.long	0x20ee
 4149 20ee 07       		.uleb128 0x7
 4150 20ef 2D030000 		.long	0x32d
 4151 20f3 11210000 		.long	0x2111
 4152 20f7 01       		.uleb128 0x1
 4153 20f8 A61A0000 		.long	0x1aa6
 4154 20fc 01       		.uleb128 0x1
 4155 20fd 210B0000 		.long	0xb21
 4156 2101 01       		.uleb128 0x1
 4157 2102 73030000 		.long	0x373
 4158 2106 01       		.uleb128 0x1
 4159 2107 4C080000 		.long	0x84c
 4160 210b 01       		.uleb128 0x1
 4161 210c 350B0000 		.long	0xb35
 4162 2110 00       		.byte	0
 4163 2111 08       		.uleb128 0x8
 4164 2112 4546495F 		.ascii "EFI_LOCATE_DEVICE_PATH\0"
 4164      4C4F4341 
 4164      54455F44 
 4164      45564943 
 4164      455F5041 
 4165 2129 08       		.byte	0x8
 4166 212a E502     		.word	0x2e5
 4167 212c 0A       		.byte	0xa
 4168 212d 31210000 		.long	0x2131
 4169 2131 02       		.uleb128 0x2
 4170 2132 36210000 		.long	0x2136
 4171 2136 07       		.uleb128 0x7
 4172 2137 2D030000 		.long	0x32d
 4173 213b 4F210000 		.long	0x214f
 4174 213f 01       		.uleb128 0x1
 4175 2140 210B0000 		.long	0xb21
 4176 2144 01       		.uleb128 0x1
 4177 2145 2B0B0000 		.long	0xb2b
 4178 2149 01       		.uleb128 0x1
 4179 214a 350B0000 		.long	0xb35
 4180 214e 00       		.byte	0
 4181 214f 08       		.uleb128 0x8
 4182 2150 4546495F 		.ascii "EFI_INSTALL_CONFIGURATION_TABLE\0"
 4182      494E5354 
 4182      414C4C5F 
 4182      434F4E46 
 4182      49475552 
 4183 2170 08       		.byte	0x8
 4184 2171 ED02     		.word	0x2ed
 4185 2173 0A       		.byte	0xa
 4186 2174 78210000 		.long	0x2178
 4187 2178 02       		.uleb128 0x2
 4188 2179 7D210000 		.long	0x217d
 4189 217d 07       		.uleb128 0x7
 4190 217e 2D030000 		.long	0x32d
 4191 2182 91210000 		.long	0x2191
 4192 2186 01       		.uleb128 0x1
 4193 2187 210B0000 		.long	0xb21
 4194 218b 01       		.uleb128 0x1
 4195 218c 73030000 		.long	0x373
 4196 2190 00       		.byte	0
 4197 2191 21       		.uleb128 0x21
 4198 2192 5F454649 		.ascii "_EFI_TABLE_HEADER\0"
 4198      5F544142 
 4198      4C455F48 
 4198      45414445 
 4198      5200
 4199 21a4 18       		.byte	0x18
 4200 21a5 08       		.byte	0x8
 4201 21a6 FB02     		.word	0x2fb
 4202 21a8 F7210000 		.long	0x21f7
 4203 21ac 15       		.uleb128 0x15
 4204 21ad 1B000000 		.secrel32	.LASF5
 4205 21b1 FC02     		.word	0x2fc
 4206 21b3 21       		.byte	0x21
 4207 21b4 81020000 		.long	0x281
 4208 21b8 00       		.byte	0
 4209 21b9 15       		.uleb128 0x15
 4210 21ba 7B000000 		.secrel32	.LASF3
 4211 21be FD02     		.word	0x2fd
 4212 21c0 21       		.byte	0x21
 4213 21c1 90020000 		.long	0x290
 4214 21c5 08       		.byte	0x8
 4215 21c6 15       		.uleb128 0x15
 4216 21c7 8D000000 		.secrel32	.LASF4
 4217 21cb FE02     		.word	0x2fe
 4218 21cd 21       		.byte	0x21
 4219 21ce 90020000 		.long	0x290
 4220 21d2 0C       		.byte	0xc
 4221 21d3 04       		.uleb128 0x4
 4222 21d4 43524333 		.ascii "CRC32\0"
 4222      3200
 4223 21da 08       		.byte	0x8
 4224 21db FF02     		.word	0x2ff
 4225 21dd 21       		.byte	0x21
 4226 21de 90020000 		.long	0x290
 4227 21e2 10       		.byte	0x10
 4228 21e3 04       		.uleb128 0x4
 4229 21e4 52657365 		.ascii "Reserved\0"
 4229      72766564 
 4229      00
 4230 21ed 08       		.byte	0x8
 4231 21ee 0003     		.word	0x300
 4232 21f0 21       		.byte	0x21
 4233 21f1 90020000 		.long	0x290
 4234 21f5 14       		.byte	0x14
 4235 21f6 00       		.byte	0
 4236 21f7 08       		.uleb128 0x8
 4237 21f8 4546495F 		.ascii "EFI_TABLE_HEADER\0"
 4237      5441424C 
 4237      455F4845 
 4237      41444552 
 4237      00
 4238 2209 08       		.byte	0x8
 4239 220a 0103     		.word	0x301
 4240 220c 03       		.byte	0x3
 4241 220d 91210000 		.long	0x2191
 4242 2211 23       		.uleb128 0x23
 4243 2212 88       		.byte	0x88
 4244 2213 1903     		.word	0x319
 4245 2215 8F230000 		.long	0x238f
 4246 2219 04       		.uleb128 0x4
 4247 221a 48647200 		.ascii "Hdr\0"
 4248 221e 08       		.byte	0x8
 4249 221f 1A03     		.word	0x31a
 4250 2221 25       		.byte	0x25
 4251 2222 F7210000 		.long	0x21f7
 4252 2226 00       		.byte	0
 4253 2227 04       		.uleb128 0x4
 4254 2228 47657454 		.ascii "GetTime\0"
 4254      696D6500 
 4255 2230 08       		.byte	0x8
 4256 2231 2003     		.word	0x320
 4257 2233 25       		.byte	0x25
 4258 2234 0C160000 		.long	0x160c
 4259 2238 18       		.byte	0x18
 4260 2239 04       		.uleb128 0x4
 4261 223a 53657454 		.ascii "SetTime\0"
 4261      696D6500 
 4262 2242 08       		.byte	0x8
 4263 2243 2103     		.word	0x321
 4264 2245 25       		.byte	0x25
 4265 2246 45160000 		.long	0x1645
 4266 224a 20       		.byte	0x20
 4267 224b 04       		.uleb128 0x4
 4268 224c 47657457 		.ascii "GetWakeupTime\0"
 4268      616B6575 
 4268      7054696D 
 4268      6500
 4269 225a 08       		.byte	0x8
 4270 225b 2203     		.word	0x322
 4271 225d 25       		.byte	0x25
 4272 225e 6F160000 		.long	0x166f
 4273 2262 28       		.byte	0x28
 4274 2263 04       		.uleb128 0x4
 4275 2264 53657457 		.ascii "SetWakeupTime\0"
 4275      616B6575 
 4275      7054696D 
 4275      6500
 4276 2272 08       		.byte	0x8
 4277 2273 2303     		.word	0x323
 4278 2275 25       		.byte	0x25
 4279 2276 AA160000 		.long	0x16aa
 4280 227a 30       		.byte	0x30
 4281 227b 04       		.uleb128 0x4
 4282 227c 53657456 		.ascii "SetVirtualAddressMap\0"
 4282      69727475 
 4282      616C4164 
 4282      64726573 
 4282      734D6170 
 4283 2291 08       		.byte	0x8
 4284 2292 2903     		.word	0x329
 4285 2294 25       		.byte	0x25
 4286 2295 76120000 		.long	0x1276
 4287 2299 38       		.byte	0x38
 4288 229a 04       		.uleb128 0x4
 4289 229b 436F6E76 		.ascii "ConvertPointer\0"
 4289      65727450 
 4289      6F696E74 
 4289      657200
 4290 22aa 08       		.byte	0x8
 4291 22ab 2A03     		.word	0x32a
 4292 22ad 25       		.byte	0x25
 4293 22ae BD120000 		.long	0x12bd
 4294 22b2 40       		.byte	0x40
 4295 22b3 04       		.uleb128 0x4
 4296 22b4 47657456 		.ascii "GetVariable\0"
 4296      61726961 
 4296      626C6500 
 4297 22c0 08       		.byte	0x8
 4298 22c1 3003     		.word	0x330
 4299 22c3 25       		.byte	0x25
 4300 22c4 E3140000 		.long	0x14e3
 4301 22c8 48       		.byte	0x48
 4302 22c9 04       		.uleb128 0x4
 4303 22ca 4765744E 		.ascii "GetNextVariableName\0"
 4303      65787456 
 4303      61726961 
 4303      626C654E 
 4303      616D6500 
 4304 22de 08       		.byte	0x8
 4305 22df 3103     		.word	0x331
 4306 22e1 25       		.byte	0x25
 4307 22e2 24150000 		.long	0x1524
 4308 22e6 50       		.byte	0x50
 4309 22e7 04       		.uleb128 0x4
 4310 22e8 53657456 		.ascii "SetVariable\0"
 4310      61726961 
 4310      626C6500 
 4311 22f4 08       		.byte	0x8
 4312 22f5 3203     		.word	0x332
 4313 22f7 25       		.byte	0x25
 4314 22f8 65150000 		.long	0x1565
 4315 22fc 58       		.byte	0x58
 4316 22fd 04       		.uleb128 0x4
 4317 22fe 4765744E 		.ascii "GetNextHighMonotonicCount\0"
 4317      65787448 
 4317      6967684D 
 4317      6F6E6F74 
 4317      6F6E6963 
 4318 2318 08       		.byte	0x8
 4319 2319 3803     		.word	0x338
 4320 231b 25       		.byte	0x25
 4321 231c 951D0000 		.long	0x1d95
 4322 2320 60       		.byte	0x60
 4323 2321 04       		.uleb128 0x4
 4324 2322 52657365 		.ascii "ResetSystem\0"
 4324      74537973 
 4324      74656D00 
 4325 232e 08       		.byte	0x8
 4326 232f 3903     		.word	0x339
 4327 2331 25       		.byte	0x25
 4328 2332 1E1D0000 		.long	0x1d1e
 4329 2336 68       		.byte	0x68
 4330 2337 04       		.uleb128 0x4
 4331 2338 55706461 		.ascii "UpdateCapsule\0"
 4331      74654361 
 4331      7073756C 
 4331      6500
 4332 2346 08       		.byte	0x8
 4333 2347 3B03     		.word	0x33b
 4334 2349 25       		.byte	0x25
 4335 234a 421E0000 		.long	0x1e42
 4336 234e 70       		.byte	0x70
 4337 234f 04       		.uleb128 0x4
 4338 2350 51756572 		.ascii "QueryCapsuleCapabilities\0"
 4338      79436170 
 4338      73756C65 
 4338      43617061 
 4338      62696C69 
 4339 2369 08       		.byte	0x8
 4340 236a 3C03     		.word	0x33c
 4341 236c 25       		.byte	0x25
 4342 236d 861E0000 		.long	0x1e86
 4343 2371 78       		.byte	0x78
 4344 2372 04       		.uleb128 0x4
 4345 2373 51756572 		.ascii "QueryVariableInfo\0"
 4345      79566172 
 4345      6961626C 
 4345      65496E66 
 4345      6F00
 4346 2385 08       		.byte	0x8
 4347 2386 3D03     		.word	0x33d
 4348 2388 25       		.byte	0x25
 4349 2389 D61E0000 		.long	0x1ed6
 4350 238d 80       		.byte	0x80
 4351 238e 00       		.byte	0
 4352 238f 08       		.uleb128 0x8
 4353 2390 4546495F 		.ascii "EFI_RUNTIME_SERVICES\0"
 4353      52554E54 
 4353      494D455F 
 4353      53455256 
 4353      49434553 
 4354 23a5 08       		.byte	0x8
 4355 23a6 3E03     		.word	0x33e
 4356 23a8 03       		.byte	0x3
 4357 23a9 11220000 		.long	0x2211
 4358 23ad 32       		.uleb128 0x32
 4359 23ae 5F454649 		.ascii "_EFI_BOOT_SERVICES\0"
 4359      5F424F4F 
 4359      545F5345 
 4359      52564943 
 4359      455300
 4360 23c1 7801     		.word	0x178
 4361 23c3 08       		.byte	0x8
 4362 23c4 5603     		.word	0x356
 4363 23c6 10       		.byte	0x10
 4364 23c7 38280000 		.long	0x2838
 4365 23cb 04       		.uleb128 0x4
 4366 23cc 48647200 		.ascii "Hdr\0"
 4367 23d0 08       		.byte	0x8
 4368 23d1 5803     		.word	0x358
 4369 23d3 25       		.byte	0x25
 4370 23d4 F7210000 		.long	0x21f7
 4371 23d8 00       		.byte	0
 4372 23d9 04       		.uleb128 0x4
 4373 23da 52616973 		.ascii "RaiseTPL\0"
 4373      6554504C 
 4373      00
 4374 23e3 08       		.byte	0x8
 4375 23e4 5E03     		.word	0x35e
 4376 23e6 25       		.byte	0x25
 4377 23e7 91140000 		.long	0x1491
 4378 23eb 18       		.byte	0x18
 4379 23ec 04       		.uleb128 0x4
 4380 23ed 52657374 		.ascii "RestoreTPL\0"
 4380      6F726554 
 4380      504C00
 4381 23f8 08       		.byte	0x8
 4382 23f9 5F03     		.word	0x35f
 4383 23fb 25       		.byte	0x25
 4384 23fc BB140000 		.long	0x14bb
 4385 2400 20       		.byte	0x20
 4386 2401 04       		.uleb128 0x4
 4387 2402 416C6C6F 		.ascii "AllocatePages\0"
 4387      63617465 
 4387      50616765 
 4387      7300
 4388 2410 08       		.byte	0x8
 4389 2411 6503     		.word	0x365
 4390 2413 25       		.byte	0x25
 4391 2414 5E110000 		.long	0x115e
 4392 2418 28       		.byte	0x28
 4393 2419 04       		.uleb128 0x4
 4394 241a 46726565 		.ascii "FreePages\0"
 4394      50616765 
 4394      7300
 4395 2424 08       		.byte	0x8
 4396 2425 6603     		.word	0x366
 4397 2427 25       		.byte	0x25
 4398 2428 9C110000 		.long	0x119c
 4399 242c 30       		.byte	0x30
 4400 242d 04       		.uleb128 0x4
 4401 242e 4765744D 		.ascii "GetMemoryMap\0"
 4401      656D6F72 
 4401      794D6170 
 4401      00
 4402 243b 08       		.byte	0x8
 4403 243c 6703     		.word	0x367
 4404 243e 25       		.byte	0x25
 4405 243f CC110000 		.long	0x11cc
 4406 2443 38       		.byte	0x38
 4407 2444 15       		.uleb128 0x15
 4408 2445 4C000000 		.secrel32	.LASF6
 4409 2449 6803     		.word	0x368
 4410 244b 25       		.byte	0x25
 4411 244c 14120000 		.long	0x1214
 4412 2450 40       		.byte	0x40
 4413 2451 15       		.uleb128 0x15
 4414 2452 62000000 		.secrel32	.LASF7
 4415 2456 6903     		.word	0x369
 4416 2458 25       		.byte	0x25
 4417 2459 4C120000 		.long	0x124c
 4418 245d 48       		.byte	0x48
 4419 245e 04       		.uleb128 0x4
 4420 245f 43726561 		.ascii "CreateEvent\0"
 4420      74654576 
 4420      656E7400 
 4421 246b 08       		.byte	0x8
 4422 246c 6F03     		.word	0x36f
 4423 246e 25       		.byte	0x25
 4424 246f 20130000 		.long	0x1320
 4425 2473 50       		.byte	0x50
 4426 2474 04       		.uleb128 0x4
 4427 2475 53657454 		.ascii "SetTimer\0"
 4427      696D6572 
 4427      00
 4428 247e 08       		.byte	0x8
 4429 247f 7003     		.word	0x370
 4430 2481 25       		.byte	0x25
 4431 2482 C7130000 		.long	0x13c7
 4432 2486 58       		.byte	0x58
 4433 2487 04       		.uleb128 0x4
 4434 2488 57616974 		.ascii "WaitForEvent\0"
 4434      466F7245 
 4434      76656E74 
 4434      00
 4435 2495 08       		.byte	0x8
 4436 2496 7103     		.word	0x371
 4437 2498 25       		.byte	0x25
 4438 2499 28140000 		.long	0x1428
 4439 249d 60       		.byte	0x60
 4440 249e 04       		.uleb128 0x4
 4441 249f 5369676E 		.ascii "SignalEvent\0"
 4441      616C4576 
 4441      656E7400 
 4442 24ab 08       		.byte	0x8
 4443 24ac 7203     		.word	0x372
 4444 24ae 25       		.byte	0x25
 4445 24af FB130000 		.long	0x13fb
 4446 24b3 68       		.byte	0x68
 4447 24b4 04       		.uleb128 0x4
 4448 24b5 436C6F73 		.ascii "CloseEvent\0"
 4448      65457665 
 4448      6E7400
 4449 24c0 08       		.byte	0x8
 4450 24c1 7303     		.word	0x373
 4451 24c3 25       		.byte	0x25
 4452 24c4 61140000 		.long	0x1461
 4453 24c8 70       		.byte	0x70
 4454 24c9 04       		.uleb128 0x4
 4455 24ca 43686563 		.ascii "CheckEvent\0"
 4455      6B457665 
 4455      6E7400
 4456 24d5 08       		.byte	0x8
 4457 24d6 7403     		.word	0x374
 4458 24d8 25       		.byte	0x25
 4459 24d9 79140000 		.long	0x1479
 4460 24dd 78       		.byte	0x78
 4461 24de 04       		.uleb128 0x4
 4462 24df 496E7374 		.ascii "InstallProtocolInterface\0"
 4462      616C6C50 
 4462      726F746F 
 4462      636F6C49 
 4462      6E746572 
 4463 24f8 08       		.byte	0x8
 4464 24f9 7A03     		.word	0x37a
 4465 24fb 25       		.byte	0x25
 4466 24fc 6F1F0000 		.long	0x1f6f
 4467 2500 80       		.byte	0x80
 4468 2501 04       		.uleb128 0x4
 4469 2502 5265696E 		.ascii "ReinstallProtocolInterface\0"
 4469      7374616C 
 4469      6C50726F 
 4469      746F636F 
 4469      6C496E74 
 4470 251d 08       		.byte	0x8
 4471 251e 7B03     		.word	0x37b
 4472 2520 26       		.byte	0x26
 4473 2521 BA1F0000 		.long	0x1fba
 4474 2525 88       		.byte	0x88
 4475 2526 04       		.uleb128 0x4
 4476 2527 556E696E 		.ascii "UninstallProtocolInterface\0"
 4476      7374616C 
 4476      6C50726F 
 4476      746F636F 
 4476      6C496E74 
 4477 2542 08       		.byte	0x8
 4478 2543 7C03     		.word	0x37c
 4479 2545 26       		.byte	0x26
 4480 2546 07200000 		.long	0x2007
 4481 254a 90       		.byte	0x90
 4482 254b 04       		.uleb128 0x4
 4483 254c 48616E64 		.ascii "HandleProtocol\0"
 4483      6C655072 
 4483      6F746F63 
 4483      6F6C00
 4484 255b 08       		.byte	0x8
 4485 255c 7D03     		.word	0x37d
 4486 255e 25       		.byte	0x25
 4487 255f 4F200000 		.long	0x204f
 4488 2563 98       		.byte	0x98
 4489 2564 04       		.uleb128 0x4
 4490 2565 50434861 		.ascii "PCHandleProtocol\0"
 4490      6E646C65 
 4490      50726F74 
 4490      6F636F6C 
 4490      00
 4491 2576 08       		.byte	0x8
 4492 2577 7E03     		.word	0x37e
 4493 2579 25       		.byte	0x25
 4494 257a 4F200000 		.long	0x204f
 4495 257e A0       		.byte	0xa0
 4496 257f 04       		.uleb128 0x4
 4497 2580 52656769 		.ascii "RegisterProtocolNotify\0"
 4497      73746572 
 4497      50726F74 
 4497      6F636F6C 
 4497      4E6F7469 
 4498 2597 08       		.byte	0x8
 4499 2598 7F03     		.word	0x37f
 4500 259a 25       		.byte	0x25
 4501 259b 8A200000 		.long	0x208a
 4502 259f A8       		.byte	0xa8
 4503 25a0 04       		.uleb128 0x4
 4504 25a1 4C6F6361 		.ascii "LocateHandle\0"
 4504      74654861 
 4504      6E646C65 
 4504      00
 4505 25ae 08       		.byte	0x8
 4506 25af 8003     		.word	0x380
 4507 25b1 25       		.byte	0x25
 4508 25b2 CE200000 		.long	0x20ce
 4509 25b6 B0       		.byte	0xb0
 4510 25b7 04       		.uleb128 0x4
 4511 25b8 4C6F6361 		.ascii "LocateDevicePath\0"
 4511      74654465 
 4511      76696365 
 4511      50617468 
 4511      00
 4512 25c9 08       		.byte	0x8
 4513 25ca 8103     		.word	0x381
 4514 25cc 25       		.byte	0x25
 4515 25cd 11210000 		.long	0x2111
 4516 25d1 B8       		.byte	0xb8
 4517 25d2 04       		.uleb128 0x4
 4518 25d3 496E7374 		.ascii "InstallConfigurationTable\0"
 4518      616C6C43 
 4518      6F6E6669 
 4518      67757261 
 4518      74696F6E 
 4519 25ed 08       		.byte	0x8
 4520 25ee 8203     		.word	0x382
 4521 25f0 25       		.byte	0x25
 4522 25f1 4F210000 		.long	0x214f
 4523 25f5 C0       		.byte	0xc0
 4524 25f6 04       		.uleb128 0x4
 4525 25f7 4C6F6164 		.ascii "LoadImage\0"
 4525      496D6167 
 4525      6500
 4526 2601 08       		.byte	0x8
 4527 2602 8803     		.word	0x388
 4528 2604 25       		.byte	0x25
 4529 2605 E0160000 		.long	0x16e0
 4530 2609 C8       		.byte	0xc8
 4531 260a 04       		.uleb128 0x4
 4532 260b 53746172 		.ascii "StartImage\0"
 4532      74496D61 
 4532      676500
 4533 2616 08       		.byte	0x8
 4534 2617 8903     		.word	0x389
 4535 2619 25       		.byte	0x25
 4536 261a 25170000 		.long	0x1725
 4537 261e D0       		.byte	0xd0
 4538 261f 04       		.uleb128 0x4
 4539 2620 45786974 		.ascii "Exit\0"
 4539      00
 4540 2625 08       		.byte	0x8
 4541 2626 8A03     		.word	0x38a
 4542 2628 25       		.byte	0x25
 4543 2629 5C170000 		.long	0x175c
 4544 262d D8       		.byte	0xd8
 4545 262e 04       		.uleb128 0x4
 4546 262f 556E6C6F 		.ascii "UnloadImage\0"
 4546      6164496D 
 4546      61676500 
 4547 263b 08       		.byte	0x8
 4548 263c 8B03     		.word	0x38b
 4549 263e 25       		.byte	0x25
 4550 263f 440B0000 		.long	0xb44
 4551 2643 E0       		.byte	0xe0
 4552 2644 04       		.uleb128 0x4
 4553 2645 45786974 		.ascii "ExitBootServices\0"
 4553      426F6F74 
 4553      53657276 
 4553      69636573 
 4553      00
 4554 2656 08       		.byte	0x8
 4555 2657 8C03     		.word	0x38c
 4556 2659 25       		.byte	0x25
 4557 265a 91170000 		.long	0x1791
 4558 265e E8       		.byte	0xe8
 4559 265f 04       		.uleb128 0x4
 4560 2660 4765744E 		.ascii "GetNextMonotonicCount\0"
 4560      6578744D 
 4560      6F6E6F74 
 4560      6F6E6963 
 4560      436F756E 
 4561 2676 08       		.byte	0x8
 4562 2677 9203     		.word	0x392
 4563 2679 25       		.byte	0x25
 4564 267a 5B1D0000 		.long	0x1d5b
 4565 267e F0       		.byte	0xf0
 4566 267f 04       		.uleb128 0x4
 4567 2680 5374616C 		.ascii "Stall\0"
 4567      6C00
 4568 2686 08       		.byte	0x8
 4569 2687 9303     		.word	0x393
 4570 2689 25       		.byte	0x25
 4571 268a CA170000 		.long	0x17ca
 4572 268e F8       		.byte	0xf8
 4573 268f 0B       		.uleb128 0xb
 4574 2690 53657457 		.ascii "SetWatchdogTimer\0"
 4574      61746368 
 4574      646F6754 
 4574      696D6572 
 4574      00
 4575 26a1 9403     		.word	0x394
 4576 26a3 25       		.byte	0x25
 4577 26a4 F1170000 		.long	0x17f1
 4578 26a8 0001     		.word	0x100
 4579 26aa 0B       		.uleb128 0xb
 4580 26ab 436F6E6E 		.ascii "ConnectController\0"
 4580      65637443 
 4580      6F6E7472 
 4580      6F6C6C65 
 4580      7200
 4581 26bd 9A03     		.word	0x39a
 4582 26bf 25       		.byte	0x25
 4583 26c0 34180000 		.long	0x1834
 4584 26c4 0801     		.word	0x108
 4585 26c6 0B       		.uleb128 0xb
 4586 26c7 44697363 		.ascii "DisconnectController\0"
 4586      6F6E6E65 
 4586      6374436F 
 4586      6E74726F 
 4586      6C6C6572 
 4587 26dc 9B03     		.word	0x39b
 4588 26de 25       		.byte	0x25
 4589 26df 77180000 		.long	0x1877
 4590 26e3 1001     		.word	0x110
 4591 26e5 0B       		.uleb128 0xb
 4592 26e6 4F70656E 		.ascii "OpenProtocol\0"
 4592      50726F74 
 4592      6F636F6C 
 4592      00
 4593 26f3 A003     		.word	0x3a0
 4594 26f5 25       		.byte	0x25
 4595 26f6 B8180000 		.long	0x18b8
 4596 26fa 1801     		.word	0x118
 4597 26fc 0B       		.uleb128 0xb
 4598 26fd 436C6F73 		.ascii "CloseProtocol\0"
 4598      6550726F 
 4598      746F636F 
 4598      6C00
 4599 270b A103     		.word	0x3a1
 4600 270d 25       		.byte	0x25
 4601 270e 00190000 		.long	0x1900
 4602 2712 2001     		.word	0x120
 4603 2714 0B       		.uleb128 0xb
 4604 2715 4F70656E 		.ascii "OpenProtocolInformation\0"
 4604      50726F74 
 4604      6F636F6C 
 4604      496E666F 
 4604      726D6174 
 4605 272d A203     		.word	0x3a2
 4606 272f 25       		.byte	0x25
 4607 2730 CF190000 		.long	0x19cf
 4608 2734 2801     		.word	0x128
 4609 2736 0B       		.uleb128 0xb
 4610 2737 50726F74 		.ascii "ProtocolsPerHandle\0"
 4610      6F636F6C 
 4610      73506572 
 4610      48616E64 
 4610      6C6500
 4611 274a A703     		.word	0x3a7
 4612 274c 25       		.byte	0x25
 4613 274d 231A0000 		.long	0x1a23
 4614 2751 3001     		.word	0x130
 4615 2753 0B       		.uleb128 0xb
 4616 2754 4C6F6361 		.ascii "LocateHandleBuffer\0"
 4616      74654861 
 4616      6E646C65 
 4616      42756666 
 4616      657200
 4617 2767 A803     		.word	0x3a8
 4618 2769 25       		.byte	0x25
 4619 276a C61A0000 		.long	0x1ac6
 4620 276e 3801     		.word	0x138
 4621 2770 0B       		.uleb128 0xb
 4622 2771 4C6F6361 		.ascii "LocateProtocol\0"
 4622      74655072 
 4622      6F746F63 
 4622      6F6C00
 4623 2780 A903     		.word	0x3a9
 4624 2782 25       		.byte	0x25
 4625 2783 151B0000 		.long	0x1b15
 4626 2787 4001     		.word	0x140
 4627 2789 0B       		.uleb128 0xb
 4628 278a 496E7374 		.ascii "InstallMultipleProtocolInterfaces\0"
 4628      616C6C4D 
 4628      756C7469 
 4628      706C6550 
 4628      726F746F 
 4629 27ac AA03     		.word	0x3aa
 4630 27ae 2E       		.byte	0x2e
 4631 27af 501B0000 		.long	0x1b50
 4632 27b3 4801     		.word	0x148
 4633 27b5 0B       		.uleb128 0xb
 4634 27b6 556E696E 		.ascii "UninstallMultipleProtocolInterfaces\0"
 4634      7374616C 
 4634      6C4D756C 
 4634      7469706C 
 4634      6550726F 
 4635 27da AB03     		.word	0x3ab
 4636 27dc 30       		.byte	0x30
 4637 27dd 971B0000 		.long	0x1b97
 4638 27e1 5001     		.word	0x150
 4639 27e3 0B       		.uleb128 0xb
 4640 27e4 43616C63 		.ascii "CalculateCrc32\0"
 4640      756C6174 
 4640      65437263 
 4640      333200
 4641 27f3 B003     		.word	0x3b0
 4642 27f5 25       		.byte	0x25
 4643 27f6 E01B0000 		.long	0x1be0
 4644 27fa 5801     		.word	0x158
 4645 27fc 0B       		.uleb128 0xb
 4646 27fd 436F7079 		.ascii "CopyMem\0"
 4646      4D656D00 
 4647 2805 B503     		.word	0x3b5
 4648 2807 25       		.byte	0x25
 4649 2808 1B1C0000 		.long	0x1c1b
 4650 280c 6001     		.word	0x160
 4651 280e 0B       		.uleb128 0xb
 4652 280f 5365744D 		.ascii "SetMem\0"
 4652      656D00
 4653 2816 B603     		.word	0x3b6
 4654 2818 25       		.byte	0x25
 4655 2819 4B1C0000 		.long	0x1c4b
 4656 281d 6801     		.word	0x168
 4657 281f 0B       		.uleb128 0xb
 4658 2820 43726561 		.ascii "CreateEventEx\0"
 4658      74654576 
 4658      656E7445 
 4658      7800
 4659 282e B703     		.word	0x3b7
 4660 2830 25       		.byte	0x25
 4661 2831 7A1C0000 		.long	0x1c7a
 4662 2835 7001     		.word	0x170
 4663 2837 00       		.byte	0
 4664 2838 08       		.uleb128 0x8
 4665 2839 4546495F 		.ascii "EFI_BOOT_SERVICES\0"
 4665      424F4F54 
 4665      5F534552 
 4665      56494345 
 4665      5300
 4666 284b 08       		.byte	0x8
 4667 284c B803     		.word	0x3b8
 4668 284e 03       		.byte	0x3
 4669 284f AD230000 		.long	0x23ad
 4670 2853 21       		.uleb128 0x21
 4671 2854 5F454649 		.ascii "_EFI_CONFIGURATION_TABLE\0"
 4671      5F434F4E 
 4671      46494755 
 4671      52415449 
 4671      4F4E5F54 
 4672 286d 18       		.byte	0x18
 4673 286e 08       		.byte	0x8
 4674 286f D403     		.word	0x3d4
 4675 2871 99280000 		.long	0x2899
 4676 2875 15       		.uleb128 0x15
 4677 2876 2F000000 		.secrel32	.LASF8
 4678 287a D503     		.word	0x3d5
 4679 287c 1D       		.byte	0x1d
 4680 287d DF030000 		.long	0x3df
 4681 2881 00       		.byte	0
 4682 2882 04       		.uleb128 0x4
 4683 2883 56656E64 		.ascii "VendorTable\0"
 4683      6F725461 
 4683      626C6500 
 4684 288f 08       		.byte	0x8
 4685 2890 D603     		.word	0x3d6
 4686 2892 1E       		.byte	0x1e
 4687 2893 73030000 		.long	0x373
 4688 2897 10       		.byte	0x10
 4689 2898 00       		.byte	0
 4690 2899 08       		.uleb128 0x8
 4691 289a 4546495F 		.ascii "EFI_CONFIGURATION_TABLE\0"
 4691      434F4E46 
 4691      49475552 
 4691      4154494F 
 4691      4E5F5441 
 4692 28b2 08       		.byte	0x8
 4693 28b3 D703     		.word	0x3d7
 4694 28b5 03       		.byte	0x3
 4695 28b6 53280000 		.long	0x2853
 4696 28ba 02       		.uleb128 0x2
 4697 28bb 34110000 		.long	0x1134
 4698 28bf 02       		.uleb128 0x2
 4699 28c0 F90F0000 		.long	0xff9
 4700 28c4 02       		.uleb128 0x2
 4701 28c5 8F230000 		.long	0x238f
 4702 28c9 02       		.uleb128 0x2
 4703 28ca 38280000 		.long	0x2838
 4704 28ce 02       		.uleb128 0x2
 4705 28cf 99280000 		.long	0x2899
 4706 28d3 08       		.uleb128 0x8
 4707 28d4 4546495F 		.ascii "EFI_SYSTEM_TABLE\0"
 4707      53595354 
 4707      454D5F54 
 4707      41424C45 
 4707      00
 4708 28e5 08       		.byte	0x8
 4709 28e6 0704     		.word	0x407
 4710 28e8 03       		.byte	0x3
 4711 28e9 720B0000 		.long	0xb72
 4712 28ed 1F       		.uleb128 0x1f
 4713 28ee EF010000 		.long	0x1ef
 4714 28f2 0A       		.byte	0xa
 4715 28f3 24       		.byte	0x24
 4716 28f4 29290000 		.long	0x2929
 4717 28f8 09       		.uleb128 0x9
 4718 28f9 55694465 		.ascii "UiDeviceString\0"
 4718      76696365 
 4718      53747269 
 4718      6E6700
 4719 2908 00       		.byte	0
 4720 2909 09       		.uleb128 0x9
 4721 290a 55695665 		.ascii "UiVendorString\0"
 4721      6E646F72 
 4721      53747269 
 4721      6E6700
 4722 2919 01       		.byte	0x1
 4723 291a 09       		.uleb128 0x9
 4724 291b 55694D61 		.ascii "UiMaxString\0"
 4724      78537472 
 4724      696E6700 
 4725 2927 02       		.byte	0x2
 4726 2928 00       		.byte	0
 4727 2929 03       		.uleb128 0x3
 4728 292a 55495F53 		.ascii "UI_STRING_TYPE\0"
 4728      5452494E 
 4728      475F5459 
 4728      504500
 4729 2939 0A       		.byte	0xa
 4730 293a 28       		.byte	0x28
 4731 293b 03       		.byte	0x3
 4732 293c ED280000 		.long	0x28ed
 4733 2940 13       		.uleb128 0x13
 4734 2941 10       		.byte	0x10
 4735 2942 0A       		.byte	0xa
 4736 2943 2A       		.byte	0x2a
 4737 2944 68290000 		.long	0x2968
 4738 2948 1B       		.uleb128 0x1b
 4739 2949 84000000 		.secrel32	.LASF9
 4740 294d 0A       		.byte	0xa
 4741 294e 2B       		.byte	0x2b
 4742 294f 12       		.byte	0x12
 4743 2950 68290000 		.long	0x2968
 4744 2954 00       		.byte	0
 4745 2955 06       		.uleb128 0x6
 4746 2956 55695374 		.ascii "UiString\0"
 4746      72696E67 
 4746      00
 4747 295f 0A       		.byte	0xa
 4748 2960 2C       		.byte	0x2c
 4749 2961 12       		.byte	0x12
 4750 2962 47080000 		.long	0x847
 4751 2966 08       		.byte	0x8
 4752 2967 00       		.byte	0
 4753 2968 02       		.uleb128 0x2
 4754 2969 9A070000 		.long	0x79a
 4755 296d 03       		.uleb128 0x3
 4756 296e 55495F53 		.ascii "UI_STRING_ENTRY\0"
 4756      5452494E 
 4756      475F454E 
 4756      54525900 
 4757 297e 0A       		.byte	0xa
 4758 297f 2D       		.byte	0x2d
 4759 2980 03       		.byte	0x3
 4760 2981 40290000 		.long	0x2940
 4761 2985 20       		.uleb128 0x20
 4762 2986 5F454649 		.ascii "_EFI_UI_INTERFACE_PROTOCOL\0"
 4762      5F55495F 
 4762      494E5445 
 4762      52464143 
 4762      455F5052 
 4763 29a1 10       		.byte	0x10
 4764 29a2 0A       		.byte	0xa
 4765 29a3 32       		.byte	0x32
 4766 29a4 C9290000 		.long	0x29c9
 4767 29a8 06       		.uleb128 0x6
 4768 29a9 56657273 		.ascii "Version\0"
 4768      696F6E00 
 4769 29b1 0A       		.byte	0xa
 4770 29b2 33       		.byte	0x33
 4771 29b3 15       		.byte	0x15
 4772 29b4 90020000 		.long	0x290
 4773 29b8 00       		.byte	0
 4774 29b9 06       		.uleb128 0x6
 4775 29ba 456E7472 		.ascii "Entry\0"
 4775      7900
 4776 29c0 0A       		.byte	0xa
 4777 29c1 34       		.byte	0x34
 4778 29c2 16       		.byte	0x16
 4779 29c3 C9290000 		.long	0x29c9
 4780 29c7 08       		.byte	0x8
 4781 29c8 00       		.byte	0
 4782 29c9 02       		.uleb128 0x2
 4783 29ca 6D290000 		.long	0x296d
 4784 29ce 03       		.uleb128 0x3
 4785 29cf 4546495F 		.ascii "EFI_UI_INTERFACE_PROTOCOL\0"
 4785      55495F49 
 4785      4E544552 
 4785      46414345 
 4785      5F50524F 
 4786 29e9 0A       		.byte	0xa
 4787 29ea 35       		.byte	0x35
 4788 29eb 03       		.byte	0x3
 4789 29ec 85290000 		.long	0x2985
 4790 29f0 03       		.uleb128 0x3
 4791 29f1 55495F49 		.ascii "UI_INTERFACE\0"
 4791      4E544552 
 4791      46414345 
 4791      00
 4792 29fe 0A       		.byte	0xa
 4793 29ff 38       		.byte	0x38
 4794 2a00 23       		.byte	0x23
 4795 2a01 CE290000 		.long	0x29ce
 4796 2a05 02       		.uleb128 0x2
 4797 2a06 2D030000 		.long	0x32d
 4798 2a0a 02       		.uleb128 0x2
 4799 2a0b D3280000 		.long	0x28d3
 4800 2a0f 02       		.uleb128 0x2
 4801 2a10 E6020000 		.long	0x2e6
 4802 2a14 13       		.uleb128 0x13
 4803 2a15 10       		.byte	0x10
 4804 2a16 0B       		.byte	0xb
 4805 2a17 1F       		.byte	0x1f
 4806 2a18 DB2A0000 		.long	0x2adb
 4807 2a1c 06       		.uleb128 0x6
 4808 2a1d 426F6F74 		.ascii "BootIndicator\0"
 4808      496E6469 
 4808      6361746F 
 4808      7200
 4809 2a2b 0B       		.byte	0xb
 4810 2a2c 20       		.byte	0x20
 4811 2a2d 11       		.byte	0x11
 4812 2a2e CA020000 		.long	0x2ca
 4813 2a32 00       		.byte	0
 4814 2a33 06       		.uleb128 0x6
 4815 2a34 53746172 		.ascii "StartHead\0"
 4815      74486561 
 4815      6400
 4816 2a3e 0B       		.byte	0xb
 4817 2a3f 21       		.byte	0x21
 4818 2a40 11       		.byte	0x11
 4819 2a41 CA020000 		.long	0x2ca
 4820 2a45 01       		.byte	0x1
 4821 2a46 06       		.uleb128 0x6
 4822 2a47 53746172 		.ascii "StartSector\0"
 4822      74536563 
 4822      746F7200 
 4823 2a53 0B       		.byte	0xb
 4824 2a54 22       		.byte	0x22
 4825 2a55 11       		.byte	0x11
 4826 2a56 CA020000 		.long	0x2ca
 4827 2a5a 02       		.byte	0x2
 4828 2a5b 06       		.uleb128 0x6
 4829 2a5c 53746172 		.ascii "StartTrack\0"
 4829      74547261 
 4829      636B00
 4830 2a67 0B       		.byte	0xb
 4831 2a68 23       		.byte	0x23
 4832 2a69 11       		.byte	0x11
 4833 2a6a CA020000 		.long	0x2ca
 4834 2a6e 03       		.byte	0x3
 4835 2a6f 06       		.uleb128 0x6
 4836 2a70 4F53496E 		.ascii "OSIndicator\0"
 4836      64696361 
 4836      746F7200 
 4837 2a7c 0B       		.byte	0xb
 4838 2a7d 24       		.byte	0x24
 4839 2a7e 11       		.byte	0x11
 4840 2a7f CA020000 		.long	0x2ca
 4841 2a83 04       		.byte	0x4
 4842 2a84 06       		.uleb128 0x6
 4843 2a85 456E6448 		.ascii "EndHead\0"
 4843      65616400 
 4844 2a8d 0B       		.byte	0xb
 4845 2a8e 25       		.byte	0x25
 4846 2a8f 11       		.byte	0x11
 4847 2a90 CA020000 		.long	0x2ca
 4848 2a94 05       		.byte	0x5
 4849 2a95 06       		.uleb128 0x6
 4850 2a96 456E6453 		.ascii "EndSector\0"
 4850      6563746F 
 4850      7200
 4851 2aa0 0B       		.byte	0xb
 4852 2aa1 26       		.byte	0x26
 4853 2aa2 11       		.byte	0x11
 4854 2aa3 CA020000 		.long	0x2ca
 4855 2aa7 06       		.byte	0x6
 4856 2aa8 06       		.uleb128 0x6
 4857 2aa9 456E6454 		.ascii "EndTrack\0"
 4857      7261636B 
 4857      00
 4858 2ab2 0B       		.byte	0xb
 4859 2ab3 27       		.byte	0x27
 4860 2ab4 11       		.byte	0x11
 4861 2ab5 CA020000 		.long	0x2ca
 4862 2ab9 07       		.byte	0x7
 4863 2aba 1B       		.uleb128 0x1b
 4864 2abb 0F000000 		.secrel32	.LASF10
 4865 2abf 0B       		.byte	0xb
 4866 2ac0 28       		.byte	0x28
 4867 2ac1 11       		.byte	0x11
 4868 2ac2 BB040000 		.long	0x4bb
 4869 2ac6 08       		.byte	0x8
 4870 2ac7 06       		.uleb128 0x6
 4871 2ac8 53697A65 		.ascii "SizeInLBA\0"
 4871      496E4C42 
 4871      4100
 4872 2ad2 0B       		.byte	0xb
 4873 2ad3 29       		.byte	0x29
 4874 2ad4 11       		.byte	0x11
 4875 2ad5 BB040000 		.long	0x4bb
 4876 2ad9 0C       		.byte	0xc
 4877 2ada 00       		.byte	0
 4878 2adb 03       		.uleb128 0x3
 4879 2adc 4D42525F 		.ascii "MBR_PARTITION_RECORD\0"
 4879      50415254 
 4879      4954494F 
 4879      4E5F5245 
 4879      434F5244 
 4880 2af1 0B       		.byte	0xb
 4881 2af2 2A       		.byte	0x2a
 4882 2af3 03       		.byte	0x3
 4883 2af4 142A0000 		.long	0x2a14
 4884 2af8 33       		.uleb128 0x33
 4885 2af9 0002     		.word	0x200
 4886 2afb 0B       		.byte	0xb
 4887 2afc 33       		.byte	0x33
 4888 2afd 09       		.byte	0x9
 4889 2afe 652B0000 		.long	0x2b65
 4890 2b02 06       		.uleb128 0x6
 4891 2b03 426F6F74 		.ascii "BootStrapCode\0"
 4891      53747261 
 4891      70436F64 
 4891      6500
 4892 2b11 0B       		.byte	0xb
 4893 2b12 34       		.byte	0x34
 4894 2b13 1D       		.byte	0x1d
 4895 2b14 652B0000 		.long	0x2b65
 4896 2b18 00       		.byte	0
 4897 2b19 28       		.uleb128 0x28
 4898 2b1a 556E6971 		.ascii "UniqueMbrSignature\0"
 4898      75654D62 
 4898      72536967 
 4898      6E617475 
 4898      726500
 4899 2b2d 35       		.byte	0x35
 4900 2b2e BB040000 		.long	0x4bb
 4901 2b32 B801     		.word	0x1b8
 4902 2b34 28       		.uleb128 0x28
 4903 2b35 556E6B6E 		.ascii "Unknown\0"
 4903      6F776E00 
 4904 2b3d 36       		.byte	0x36
 4905 2b3e FE070000 		.long	0x7fe
 4906 2b42 BC01     		.word	0x1bc
 4907 2b44 28       		.uleb128 0x28
 4908 2b45 50617274 		.ascii "Partition\0"
 4908      6974696F 
 4908      6E00
 4909 2b4f 37       		.byte	0x37
 4910 2b50 762B0000 		.long	0x2b76
 4911 2b54 BE01     		.word	0x1be
 4912 2b56 34       		.uleb128 0x34
 4913 2b57 1B000000 		.secrel32	.LASF5
 4914 2b5b 0B       		.byte	0xb
 4915 2b5c 38       		.byte	0x38
 4916 2b5d 1D       		.byte	0x1d
 4917 2b5e AD020000 		.long	0x2ad
 4918 2b62 FE01     		.word	0x1fe
 4919 2b64 00       		.byte	0
 4920 2b65 1A       		.uleb128 0x1a
 4921 2b66 CA020000 		.long	0x2ca
 4922 2b6a 762B0000 		.long	0x2b76
 4923 2b6e 35       		.uleb128 0x35
 4924 2b6f 10020000 		.long	0x210
 4925 2b73 B701     		.word	0x1b7
 4926 2b75 00       		.byte	0
 4927 2b76 1A       		.uleb128 0x1a
 4928 2b77 DB2A0000 		.long	0x2adb
 4929 2b7b 862B0000 		.long	0x2b86
 4930 2b7f 1E       		.uleb128 0x1e
 4931 2b80 10020000 		.long	0x210
 4932 2b84 03       		.byte	0x3
 4933 2b85 00       		.byte	0
 4934 2b86 03       		.uleb128 0x3
 4935 2b87 4D415354 		.ascii "MASTER_BOOT_RECORD\0"
 4935      45525F42 
 4935      4F4F545F 
 4935      5245434F 
 4935      524400
 4936 2b9a 0B       		.byte	0xb
 4937 2b9b 39       		.byte	0x39
 4938 2b9c 03       		.byte	0x3
 4939 2b9d F82A0000 		.long	0x2af8
 4940 2ba1 16       		.uleb128 0x16
 4941 2ba2 535400   		.ascii "ST\0"
 4942 2ba5 37       		.byte	0x37
 4943 2ba6 22       		.byte	0x22
 4944 2ba7 0A2A0000 		.long	0x2a0a
 4945 2bab 16       		.uleb128 0x16
 4946 2bac 425300   		.ascii "BS\0"
 4947 2baf 39       		.byte	0x39
 4948 2bb0 22       		.byte	0x22
 4949 2bb1 C9280000 		.long	0x28c9
 4950 2bb5 16       		.uleb128 0x16
 4951 2bb6 525400   		.ascii "RT\0"
 4952 2bb9 3B       		.byte	0x3b
 4953 2bba 22       		.byte	0x22
 4954 2bbb C4280000 		.long	0x28c4
 4955 2bbf 16       		.uleb128 0x16
 4956 2bc0 67454669 		.ascii "gEFiUiInterfaceProtocolGuid\0"
 4956      5569496E 
 4956      74657266 
 4956      61636550 
 4956      726F746F 
 4957 2bdc 74       		.byte	0x74
 4958 2bdd 11       		.byte	0x11
 4959 2bde DF030000 		.long	0x3df
 4960 2be2 16       		.uleb128 0x16
 4961 2be3 67456669 		.ascii "gEfiGlobalVariableGuid\0"
 4961      476C6F62 
 4961      616C5661 
 4961      72696162 
 4961      6C654775 
 4962 2bfa 8A       		.byte	0x8a
 4963 2bfb 11       		.byte	0x11
 4964 2bfc DF030000 		.long	0x3df
 4965 2c00 16       		.uleb128 0x16
 4966 2c01 506F6F6C 		.ascii "PoolAllocationType\0"
 4966      416C6C6F 
 4966      63617469 
 4966      6F6E5479 
 4966      706500
 4967 2c14 D1       		.byte	0xd1
 4968 2c15 18       		.byte	0x18
 4969 2c16 EF060000 		.long	0x6ef
 4970 2c1a 24       		.uleb128 0x24
 4971 2c1b 73747263 		.ascii "strcmpa\0"
 4971      6D706100 
 4972 2c23 9601     		.word	0x196
 4973 2c25 06030000 		.long	0x306
 4974 2c29 382C0000 		.long	0x2c38
 4975 2c2d 01       		.uleb128 0x1
 4976 2c2e 0F2A0000 		.long	0x2a0f
 4977 2c32 01       		.uleb128 0x1
 4978 2c33 0F2A0000 		.long	0x2a0f
 4979 2c37 00       		.byte	0
 4980 2c38 24       		.uleb128 0x24
 4981 2c39 44657669 		.ascii "DevicePathToStr\0"
 4981      63655061 
 4981      7468546F 
 4981      53747200 
 4982 2c49 8303     		.word	0x383
 4983 2c4b 47080000 		.long	0x847
 4984 2c4f 592C0000 		.long	0x2c59
 4985 2c53 01       		.uleb128 0x1
 4986 2c54 260B0000 		.long	0xb26
 4987 2c58 00       		.byte	0
 4988 2c59 24       		.uleb128 0x24
 4989 2c5a 44657669 		.ascii "DevicePathFromHandle\0"
 4989      63655061 
 4989      74684672 
 4989      6F6D4861 
 4989      6E646C65 
 4990 2c6f 4503     		.word	0x345
 4991 2c71 260B0000 		.long	0xb26
 4992 2c75 7F2C0000 		.long	0x2c7f
 4993 2c79 01       		.uleb128 0x1
 4994 2c7a 60030000 		.long	0x360
 4995 2c7e 00       		.byte	0
 4996 2c7f 24       		.uleb128 0x24
 4997 2c80 436F6D70 		.ascii "CompareGuid\0"
 4997      61726547 
 4997      75696400 
 4998 2c8c E301     		.word	0x1e3
 4999 2c8e F9020000 		.long	0x2f9
 5000 2c92 A12C0000 		.long	0x2ca1
 5001 2c96 01       		.uleb128 0x1
 5002 2c97 210B0000 		.long	0xb21
 5003 2c9b 01       		.uleb128 0x1
 5004 2c9c 210B0000 		.long	0xb21
 5005 2ca0 00       		.byte	0
 5006 2ca1 29       		.uleb128 0x29
 5007 2ca2 52744243 		.ascii "RtBCDtoDecimal\0"
 5007      44746F44 
 5007      6563696D 
 5007      616C00
 5008 2cb1 9E       		.byte	0x9e
 5009 2cb2 CA020000 		.long	0x2ca
 5010 2cb6 C02C0000 		.long	0x2cc0
 5011 2cba 01       		.uleb128 0x1
 5012 2cbb CA020000 		.long	0x2ca
 5013 2cbf 00       		.byte	0
 5014 2cc0 29       		.uleb128 0x29
 5015 2cc1 52744465 		.ascii "RtDecimaltoBCD\0"
 5015      63696D61 
 5015      6C746F42 
 5015      434400
 5016 2cd0 98       		.byte	0x98
 5017 2cd1 CA020000 		.long	0x2ca
 5018 2cd5 DF2C0000 		.long	0x2cdf
 5019 2cd9 01       		.uleb128 0x1
 5020 2cda CA020000 		.long	0x2ca
 5021 2cde 00       		.byte	0
 5022 2cdf 29       		.uleb128 0x29
 5023 2ce0 5274436F 		.ascii "RtCompareMem\0"
 5023      6D706172 
 5023      654D656D 
 5023      00
 5024 2ced 41       		.byte	0x41
 5025 2cee F9020000 		.long	0x2f9
 5026 2cf2 062D0000 		.long	0x2d06
 5027 2cf6 01       		.uleb128 0x1
 5028 2cf7 C41C0000 		.long	0x1cc4
 5029 2cfb 01       		.uleb128 0x1
 5030 2cfc C41C0000 		.long	0x1cc4
 5031 2d00 01       		.uleb128 0x1
 5032 2d01 06030000 		.long	0x306
 5033 2d05 00       		.byte	0
 5034 2d06 2A       		.uleb128 0x2a
 5035 2d07 5274436F 		.ascii "RtCopyMem\0"
 5035      70794D65 
 5035      6D00
 5036 2d11 39       		.byte	0x39
 5037 2d12 262D0000 		.long	0x2d26
 5038 2d16 01       		.uleb128 0x1
 5039 2d17 73030000 		.long	0x373
 5040 2d1b 01       		.uleb128 0x1
 5041 2d1c C41C0000 		.long	0x1cc4
 5042 2d20 01       		.uleb128 0x1
 5043 2d21 06030000 		.long	0x306
 5044 2d25 00       		.byte	0
 5045 2d26 2A       		.uleb128 0x2a
 5046 2d27 52745365 		.ascii "RtSetMem\0"
 5046      744D656D 
 5046      00
 5047 2d30 31       		.byte	0x31
 5048 2d31 452D0000 		.long	0x2d45
 5049 2d35 01       		.uleb128 0x1
 5050 2d36 73030000 		.long	0x373
 5051 2d3a 01       		.uleb128 0x1
 5052 2d3b 06030000 		.long	0x306
 5053 2d3f 01       		.uleb128 0x1
 5054 2d40 CA020000 		.long	0x2ca
 5055 2d44 00       		.byte	0
 5056 2d45 2A       		.uleb128 0x2a
 5057 2d46 52745A65 		.ascii "RtZeroMem\0"
 5057      726F4D65 
 5057      6D00
 5058 2d50 2A       		.byte	0x2a
 5059 2d51 602D0000 		.long	0x2d60
 5060 2d55 01       		.uleb128 0x1
 5061 2d56 73030000 		.long	0x373
 5062 2d5a 01       		.uleb128 0x1
 5063 2d5b 06030000 		.long	0x306
 5064 2d5f 00       		.byte	0
 5065 2d60 11       		.uleb128 0x11
 5066 2d61 4C696247 		.ascii "LibGetUiString\0"
 5066      65745569 
 5066      53747269 
 5066      6E6700
 5067 2d70 1002     		.word	0x210
 5068 2d72 47080000 		.long	0x847
 5069 2d76 25070000 		.quad	.LFB22
 5069      00000000 
 5070 2d7e BD000000 		.quad	.LFE22-.LFB22
 5070      00000000 
 5071 2d86 01       		.uleb128 0x1
 5072 2d87 9C       		.byte	0x9c
 5073 2d88 CF2E0000 		.long	0x2ecf
 5074 2d8c 0C       		.uleb128 0xc
 5075 2d8d 48616E64 		.ascii "Handle\0"
 5075      6C6500
 5076 2d94 1102     		.word	0x211
 5077 2d96 19       		.byte	0x19
 5078 2d97 60030000 		.long	0x360
 5079 2d9b 14000000 		.secrel32	.LLST66
 5080 2d9f 0C000000 		.secrel32	.LVUS66
 5081 2da3 0C       		.uleb128 0xc
 5082 2da4 53747269 		.ascii "StringType\0"
 5082      6E675479 
 5082      706500
 5083 2daf 1202     		.word	0x212
 5084 2db1 19       		.byte	0x19
 5085 2db2 29290000 		.long	0x2929
 5086 2db6 3C000000 		.secrel32	.LLST67
 5087 2dba 34000000 		.secrel32	.LVUS67
 5088 2dbe 12       		.uleb128 0x12
 5089 2dbf 84000000 		.secrel32	.LASF9
 5090 2dc3 1302     		.word	0x213
 5091 2dc5 1A       		.byte	0x1a
 5092 2dc6 68290000 		.long	0x2968
 5093 2dca 64000000 		.secrel32	.LLST68
 5094 2dce 5C000000 		.secrel32	.LVUS68
 5095 2dd2 0C       		.uleb128 0xc
 5096 2dd3 52657475 		.ascii "ReturnDevicePathStrOnMismatch\0"
 5096      726E4465 
 5096      76696365 
 5096      50617468 
 5096      5374724F 
 5097 2df1 1402     		.word	0x214
 5098 2df3 19       		.byte	0x19
 5099 2df4 14030000 		.long	0x314
 5100 2df8 8A000000 		.secrel32	.LLST69
 5101 2dfc 84000000 		.secrel32	.LVUS69
 5102 2e00 36       		.uleb128 0x36
 5103 2e01 556900   		.ascii "Ui\0"
 5104 2e04 01       		.byte	0x1
 5105 2e05 1702     		.word	0x217
 5106 2e07 16       		.byte	0x16
 5107 2e08 CF2E0000 		.long	0x2ecf
 5108 2e0c 02       		.uleb128 0x2
 5109 2e0d 91       		.byte	0x91
 5110 2e0e 48       		.sleb128 -56
 5111 2e0f 0F       		.uleb128 0xf
 5112 2e10 496E6465 		.ascii "Index\0"
 5112      7800
 5113 2e16 1802     		.word	0x218
 5114 2e18 15       		.byte	0x15
 5115 2e19 29290000 		.long	0x2929
 5116 2e1d A7000000 		.secrel32	.LLST70
 5117 2e21 A3000000 		.secrel32	.LVUS70
 5118 2e25 0F       		.uleb128 0xf
 5119 2e26 41727261 		.ascii "Array\0"
 5119      7900
 5120 2e2c 1902     		.word	0x219
 5121 2e2e 16       		.byte	0x16
 5122 2e2f C9290000 		.long	0x29c9
 5123 2e33 BD000000 		.secrel32	.LLST71
 5124 2e37 B7000000 		.secrel32	.LVUS71
 5125 2e3b 17       		.uleb128 0x17
 5126 2e3c 45000000 		.secrel32	.LASF11
 5127 2e40 1A02     		.word	0x21a
 5128 2e42 15       		.byte	0x15
 5129 2e43 2D030000 		.long	0x32d
 5130 2e47 D7000000 		.secrel32	.LLST72
 5131 2e4b D3000000 		.secrel32	.LVUS72
 5132 2e4f 1C       		.uleb128 0x1c
 5133 2e50 56070000 		.quad	.LVL140
 5133      00000000 
 5134 2e58 6C2E0000 		.long	0x2e6c
 5135 2e5c 05       		.uleb128 0x5
 5136 2e5d 01       		.uleb128 0x1
 5137 2e5e 52       		.byte	0x52
 5138 2e5f 02       		.uleb128 0x2
 5139 2e60 76       		.byte	0x76
 5140 2e61 00       		.sleb128 0
 5141 2e62 2B       		.uleb128 0x2b
 5142 2e63 01       		.uleb128 0x1
 5143 2e64 51       		.byte	0x51
 5144 2e65 05       		.uleb128 0x5
 5145 2e66 01       		.uleb128 0x1
 5146 2e67 58       		.byte	0x58
 5147 2e68 02       		.uleb128 0x2
 5148 2e69 91       		.byte	0x91
 5149 2e6a 48       		.sleb128 -56
 5150 2e6b 00       		.byte	0
 5151 2e6c 10       		.uleb128 0x10
 5152 2e6d 7F070000 		.quad	.LVL145
 5152      00000000 
 5153 2e75 592C0000 		.long	0x2c59
 5154 2e79 842E0000 		.long	0x2e84
 5155 2e7d 05       		.uleb128 0x5
 5156 2e7e 01       		.uleb128 0x1
 5157 2e7f 52       		.byte	0x52
 5158 2e80 02       		.uleb128 0x2
 5159 2e81 76       		.byte	0x76
 5160 2e82 00       		.sleb128 0
 5161 2e83 00       		.byte	0
 5162 2e84 1D       		.uleb128 0x1d
 5163 2e85 87070000 		.quad	.LVL146
 5163      00000000 
 5164 2e8d 382C0000 		.long	0x2c38
 5165 2e91 10       		.uleb128 0x10
 5166 2e92 B1070000 		.quad	.LVL152
 5166      00000000 
 5167 2e9a 1A2C0000 		.long	0x2c1a
 5168 2e9e A92E0000 		.long	0x2ea9
 5169 2ea2 05       		.uleb128 0x5
 5170 2ea3 01       		.uleb128 0x1
 5171 2ea4 51       		.byte	0x51
 5172 2ea5 02       		.uleb128 0x2
 5173 2ea6 75       		.byte	0x75
 5174 2ea7 00       		.sleb128 0
 5175 2ea8 00       		.byte	0
 5176 2ea9 10       		.uleb128 0x10
 5177 2eaa D5070000 		.quad	.LVL159
 5177      00000000 
 5178 2eb2 592C0000 		.long	0x2c59
 5179 2eb6 C12E0000 		.long	0x2ec1
 5180 2eba 05       		.uleb128 0x5
 5181 2ebb 01       		.uleb128 0x1
 5182 2ebc 52       		.byte	0x52
 5183 2ebd 02       		.uleb128 0x2
 5184 2ebe 76       		.byte	0x76
 5185 2ebf 00       		.sleb128 0
 5186 2ec0 00       		.byte	0
 5187 2ec1 1D       		.uleb128 0x1d
 5188 2ec2 DD070000 		.quad	.LVL160
 5188      00000000 
 5189 2eca 382C0000 		.long	0x2c38
 5190 2ece 00       		.byte	0
 5191 2ecf 02       		.uleb128 0x2
 5192 2ed0 F0290000 		.long	0x29f0
 5193 2ed4 11       		.uleb128 0x11
 5194 2ed5 4C696247 		.ascii "LibGetSystemConfigurationTable\0"
 5194      65745379 
 5194      7374656D 
 5194      436F6E66 
 5194      69677572 
 5195 2ef4 FD01     		.word	0x1fd
 5196 2ef6 2D030000 		.long	0x32d
 5197 2efa B1060000 		.quad	.LFB21
 5197      00000000 
 5198 2f02 74000000 		.quad	.LFE21-.LFB21
 5198      00000000 
 5199 2f0a 01       		.uleb128 0x1
 5200 2f0b 9C       		.byte	0x9c
 5201 2f0c 6B2F0000 		.long	0x2f6b
 5202 2f10 0C       		.uleb128 0xc
 5203 2f11 5461626C 		.ascii "TableGuid\0"
 5203      65477569 
 5203      6400
 5204 2f1b FE01     		.word	0x1fe
 5205 2f1d 12       		.byte	0x12
 5206 2f1e 210B0000 		.long	0xb21
 5207 2f22 EC000000 		.secrel32	.LLST63
 5208 2f26 E6000000 		.secrel32	.LVUS63
 5209 2f2a 0C       		.uleb128 0xc
 5210 2f2b 5461626C 		.ascii "Table\0"
 5210      6500
 5211 2f31 FF01     		.word	0x1ff
 5212 2f33 13       		.byte	0x13
 5213 2f34 56080000 		.long	0x856
 5214 2f38 0B010000 		.secrel32	.LLST64
 5215 2f3c 05010000 		.secrel32	.LVUS64
 5216 2f40 0F       		.uleb128 0xf
 5217 2f41 496E6465 		.ascii "Index\0"
 5217      7800
 5218 2f47 0302     		.word	0x203
 5219 2f49 0B       		.byte	0xb
 5220 2f4a 06030000 		.long	0x306
 5221 2f4e 28010000 		.secrel32	.LLST65
 5222 2f52 24010000 		.secrel32	.LVUS65
 5223 2f56 0D       		.uleb128 0xd
 5224 2f57 F1060000 		.quad	.LVL133
 5224      00000000 
 5225 2f5f 7F2C0000 		.long	0x2c7f
 5226 2f63 05       		.uleb128 0x5
 5227 2f64 01       		.uleb128 0x1
 5228 2f65 52       		.byte	0x52
 5229 2f66 02       		.uleb128 0x2
 5230 2f67 76       		.byte	0x76
 5231 2f68 00       		.sleb128 0
 5232 2f69 00       		.byte	0
 5233 2f6a 00       		.byte	0
 5234 2f6b 11       		.uleb128 0x11
 5235 2f6c 42434474 		.ascii "BCDtoDecimal\0"
 5235      6F446563 
 5235      696D616C 
 5235      00
 5236 2f79 F501     		.word	0x1f5
 5237 2f7b CA020000 		.long	0x2ca
 5238 2f7f A0060000 		.quad	.LFB20
 5238      00000000 
 5239 2f87 11000000 		.quad	.LFE20-.LFB20
 5239      00000000 
 5240 2f8f 01       		.uleb128 0x1
 5241 2f90 9C       		.byte	0x9c
 5242 2f91 C72F0000 		.long	0x2fc7
 5243 2f95 0C       		.uleb128 0xc
 5244 2f96 42636456 		.ascii "BcdValue\0"
 5244      616C7565 
 5244      00
 5245 2f9f F601     		.word	0x1f6
 5246 2fa1 0F       		.byte	0xf
 5247 2fa2 CA020000 		.long	0x2ca
 5248 2fa6 3C010000 		.secrel32	.LLST62
 5249 2faa 38010000 		.secrel32	.LVUS62
 5250 2fae 0D       		.uleb128 0xd
 5251 2faf AC060000 		.quad	.LVL128
 5251      00000000 
 5252 2fb7 A12C0000 		.long	0x2ca1
 5253 2fbb 05       		.uleb128 0x5
 5254 2fbc 01       		.uleb128 0x1
 5255 2fbd 52       		.byte	0x52
 5256 2fbe 06       		.uleb128 0x6
 5257 2fbf A3       		.byte	0xa3
 5258 2fc0 01       		.uleb128 0x1
 5259 2fc1 52       		.byte	0x52
 5260 2fc2 08       		.byte	0x8
 5261 2fc3 FF       		.byte	0xff
 5262 2fc4 1A       		.byte	0x1a
 5263 2fc5 00       		.byte	0
 5264 2fc6 00       		.byte	0
 5265 2fc7 11       		.uleb128 0x11
 5266 2fc8 44656369 		.ascii "DecimaltoBCD\0"
 5266      6D616C74 
 5266      6F424344 
 5266      00
 5267 2fd5 EC01     		.word	0x1ec
 5268 2fd7 CA020000 		.long	0x2ca
 5269 2fdb 8F060000 		.quad	.LFB19
 5269      00000000 
 5270 2fe3 11000000 		.quad	.LFE19-.LFB19
 5270      00000000 
 5271 2feb 01       		.uleb128 0x1
 5272 2fec 9C       		.byte	0x9c
 5273 2fed 23300000 		.long	0x3023
 5274 2ff1 0C       		.uleb128 0xc
 5275 2ff2 44656356 		.ascii "DecValue\0"
 5275      616C7565 
 5275      00
 5276 2ffb ED01     		.word	0x1ed
 5277 2ffd 0F       		.byte	0xf
 5278 2ffe CA020000 		.long	0x2ca
 5279 3002 52010000 		.secrel32	.LLST61
 5280 3006 4E010000 		.secrel32	.LVUS61
 5281 300a 0D       		.uleb128 0xd
 5282 300b 9B060000 		.quad	.LVL126
 5282      00000000 
 5283 3013 C02C0000 		.long	0x2cc0
 5284 3017 05       		.uleb128 0x5
 5285 3018 01       		.uleb128 0x1
 5286 3019 52       		.byte	0x52
 5287 301a 06       		.uleb128 0x6
 5288 301b A3       		.byte	0xa3
 5289 301c 01       		.uleb128 0x1
 5290 301d 52       		.byte	0x52
 5291 301e 08       		.byte	0x8
 5292 301f FF       		.byte	0xff
 5293 3020 1A       		.byte	0x1a
 5294 3021 00       		.byte	0
 5295 3022 00       		.byte	0
 5296 3023 11       		.uleb128 0x11
 5297 3024 56616C69 		.ascii "ValidMBR\0"
 5297      644D4252 
 5297      00
 5298 302d A101     		.word	0x1a1
 5299 302f 14030000 		.long	0x314
 5300 3033 A2040000 		.quad	.LFB18
 5300      00000000 
 5301 303b ED010000 		.quad	.LFE18-.LFB18
 5301      00000000 
 5302 3043 01       		.uleb128 0x1
 5303 3044 9C       		.byte	0x9c
 5304 3045 FC300000 		.long	0x30fc
 5305 3049 0C       		.uleb128 0xc
 5306 304a 4D627200 		.ascii "Mbr\0"
 5307 304e A201     		.word	0x1a2
 5308 3050 1E       		.byte	0x1e
 5309 3051 FC300000 		.long	0x30fc
 5310 3055 6C010000 		.secrel32	.LLST53
 5311 3059 64010000 		.secrel32	.LVUS53
 5312 305d 0C       		.uleb128 0xc
 5313 305e 426C6B49 		.ascii "BlkIo\0"
 5313      6F00
 5314 3064 A301     		.word	0x1a3
 5315 3066 1E       		.byte	0x1e
 5316 3067 01310000 		.long	0x3101
 5317 306b 95010000 		.secrel32	.LLST54
 5318 306f 89010000 		.secrel32	.LVUS54
 5319 3073 17       		.uleb128 0x17
 5320 3074 0F000000 		.secrel32	.LASF10
 5321 3078 A601     		.word	0x1a6
 5322 307a 11       		.byte	0x11
 5323 307b 90020000 		.long	0x290
 5324 307f D7010000 		.secrel32	.LLST55
 5325 3083 C3010000 		.secrel32	.LVUS55
 5326 3087 0F       		.uleb128 0xf
 5327 3088 456E6469 		.ascii "EndingLBA\0"
 5327      6E674C42 
 5327      4100
 5328 3092 A601     		.word	0x1a6
 5329 3094 1E       		.byte	0x1e
 5330 3095 90020000 		.long	0x290
 5331 3099 16030000 		.secrel32	.LLST56
 5332 309d 10030000 		.secrel32	.LVUS56
 5333 30a1 0F       		.uleb128 0xf
 5334 30a2 4E657745 		.ascii "NewEndingLBA\0"
 5334      6E64696E 
 5334      674C4241 
 5334      00
 5335 30af A701     		.word	0x1a7
 5336 30b1 11       		.byte	0x11
 5337 30b2 90020000 		.long	0x290
 5338 30b6 32030000 		.secrel32	.LLST57
 5339 30ba 2C030000 		.secrel32	.LVUS57
 5340 30be 0F       		.uleb128 0xf
 5341 30bf 6900     		.ascii "i\0"
 5342 30c1 A801     		.word	0x1a8
 5343 30c3 11       		.byte	0x11
 5344 30c4 F9020000 		.long	0x2f9
 5345 30c8 26040000 		.secrel32	.LLST58
 5346 30cc 22040000 		.secrel32	.LVUS58
 5347 30d0 0F       		.uleb128 0xf
 5348 30d1 6A00     		.ascii "j\0"
 5349 30d3 A801     		.word	0x1a8
 5350 30d5 14       		.byte	0x14
 5351 30d6 F9020000 		.long	0x2f9
 5352 30da 3B040000 		.secrel32	.LLST59
 5353 30de 35040000 		.secrel32	.LVUS59
 5354 30e2 0F       		.uleb128 0xf
 5355 30e3 56616C69 		.ascii "ValidMbr\0"
 5355      644D6272 
 5355      00
 5356 30ec A901     		.word	0x1a9
 5357 30ee 11       		.byte	0x11
 5358 30ef 14030000 		.long	0x314
 5359 30f3 59040000 		.secrel32	.LLST60
 5360 30f7 51040000 		.secrel32	.LVUS60
 5361 30fb 00       		.byte	0
 5362 30fc 02       		.uleb128 0x2
 5363 30fd 862B0000 		.long	0x2b86
 5364 3101 02       		.uleb128 0x2
 5365 3102 0C0B0000 		.long	0xb0c
 5366 3106 11       		.uleb128 0x11
 5367 3107 4C696249 		.ascii "LibInsertToTailOfBootOrder\0"
 5367      6E736572 
 5367      74546F54 
 5367      61696C4F 
 5367      66426F6F 
 5368 3122 7001     		.word	0x170
 5369 3124 2D030000 		.long	0x32d
 5370 3128 B6030000 		.quad	.LFB17
 5370      00000000 
 5371 3130 EC000000 		.quad	.LFE17-.LFB17
 5371      00000000 
 5372 3138 01       		.uleb128 0x1
 5373 3139 9C       		.byte	0x9c
 5374 313a 9B320000 		.long	0x329b
 5375 313e 0C       		.uleb128 0xc
 5376 313f 426F6F74 		.ascii "BootOption\0"
 5376      4F707469 
 5376      6F6E00
 5377 314a 7101     		.word	0x171
 5378 314c 11       		.byte	0x11
 5379 314d AD020000 		.long	0x2ad
 5380 3151 7F040000 		.secrel32	.LLST47
 5381 3155 79040000 		.secrel32	.LVUS47
 5382 3159 0C       		.uleb128 0xc
 5383 315a 4F6E6C79 		.ascii "OnlyInsertIfEmpty\0"
 5383      496E7365 
 5383      72744966 
 5383      456D7074 
 5383      7900
 5384 316c 7201     		.word	0x172
 5385 316e 11       		.byte	0x11
 5386 316f 14030000 		.long	0x314
 5387 3173 9E040000 		.secrel32	.LLST48
 5388 3177 98040000 		.secrel32	.LVUS48
 5389 317b 0F       		.uleb128 0xf
 5390 317c 426F6F74 		.ascii "BootOptionArray\0"
 5390      4F707469 
 5390      6F6E4172 
 5390      72617900 
 5391 318c 7501     		.word	0x175
 5392 318e 12       		.byte	0x12
 5393 318f 54110000 		.long	0x1154
 5394 3193 C1040000 		.secrel32	.LLST49
 5395 3197 B7040000 		.secrel32	.LVUS49
 5396 319b 0F       		.uleb128 0xf
 5397 319c 4E657742 		.ascii "NewBootOptionArray\0"
 5397      6F6F744F 
 5397      7074696F 
 5397      6E417272 
 5397      617900
 5398 31af 7601     		.word	0x176
 5399 31b1 12       		.byte	0x12
 5400 31b2 54110000 		.long	0x1154
 5401 31b6 EB040000 		.secrel32	.LLST50
 5402 31ba E5040000 		.secrel32	.LVUS50
 5403 31be 2F       		.uleb128 0x2f
 5404 31bf 73000000 		.secrel32	.LASF12
 5405 31c3 7701     		.word	0x177
 5406 31c5 11       		.byte	0x11
 5407 31c6 06030000 		.long	0x306
 5408 31ca 02       		.uleb128 0x2
 5409 31cb 91       		.byte	0x91
 5410 31cc 58       		.sleb128 -40
 5411 31cd 0F       		.uleb128 0xf
 5412 31ce 496E6465 		.ascii "Index\0"
 5412      7800
 5413 31d4 7801     		.word	0x178
 5414 31d6 11       		.byte	0x11
 5415 31d7 06030000 		.long	0x306
 5416 31db 03050000 		.secrel32	.LLST51
 5417 31df 01050000 		.secrel32	.LVUS51
 5418 31e3 17       		.uleb128 0x17
 5419 31e4 45000000 		.secrel32	.LASF11
 5420 31e8 7901     		.word	0x179
 5421 31ea 11       		.byte	0x11
 5422 31eb 2D030000 		.long	0x32d
 5423 31ef 0F050000 		.secrel32	.LLST52
 5424 31f3 0B050000 		.secrel32	.LVUS52
 5425 31f7 10       		.uleb128 0x10
 5426 31f8 D9030000 		.quad	.LVL86
 5426      00000000 
 5427 3200 7F350000 		.long	0x357f
 5428 3204 1F320000 		.long	0x321f
 5429 3208 05       		.uleb128 0x5
 5430 3209 01       		.uleb128 0x1
 5431 320a 52       		.byte	0x52
 5432 320b 09       		.uleb128 0x9
 5433 320c 03       		.byte	0x3
 5434 320d 00000000 		.quad	.LC0
 5434      00000000 
 5435 3215 2B       		.uleb128 0x2b
 5436 3216 01       		.uleb128 0x1
 5437 3217 51       		.byte	0x51
 5438 3218 05       		.uleb128 0x5
 5439 3219 01       		.uleb128 0x1
 5440 321a 58       		.byte	0x58
 5441 321b 02       		.uleb128 0x2
 5442 321c 91       		.byte	0x91
 5443 321d 58       		.sleb128 -40
 5444 321e 00       		.byte	0
 5445 321f 1D       		.uleb128 0x1d
 5446 3220 F8030000 		.quad	.LVL88
 5446      00000000 
 5447 3228 B03B0000 		.long	0x3bb0
 5448 322c 10       		.uleb128 0x10
 5449 322d 18040000 		.quad	.LVL91
 5449      00000000 
 5450 3235 EE390000 		.long	0x39ee
 5451 3239 44320000 		.long	0x3244
 5452 323d 05       		.uleb128 0x5
 5453 323e 01       		.uleb128 0x1
 5454 323f 52       		.byte	0x52
 5455 3240 02       		.uleb128 0x2
 5456 3241 74       		.byte	0x74
 5457 3242 00       		.sleb128 0
 5458 3243 00       		.byte	0
 5459 3244 1C       		.uleb128 0x1c
 5460 3245 73040000 		.quad	.LVL96
 5460      00000000 
 5461 324d 6E320000 		.long	0x326e
 5462 3251 05       		.uleb128 0x5
 5463 3252 01       		.uleb128 0x1
 5464 3253 52       		.byte	0x52
 5465 3254 09       		.uleb128 0x9
 5466 3255 03       		.byte	0x3
 5467 3256 00000000 		.quad	.LC0
 5467      00000000 
 5468 325e 2B       		.uleb128 0x2b
 5469 325f 01       		.uleb128 0x1
 5470 3260 51       		.byte	0x51
 5471 3261 05       		.uleb128 0x5
 5472 3262 01       		.uleb128 0x1
 5473 3263 58       		.byte	0x58
 5474 3264 01       		.uleb128 0x1
 5475 3265 37       		.byte	0x37
 5476 3266 05       		.uleb128 0x5
 5477 3267 02       		.uleb128 0x2
 5478 3268 77       		.byte	0x77
 5479 3269 20       		.sleb128 32
 5480 326a 02       		.uleb128 0x2
 5481 326b 73       		.byte	0x73
 5482 326c 00       		.sleb128 0
 5483 326d 00       		.byte	0
 5484 326e 10       		.uleb128 0x10
 5485 326f 7E040000 		.quad	.LVL98
 5485      00000000 
 5486 3277 EE390000 		.long	0x39ee
 5487 327b 86320000 		.long	0x3286
 5488 327f 05       		.uleb128 0x5
 5489 3280 01       		.uleb128 0x1
 5490 3281 52       		.byte	0x52
 5491 3282 02       		.uleb128 0x2
 5492 3283 73       		.byte	0x73
 5493 3284 00       		.sleb128 0
 5494 3285 00       		.byte	0
 5495 3286 0D       		.uleb128 0xd
 5496 3287 8B040000 		.quad	.LVL99
 5496      00000000 
 5497 328f EE390000 		.long	0x39ee
 5498 3293 05       		.uleb128 0x5
 5499 3294 01       		.uleb128 0x1
 5500 3295 52       		.byte	0x52
 5501 3296 02       		.uleb128 0x2
 5502 3297 74       		.byte	0x74
 5503 3298 00       		.sleb128 0
 5504 3299 00       		.byte	0
 5505 329a 00       		.byte	0
 5506 329b 11       		.uleb128 0x11
 5507 329c 4C696253 		.ascii "LibSetVariable\0"
 5507      65745661 
 5507      72696162 
 5507      6C6500
 5508 32ab 5B01     		.word	0x15b
 5509 32ad 2D030000 		.long	0x32d
 5510 32b1 8F030000 		.quad	.LFB16
 5510      00000000 
 5511 32b9 27000000 		.quad	.LFE16-.LFB16
 5511      00000000 
 5512 32c1 01       		.uleb128 0x1
 5513 32c2 9C       		.byte	0x9c
 5514 32c3 59330000 		.long	0x3359
 5515 32c7 12       		.uleb128 0x12
 5516 32c8 00000000 		.secrel32	.LASF13
 5517 32cc 5C01     		.word	0x15c
 5518 32ce 12       		.byte	0x12
 5519 32cf 47080000 		.long	0x847
 5520 32d3 22050000 		.secrel32	.LLST42
 5521 32d7 1E050000 		.secrel32	.LVUS42
 5522 32db 12       		.uleb128 0x12
 5523 32dc 6B000000 		.secrel32	.LASF14
 5524 32e0 5D01     		.word	0x15d
 5525 32e2 12       		.byte	0x12
 5526 32e3 210B0000 		.long	0xb21
 5527 32e7 38050000 		.secrel32	.LLST43
 5528 32eb 34050000 		.secrel32	.LVUS43
 5529 32ef 12       		.uleb128 0x12
 5530 32f0 59000000 		.secrel32	.LASF15
 5531 32f4 5E01     		.word	0x15e
 5532 32f6 0F       		.byte	0xf
 5533 32f7 06030000 		.long	0x306
 5534 32fb 50050000 		.secrel32	.LLST44
 5535 32ff 4A050000 		.secrel32	.LVUS44
 5536 3303 0C       		.uleb128 0xc
 5537 3304 44617461 		.ascii "Data\0"
 5537      00
 5538 3309 5F01     		.word	0x15f
 5539 330b 12       		.byte	0x12
 5540 330c 73030000 		.long	0x373
 5541 3310 6F050000 		.secrel32	.LLST45
 5542 3314 69050000 		.secrel32	.LVUS45
 5543 3318 17       		.uleb128 0x17
 5544 3319 45000000 		.secrel32	.LASF11
 5545 331d 6201     		.word	0x162
 5546 331f 11       		.byte	0x11
 5547 3320 2D030000 		.long	0x32d
 5548 3324 8B050000 		.secrel32	.LLST46
 5549 3328 89050000 		.secrel32	.LVUS46
 5550 332c 25       		.uleb128 0x25
 5551 332d B1030000 		.quad	.LVL82
 5551      00000000 
 5552 3335 05       		.uleb128 0x5
 5553 3336 01       		.uleb128 0x1
 5554 3337 52       		.byte	0x52
 5555 3338 03       		.uleb128 0x3
 5556 3339 A3       		.byte	0xa3
 5557 333a 01       		.uleb128 0x1
 5558 333b 52       		.byte	0x52
 5559 333c 05       		.uleb128 0x5
 5560 333d 01       		.uleb128 0x1
 5561 333e 51       		.byte	0x51
 5562 333f 03       		.uleb128 0x3
 5563 3340 A3       		.byte	0xa3
 5564 3341 01       		.uleb128 0x1
 5565 3342 51       		.byte	0x51
 5566 3343 05       		.uleb128 0x5
 5567 3344 01       		.uleb128 0x1
 5568 3345 58       		.byte	0x58
 5569 3346 01       		.uleb128 0x1
 5570 3347 36       		.byte	0x36
 5571 3348 05       		.uleb128 0x5
 5572 3349 01       		.uleb128 0x1
 5573 334a 59       		.byte	0x59
 5574 334b 03       		.uleb128 0x3
 5575 334c A3       		.byte	0xa3
 5576 334d 01       		.uleb128 0x1
 5577 334e 58       		.byte	0x58
 5578 334f 05       		.uleb128 0x5
 5579 3350 02       		.uleb128 0x2
 5580 3351 77       		.byte	0x77
 5581 3352 20       		.sleb128 32
 5582 3353 03       		.uleb128 0x3
 5583 3354 A3       		.byte	0xa3
 5584 3355 01       		.uleb128 0x1
 5585 3356 59       		.byte	0x59
 5586 3357 00       		.byte	0
 5587 3358 00       		.byte	0
 5588 3359 11       		.uleb128 0x11
 5589 335a 4C696253 		.ascii "LibSetNVVariable\0"
 5589      65744E56 
 5589      56617269 
 5589      61626C65 
 5589      00
 5590 336b 4601     		.word	0x146
 5591 336d 2D030000 		.long	0x32d
 5592 3371 68030000 		.quad	.LFB15
 5592      00000000 
 5593 3379 27000000 		.quad	.LFE15-.LFB15
 5593      00000000 
 5594 3381 01       		.uleb128 0x1
 5595 3382 9C       		.byte	0x9c
 5596 3383 19340000 		.long	0x3419
 5597 3387 12       		.uleb128 0x12
 5598 3388 00000000 		.secrel32	.LASF13
 5599 338c 4701     		.word	0x147
 5600 338e 12       		.byte	0x12
 5601 338f 47080000 		.long	0x847
 5602 3393 97050000 		.secrel32	.LLST37
 5603 3397 93050000 		.secrel32	.LVUS37
 5604 339b 12       		.uleb128 0x12
 5605 339c 6B000000 		.secrel32	.LASF14
 5606 33a0 4801     		.word	0x148
 5607 33a2 12       		.byte	0x12
 5608 33a3 210B0000 		.long	0xb21
 5609 33a7 AD050000 		.secrel32	.LLST38
 5610 33ab A9050000 		.secrel32	.LVUS38
 5611 33af 12       		.uleb128 0x12
 5612 33b0 59000000 		.secrel32	.LASF15
 5613 33b4 4901     		.word	0x149
 5614 33b6 0F       		.byte	0xf
 5615 33b7 06030000 		.long	0x306
 5616 33bb C5050000 		.secrel32	.LLST39
 5617 33bf BF050000 		.secrel32	.LVUS39
 5618 33c3 0C       		.uleb128 0xc
 5619 33c4 44617461 		.ascii "Data\0"
 5619      00
 5620 33c9 4A01     		.word	0x14a
 5621 33cb 12       		.byte	0x12
 5622 33cc 73030000 		.long	0x373
 5623 33d0 E4050000 		.secrel32	.LLST40
 5624 33d4 DE050000 		.secrel32	.LVUS40
 5625 33d8 17       		.uleb128 0x17
 5626 33d9 45000000 		.secrel32	.LASF11
 5627 33dd 4D01     		.word	0x14d
 5628 33df 11       		.byte	0x11
 5629 33e0 2D030000 		.long	0x32d
 5630 33e4 00060000 		.secrel32	.LLST41
 5631 33e8 FE050000 		.secrel32	.LVUS41
 5632 33ec 25       		.uleb128 0x25
 5633 33ed 8A030000 		.quad	.LVL78
 5633      00000000 
 5634 33f5 05       		.uleb128 0x5
 5635 33f6 01       		.uleb128 0x1
 5636 33f7 52       		.byte	0x52
 5637 33f8 03       		.uleb128 0x3
 5638 33f9 A3       		.byte	0xa3
 5639 33fa 01       		.uleb128 0x1
 5640 33fb 52       		.byte	0x52
 5641 33fc 05       		.uleb128 0x5
 5642 33fd 01       		.uleb128 0x1
 5643 33fe 51       		.byte	0x51
 5644 33ff 03       		.uleb128 0x3
 5645 3400 A3       		.byte	0xa3
 5646 3401 01       		.uleb128 0x1
 5647 3402 51       		.byte	0x51
 5648 3403 05       		.uleb128 0x5
 5649 3404 01       		.uleb128 0x1
 5650 3405 58       		.byte	0x58
 5651 3406 01       		.uleb128 0x1
 5652 3407 37       		.byte	0x37
 5653 3408 05       		.uleb128 0x5
 5654 3409 01       		.uleb128 0x1
 5655 340a 59       		.byte	0x59
 5656 340b 03       		.uleb128 0x3
 5657 340c A3       		.byte	0xa3
 5658 340d 01       		.uleb128 0x1
 5659 340e 58       		.byte	0x58
 5660 340f 05       		.uleb128 0x5
 5661 3410 02       		.uleb128 0x2
 5662 3411 77       		.byte	0x77
 5663 3412 20       		.sleb128 32
 5664 3413 03       		.uleb128 0x3
 5665 3414 A3       		.byte	0xa3
 5666 3415 01       		.uleb128 0x1
 5667 3416 59       		.byte	0x59
 5668 3417 00       		.byte	0
 5669 3418 00       		.byte	0
 5670 3419 11       		.uleb128 0x11
 5671 341a 4C696244 		.ascii "LibDeleteVariable\0"
 5671      656C6574 
 5671      65566172 
 5671      6961626C 
 5671      6500
 5672 342c 2701     		.word	0x127
 5673 342e 2D030000 		.long	0x32d
 5674 3432 01030000 		.quad	.LFB14
 5674      00000000 
 5675 343a 67000000 		.quad	.LFE14-.LFB14
 5675      00000000 
 5676 3442 01       		.uleb128 0x1
 5677 3443 9C       		.byte	0x9c
 5678 3444 F8340000 		.long	0x34f8
 5679 3448 12       		.uleb128 0x12
 5680 3449 00000000 		.secrel32	.LASF13
 5681 344d 2801     		.word	0x128
 5682 344f 12       		.byte	0x12
 5683 3450 47080000 		.long	0x847
 5684 3454 12060000 		.secrel32	.LLST33
 5685 3458 08060000 		.secrel32	.LVUS33
 5686 345c 12       		.uleb128 0x12
 5687 345d 6B000000 		.secrel32	.LASF14
 5688 3461 2901     		.word	0x129
 5689 3463 12       		.byte	0x12
 5690 3464 210B0000 		.long	0xb21
 5691 3468 44060000 		.secrel32	.LLST34
 5692 346c 3C060000 		.secrel32	.LVUS34
 5693 3470 0F       		.uleb128 0xf
 5694 3471 56617242 		.ascii "VarBuf\0"
 5694      756600
 5695 3478 2C01     		.word	0x12c
 5696 347a 12       		.byte	0x12
 5697 347b 73030000 		.long	0x373
 5698 347f 6A060000 		.secrel32	.LLST35
 5699 3483 64060000 		.secrel32	.LVUS35
 5700 3487 17       		.uleb128 0x17
 5701 3488 45000000 		.secrel32	.LASF11
 5702 348c 2D01     		.word	0x12d
 5703 348e 11       		.byte	0x11
 5704 348f 2D030000 		.long	0x32d
 5705 3493 88060000 		.secrel32	.LLST36
 5706 3497 80060000 		.secrel32	.LVUS36
 5707 349b 10       		.uleb128 0x10
 5708 349c 13030000 		.quad	.LVL65
 5708      00000000 
 5709 34a4 F8340000 		.long	0x34f8
 5710 34a8 B9340000 		.long	0x34b9
 5711 34ac 05       		.uleb128 0x5
 5712 34ad 01       		.uleb128 0x1
 5713 34ae 52       		.byte	0x52
 5714 34af 02       		.uleb128 0x2
 5715 34b0 74       		.byte	0x74
 5716 34b1 00       		.sleb128 0
 5717 34b2 05       		.uleb128 0x5
 5718 34b3 01       		.uleb128 0x1
 5719 34b4 51       		.byte	0x51
 5720 34b5 02       		.uleb128 0x2
 5721 34b6 75       		.byte	0x75
 5722 34b7 00       		.sleb128 0
 5723 34b8 00       		.byte	0
 5724 34b9 1C       		.uleb128 0x1c
 5725 34ba 46030000 		.quad	.LVL68
 5725      00000000 
 5726 34c2 E3340000 		.long	0x34e3
 5727 34c6 05       		.uleb128 0x5
 5728 34c7 01       		.uleb128 0x1
 5729 34c8 52       		.byte	0x52
 5730 34c9 02       		.uleb128 0x2
 5731 34ca 74       		.byte	0x74
 5732 34cb 00       		.sleb128 0
 5733 34cc 05       		.uleb128 0x5
 5734 34cd 01       		.uleb128 0x1
 5735 34ce 51       		.byte	0x51
 5736 34cf 02       		.uleb128 0x2
 5737 34d0 75       		.byte	0x75
 5738 34d1 00       		.sleb128 0
 5739 34d2 05       		.uleb128 0x5
 5740 34d3 01       		.uleb128 0x1
 5741 34d4 58       		.byte	0x58
 5742 34d5 01       		.uleb128 0x1
 5743 34d6 37       		.byte	0x37
 5744 34d7 05       		.uleb128 0x5
 5745 34d8 01       		.uleb128 0x1
 5746 34d9 59       		.byte	0x59
 5747 34da 01       		.uleb128 0x1
 5748 34db 30       		.byte	0x30
 5749 34dc 05       		.uleb128 0x5
 5750 34dd 02       		.uleb128 0x2
 5751 34de 77       		.byte	0x77
 5752 34df 20       		.sleb128 32
 5753 34e0 01       		.uleb128 0x1
 5754 34e1 30       		.byte	0x30
 5755 34e2 00       		.byte	0
 5756 34e3 0D       		.uleb128 0xd
 5757 34e4 51030000 		.quad	.LVL70
 5757      00000000 
 5758 34ec EE390000 		.long	0x39ee
 5759 34f0 05       		.uleb128 0x5
 5760 34f1 01       		.uleb128 0x1
 5761 34f2 52       		.byte	0x52
 5762 34f3 02       		.uleb128 0x2
 5763 34f4 73       		.byte	0x73
 5764 34f5 00       		.sleb128 0
 5765 34f6 00       		.byte	0
 5766 34f7 00       		.byte	0
 5767 34f8 11       		.uleb128 0x11
 5768 34f9 4C696247 		.ascii "LibGetVariable\0"
 5768      65745661 
 5768      72696162 
 5768      6C6500
 5769 3508 1C01     		.word	0x11c
 5770 350a 73030000 		.long	0x373
 5771 350e EE020000 		.quad	.LFB13
 5771      00000000 
 5772 3516 13000000 		.quad	.LFE13-.LFB13
 5772      00000000 
 5773 351e 01       		.uleb128 0x1
 5774 351f 9C       		.byte	0x9c
 5775 3520 7F350000 		.long	0x357f
 5776 3524 0C       		.uleb128 0xc
 5777 3525 4E616D65 		.ascii "Name\0"
 5777      00
 5778 352a 1D01     		.word	0x11d
 5779 352c 1E       		.byte	0x1e
 5780 352d 47080000 		.long	0x847
 5781 3531 BB060000 		.secrel32	.LLST31
 5782 3535 B7060000 		.secrel32	.LVUS31
 5783 3539 12       		.uleb128 0x12
 5784 353a 2F000000 		.secrel32	.LASF8
 5785 353e 1E01     		.word	0x11e
 5786 3540 1E       		.byte	0x1e
 5787 3541 210B0000 		.long	0xb21
 5788 3545 D1060000 		.secrel32	.LLST32
 5789 3549 CD060000 		.secrel32	.LVUS32
 5790 354d 2F       		.uleb128 0x2f
 5791 354e 73000000 		.secrel32	.LASF12
 5792 3552 2101     		.word	0x121
 5793 3554 0D       		.byte	0xd
 5794 3555 06030000 		.long	0x306
 5795 3559 02       		.uleb128 0x2
 5796 355a 91       		.byte	0x91
 5797 355b 68       		.sleb128 -24
 5798 355c 0D       		.uleb128 0xd
 5799 355d FC020000 		.quad	.LVL63
 5799      00000000 
 5800 3565 7F350000 		.long	0x357f
 5801 3569 05       		.uleb128 0x5
 5802 356a 01       		.uleb128 0x1
 5803 356b 52       		.byte	0x52
 5804 356c 03       		.uleb128 0x3
 5805 356d A3       		.byte	0xa3
 5806 356e 01       		.uleb128 0x1
 5807 356f 52       		.byte	0x52
 5808 3570 05       		.uleb128 0x5
 5809 3571 01       		.uleb128 0x1
 5810 3572 51       		.byte	0x51
 5811 3573 03       		.uleb128 0x3
 5812 3574 A3       		.byte	0xa3
 5813 3575 01       		.uleb128 0x1
 5814 3576 51       		.byte	0x51
 5815 3577 05       		.uleb128 0x5
 5816 3578 01       		.uleb128 0x1
 5817 3579 58       		.byte	0x58
 5818 357a 02       		.uleb128 0x2
 5819 357b 91       		.byte	0x91
 5820 357c 68       		.sleb128 -24
 5821 357d 00       		.byte	0
 5822 357e 00       		.byte	0
 5823 357f 18       		.uleb128 0x18
 5824 3580 4C696247 		.ascii "LibGetVariableAndSize\0"
 5824      65745661 
 5824      72696162 
 5824      6C65416E 
 5824      6453697A 
 5825 3596 F3       		.byte	0xf3
 5826 3597 73030000 		.long	0x373
 5827 359b 53020000 		.quad	.LFB12
 5827      00000000 
 5828 35a3 9B000000 		.quad	.LFE12-.LFB12
 5828      00000000 
 5829 35ab 01       		.uleb128 0x1
 5830 35ac 9C       		.byte	0x9c
 5831 35ad 55360000 		.long	0x3655
 5832 35b1 0A       		.uleb128 0xa
 5833 35b2 4E616D65 		.ascii "Name\0"
 5833      00
 5834 35b7 F4       		.byte	0xf4
 5835 35b8 1E       		.byte	0x1e
 5836 35b9 47080000 		.long	0x847
 5837 35bd EB060000 		.secrel32	.LLST28
 5838 35c1 E3060000 		.secrel32	.LVUS28
 5839 35c5 14       		.uleb128 0x14
 5840 35c6 2F000000 		.secrel32	.LASF8
 5841 35ca F5       		.byte	0xf5
 5842 35cb 1E       		.byte	0x1e
 5843 35cc 210B0000 		.long	0xb21
 5844 35d0 13070000 		.secrel32	.LLST29
 5845 35d4 0B070000 		.secrel32	.LVUS29
 5846 35d8 14       		.uleb128 0x14
 5847 35d9 73000000 		.secrel32	.LASF12
 5848 35dd F6       		.byte	0xf6
 5849 35de 1E       		.byte	0x1e
 5850 35df 4C080000 		.long	0x84c
 5851 35e3 3B070000 		.secrel32	.LLST30
 5852 35e7 33070000 		.secrel32	.LVUS30
 5853 35eb 19       		.uleb128 0x19
 5854 35ec 45000000 		.secrel32	.LASF11
 5855 35f0 F9       		.byte	0xf9
 5856 35f1 1D       		.byte	0x1d
 5857 35f2 2D030000 		.long	0x32d
 5858 35f6 02       		.uleb128 0x2
 5859 35f7 91       		.byte	0x91
 5860 35f8 58       		.sleb128 -40
 5861 35f9 19       		.uleb128 0x19
 5862 35fa 08000000 		.secrel32	.LASF16
 5863 35fe FA       		.byte	0xfa
 5864 35ff 1E       		.byte	0x1e
 5865 3600 73030000 		.long	0x373
 5866 3604 02       		.uleb128 0x2
 5867 3605 91       		.byte	0x91
 5868 3606 50       		.sleb128 -48
 5869 3607 19       		.uleb128 0x19
 5870 3608 3A000000 		.secrel32	.LASF17
 5871 360c FB       		.byte	0xfb
 5872 360d 1D       		.byte	0x1d
 5873 360e 06030000 		.long	0x306
 5874 3612 02       		.uleb128 0x2
 5875 3613 91       		.byte	0x91
 5876 3614 48       		.sleb128 -56
 5877 3615 1C       		.uleb128 0x1c
 5878 3616 AB020000 		.quad	.LVL56
 5878      00000000 
 5879 361e 3A360000 		.long	0x363a
 5880 3622 05       		.uleb128 0x5
 5881 3623 01       		.uleb128 0x1
 5882 3624 52       		.byte	0x52
 5883 3625 02       		.uleb128 0x2
 5884 3626 74       		.byte	0x74
 5885 3627 00       		.sleb128 0
 5886 3628 05       		.uleb128 0x5
 5887 3629 01       		.uleb128 0x1
 5888 362a 51       		.byte	0x51
 5889 362b 02       		.uleb128 0x2
 5890 362c 73       		.byte	0x73
 5891 362d 00       		.sleb128 0
 5892 362e 05       		.uleb128 0x5
 5893 362f 01       		.uleb128 0x1
 5894 3630 58       		.byte	0x58
 5895 3631 01       		.uleb128 0x1
 5896 3632 30       		.byte	0x30
 5897 3633 05       		.uleb128 0x5
 5898 3634 01       		.uleb128 0x1
 5899 3635 59       		.byte	0x59
 5900 3636 02       		.uleb128 0x2
 5901 3637 91       		.byte	0x91
 5902 3638 48       		.sleb128 -56
 5903 3639 00       		.byte	0
 5904 363a 0D       		.uleb128 0xd
 5905 363b C4020000 		.quad	.LVL57
 5905      00000000 
 5906 3643 5A370000 		.long	0x375a
 5907 3647 05       		.uleb128 0x5
 5908 3648 01       		.uleb128 0x1
 5909 3649 52       		.byte	0x52
 5910 364a 02       		.uleb128 0x2
 5911 364b 91       		.byte	0x91
 5912 364c 58       		.sleb128 -40
 5913 364d 05       		.uleb128 0x5
 5914 364e 01       		.uleb128 0x1
 5915 364f 51       		.byte	0x51
 5916 3650 02       		.uleb128 0x2
 5917 3651 91       		.byte	0x91
 5918 3652 50       		.sleb128 -48
 5919 3653 00       		.byte	0
 5920 3654 00       		.byte	0
 5921 3655 18       		.uleb128 0x18
 5922 3656 4C69624D 		.ascii "LibMemoryMap\0"
 5922      656D6F72 
 5922      794D6170 
 5922      00
 5923 3663 CC       		.byte	0xcc
 5924 3664 0F120000 		.long	0x120f
 5925 3668 B9010000 		.quad	.LFB11
 5925      00000000 
 5926 3670 9A000000 		.quad	.LFE11-.LFB11
 5926      00000000 
 5927 3678 01       		.uleb128 0x1
 5928 3679 9C       		.byte	0x9c
 5929 367a 5A370000 		.long	0x375a
 5930 367e 0A       		.uleb128 0xa
 5931 367f 4E6F456E 		.ascii "NoEntries\0"
 5931      74726965 
 5931      7300
 5932 3689 CD       		.byte	0xcd
 5933 368a 1E       		.byte	0x1e
 5934 368b 4C080000 		.long	0x84c
 5935 368f 61070000 		.secrel32	.LLST24
 5936 3693 5B070000 		.secrel32	.LVUS24
 5937 3697 0A       		.uleb128 0xa
 5938 3698 4D61704B 		.ascii "MapKey\0"
 5938      657900
 5939 369f CE       		.byte	0xce
 5940 36a0 1E       		.byte	0x1e
 5941 36a1 4C080000 		.long	0x84c
 5942 36a5 80070000 		.secrel32	.LLST25
 5943 36a9 7A070000 		.secrel32	.LVUS25
 5944 36ad 0A       		.uleb128 0xa
 5945 36ae 44657363 		.ascii "DescriptorSize\0"
 5945      72697074 
 5945      6F725369 
 5945      7A6500
 5946 36bd CF       		.byte	0xcf
 5947 36be 1E       		.byte	0x1e
 5948 36bf 4C080000 		.long	0x84c
 5949 36c3 9F070000 		.secrel32	.LLST26
 5950 36c7 99070000 		.secrel32	.LVUS26
 5951 36cb 0A       		.uleb128 0xa
 5952 36cc 44657363 		.ascii "DescriptorVersion\0"
 5952      72697074 
 5952      6F725665 
 5952      7273696F 
 5952      6E00
 5953 36de D0       		.byte	0xd0
 5954 36df 1E       		.byte	0x1e
 5955 36e0 3A0B0000 		.long	0xb3a
 5956 36e4 BE070000 		.secrel32	.LLST27
 5957 36e8 B8070000 		.secrel32	.LVUS27
 5958 36ec 19       		.uleb128 0x19
 5959 36ed 45000000 		.secrel32	.LASF11
 5960 36f1 D3       		.byte	0xd3
 5961 36f2 1D       		.byte	0x1d
 5962 36f3 2D030000 		.long	0x32d
 5963 36f7 02       		.uleb128 0x2
 5964 36f8 91       		.byte	0x91
 5965 36f9 48       		.sleb128 -56
 5966 36fa 19       		.uleb128 0x19
 5967 36fb 08000000 		.secrel32	.LASF16
 5968 36ff D4       		.byte	0xd4
 5969 3700 1E       		.byte	0x1e
 5970 3701 0F120000 		.long	0x120f
 5971 3705 02       		.uleb128 0x2
 5972 3706 91       		.byte	0x91
 5973 3707 40       		.sleb128 -64
 5974 3708 19       		.uleb128 0x19
 5975 3709 3A000000 		.secrel32	.LASF17
 5976 370d D5       		.byte	0xd5
 5977 370e 1D       		.byte	0x1d
 5978 370f 06030000 		.long	0x306
 5979 3713 03       		.uleb128 0x3
 5980 3714 91       		.byte	0x91
 5981 3715 B87F     		.sleb128 -72
 5982 3717 1C       		.uleb128 0x1c
 5983 3718 0F020000 		.quad	.LVL48
 5983      00000000 
 5984 3720 3F370000 		.long	0x373f
 5985 3724 05       		.uleb128 0x5
 5986 3725 01       		.uleb128 0x1
 5987 3726 52       		.byte	0x52
 5988 3727 03       		.uleb128 0x3
 5989 3728 91       		.byte	0x91
 5990 3729 B87F     		.sleb128 -72
 5991 372b 05       		.uleb128 0x5
 5992 372c 01       		.uleb128 0x1
 5993 372d 58       		.byte	0x58
 5994 372e 02       		.uleb128 0x2
 5995 372f 75       		.byte	0x75
 5996 3730 00       		.sleb128 0
 5997 3731 05       		.uleb128 0x5
 5998 3732 01       		.uleb128 0x1
 5999 3733 59       		.byte	0x59
 6000 3734 02       		.uleb128 0x2
 6001 3735 73       		.byte	0x73
 6002 3736 00       		.sleb128 0
 6003 3737 05       		.uleb128 0x5
 6004 3738 02       		.uleb128 0x2
 6005 3739 77       		.byte	0x77
 6006 373a 20       		.sleb128 32
 6007 373b 02       		.uleb128 0x2
 6008 373c 74       		.byte	0x74
 6009 373d 00       		.sleb128 0
 6010 373e 00       		.byte	0
 6011 373f 0D       		.uleb128 0xd
 6012 3740 28020000 		.quad	.LVL49
 6012      00000000 
 6013 3748 5A370000 		.long	0x375a
 6014 374c 05       		.uleb128 0x5
 6015 374d 01       		.uleb128 0x1
 6016 374e 52       		.byte	0x52
 6017 374f 02       		.uleb128 0x2
 6018 3750 91       		.byte	0x91
 6019 3751 48       		.sleb128 -56
 6020 3752 05       		.uleb128 0x5
 6021 3753 01       		.uleb128 0x1
 6022 3754 51       		.byte	0x51
 6023 3755 02       		.uleb128 0x2
 6024 3756 91       		.byte	0x91
 6025 3757 40       		.sleb128 -64
 6026 3758 00       		.byte	0
 6027 3759 00       		.byte	0
 6028 375a 18       		.uleb128 0x18
 6029 375b 47726F77 		.ascii "GrowBuffer\0"
 6029      42756666 
 6029      657200
 6030 3766 84       		.byte	0x84
 6031 3767 14030000 		.long	0x314
 6032 376b 18010000 		.quad	.LFB10
 6032      00000000 
 6033 3773 A1000000 		.quad	.LFE10-.LFB10
 6033      00000000 
 6034 377b 01       		.uleb128 0x1
 6035 377c 9C       		.byte	0x9c
 6036 377d 05380000 		.long	0x3805
 6037 3781 14       		.uleb128 0x14
 6038 3782 45000000 		.secrel32	.LASF11
 6039 3786 85       		.byte	0x85
 6040 3787 1A       		.byte	0x1a
 6041 3788 052A0000 		.long	0x2a05
 6042 378c E1070000 		.secrel32	.LLST20
 6043 3790 D7070000 		.secrel32	.LVUS20
 6044 3794 14       		.uleb128 0x14
 6045 3795 08000000 		.secrel32	.LASF16
 6046 3799 86       		.byte	0x86
 6047 379a 1B       		.byte	0x1b
 6048 379b 56080000 		.long	0x856
 6049 379f 12080000 		.secrel32	.LLST21
 6050 37a3 08080000 		.secrel32	.LVUS21
 6051 37a7 14       		.uleb128 0x14
 6052 37a8 3A000000 		.secrel32	.LASF17
 6053 37ac 87       		.byte	0x87
 6054 37ad 19       		.byte	0x19
 6055 37ae 06030000 		.long	0x306
 6056 37b2 41080000 		.secrel32	.LLST22
 6057 37b6 39080000 		.secrel32	.LVUS22
 6058 37ba 2C       		.uleb128 0x2c
 6059 37bb 54727941 		.ascii "TryAgain\0"
 6059      6761696E 
 6059      00
 6060 37c4 A0       		.byte	0xa0
 6061 37c5 15       		.byte	0x15
 6062 37c6 14030000 		.long	0x314
 6063 37ca 65080000 		.secrel32	.LLST23
 6064 37ce 61080000 		.secrel32	.LVUS23
 6065 37d2 1D       		.uleb128 0x1d
 6066 37d3 71010000 		.quad	.LVL42
 6066      00000000 
 6067 37db EE390000 		.long	0x39ee
 6068 37df 10       		.uleb128 0x10
 6069 37e0 79010000 		.quad	.LVL43
 6069      00000000 
 6070 37e8 B03B0000 		.long	0x3bb0
 6071 37ec F7370000 		.long	0x37f7
 6072 37f0 05       		.uleb128 0x5
 6073 37f1 01       		.uleb128 0x1
 6074 37f2 52       		.byte	0x52
 6075 37f3 02       		.uleb128 0x2
 6076 37f4 74       		.byte	0x74
 6077 37f5 00       		.sleb128 0
 6078 37f6 00       		.byte	0
 6079 37f7 1D       		.uleb128 0x1d
 6080 37f8 A4010000 		.quad	.LVL45
 6080      00000000 
 6081 3800 EE390000 		.long	0x39ee
 6082 3804 00       		.byte	0
 6083 3805 18       		.uleb128 0x18
 6084 3806 436F6D70 		.ascii "CompareMem\0"
 6084      6172654D 
 6084      656D00
 6085 3811 7A       		.byte	0x7a
 6086 3812 F9020000 		.long	0x2f9
 6087 3816 0A010000 		.quad	.LFB9
 6087      00000000 
 6088 381e 0E000000 		.quad	.LFE9-.LFB9
 6088      00000000 
 6089 3826 01       		.uleb128 0x1
 6090 3827 9C       		.byte	0x9c
 6091 3828 8A380000 		.long	0x388a
 6092 382c 0A       		.uleb128 0xa
 6093 382d 44657374 		.ascii "Dest\0"
 6093      00
 6094 3832 7B       		.byte	0x7b
 6095 3833 18       		.byte	0x18
 6096 3834 C41C0000 		.long	0x1cc4
 6097 3838 7A080000 		.secrel32	.LLST17
 6098 383c 76080000 		.secrel32	.LVUS17
 6099 3840 0A       		.uleb128 0xa
 6100 3841 53726300 		.ascii "Src\0"
 6101 3845 7C       		.byte	0x7c
 6102 3846 18       		.byte	0x18
 6103 3847 C41C0000 		.long	0x1cc4
 6104 384b 90080000 		.secrel32	.LLST18
 6105 384f 8C080000 		.secrel32	.LVUS18
 6106 3853 0A       		.uleb128 0xa
 6107 3854 6C656E00 		.ascii "len\0"
 6108 3858 7D       		.byte	0x7d
 6109 3859 11       		.byte	0x11
 6110 385a 06030000 		.long	0x306
 6111 385e A6080000 		.secrel32	.LLST19
 6112 3862 A2080000 		.secrel32	.LVUS19
 6113 3866 0D       		.uleb128 0xd
 6114 3867 13010000 		.quad	.LVL32
 6114      00000000 
 6115 386f DF2C0000 		.long	0x2cdf
 6116 3873 05       		.uleb128 0x5
 6117 3874 01       		.uleb128 0x1
 6118 3875 52       		.byte	0x52
 6119 3876 03       		.uleb128 0x3
 6120 3877 A3       		.byte	0xa3
 6121 3878 01       		.uleb128 0x1
 6122 3879 52       		.byte	0x52
 6123 387a 05       		.uleb128 0x5
 6124 387b 01       		.uleb128 0x1
 6125 387c 51       		.byte	0x51
 6126 387d 03       		.uleb128 0x3
 6127 387e A3       		.byte	0xa3
 6128 387f 01       		.uleb128 0x1
 6129 3880 51       		.byte	0x51
 6130 3881 05       		.uleb128 0x5
 6131 3882 01       		.uleb128 0x1
 6132 3883 58       		.byte	0x58
 6133 3884 03       		.uleb128 0x3
 6134 3885 A3       		.byte	0xa3
 6135 3886 01       		.uleb128 0x1
 6136 3887 58       		.byte	0x58
 6137 3888 00       		.byte	0
 6138 3889 00       		.byte	0
 6139 388a 2D       		.uleb128 0x2d
 6140 388b 436F7079 		.ascii "CopyMem\0"
 6140      4D656D00 
 6141 3893 70       		.byte	0x70
 6142 3894 A0000000 		.quad	.LFB8
 6142      00000000 
 6143 389c 0F000000 		.quad	.LFE8-.LFB8
 6143      00000000 
 6144 38a4 01       		.uleb128 0x1
 6145 38a5 9C       		.byte	0x9c
 6146 38a6 08390000 		.long	0x3908
 6147 38aa 0A       		.uleb128 0xa
 6148 38ab 44657374 		.ascii "Dest\0"
 6148      00
 6149 38b0 71       		.byte	0x71
 6150 38b1 12       		.byte	0x12
 6151 38b2 73030000 		.long	0x373
 6152 38b6 BC080000 		.secrel32	.LLST10
 6153 38ba B8080000 		.secrel32	.LVUS10
 6154 38be 0A       		.uleb128 0xa
 6155 38bf 53726300 		.ascii "Src\0"
 6156 38c3 72       		.byte	0x72
 6157 38c4 12       		.byte	0x12
 6158 38c5 73030000 		.long	0x373
 6159 38c9 D2080000 		.secrel32	.LLST11
 6160 38cd CE080000 		.secrel32	.LVUS11
 6161 38d1 0A       		.uleb128 0xa
 6162 38d2 6C656E00 		.ascii "len\0"
 6163 38d6 73       		.byte	0x73
 6164 38d7 11       		.byte	0x11
 6165 38d8 06030000 		.long	0x306
 6166 38dc E8080000 		.secrel32	.LLST12
 6167 38e0 E4080000 		.secrel32	.LVUS12
 6168 38e4 0D       		.uleb128 0xd
 6169 38e5 AA000000 		.quad	.LVL18
 6169      00000000 
 6170 38ed 062D0000 		.long	0x2d06
 6171 38f1 05       		.uleb128 0x5
 6172 38f2 01       		.uleb128 0x1
 6173 38f3 52       		.byte	0x52
 6174 38f4 03       		.uleb128 0x3
 6175 38f5 A3       		.byte	0xa3
 6176 38f6 01       		.uleb128 0x1
 6177 38f7 52       		.byte	0x52
 6178 38f8 05       		.uleb128 0x5
 6179 38f9 01       		.uleb128 0x1
 6180 38fa 51       		.byte	0x51
 6181 38fb 03       		.uleb128 0x3
 6182 38fc A3       		.byte	0xa3
 6183 38fd 01       		.uleb128 0x1
 6184 38fe 51       		.byte	0x51
 6185 38ff 05       		.uleb128 0x5
 6186 3900 01       		.uleb128 0x1
 6187 3901 58       		.byte	0x58
 6188 3902 03       		.uleb128 0x3
 6189 3903 A3       		.byte	0xa3
 6190 3904 01       		.uleb128 0x1
 6191 3905 58       		.byte	0x58
 6192 3906 00       		.byte	0
 6193 3907 00       		.byte	0
 6194 3908 2D       		.uleb128 0x2d
 6195 3909 5365744D 		.ascii "SetMem\0"
 6195      656D00
 6196 3910 66       		.byte	0x66
 6197 3911 8D000000 		.quad	.LFB7
 6197      00000000 
 6198 3919 13000000 		.quad	.LFE7-.LFB7
 6198      00000000 
 6199 3921 01       		.uleb128 0x1
 6200 3922 9C       		.byte	0x9c
 6201 3923 8A390000 		.long	0x398a
 6202 3927 14       		.uleb128 0x14
 6203 3928 08000000 		.secrel32	.LASF16
 6204 392c 67       		.byte	0x67
 6205 392d 12       		.byte	0x12
 6206 392e 73030000 		.long	0x373
 6207 3932 FE080000 		.secrel32	.LLST7
 6208 3936 FA080000 		.secrel32	.LVUS7
 6209 393a 0A       		.uleb128 0xa
 6210 393b 53697A65 		.ascii "Size\0"
 6210      00
 6211 3940 68       		.byte	0x68
 6212 3941 11       		.byte	0x11
 6213 3942 06030000 		.long	0x306
 6214 3946 14090000 		.secrel32	.LLST8
 6215 394a 10090000 		.secrel32	.LVUS8
 6216 394e 0A       		.uleb128 0xa
 6217 394f 56616C75 		.ascii "Value\0"
 6217      6500
 6218 3955 69       		.byte	0x69
 6219 3956 11       		.byte	0x11
 6220 3957 CA020000 		.long	0x2ca
 6221 395b 2A090000 		.secrel32	.LLST9
 6222 395f 26090000 		.secrel32	.LVUS9
 6223 3963 0D       		.uleb128 0xd
 6224 3964 9B000000 		.quad	.LVL16
 6224      00000000 
 6225 396c 262D0000 		.long	0x2d26
 6226 3970 05       		.uleb128 0x5
 6227 3971 01       		.uleb128 0x1
 6228 3972 52       		.byte	0x52
 6229 3973 03       		.uleb128 0x3
 6230 3974 A3       		.byte	0xa3
 6231 3975 01       		.uleb128 0x1
 6232 3976 52       		.byte	0x52
 6233 3977 05       		.uleb128 0x5
 6234 3978 01       		.uleb128 0x1
 6235 3979 51       		.byte	0x51
 6236 397a 03       		.uleb128 0x3
 6237 397b A3       		.byte	0xa3
 6238 397c 01       		.uleb128 0x1
 6239 397d 51       		.byte	0x51
 6240 397e 05       		.uleb128 0x5
 6241 397f 01       		.uleb128 0x1
 6242 3980 58       		.byte	0x58
 6243 3981 06       		.uleb128 0x6
 6244 3982 A3       		.byte	0xa3
 6245 3983 01       		.uleb128 0x1
 6246 3984 58       		.byte	0x58
 6247 3985 08       		.byte	0x8
 6248 3986 FF       		.byte	0xff
 6249 3987 1A       		.byte	0x1a
 6250 3988 00       		.byte	0
 6251 3989 00       		.byte	0
 6252 398a 2D       		.uleb128 0x2d
 6253 398b 5A65726F 		.ascii "ZeroMem\0"
 6253      4D656D00 
 6254 3993 5D       		.byte	0x5d
 6255 3994 53000000 		.quad	.LFB6
 6255      00000000 
 6256 399c 0F000000 		.quad	.LFE6-.LFB6
 6256      00000000 
 6257 39a4 01       		.uleb128 0x1
 6258 39a5 9C       		.byte	0x9c
 6259 39a6 EE390000 		.long	0x39ee
 6260 39aa 14       		.uleb128 0x14
 6261 39ab 08000000 		.secrel32	.LASF16
 6262 39af 5E       		.byte	0x5e
 6263 39b0 12       		.byte	0x12
 6264 39b1 73030000 		.long	0x373
 6265 39b5 40090000 		.secrel32	.LLST3
 6266 39b9 3C090000 		.secrel32	.LVUS3
 6267 39bd 0A       		.uleb128 0xa
 6268 39be 53697A65 		.ascii "Size\0"
 6268      00
 6269 39c3 5F       		.byte	0x5f
 6270 39c4 11       		.byte	0x11
 6271 39c5 06030000 		.long	0x306
 6272 39c9 52090000 		.secrel32	.LLST4
 6273 39cd 4E090000 		.secrel32	.LVUS4
 6274 39d1 0D       		.uleb128 0xd
 6275 39d2 5D000000 		.quad	.LVL8
 6275      00000000 
 6276 39da 452D0000 		.long	0x2d45
 6277 39de 05       		.uleb128 0x5
 6278 39df 01       		.uleb128 0x1
 6279 39e0 52       		.byte	0x52
 6280 39e1 03       		.uleb128 0x3
 6281 39e2 A3       		.byte	0xa3
 6282 39e3 01       		.uleb128 0x1
 6283 39e4 52       		.byte	0x52
 6284 39e5 05       		.uleb128 0x5
 6285 39e6 01       		.uleb128 0x1
 6286 39e7 51       		.byte	0x51
 6287 39e8 03       		.uleb128 0x3
 6288 39e9 A3       		.byte	0xa3
 6289 39ea 01       		.uleb128 0x1
 6290 39eb 51       		.byte	0x51
 6291 39ec 00       		.byte	0
 6292 39ed 00       		.byte	0
 6293 39ee 37       		.uleb128 0x37
 6294 39ef 62000000 		.secrel32	.LASF7
 6295 39f3 01       		.byte	0x1
 6296 39f4 53       		.byte	0x53
 6297 39f5 01       		.byte	0x1
 6298 39f6 3C000000 		.quad	.LFB5
 6298      00000000 
 6299 39fe 17000000 		.quad	.LFE5-.LFB5
 6299      00000000 
 6300 3a06 01       		.uleb128 0x1
 6301 3a07 9C       		.byte	0x9c
 6302 3a08 313A0000 		.long	0x3a31
 6303 3a0c 14       		.uleb128 0x14
 6304 3a0d 08000000 		.secrel32	.LASF16
 6305 3a11 54       		.byte	0x54
 6306 3a12 1E       		.byte	0x1e
 6307 3a13 73030000 		.long	0x373
 6308 3a17 64090000 		.secrel32	.LLST2
 6309 3a1b 60090000 		.secrel32	.LVUS2
 6310 3a1f 25       		.uleb128 0x25
 6311 3a20 4E000000 		.quad	.LVL6
 6311      00000000 
 6312 3a28 05       		.uleb128 0x5
 6313 3a29 01       		.uleb128 0x1
 6314 3a2a 52       		.byte	0x52
 6315 3a2b 03       		.uleb128 0x3
 6316 3a2c A3       		.byte	0xa3
 6317 3a2d 01       		.uleb128 0x1
 6318 3a2e 52       		.byte	0x52
 6319 3a2f 00       		.byte	0
 6320 3a30 00       		.byte	0
 6321 3a31 18       		.uleb128 0x18
 6322 3a32 5265616C 		.ascii "ReallocatePool\0"
 6322      6C6F6361 
 6322      7465506F 
 6322      6F6C00
 6323 3a41 39       		.byte	0x39
 6324 3a42 73030000 		.long	0x373
 6325 3a46 AF000000 		.quad	.LFB4
 6325      00000000 
 6326 3a4e 5B000000 		.quad	.LFE4-.LFB4
 6326      00000000 
 6327 3a56 01       		.uleb128 0x1
 6328 3a57 9C       		.byte	0x9c
 6329 3a58 2B3B0000 		.long	0x3b2b
 6330 3a5c 0A       		.uleb128 0xa
 6331 3a5d 4F6C6450 		.ascii "OldPool\0"
 6331      6F6F6C00 
 6332 3a65 3A       		.byte	0x3a
 6333 3a66 1E       		.byte	0x1e
 6334 3a67 73030000 		.long	0x373
 6335 3a6b 7A090000 		.secrel32	.LLST13
 6336 3a6f 72090000 		.secrel32	.LVUS13
 6337 3a73 0A       		.uleb128 0xa
 6338 3a74 4F6C6453 		.ascii "OldSize\0"
 6338      697A6500 
 6339 3a7c 3B       		.byte	0x3b
 6340 3a7d 1D       		.byte	0x1d
 6341 3a7e 06030000 		.long	0x306
 6342 3a82 A2090000 		.secrel32	.LLST14
 6343 3a86 9A090000 		.secrel32	.LVUS14
 6344 3a8a 0A       		.uleb128 0xa
 6345 3a8b 4E657753 		.ascii "NewSize\0"
 6345      697A6500 
 6346 3a93 3C       		.byte	0x3c
 6347 3a94 1D       		.byte	0x1d
 6348 3a95 06030000 		.long	0x306
 6349 3a99 CA090000 		.secrel32	.LLST15
 6350 3a9d C2090000 		.secrel32	.LVUS15
 6351 3aa1 2C       		.uleb128 0x2c
 6352 3aa2 4E657750 		.ascii "NewPool\0"
 6352      6F6F6C00 
 6353 3aaa 3F       		.byte	0x3f
 6354 3aab 1E       		.byte	0x1e
 6355 3aac 73030000 		.long	0x373
 6356 3ab0 F2090000 		.secrel32	.LLST16
 6357 3ab4 EA090000 		.secrel32	.LVUS16
 6358 3ab8 10       		.uleb128 0x10
 6359 3ab9 CD000000 		.quad	.LVL22
 6359      00000000 
 6360 3ac1 B03B0000 		.long	0x3bb0
 6361 3ac5 D03A0000 		.long	0x3ad0
 6362 3ac9 05       		.uleb128 0x5
 6363 3aca 01       		.uleb128 0x1
 6364 3acb 52       		.byte	0x52
 6365 3acc 02       		.uleb128 0x2
 6366 3acd 73       		.byte	0x73
 6367 3ace 00       		.sleb128 0
 6368 3acf 00       		.byte	0
 6369 3ad0 10       		.uleb128 0x10
 6370 3ad1 EF000000 		.quad	.LVL24
 6370      00000000 
 6371 3ad9 8A380000 		.long	0x388a
 6372 3add 163B0000 		.long	0x3b16
 6373 3ae1 05       		.uleb128 0x5
 6374 3ae2 01       		.uleb128 0x1
 6375 3ae3 52       		.byte	0x52
 6376 3ae4 02       		.uleb128 0x2
 6377 3ae5 75       		.byte	0x75
 6378 3ae6 00       		.sleb128 0
 6379 3ae7 05       		.uleb128 0x5
 6380 3ae8 01       		.uleb128 0x1
 6381 3ae9 51       		.byte	0x51
 6382 3aea 02       		.uleb128 0x2
 6383 3aeb 74       		.byte	0x74
 6384 3aec 00       		.sleb128 0
 6385 3aed 05       		.uleb128 0x5
 6386 3aee 01       		.uleb128 0x1
 6387 3aef 58       		.byte	0x58
 6388 3af0 24       		.uleb128 0x24
 6389 3af1 73       		.byte	0x73
 6390 3af2 00       		.sleb128 0
 6391 3af3 76       		.byte	0x76
 6392 3af4 00       		.sleb128 0
 6393 3af5 73       		.byte	0x73
 6394 3af6 00       		.sleb128 0
 6395 3af7 23       		.byte	0x23
 6396 3af8 80808080 		.uleb128 0x8000000000000000
 6396      80808080 
 6396      8001
 6397 3b02 76       		.byte	0x76
 6398 3b03 00       		.sleb128 0
 6399 3b04 23       		.byte	0x23
 6400 3b05 80808080 		.uleb128 0x8000000000000000
 6400      80808080 
 6400      8001
 6401 3b0f 2C       		.byte	0x2c
 6402 3b10 28       		.byte	0x28
 6403 3b11 0100     		.word	0x1
 6404 3b13 16       		.byte	0x16
 6405 3b14 13       		.byte	0x13
 6406 3b15 00       		.byte	0
 6407 3b16 0D       		.uleb128 0xd
 6408 3b17 F7000000 		.quad	.LVL25
 6408      00000000 
 6409 3b1f EE390000 		.long	0x39ee
 6410 3b23 05       		.uleb128 0x5
 6411 3b24 01       		.uleb128 0x1
 6412 3b25 52       		.byte	0x52
 6413 3b26 02       		.uleb128 0x2
 6414 3b27 74       		.byte	0x74
 6415 3b28 00       		.sleb128 0
 6416 3b29 00       		.byte	0
 6417 3b2a 00       		.byte	0
 6418 3b2b 18       		.uleb128 0x18
 6419 3b2c 416C6C6F 		.ascii "AllocateZeroPool\0"
 6419      63617465 
 6419      5A65726F 
 6419      506F6F6C 
 6419      00
 6420 3b3d 2A       		.byte	0x2a
 6421 3b3e 73030000 		.long	0x373
 6422 3b42 62000000 		.quad	.LFB3
 6422      00000000 
 6423 3b4a 2B000000 		.quad	.LFE3-.LFB3
 6423      00000000 
 6424 3b52 01       		.uleb128 0x1
 6425 3b53 9C       		.byte	0x9c
 6426 3b54 B03B0000 		.long	0x3bb0
 6427 3b58 0A       		.uleb128 0xa
 6428 3b59 53697A65 		.ascii "Size\0"
 6428      00
 6429 3b5e 2B       		.byte	0x2b
 6430 3b5f 1D       		.byte	0x1d
 6431 3b60 06030000 		.long	0x306
 6432 3b64 170A0000 		.secrel32	.LLST5
 6433 3b68 110A0000 		.secrel32	.LVUS5
 6434 3b6c 2C       		.uleb128 0x2c
 6435 3b6d 7000     		.ascii "p\0"
 6436 3b6f 2E       		.byte	0x2e
 6437 3b70 1E       		.byte	0x1e
 6438 3b71 73030000 		.long	0x373
 6439 3b75 330A0000 		.secrel32	.LLST6
 6440 3b79 2D0A0000 		.secrel32	.LVUS6
 6441 3b7d 10       		.uleb128 0x10
 6442 3b7e 70000000 		.quad	.LVL10
 6442      00000000 
 6443 3b86 B03B0000 		.long	0x3bb0
 6444 3b8a 953B0000 		.long	0x3b95
 6445 3b8e 05       		.uleb128 0x5
 6446 3b8f 01       		.uleb128 0x1
 6447 3b90 52       		.byte	0x52
 6448 3b91 02       		.uleb128 0x2
 6449 3b92 74       		.byte	0x74
 6450 3b93 00       		.sleb128 0
 6451 3b94 00       		.byte	0
 6452 3b95 0D       		.uleb128 0xd
 6453 3b96 83000000 		.quad	.LVL12
 6453      00000000 
 6454 3b9e 8A390000 		.long	0x398a
 6455 3ba2 05       		.uleb128 0x5
 6456 3ba3 01       		.uleb128 0x1
 6457 3ba4 52       		.byte	0x52
 6458 3ba5 02       		.uleb128 0x2
 6459 3ba6 73       		.byte	0x73
 6460 3ba7 00       		.sleb128 0
 6461 3ba8 05       		.uleb128 0x5
 6462 3ba9 01       		.uleb128 0x1
 6463 3baa 51       		.byte	0x51
 6464 3bab 02       		.uleb128 0x2
 6465 3bac 74       		.byte	0x74
 6466 3bad 00       		.sleb128 0
 6467 3bae 00       		.byte	0
 6468 3baf 00       		.byte	0
 6469 3bb0 38       		.uleb128 0x38
 6470 3bb1 4C000000 		.secrel32	.LASF6
 6471 3bb5 01       		.byte	0x1
 6472 3bb6 1A       		.byte	0x1a
 6473 3bb7 01       		.byte	0x1
 6474 3bb8 73030000 		.long	0x373
 6475 3bbc 00000000 		.quad	.LFB2
 6475      00000000 
 6476 3bc4 3C000000 		.quad	.LFE2-.LFB2
 6476      00000000 
 6477 3bcc 01       		.uleb128 0x1
 6478 3bcd 9C       		.byte	0x9c
 6479 3bce 0A       		.uleb128 0xa
 6480 3bcf 53697A65 		.ascii "Size\0"
 6480      00
 6481 3bd4 1B       		.byte	0x1b
 6482 3bd5 1D       		.byte	0x1d
 6483 3bd6 06030000 		.long	0x306
 6484 3bda 4E0A0000 		.secrel32	.LLST0
 6485 3bde 480A0000 		.secrel32	.LVUS0
 6486 3be2 39       		.uleb128 0x39
 6487 3be3 45000000 		.secrel32	.LASF11
 6488 3be7 01       		.byte	0x1
 6489 3be8 1E       		.byte	0x1e
 6490 3be9 1D       		.byte	0x1d
 6491 3bea 2D030000 		.long	0x32d
 6492 3bee 650A0000 		.secrel32	.LLST1
 6493 3bf2 610A0000 		.secrel32	.LVUS1
 6494 3bf6 3A       		.uleb128 0x3a
 6495 3bf7 7000     		.ascii "p\0"
 6496 3bf9 01       		.byte	0x1
 6497 3bfa 1F       		.byte	0x1f
 6498 3bfb 1E       		.byte	0x1e
 6499 3bfc 73030000 		.long	0x373
 6500 3c00 02       		.uleb128 0x2
 6501 3c01 91       		.byte	0x91
 6502 3c02 68       		.sleb128 -24
 6503 3c03 25       		.uleb128 0x25
 6504 3c04 22000000 		.quad	.LVL2
 6504      00000000 
 6505 3c0c 05       		.uleb128 0x5
 6506 3c0d 01       		.uleb128 0x1
 6507 3c0e 51       		.byte	0x51
 6508 3c0f 03       		.uleb128 0x3
 6509 3c10 A3       		.byte	0xa3
 6510 3c11 01       		.uleb128 0x1
 6511 3c12 52       		.byte	0x52
 6512 3c13 05       		.uleb128 0x5
 6513 3c14 01       		.uleb128 0x1
 6514 3c15 58       		.byte	0x58
 6515 3c16 02       		.uleb128 0x2
 6516 3c17 91       		.byte	0x91
 6517 3c18 68       		.sleb128 -24
 6518 3c19 00       		.byte	0
 6519 3c1a 00       		.byte	0
 6520 3c1b 00       		.byte	0
 6521              		.section	.debug_abbrev,"dr"
 6522              	.Ldebug_abbrev0:
 6523 0000 01       		.uleb128 0x1
 6524 0001 05       		.uleb128 0x5
 6525 0002 00       		.byte	0
 6526 0003 49       		.uleb128 0x49
 6527 0004 13       		.uleb128 0x13
 6528 0005 00       		.byte	0
 6529 0006 00       		.byte	0
 6530 0007 02       		.uleb128 0x2
 6531 0008 0F       		.uleb128 0xf
 6532 0009 00       		.byte	0
 6533 000a 0B       		.uleb128 0xb
 6534 000b 21       		.uleb128 0x21
 6535 000c 08       		.sleb128 8
 6536 000d 49       		.uleb128 0x49
 6537 000e 13       		.uleb128 0x13
 6538 000f 00       		.byte	0
 6539 0010 00       		.byte	0
 6540 0011 03       		.uleb128 0x3
 6541 0012 16       		.uleb128 0x16
 6542 0013 00       		.byte	0
 6543 0014 03       		.uleb128 0x3
 6544 0015 08       		.uleb128 0x8
 6545 0016 3A       		.uleb128 0x3a
 6546 0017 0B       		.uleb128 0xb
 6547 0018 3B       		.uleb128 0x3b
 6548 0019 0B       		.uleb128 0xb
 6549 001a 39       		.uleb128 0x39
 6550 001b 0B       		.uleb128 0xb
 6551 001c 49       		.uleb128 0x49
 6552 001d 13       		.uleb128 0x13
 6553 001e 00       		.byte	0
 6554 001f 00       		.byte	0
 6555 0020 04       		.uleb128 0x4
 6556 0021 0D       		.uleb128 0xd
 6557 0022 00       		.byte	0
 6558 0023 03       		.uleb128 0x3
 6559 0024 08       		.uleb128 0x8
 6560 0025 3A       		.uleb128 0x3a
 6561 0026 0B       		.uleb128 0xb
 6562 0027 3B       		.uleb128 0x3b
 6563 0028 05       		.uleb128 0x5
 6564 0029 39       		.uleb128 0x39
 6565 002a 0B       		.uleb128 0xb
 6566 002b 49       		.uleb128 0x49
 6567 002c 13       		.uleb128 0x13
 6568 002d 38       		.uleb128 0x38
 6569 002e 0B       		.uleb128 0xb
 6570 002f 00       		.byte	0
 6571 0030 00       		.byte	0
 6572 0031 05       		.uleb128 0x5
 6573 0032 49       		.uleb128 0x49
 6574 0033 00       		.byte	0
 6575 0034 02       		.uleb128 0x2
 6576 0035 18       		.uleb128 0x18
 6577 0036 7E       		.uleb128 0x7e
 6578 0037 18       		.uleb128 0x18
 6579 0038 00       		.byte	0
 6580 0039 00       		.byte	0
 6581 003a 06       		.uleb128 0x6
 6582 003b 0D       		.uleb128 0xd
 6583 003c 00       		.byte	0
 6584 003d 03       		.uleb128 0x3
 6585 003e 08       		.uleb128 0x8
 6586 003f 3A       		.uleb128 0x3a
 6587 0040 0B       		.uleb128 0xb
 6588 0041 3B       		.uleb128 0x3b
 6589 0042 0B       		.uleb128 0xb
 6590 0043 39       		.uleb128 0x39
 6591 0044 0B       		.uleb128 0xb
 6592 0045 49       		.uleb128 0x49
 6593 0046 13       		.uleb128 0x13
 6594 0047 38       		.uleb128 0x38
 6595 0048 0B       		.uleb128 0xb
 6596 0049 00       		.byte	0
 6597 004a 00       		.byte	0
 6598 004b 07       		.uleb128 0x7
 6599 004c 15       		.uleb128 0x15
 6600 004d 01       		.byte	0x1
 6601 004e 27       		.uleb128 0x27
 6602 004f 19       		.uleb128 0x19
 6603 0050 49       		.uleb128 0x49
 6604 0051 13       		.uleb128 0x13
 6605 0052 01       		.uleb128 0x1
 6606 0053 13       		.uleb128 0x13
 6607 0054 00       		.byte	0
 6608 0055 00       		.byte	0
 6609 0056 08       		.uleb128 0x8
 6610 0057 16       		.uleb128 0x16
 6611 0058 00       		.byte	0
 6612 0059 03       		.uleb128 0x3
 6613 005a 08       		.uleb128 0x8
 6614 005b 3A       		.uleb128 0x3a
 6615 005c 0B       		.uleb128 0xb
 6616 005d 3B       		.uleb128 0x3b
 6617 005e 05       		.uleb128 0x5
 6618 005f 39       		.uleb128 0x39
 6619 0060 0B       		.uleb128 0xb
 6620 0061 49       		.uleb128 0x49
 6621 0062 13       		.uleb128 0x13
 6622 0063 00       		.byte	0
 6623 0064 00       		.byte	0
 6624 0065 09       		.uleb128 0x9
 6625 0066 28       		.uleb128 0x28
 6626 0067 00       		.byte	0
 6627 0068 03       		.uleb128 0x3
 6628 0069 08       		.uleb128 0x8
 6629 006a 1C       		.uleb128 0x1c
 6630 006b 0B       		.uleb128 0xb
 6631 006c 00       		.byte	0
 6632 006d 00       		.byte	0
 6633 006e 0A       		.uleb128 0xa
 6634 006f 05       		.uleb128 0x5
 6635 0070 00       		.byte	0
 6636 0071 03       		.uleb128 0x3
 6637 0072 08       		.uleb128 0x8
 6638 0073 3A       		.uleb128 0x3a
 6639 0074 21       		.uleb128 0x21
 6640 0075 01       		.sleb128 1
 6641 0076 3B       		.uleb128 0x3b
 6642 0077 0B       		.uleb128 0xb
 6643 0078 39       		.uleb128 0x39
 6644 0079 0B       		.uleb128 0xb
 6645 007a 49       		.uleb128 0x49
 6646 007b 13       		.uleb128 0x13
 6647 007c 02       		.uleb128 0x2
 6648 007d 17       		.uleb128 0x17
 6649 007e B742     		.uleb128 0x2137
 6650 0080 17       		.uleb128 0x17
 6651 0081 00       		.byte	0
 6652 0082 00       		.byte	0
 6653 0083 0B       		.uleb128 0xb
 6654 0084 0D       		.uleb128 0xd
 6655 0085 00       		.byte	0
 6656 0086 03       		.uleb128 0x3
 6657 0087 08       		.uleb128 0x8
 6658 0088 3A       		.uleb128 0x3a
 6659 0089 21       		.uleb128 0x21
 6660 008a 08       		.sleb128 8
 6661 008b 3B       		.uleb128 0x3b
 6662 008c 05       		.uleb128 0x5
 6663 008d 39       		.uleb128 0x39
 6664 008e 0B       		.uleb128 0xb
 6665 008f 49       		.uleb128 0x49
 6666 0090 13       		.uleb128 0x13
 6667 0091 38       		.uleb128 0x38
 6668 0092 05       		.uleb128 0x5
 6669 0093 00       		.byte	0
 6670 0094 00       		.byte	0
 6671 0095 0C       		.uleb128 0xc
 6672 0096 05       		.uleb128 0x5
 6673 0097 00       		.byte	0
 6674 0098 03       		.uleb128 0x3
 6675 0099 08       		.uleb128 0x8
 6676 009a 3A       		.uleb128 0x3a
 6677 009b 21       		.uleb128 0x21
 6678 009c 01       		.sleb128 1
 6679 009d 3B       		.uleb128 0x3b
 6680 009e 05       		.uleb128 0x5
 6681 009f 39       		.uleb128 0x39
 6682 00a0 0B       		.uleb128 0xb
 6683 00a1 49       		.uleb128 0x49
 6684 00a2 13       		.uleb128 0x13
 6685 00a3 02       		.uleb128 0x2
 6686 00a4 17       		.uleb128 0x17
 6687 00a5 B742     		.uleb128 0x2137
 6688 00a7 17       		.uleb128 0x17
 6689 00a8 00       		.byte	0
 6690 00a9 00       		.byte	0
 6691 00aa 0D       		.uleb128 0xd
 6692 00ab 48       		.uleb128 0x48
 6693 00ac 01       		.byte	0x1
 6694 00ad 7D       		.uleb128 0x7d
 6695 00ae 01       		.uleb128 0x1
 6696 00af 7F       		.uleb128 0x7f
 6697 00b0 13       		.uleb128 0x13
 6698 00b1 00       		.byte	0
 6699 00b2 00       		.byte	0
 6700 00b3 0E       		.uleb128 0xe
 6701 00b4 24       		.uleb128 0x24
 6702 00b5 00       		.byte	0
 6703 00b6 0B       		.uleb128 0xb
 6704 00b7 0B       		.uleb128 0xb
 6705 00b8 3E       		.uleb128 0x3e
 6706 00b9 0B       		.uleb128 0xb
 6707 00ba 03       		.uleb128 0x3
 6708 00bb 08       		.uleb128 0x8
 6709 00bc 00       		.byte	0
 6710 00bd 00       		.byte	0
 6711 00be 0F       		.uleb128 0xf
 6712 00bf 34       		.uleb128 0x34
 6713 00c0 00       		.byte	0
 6714 00c1 03       		.uleb128 0x3
 6715 00c2 08       		.uleb128 0x8
 6716 00c3 3A       		.uleb128 0x3a
 6717 00c4 21       		.uleb128 0x21
 6718 00c5 01       		.sleb128 1
 6719 00c6 3B       		.uleb128 0x3b
 6720 00c7 05       		.uleb128 0x5
 6721 00c8 39       		.uleb128 0x39
 6722 00c9 0B       		.uleb128 0xb
 6723 00ca 49       		.uleb128 0x49
 6724 00cb 13       		.uleb128 0x13
 6725 00cc 02       		.uleb128 0x2
 6726 00cd 17       		.uleb128 0x17
 6727 00ce B742     		.uleb128 0x2137
 6728 00d0 17       		.uleb128 0x17
 6729 00d1 00       		.byte	0
 6730 00d2 00       		.byte	0
 6731 00d3 10       		.uleb128 0x10
 6732 00d4 48       		.uleb128 0x48
 6733 00d5 01       		.byte	0x1
 6734 00d6 7D       		.uleb128 0x7d
 6735 00d7 01       		.uleb128 0x1
 6736 00d8 7F       		.uleb128 0x7f
 6737 00d9 13       		.uleb128 0x13
 6738 00da 01       		.uleb128 0x1
 6739 00db 13       		.uleb128 0x13
 6740 00dc 00       		.byte	0
 6741 00dd 00       		.byte	0
 6742 00de 11       		.uleb128 0x11
 6743 00df 2E       		.uleb128 0x2e
 6744 00e0 01       		.byte	0x1
 6745 00e1 3F       		.uleb128 0x3f
 6746 00e2 19       		.uleb128 0x19
 6747 00e3 03       		.uleb128 0x3
 6748 00e4 08       		.uleb128 0x8
 6749 00e5 3A       		.uleb128 0x3a
 6750 00e6 21       		.uleb128 0x21
 6751 00e7 01       		.sleb128 1
 6752 00e8 3B       		.uleb128 0x3b
 6753 00e9 05       		.uleb128 0x5
 6754 00ea 39       		.uleb128 0x39
 6755 00eb 21       		.uleb128 0x21
 6756 00ec 01       		.sleb128 1
 6757 00ed 27       		.uleb128 0x27
 6758 00ee 19       		.uleb128 0x19
 6759 00ef 49       		.uleb128 0x49
 6760 00f0 13       		.uleb128 0x13
 6761 00f1 11       		.uleb128 0x11
 6762 00f2 01       		.uleb128 0x1
 6763 00f3 12       		.uleb128 0x12
 6764 00f4 07       		.uleb128 0x7
 6765 00f5 40       		.uleb128 0x40
 6766 00f6 18       		.uleb128 0x18
 6767 00f7 7A       		.uleb128 0x7a
 6768 00f8 19       		.uleb128 0x19
 6769 00f9 01       		.uleb128 0x1
 6770 00fa 13       		.uleb128 0x13
 6771 00fb 00       		.byte	0
 6772 00fc 00       		.byte	0
 6773 00fd 12       		.uleb128 0x12
 6774 00fe 05       		.uleb128 0x5
 6775 00ff 00       		.byte	0
 6776 0100 03       		.uleb128 0x3
 6777 0101 0E       		.uleb128 0xe
 6778 0102 3A       		.uleb128 0x3a
 6779 0103 21       		.uleb128 0x21
 6780 0104 01       		.sleb128 1
 6781 0105 3B       		.uleb128 0x3b
 6782 0106 05       		.uleb128 0x5
 6783 0107 39       		.uleb128 0x39
 6784 0108 0B       		.uleb128 0xb
 6785 0109 49       		.uleb128 0x49
 6786 010a 13       		.uleb128 0x13
 6787 010b 02       		.uleb128 0x2
 6788 010c 17       		.uleb128 0x17
 6789 010d B742     		.uleb128 0x2137
 6790 010f 17       		.uleb128 0x17
 6791 0110 00       		.byte	0
 6792 0111 00       		.byte	0
 6793 0112 13       		.uleb128 0x13
 6794 0113 13       		.uleb128 0x13
 6795 0114 01       		.byte	0x1
 6796 0115 0B       		.uleb128 0xb
 6797 0116 0B       		.uleb128 0xb
 6798 0117 3A       		.uleb128 0x3a
 6799 0118 0B       		.uleb128 0xb
 6800 0119 3B       		.uleb128 0x3b
 6801 011a 0B       		.uleb128 0xb
 6802 011b 39       		.uleb128 0x39
 6803 011c 21       		.uleb128 0x21
 6804 011d 09       		.sleb128 9
 6805 011e 01       		.uleb128 0x1
 6806 011f 13       		.uleb128 0x13
 6807 0120 00       		.byte	0
 6808 0121 00       		.byte	0
 6809 0122 14       		.uleb128 0x14
 6810 0123 05       		.uleb128 0x5
 6811 0124 00       		.byte	0
 6812 0125 03       		.uleb128 0x3
 6813 0126 0E       		.uleb128 0xe
 6814 0127 3A       		.uleb128 0x3a
 6815 0128 21       		.uleb128 0x21
 6816 0129 01       		.sleb128 1
 6817 012a 3B       		.uleb128 0x3b
 6818 012b 0B       		.uleb128 0xb
 6819 012c 39       		.uleb128 0x39
 6820 012d 0B       		.uleb128 0xb
 6821 012e 49       		.uleb128 0x49
 6822 012f 13       		.uleb128 0x13
 6823 0130 02       		.uleb128 0x2
 6824 0131 17       		.uleb128 0x17
 6825 0132 B742     		.uleb128 0x2137
 6826 0134 17       		.uleb128 0x17
 6827 0135 00       		.byte	0
 6828 0136 00       		.byte	0
 6829 0137 15       		.uleb128 0x15
 6830 0138 0D       		.uleb128 0xd
 6831 0139 00       		.byte	0
 6832 013a 03       		.uleb128 0x3
 6833 013b 0E       		.uleb128 0xe
 6834 013c 3A       		.uleb128 0x3a
 6835 013d 21       		.uleb128 0x21
 6836 013e 08       		.sleb128 8
 6837 013f 3B       		.uleb128 0x3b
 6838 0140 05       		.uleb128 0x5
 6839 0141 39       		.uleb128 0x39
 6840 0142 0B       		.uleb128 0xb
 6841 0143 49       		.uleb128 0x49
 6842 0144 13       		.uleb128 0x13
 6843 0145 38       		.uleb128 0x38
 6844 0146 0B       		.uleb128 0xb
 6845 0147 00       		.byte	0
 6846 0148 00       		.byte	0
 6847 0149 16       		.uleb128 0x16
 6848 014a 34       		.uleb128 0x34
 6849 014b 00       		.byte	0
 6850 014c 03       		.uleb128 0x3
 6851 014d 08       		.uleb128 0x8
 6852 014e 3A       		.uleb128 0x3a
 6853 014f 21       		.uleb128 0x21
 6854 0150 0C       		.sleb128 12
 6855 0151 3B       		.uleb128 0x3b
 6856 0152 0B       		.uleb128 0xb
 6857 0153 39       		.uleb128 0x39
 6858 0154 0B       		.uleb128 0xb
 6859 0155 49       		.uleb128 0x49
 6860 0156 13       		.uleb128 0x13
 6861 0157 3F       		.uleb128 0x3f
 6862 0158 19       		.uleb128 0x19
 6863 0159 3C       		.uleb128 0x3c
 6864 015a 19       		.uleb128 0x19
 6865 015b 00       		.byte	0
 6866 015c 00       		.byte	0
 6867 015d 17       		.uleb128 0x17
 6868 015e 34       		.uleb128 0x34
 6869 015f 00       		.byte	0
 6870 0160 03       		.uleb128 0x3
 6871 0161 0E       		.uleb128 0xe
 6872 0162 3A       		.uleb128 0x3a
 6873 0163 21       		.uleb128 0x21
 6874 0164 01       		.sleb128 1
 6875 0165 3B       		.uleb128 0x3b
 6876 0166 05       		.uleb128 0x5
 6877 0167 39       		.uleb128 0x39
 6878 0168 0B       		.uleb128 0xb
 6879 0169 49       		.uleb128 0x49
 6880 016a 13       		.uleb128 0x13
 6881 016b 02       		.uleb128 0x2
 6882 016c 17       		.uleb128 0x17
 6883 016d B742     		.uleb128 0x2137
 6884 016f 17       		.uleb128 0x17
 6885 0170 00       		.byte	0
 6886 0171 00       		.byte	0
 6887 0172 18       		.uleb128 0x18
 6888 0173 2E       		.uleb128 0x2e
 6889 0174 01       		.byte	0x1
 6890 0175 3F       		.uleb128 0x3f
 6891 0176 19       		.uleb128 0x19
 6892 0177 03       		.uleb128 0x3
 6893 0178 08       		.uleb128 0x8
 6894 0179 3A       		.uleb128 0x3a
 6895 017a 21       		.uleb128 0x21
 6896 017b 01       		.sleb128 1
 6897 017c 3B       		.uleb128 0x3b
 6898 017d 0B       		.uleb128 0xb
 6899 017e 39       		.uleb128 0x39
 6900 017f 21       		.uleb128 0x21
 6901 0180 01       		.sleb128 1
 6902 0181 27       		.uleb128 0x27
 6903 0182 19       		.uleb128 0x19
 6904 0183 49       		.uleb128 0x49
 6905 0184 13       		.uleb128 0x13
 6906 0185 11       		.uleb128 0x11
 6907 0186 01       		.uleb128 0x1
 6908 0187 12       		.uleb128 0x12
 6909 0188 07       		.uleb128 0x7
 6910 0189 40       		.uleb128 0x40
 6911 018a 18       		.uleb128 0x18
 6912 018b 7A       		.uleb128 0x7a
 6913 018c 19       		.uleb128 0x19
 6914 018d 01       		.uleb128 0x1
 6915 018e 13       		.uleb128 0x13
 6916 018f 00       		.byte	0
 6917 0190 00       		.byte	0
 6918 0191 19       		.uleb128 0x19
 6919 0192 34       		.uleb128 0x34
 6920 0193 00       		.byte	0
 6921 0194 03       		.uleb128 0x3
 6922 0195 0E       		.uleb128 0xe
 6923 0196 3A       		.uleb128 0x3a
 6924 0197 21       		.uleb128 0x21
 6925 0198 01       		.sleb128 1
 6926 0199 3B       		.uleb128 0x3b
 6927 019a 0B       		.uleb128 0xb
 6928 019b 39       		.uleb128 0x39
 6929 019c 0B       		.uleb128 0xb
 6930 019d 49       		.uleb128 0x49
 6931 019e 13       		.uleb128 0x13
 6932 019f 02       		.uleb128 0x2
 6933 01a0 18       		.uleb128 0x18
 6934 01a1 00       		.byte	0
 6935 01a2 00       		.byte	0
 6936 01a3 1A       		.uleb128 0x1a
 6937 01a4 01       		.uleb128 0x1
 6938 01a5 01       		.byte	0x1
 6939 01a6 49       		.uleb128 0x49
 6940 01a7 13       		.uleb128 0x13
 6941 01a8 01       		.uleb128 0x1
 6942 01a9 13       		.uleb128 0x13
 6943 01aa 00       		.byte	0
 6944 01ab 00       		.byte	0
 6945 01ac 1B       		.uleb128 0x1b
 6946 01ad 0D       		.uleb128 0xd
 6947 01ae 00       		.byte	0
 6948 01af 03       		.uleb128 0x3
 6949 01b0 0E       		.uleb128 0xe
 6950 01b1 3A       		.uleb128 0x3a
 6951 01b2 0B       		.uleb128 0xb
 6952 01b3 3B       		.uleb128 0x3b
 6953 01b4 0B       		.uleb128 0xb
 6954 01b5 39       		.uleb128 0x39
 6955 01b6 0B       		.uleb128 0xb
 6956 01b7 49       		.uleb128 0x49
 6957 01b8 13       		.uleb128 0x13
 6958 01b9 38       		.uleb128 0x38
 6959 01ba 0B       		.uleb128 0xb
 6960 01bb 00       		.byte	0
 6961 01bc 00       		.byte	0
 6962 01bd 1C       		.uleb128 0x1c
 6963 01be 48       		.uleb128 0x48
 6964 01bf 01       		.byte	0x1
 6965 01c0 7D       		.uleb128 0x7d
 6966 01c1 01       		.uleb128 0x1
 6967 01c2 01       		.uleb128 0x1
 6968 01c3 13       		.uleb128 0x13
 6969 01c4 00       		.byte	0
 6970 01c5 00       		.byte	0
 6971 01c6 1D       		.uleb128 0x1d
 6972 01c7 48       		.uleb128 0x48
 6973 01c8 00       		.byte	0
 6974 01c9 7D       		.uleb128 0x7d
 6975 01ca 01       		.uleb128 0x1
 6976 01cb 7F       		.uleb128 0x7f
 6977 01cc 13       		.uleb128 0x13
 6978 01cd 00       		.byte	0
 6979 01ce 00       		.byte	0
 6980 01cf 1E       		.uleb128 0x1e
 6981 01d0 21       		.uleb128 0x21
 6982 01d1 00       		.byte	0
 6983 01d2 49       		.uleb128 0x49
 6984 01d3 13       		.uleb128 0x13
 6985 01d4 2F       		.uleb128 0x2f
 6986 01d5 0B       		.uleb128 0xb
 6987 01d6 00       		.byte	0
 6988 01d7 00       		.byte	0
 6989 01d8 1F       		.uleb128 0x1f
 6990 01d9 04       		.uleb128 0x4
 6991 01da 01       		.byte	0x1
 6992 01db 3E       		.uleb128 0x3e
 6993 01dc 21       		.uleb128 0x21
 6994 01dd 07       		.sleb128 7
 6995 01de 0B       		.uleb128 0xb
 6996 01df 21       		.uleb128 0x21
 6997 01e0 04       		.sleb128 4
 6998 01e1 49       		.uleb128 0x49
 6999 01e2 13       		.uleb128 0x13
 7000 01e3 3A       		.uleb128 0x3a
 7001 01e4 0B       		.uleb128 0xb
 7002 01e5 3B       		.uleb128 0x3b
 7003 01e6 0B       		.uleb128 0xb
 7004 01e7 39       		.uleb128 0x39
 7005 01e8 21       		.uleb128 0x21
 7006 01e9 0E       		.sleb128 14
 7007 01ea 01       		.uleb128 0x1
 7008 01eb 13       		.uleb128 0x13
 7009 01ec 00       		.byte	0
 7010 01ed 00       		.byte	0
 7011 01ee 20       		.uleb128 0x20
 7012 01ef 13       		.uleb128 0x13
 7013 01f0 01       		.byte	0x1
 7014 01f1 03       		.uleb128 0x3
 7015 01f2 08       		.uleb128 0x8
 7016 01f3 0B       		.uleb128 0xb
 7017 01f4 0B       		.uleb128 0xb
 7018 01f5 3A       		.uleb128 0x3a
 7019 01f6 0B       		.uleb128 0xb
 7020 01f7 3B       		.uleb128 0x3b
 7021 01f8 0B       		.uleb128 0xb
 7022 01f9 39       		.uleb128 0x39
 7023 01fa 21       		.uleb128 0x21
 7024 01fb 10       		.sleb128 16
 7025 01fc 01       		.uleb128 0x1
 7026 01fd 13       		.uleb128 0x13
 7027 01fe 00       		.byte	0
 7028 01ff 00       		.byte	0
 7029 0200 21       		.uleb128 0x21
 7030 0201 13       		.uleb128 0x13
 7031 0202 01       		.byte	0x1
 7032 0203 03       		.uleb128 0x3
 7033 0204 08       		.uleb128 0x8
 7034 0205 0B       		.uleb128 0xb
 7035 0206 0B       		.uleb128 0xb
 7036 0207 3A       		.uleb128 0x3a
 7037 0208 0B       		.uleb128 0xb
 7038 0209 3B       		.uleb128 0x3b
 7039 020a 05       		.uleb128 0x5
 7040 020b 39       		.uleb128 0x39
 7041 020c 21       		.uleb128 0x21
 7042 020d 10       		.sleb128 16
 7043 020e 01       		.uleb128 0x1
 7044 020f 13       		.uleb128 0x13
 7045 0210 00       		.byte	0
 7046 0211 00       		.byte	0
 7047 0212 22       		.uleb128 0x22
 7048 0213 15       		.uleb128 0x15
 7049 0214 01       		.byte	0x1
 7050 0215 27       		.uleb128 0x27
 7051 0216 19       		.uleb128 0x19
 7052 0217 01       		.uleb128 0x1
 7053 0218 13       		.uleb128 0x13
 7054 0219 00       		.byte	0
 7055 021a 00       		.byte	0
 7056 021b 23       		.uleb128 0x23
 7057 021c 13       		.uleb128 0x13
 7058 021d 01       		.byte	0x1
 7059 021e 0B       		.uleb128 0xb
 7060 021f 0B       		.uleb128 0xb
 7061 0220 3A       		.uleb128 0x3a
 7062 0221 21       		.uleb128 0x21
 7063 0222 08       		.sleb128 8
 7064 0223 3B       		.uleb128 0x3b
 7065 0224 05       		.uleb128 0x5
 7066 0225 39       		.uleb128 0x39
 7067 0226 21       		.uleb128 0x21
 7068 0227 09       		.sleb128 9
 7069 0228 01       		.uleb128 0x1
 7070 0229 13       		.uleb128 0x13
 7071 022a 00       		.byte	0
 7072 022b 00       		.byte	0
 7073 022c 24       		.uleb128 0x24
 7074 022d 2E       		.uleb128 0x2e
 7075 022e 01       		.byte	0x1
 7076 022f 3F       		.uleb128 0x3f
 7077 0230 19       		.uleb128 0x19
 7078 0231 03       		.uleb128 0x3
 7079 0232 08       		.uleb128 0x8
 7080 0233 3A       		.uleb128 0x3a
 7081 0234 21       		.uleb128 0x21
 7082 0235 0C       		.sleb128 12
 7083 0236 3B       		.uleb128 0x3b
 7084 0237 05       		.uleb128 0x5
 7085 0238 39       		.uleb128 0x39
 7086 0239 21       		.uleb128 0x21
 7087 023a 01       		.sleb128 1
 7088 023b 27       		.uleb128 0x27
 7089 023c 19       		.uleb128 0x19
 7090 023d 49       		.uleb128 0x49
 7091 023e 13       		.uleb128 0x13
 7092 023f 3C       		.uleb128 0x3c
 7093 0240 19       		.uleb128 0x19
 7094 0241 01       		.uleb128 0x1
 7095 0242 13       		.uleb128 0x13
 7096 0243 00       		.byte	0
 7097 0244 00       		.byte	0
 7098 0245 25       		.uleb128 0x25
 7099 0246 48       		.uleb128 0x48
 7100 0247 01       		.byte	0x1
 7101 0248 7D       		.uleb128 0x7d
 7102 0249 01       		.uleb128 0x1
 7103 024a 00       		.byte	0
 7104 024b 00       		.byte	0
 7105 024c 26       		.uleb128 0x26
 7106 024d 26       		.uleb128 0x26
 7107 024e 00       		.byte	0
 7108 024f 49       		.uleb128 0x49
 7109 0250 13       		.uleb128 0x13
 7110 0251 00       		.byte	0
 7111 0252 00       		.byte	0
 7112 0253 27       		.uleb128 0x27
 7113 0254 04       		.uleb128 0x4
 7114 0255 01       		.byte	0x1
 7115 0256 3E       		.uleb128 0x3e
 7116 0257 21       		.uleb128 0x21
 7117 0258 07       		.sleb128 7
 7118 0259 0B       		.uleb128 0xb
 7119 025a 21       		.uleb128 0x21
 7120 025b 04       		.sleb128 4
 7121 025c 49       		.uleb128 0x49
 7122 025d 13       		.uleb128 0x13
 7123 025e 3A       		.uleb128 0x3a
 7124 025f 21       		.uleb128 0x21
 7125 0260 08       		.sleb128 8
 7126 0261 3B       		.uleb128 0x3b
 7127 0262 05       		.uleb128 0x5
 7128 0263 39       		.uleb128 0x39
 7129 0264 21       		.uleb128 0x21
 7130 0265 0E       		.sleb128 14
 7131 0266 01       		.uleb128 0x1
 7132 0267 13       		.uleb128 0x13
 7133 0268 00       		.byte	0
 7134 0269 00       		.byte	0
 7135 026a 28       		.uleb128 0x28
 7136 026b 0D       		.uleb128 0xd
 7137 026c 00       		.byte	0
 7138 026d 03       		.uleb128 0x3
 7139 026e 08       		.uleb128 0x8
 7140 026f 3A       		.uleb128 0x3a
 7141 0270 21       		.uleb128 0x21
 7142 0271 0B       		.sleb128 11
 7143 0272 3B       		.uleb128 0x3b
 7144 0273 0B       		.uleb128 0xb
 7145 0274 39       		.uleb128 0x39
 7146 0275 21       		.uleb128 0x21
 7147 0276 1D       		.sleb128 29
 7148 0277 49       		.uleb128 0x49
 7149 0278 13       		.uleb128 0x13
 7150 0279 38       		.uleb128 0x38
 7151 027a 05       		.uleb128 0x5
 7152 027b 00       		.byte	0
 7153 027c 00       		.byte	0
 7154 027d 29       		.uleb128 0x29
 7155 027e 2E       		.uleb128 0x2e
 7156 027f 01       		.byte	0x1
 7157 0280 3F       		.uleb128 0x3f
 7158 0281 19       		.uleb128 0x19
 7159 0282 03       		.uleb128 0x3
 7160 0283 08       		.uleb128 0x8
 7161 0284 3A       		.uleb128 0x3a
 7162 0285 21       		.uleb128 0x21
 7163 0286 0D       		.sleb128 13
 7164 0287 3B       		.uleb128 0x3b
 7165 0288 0B       		.uleb128 0xb
 7166 0289 39       		.uleb128 0x39
 7167 028a 21       		.uleb128 0x21
 7168 028b 01       		.sleb128 1
 7169 028c 27       		.uleb128 0x27
 7170 028d 19       		.uleb128 0x19
 7171 028e 49       		.uleb128 0x49
 7172 028f 13       		.uleb128 0x13
 7173 0290 3C       		.uleb128 0x3c
 7174 0291 19       		.uleb128 0x19
 7175 0292 01       		.uleb128 0x1
 7176 0293 13       		.uleb128 0x13
 7177 0294 00       		.byte	0
 7178 0295 00       		.byte	0
 7179 0296 2A       		.uleb128 0x2a
 7180 0297 2E       		.uleb128 0x2e
 7181 0298 01       		.byte	0x1
 7182 0299 3F       		.uleb128 0x3f
 7183 029a 19       		.uleb128 0x19
 7184 029b 03       		.uleb128 0x3
 7185 029c 08       		.uleb128 0x8
 7186 029d 3A       		.uleb128 0x3a
 7187 029e 21       		.uleb128 0x21
 7188 029f 0D       		.sleb128 13
 7189 02a0 3B       		.uleb128 0x3b
 7190 02a1 0B       		.uleb128 0xb
 7191 02a2 39       		.uleb128 0x39
 7192 02a3 21       		.uleb128 0x21
 7193 02a4 01       		.sleb128 1
 7194 02a5 27       		.uleb128 0x27
 7195 02a6 19       		.uleb128 0x19
 7196 02a7 3C       		.uleb128 0x3c
 7197 02a8 19       		.uleb128 0x19
 7198 02a9 01       		.uleb128 0x1
 7199 02aa 13       		.uleb128 0x13
 7200 02ab 00       		.byte	0
 7201 02ac 00       		.byte	0
 7202 02ad 2B       		.uleb128 0x2b
 7203 02ae 49       		.uleb128 0x49
 7204 02af 00       		.byte	0
 7205 02b0 02       		.uleb128 0x2
 7206 02b1 18       		.uleb128 0x18
 7207 02b2 00       		.byte	0
 7208 02b3 00       		.byte	0
 7209 02b4 2C       		.uleb128 0x2c
 7210 02b5 34       		.uleb128 0x34
 7211 02b6 00       		.byte	0
 7212 02b7 03       		.uleb128 0x3
 7213 02b8 08       		.uleb128 0x8
 7214 02b9 3A       		.uleb128 0x3a
 7215 02ba 21       		.uleb128 0x21
 7216 02bb 01       		.sleb128 1
 7217 02bc 3B       		.uleb128 0x3b
 7218 02bd 0B       		.uleb128 0xb
 7219 02be 39       		.uleb128 0x39
 7220 02bf 0B       		.uleb128 0xb
 7221 02c0 49       		.uleb128 0x49
 7222 02c1 13       		.uleb128 0x13
 7223 02c2 02       		.uleb128 0x2
 7224 02c3 17       		.uleb128 0x17
 7225 02c4 B742     		.uleb128 0x2137
 7226 02c6 17       		.uleb128 0x17
 7227 02c7 00       		.byte	0
 7228 02c8 00       		.byte	0
 7229 02c9 2D       		.uleb128 0x2d
 7230 02ca 2E       		.uleb128 0x2e
 7231 02cb 01       		.byte	0x1
 7232 02cc 3F       		.uleb128 0x3f
 7233 02cd 19       		.uleb128 0x19
 7234 02ce 03       		.uleb128 0x3
 7235 02cf 08       		.uleb128 0x8
 7236 02d0 3A       		.uleb128 0x3a
 7237 02d1 21       		.uleb128 0x21
 7238 02d2 01       		.sleb128 1
 7239 02d3 3B       		.uleb128 0x3b
 7240 02d4 0B       		.uleb128 0xb
 7241 02d5 39       		.uleb128 0x39
 7242 02d6 21       		.uleb128 0x21
 7243 02d7 01       		.sleb128 1
 7244 02d8 27       		.uleb128 0x27
 7245 02d9 19       		.uleb128 0x19
 7246 02da 11       		.uleb128 0x11
 7247 02db 01       		.uleb128 0x1
 7248 02dc 12       		.uleb128 0x12
 7249 02dd 07       		.uleb128 0x7
 7250 02de 40       		.uleb128 0x40
 7251 02df 18       		.uleb128 0x18
 7252 02e0 7A       		.uleb128 0x7a
 7253 02e1 19       		.uleb128 0x19
 7254 02e2 01       		.uleb128 0x1
 7255 02e3 13       		.uleb128 0x13
 7256 02e4 00       		.byte	0
 7257 02e5 00       		.byte	0
 7258 02e6 2E       		.uleb128 0x2e
 7259 02e7 18       		.uleb128 0x18
 7260 02e8 00       		.byte	0
 7261 02e9 00       		.byte	0
 7262 02ea 00       		.byte	0
 7263 02eb 2F       		.uleb128 0x2f
 7264 02ec 34       		.uleb128 0x34
 7265 02ed 00       		.byte	0
 7266 02ee 03       		.uleb128 0x3
 7267 02ef 0E       		.uleb128 0xe
 7268 02f0 3A       		.uleb128 0x3a
 7269 02f1 21       		.uleb128 0x21
 7270 02f2 01       		.sleb128 1
 7271 02f3 3B       		.uleb128 0x3b
 7272 02f4 05       		.uleb128 0x5
 7273 02f5 39       		.uleb128 0x39
 7274 02f6 0B       		.uleb128 0xb
 7275 02f7 49       		.uleb128 0x49
 7276 02f8 13       		.uleb128 0x13
 7277 02f9 02       		.uleb128 0x2
 7278 02fa 18       		.uleb128 0x18
 7279 02fb 00       		.byte	0
 7280 02fc 00       		.byte	0
 7281 02fd 30       		.uleb128 0x30
 7282 02fe 11       		.uleb128 0x11
 7283 02ff 01       		.byte	0x1
 7284 0300 25       		.uleb128 0x25
 7285 0301 08       		.uleb128 0x8
 7286 0302 13       		.uleb128 0x13
 7287 0303 0B       		.uleb128 0xb
 7288 0304 03       		.uleb128 0x3
 7289 0305 1F       		.uleb128 0x1f
 7290 0306 1B       		.uleb128 0x1b
 7291 0307 1F       		.uleb128 0x1f
 7292 0308 11       		.uleb128 0x11
 7293 0309 01       		.uleb128 0x1
 7294 030a 12       		.uleb128 0x12
 7295 030b 07       		.uleb128 0x7
 7296 030c 10       		.uleb128 0x10
 7297 030d 17       		.uleb128 0x17
 7298 030e 79       		.uleb128 0x79
 7299 030f 17       		.uleb128 0x17
 7300 0310 00       		.byte	0
 7301 0311 00       		.byte	0
 7302 0312 31       		.uleb128 0x31
 7303 0313 16       		.uleb128 0x16
 7304 0314 00       		.byte	0
 7305 0315 03       		.uleb128 0x3
 7306 0316 08       		.uleb128 0x8
 7307 0317 3A       		.uleb128 0x3a
 7308 0318 0B       		.uleb128 0xb
 7309 0319 3B       		.uleb128 0x3b
 7310 031a 0B       		.uleb128 0xb
 7311 031b 39       		.uleb128 0x39
 7312 031c 0B       		.uleb128 0xb
 7313 031d 00       		.byte	0
 7314 031e 00       		.byte	0
 7315 031f 32       		.uleb128 0x32
 7316 0320 13       		.uleb128 0x13
 7317 0321 01       		.byte	0x1
 7318 0322 03       		.uleb128 0x3
 7319 0323 08       		.uleb128 0x8
 7320 0324 0B       		.uleb128 0xb
 7321 0325 05       		.uleb128 0x5
 7322 0326 3A       		.uleb128 0x3a
 7323 0327 0B       		.uleb128 0xb
 7324 0328 3B       		.uleb128 0x3b
 7325 0329 05       		.uleb128 0x5
 7326 032a 39       		.uleb128 0x39
 7327 032b 0B       		.uleb128 0xb
 7328 032c 01       		.uleb128 0x1
 7329 032d 13       		.uleb128 0x13
 7330 032e 00       		.byte	0
 7331 032f 00       		.byte	0
 7332 0330 33       		.uleb128 0x33
 7333 0331 13       		.uleb128 0x13
 7334 0332 01       		.byte	0x1
 7335 0333 0B       		.uleb128 0xb
 7336 0334 05       		.uleb128 0x5
 7337 0335 3A       		.uleb128 0x3a
 7338 0336 0B       		.uleb128 0xb
 7339 0337 3B       		.uleb128 0x3b
 7340 0338 0B       		.uleb128 0xb
 7341 0339 39       		.uleb128 0x39
 7342 033a 0B       		.uleb128 0xb
 7343 033b 01       		.uleb128 0x1
 7344 033c 13       		.uleb128 0x13
 7345 033d 00       		.byte	0
 7346 033e 00       		.byte	0
 7347 033f 34       		.uleb128 0x34
 7348 0340 0D       		.uleb128 0xd
 7349 0341 00       		.byte	0
 7350 0342 03       		.uleb128 0x3
 7351 0343 0E       		.uleb128 0xe
 7352 0344 3A       		.uleb128 0x3a
 7353 0345 0B       		.uleb128 0xb
 7354 0346 3B       		.uleb128 0x3b
 7355 0347 0B       		.uleb128 0xb
 7356 0348 39       		.uleb128 0x39
 7357 0349 0B       		.uleb128 0xb
 7358 034a 49       		.uleb128 0x49
 7359 034b 13       		.uleb128 0x13
 7360 034c 38       		.uleb128 0x38
 7361 034d 05       		.uleb128 0x5
 7362 034e 00       		.byte	0
 7363 034f 00       		.byte	0
 7364 0350 35       		.uleb128 0x35
 7365 0351 21       		.uleb128 0x21
 7366 0352 00       		.byte	0
 7367 0353 49       		.uleb128 0x49
 7368 0354 13       		.uleb128 0x13
 7369 0355 2F       		.uleb128 0x2f
 7370 0356 05       		.uleb128 0x5
 7371 0357 00       		.byte	0
 7372 0358 00       		.byte	0
 7373 0359 36       		.uleb128 0x36
 7374 035a 34       		.uleb128 0x34
 7375 035b 00       		.byte	0
 7376 035c 03       		.uleb128 0x3
 7377 035d 08       		.uleb128 0x8
 7378 035e 3A       		.uleb128 0x3a
 7379 035f 0B       		.uleb128 0xb
 7380 0360 3B       		.uleb128 0x3b
 7381 0361 05       		.uleb128 0x5
 7382 0362 39       		.uleb128 0x39
 7383 0363 0B       		.uleb128 0xb
 7384 0364 49       		.uleb128 0x49
 7385 0365 13       		.uleb128 0x13
 7386 0366 02       		.uleb128 0x2
 7387 0367 18       		.uleb128 0x18
 7388 0368 00       		.byte	0
 7389 0369 00       		.byte	0
 7390 036a 37       		.uleb128 0x37
 7391 036b 2E       		.uleb128 0x2e
 7392 036c 01       		.byte	0x1
 7393 036d 3F       		.uleb128 0x3f
 7394 036e 19       		.uleb128 0x19
 7395 036f 03       		.uleb128 0x3
 7396 0370 0E       		.uleb128 0xe
 7397 0371 3A       		.uleb128 0x3a
 7398 0372 0B       		.uleb128 0xb
 7399 0373 3B       		.uleb128 0x3b
 7400 0374 0B       		.uleb128 0xb
 7401 0375 39       		.uleb128 0x39
 7402 0376 0B       		.uleb128 0xb
 7403 0377 27       		.uleb128 0x27
 7404 0378 19       		.uleb128 0x19
 7405 0379 11       		.uleb128 0x11
 7406 037a 01       		.uleb128 0x1
 7407 037b 12       		.uleb128 0x12
 7408 037c 07       		.uleb128 0x7
 7409 037d 40       		.uleb128 0x40
 7410 037e 18       		.uleb128 0x18
 7411 037f 7A       		.uleb128 0x7a
 7412 0380 19       		.uleb128 0x19
 7413 0381 01       		.uleb128 0x1
 7414 0382 13       		.uleb128 0x13
 7415 0383 00       		.byte	0
 7416 0384 00       		.byte	0
 7417 0385 38       		.uleb128 0x38
 7418 0386 2E       		.uleb128 0x2e
 7419 0387 01       		.byte	0x1
 7420 0388 3F       		.uleb128 0x3f
 7421 0389 19       		.uleb128 0x19
 7422 038a 03       		.uleb128 0x3
 7423 038b 0E       		.uleb128 0xe
 7424 038c 3A       		.uleb128 0x3a
 7425 038d 0B       		.uleb128 0xb
 7426 038e 3B       		.uleb128 0x3b
 7427 038f 0B       		.uleb128 0xb
 7428 0390 39       		.uleb128 0x39
 7429 0391 0B       		.uleb128 0xb
 7430 0392 27       		.uleb128 0x27
 7431 0393 19       		.uleb128 0x19
 7432 0394 49       		.uleb128 0x49
 7433 0395 13       		.uleb128 0x13
 7434 0396 11       		.uleb128 0x11
 7435 0397 01       		.uleb128 0x1
 7436 0398 12       		.uleb128 0x12
 7437 0399 07       		.uleb128 0x7
 7438 039a 40       		.uleb128 0x40
 7439 039b 18       		.uleb128 0x18
 7440 039c 7A       		.uleb128 0x7a
 7441 039d 19       		.uleb128 0x19
 7442 039e 00       		.byte	0
 7443 039f 00       		.byte	0
 7444 03a0 39       		.uleb128 0x39
 7445 03a1 34       		.uleb128 0x34
 7446 03a2 00       		.byte	0
 7447 03a3 03       		.uleb128 0x3
 7448 03a4 0E       		.uleb128 0xe
 7449 03a5 3A       		.uleb128 0x3a
 7450 03a6 0B       		.uleb128 0xb
 7451 03a7 3B       		.uleb128 0x3b
 7452 03a8 0B       		.uleb128 0xb
 7453 03a9 39       		.uleb128 0x39
 7454 03aa 0B       		.uleb128 0xb
 7455 03ab 49       		.uleb128 0x49
 7456 03ac 13       		.uleb128 0x13
 7457 03ad 02       		.uleb128 0x2
 7458 03ae 17       		.uleb128 0x17
 7459 03af B742     		.uleb128 0x2137
 7460 03b1 17       		.uleb128 0x17
 7461 03b2 00       		.byte	0
 7462 03b3 00       		.byte	0
 7463 03b4 3A       		.uleb128 0x3a
 7464 03b5 34       		.uleb128 0x34
 7465 03b6 00       		.byte	0
 7466 03b7 03       		.uleb128 0x3
 7467 03b8 08       		.uleb128 0x8
 7468 03b9 3A       		.uleb128 0x3a
 7469 03ba 0B       		.uleb128 0xb
 7470 03bb 3B       		.uleb128 0x3b
 7471 03bc 0B       		.uleb128 0xb
 7472 03bd 39       		.uleb128 0x39
 7473 03be 0B       		.uleb128 0xb
 7474 03bf 49       		.uleb128 0x49
 7475 03c0 13       		.uleb128 0x13
 7476 03c1 02       		.uleb128 0x2
 7477 03c2 18       		.uleb128 0x18
 7478 03c3 00       		.byte	0
 7479 03c4 00       		.byte	0
 7480 03c5 00       		.byte	0
 7481              		.section	.debug_loclists,"dr"
 7482 0000 6C0A0000 		.long	.Ldebug_loc3-.Ldebug_loc2
 7483              	.Ldebug_loc2:
 7484 0004 0500     		.word	0x5
 7485 0006 08       		.byte	0x8
 7486 0007 00       		.byte	0
 7487 0008 00000000 		.long	0
 7488              	.Ldebug_loc0:
 7489              	.LVUS66:
 7490 000c 00       		.uleb128 0
 7491 000d 00       		.uleb128 .LVU374
 7492 000e 00       		.uleb128 .LVU374
 7493 000f 00       		.uleb128 .LVU405
 7494 0010 00       		.uleb128 .LVU405
 7495 0011 00       		.uleb128 .LVU407
 7496 0012 00       		.uleb128 .LVU407
 7497 0013 00       		.uleb128 0
 7498              	.LLST66:
 7499 0014 04       		.byte	0x4
 7500 0015 A50E     		.uleb128 .LVL137-.Ltext0
 7501 0017 D50E     		.uleb128 .LVL140-1-.Ltext0
 7502 0019 01       		.uleb128 0x1
 7503 001a 52       		.byte	0x52
 7504 001b 04       		.byte	0x4
 7505 001c D50E     		.uleb128 .LVL140-1-.Ltext0
 7506 001e C50F     		.uleb128 .LVL156-.Ltext0
 7507 0020 01       		.uleb128 0x1
 7508 0021 56       		.byte	0x56
 7509 0022 04       		.byte	0x4
 7510 0023 C50F     		.uleb128 .LVL156-.Ltext0
 7511 0025 C80F     		.uleb128 .LVL158-.Ltext0
 7512 0027 04       		.uleb128 0x4
 7513 0028 A3       		.byte	0xa3
 7514 0029 01       		.uleb128 0x1
 7515 002a 52       		.byte	0x52
 7516 002b 9F       		.byte	0x9f
 7517 002c 04       		.byte	0x4
 7518 002d C80F     		.uleb128 .LVL158-.Ltext0
 7519 002f E20F     		.uleb128 .LFE22-.Ltext0
 7520 0031 01       		.uleb128 0x1
 7521 0032 56       		.byte	0x56
 7522 0033 00       		.byte	0
 7523              	.LVUS67:
 7524 0034 00       		.uleb128 0
 7525 0035 00       		.uleb128 .LVU373
 7526 0036 00       		.uleb128 .LVU373
 7527 0037 00       		.uleb128 .LVU403
 7528 0038 00       		.uleb128 .LVU403
 7529 0039 00       		.uleb128 .LVU407
 7530 003a 00       		.uleb128 .LVU407
 7531 003b 00       		.uleb128 0
 7532              	.LLST67:
 7533 003c 04       		.byte	0x4
 7534 003d A50E     		.uleb128 .LVL137-.Ltext0
 7535 003f D00E     		.uleb128 .LVL139-.Ltext0
 7536 0041 01       		.uleb128 0x1
 7537 0042 51       		.byte	0x51
 7538 0043 04       		.byte	0x4
 7539 0044 D00E     		.uleb128 .LVL139-.Ltext0
 7540 0046 C30F     		.uleb128 .LVL154-.Ltext0
 7541 0048 01       		.uleb128 0x1
 7542 0049 54       		.byte	0x54
 7543 004a 04       		.byte	0x4
 7544 004b C30F     		.uleb128 .LVL154-.Ltext0
 7545 004d C80F     		.uleb128 .LVL158-.Ltext0
 7546 004f 04       		.uleb128 0x4
 7547 0050 A3       		.byte	0xa3
 7548 0051 01       		.uleb128 0x1
 7549 0052 51       		.byte	0x51
 7550 0053 9F       		.byte	0x9f
 7551 0054 04       		.byte	0x4
 7552 0055 C80F     		.uleb128 .LVL158-.Ltext0
 7553 0057 E20F     		.uleb128 .LFE22-.Ltext0
 7554 0059 01       		.uleb128 0x1
 7555 005a 54       		.byte	0x54
 7556 005b 00       		.byte	0
 7557              	.LVUS68:
 7558 005c 00       		.uleb128 0
 7559 005d 00       		.uleb128 .LVU372
 7560 005e 00       		.uleb128 .LVU372
 7561 005f 00       		.uleb128 .LVU404
 7562 0060 00       		.uleb128 .LVU404
 7563 0061 00       		.uleb128 .LVU407
 7564 0062 00       		.uleb128 .LVU407
 7565 0063 00       		.uleb128 0
 7566              	.LLST68:
 7567 0064 04       		.byte	0x4
 7568 0065 A50E     		.uleb128 .LVL137-.Ltext0
 7569 0067 C90E     		.uleb128 .LVL138-.Ltext0
 7570 0069 01       		.uleb128 0x1
 7571 006a 58       		.byte	0x58
 7572 006b 04       		.byte	0x4
 7573 006c C90E     		.uleb128 .LVL138-.Ltext0
 7574 006e C40F     		.uleb128 .LVL155-.Ltext0
 7575 0070 01       		.uleb128 0x1
 7576 0071 55       		.byte	0x55
 7577 0072 04       		.byte	0x4
 7578 0073 C40F     		.uleb128 .LVL155-.Ltext0
 7579 0075 C80F     		.uleb128 .LVL158-.Ltext0
 7580 0077 04       		.uleb128 0x4
 7581 0078 A3       		.byte	0xa3
 7582 0079 01       		.uleb128 0x1
 7583 007a 58       		.byte	0x58
 7584 007b 9F       		.byte	0x9f
 7585 007c 04       		.byte	0x4
 7586 007d C80F     		.uleb128 .LVL158-.Ltext0
 7587 007f E20F     		.uleb128 .LFE22-.Ltext0
 7588 0081 01       		.uleb128 0x1
 7589 0082 55       		.byte	0x55
 7590 0083 00       		.byte	0
 7591              	.LVUS69:
 7592 0084 00       		.uleb128 0
 7593 0085 00       		.uleb128 .LVU374
 7594 0086 00       		.uleb128 .LVU374
 7595 0087 00       		.uleb128 .LVU406
 7596 0088 00       		.uleb128 .LVU406
 7597 0089 00       		.uleb128 0
 7598              	.LLST69:
 7599 008a 04       		.byte	0x4
 7600 008b A50E     		.uleb128 .LVL137-.Ltext0
 7601 008d D50E     		.uleb128 .LVL140-1-.Ltext0
 7602 008f 01       		.uleb128 0x1
 7603 0090 59       		.byte	0x59
 7604 0091 04       		.byte	0x4
 7605 0092 D50E     		.uleb128 .LVL140-1-.Ltext0
 7606 0094 C70F     		.uleb128 .LVL157-.Ltext0
 7607 0096 01       		.uleb128 0x1
 7608 0097 5C       		.byte	0x5c
 7609 0098 04       		.byte	0x4
 7610 0099 C70F     		.uleb128 .LVL157-.Ltext0
 7611 009b E20F     		.uleb128 .LFE22-.Ltext0
 7612 009d 04       		.uleb128 0x4
 7613 009e A3       		.byte	0xa3
 7614 009f 01       		.uleb128 0x1
 7615 00a0 59       		.byte	0x59
 7616 00a1 9F       		.byte	0x9f
 7617 00a2 00       		.byte	0
 7618              	.LVUS70:
 7619 00a3 01       		.uleb128 .LVU377
 7620 00a4 00       		.uleb128 .LVU381
 7621 00a5 00       		.uleb128 .LVU387
 7622 00a6 00       		.uleb128 .LVU394
 7623              	.LLST70:
 7624 00a7 04       		.byte	0x4
 7625 00a8 DB0E     		.uleb128 .LVL141-.Ltext0
 7626 00aa EB0E     		.uleb128 .LVL144-.Ltext0
 7627 00ac 02       		.uleb128 0x2
 7628 00ad 30       		.byte	0x30
 7629 00ae 9F       		.byte	0x9f
 7630 00af 04       		.byte	0x4
 7631 00b0 8C0F     		.uleb128 .LVL147-.Ltext0
 7632 00b2 A10F     		.uleb128 .LVL151-.Ltext0
 7633 00b4 01       		.uleb128 0x1
 7634 00b5 50       		.byte	0x50
 7635 00b6 00       		.byte	0
 7636              	.LVUS71:
 7637 00b7 00       		.uleb128 .LVU379
 7638 00b8 00       		.uleb128 .LVU381
 7639 00b9 00       		.uleb128 .LVU387
 7640 00ba 00       		.uleb128 .LVU402
 7641 00bb 00       		.uleb128 .LVU407
 7642 00bc 00       		.uleb128 0
 7643              	.LLST71:
 7644 00bd 04       		.byte	0x4
 7645 00be E40E     		.uleb128 .LVL143-.Ltext0
 7646 00c0 EB0E     		.uleb128 .LVL144-.Ltext0
 7647 00c2 01       		.uleb128 0x1
 7648 00c3 53       		.byte	0x53
 7649 00c4 04       		.byte	0x4
 7650 00c5 8C0F     		.uleb128 .LVL147-.Ltext0
 7651 00c7 BA0F     		.uleb128 .LVL153-.Ltext0
 7652 00c9 01       		.uleb128 0x1
 7653 00ca 53       		.byte	0x53
 7654 00cb 04       		.byte	0x4
 7655 00cc C80F     		.uleb128 .LVL158-.Ltext0
 7656 00ce E20F     		.uleb128 .LFE22-.Ltext0
 7657 00d0 01       		.uleb128 0x1
 7658 00d1 53       		.byte	0x53
 7659 00d2 00       		.byte	0
 7660              	.LVUS72:
 7661 00d3 00       		.uleb128 .LVU374
 7662 00d4 00       		.uleb128 .LVU378
 7663 00d5 00       		.uleb128 .LVU381
 7664 00d6 00       		.uleb128 .LVU386
 7665              	.LLST72:
 7666 00d7 04       		.byte	0x4
 7667 00d8 D60E     		.uleb128 .LVL140-.Ltext0
 7668 00da E00E     		.uleb128 .LVL142-.Ltext0
 7669 00dc 01       		.uleb128 0x1
 7670 00dd 50       		.byte	0x50
 7671 00de 04       		.byte	0x4
 7672 00df EB0E     		.uleb128 .LVL144-.Ltext0
 7673 00e1 FE0E     		.uleb128 .LVL145-1-.Ltext0
 7674 00e3 01       		.uleb128 0x1
 7675 00e4 50       		.byte	0x50
 7676 00e5 00       		.byte	0
 7677              	.LVUS63:
 7678 00e6 00       		.uleb128 0
 7679 00e7 00       		.uleb128 .LVU344
 7680 00e8 00       		.uleb128 .LVU344
 7681 00e9 00       		.uleb128 .LVU363
 7682 00ea 00       		.uleb128 .LVU363
 7683 00eb 00       		.uleb128 0
 7684              	.LLST63:
 7685 00ec 04       		.byte	0x4
 7686 00ed B10D     		.uleb128 .LVL129-.Ltext0
 7687 00ef C60D     		.uleb128 .LVL131-.Ltext0
 7688 00f1 01       		.uleb128 0x1
 7689 00f2 52       		.byte	0x52
 7690 00f3 04       		.byte	0x4
 7691 00f4 C60D     		.uleb128 .LVL131-.Ltext0
 7692 00f6 A40E     		.uleb128 .LVL136-.Ltext0
 7693 00f8 01       		.uleb128 0x1
 7694 00f9 56       		.byte	0x56
 7695 00fa 04       		.byte	0x4
 7696 00fb A40E     		.uleb128 .LVL136-.Ltext0
 7697 00fd A50E     		.uleb128 .LFE21-.Ltext0
 7698 00ff 04       		.uleb128 0x4
 7699 0100 A3       		.byte	0xa3
 7700 0101 01       		.uleb128 0x1
 7701 0102 52       		.byte	0x52
 7702 0103 9F       		.byte	0x9f
 7703 0104 00       		.byte	0
 7704              	.LVUS64:
 7705 0105 00       		.uleb128 0
 7706 0106 00       		.uleb128 .LVU344
 7707 0107 00       		.uleb128 .LVU344
 7708 0108 00       		.uleb128 .LVU362
 7709 0109 00       		.uleb128 .LVU362
 7710 010a 00       		.uleb128 0
 7711              	.LLST64:
 7712 010b 04       		.byte	0x4
 7713 010c B10D     		.uleb128 .LVL129-.Ltext0
 7714 010e C60D     		.uleb128 .LVL131-.Ltext0
 7715 0110 01       		.uleb128 0x1
 7716 0111 51       		.byte	0x51
 7717 0112 04       		.byte	0x4
 7718 0113 C60D     		.uleb128 .LVL131-.Ltext0
 7719 0115 A30E     		.uleb128 .LVL135-.Ltext0
 7720 0117 01       		.uleb128 0x1
 7721 0118 55       		.byte	0x55
 7722 0119 04       		.byte	0x4
 7723 011a A30E     		.uleb128 .LVL135-.Ltext0
 7724 011c A50E     		.uleb128 .LFE21-.Ltext0
 7725 011e 04       		.uleb128 0x4
 7726 011f A3       		.byte	0xa3
 7727 0120 01       		.uleb128 0x1
 7728 0121 51       		.byte	0x51
 7729 0122 9F       		.byte	0x9f
 7730 0123 00       		.byte	0
 7731              	.LVUS65:
 7732 0124 02       		.uleb128 .LVU342
 7733 0125 00       		.uleb128 .LVU344
 7734 0126 00       		.uleb128 .LVU344
 7735 0127 00       		.uleb128 .LVU361
 7736              	.LLST65:
 7737 0128 04       		.byte	0x4
 7738 0129 BF0D     		.uleb128 .LVL130-.Ltext0
 7739 012b C60D     		.uleb128 .LVL131-.Ltext0
 7740 012d 02       		.uleb128 0x2
 7741 012e 30       		.byte	0x30
 7742 012f 9F       		.byte	0x9f
 7743 0130 04       		.byte	0x4
 7744 0131 C60D     		.uleb128 .LVL131-.Ltext0
 7745 0133 A10E     		.uleb128 .LVL134-.Ltext0
 7746 0135 01       		.uleb128 0x1
 7747 0136 53       		.byte	0x53
 7748 0137 00       		.byte	0
 7749              	.LVUS62:
 7750 0138 00       		.uleb128 0
 7751 0139 00       		.uleb128 .LVU337
 7752 013a 00       		.uleb128 .LVU337
 7753 013b 00       		.uleb128 0
 7754              	.LLST62:
 7755 013c 04       		.byte	0x4
 7756 013d A00D     		.uleb128 .LVL127-.Ltext0
 7757 013f AB0D     		.uleb128 .LVL128-1-.Ltext0
 7758 0141 01       		.uleb128 0x1
 7759 0142 52       		.byte	0x52
 7760 0143 04       		.byte	0x4
 7761 0144 AB0D     		.uleb128 .LVL128-1-.Ltext0
 7762 0146 B10D     		.uleb128 .LFE20-.Ltext0
 7763 0148 04       		.uleb128 0x4
 7764 0149 A3       		.byte	0xa3
 7765 014a 01       		.uleb128 0x1
 7766 014b 52       		.byte	0x52
 7767 014c 9F       		.byte	0x9f
 7768 014d 00       		.byte	0
 7769              	.LVUS61:
 7770 014e 00       		.uleb128 0
 7771 014f 00       		.uleb128 .LVU331
 7772 0150 00       		.uleb128 .LVU331
 7773 0151 00       		.uleb128 0
 7774              	.LLST61:
 7775 0152 04       		.byte	0x4
 7776 0153 8F0D     		.uleb128 .LVL125-.Ltext0
 7777 0155 9A0D     		.uleb128 .LVL126-1-.Ltext0
 7778 0157 01       		.uleb128 0x1
 7779 0158 52       		.byte	0x52
 7780 0159 04       		.byte	0x4
 7781 015a 9A0D     		.uleb128 .LVL126-1-.Ltext0
 7782 015c A00D     		.uleb128 .LFE19-.Ltext0
 7783 015e 04       		.uleb128 0x4
 7784 015f A3       		.byte	0xa3
 7785 0160 01       		.uleb128 0x1
 7786 0161 52       		.byte	0x52
 7787 0162 9F       		.byte	0x9f
 7788 0163 00       		.byte	0
 7789              	.LVUS53:
 7790 0164 00       		.uleb128 0
 7791 0165 00       		.uleb128 .LVU272
 7792 0166 00       		.uleb128 .LVU272
 7793 0167 00       		.uleb128 .LVU317
 7794 0168 00       		.uleb128 .LVU317
 7795 0169 00       		.uleb128 .LVU318
 7796 016a 00       		.uleb128 .LVU318
 7797 016b 00       		.uleb128 0
 7798              	.LLST53:
 7799 016c 04       		.byte	0x4
 7800 016d A209     		.uleb128 .LVL102-.Ltext0
 7801 016f CB09     		.uleb128 .LVL103-.Ltext0
 7802 0171 01       		.uleb128 0x1
 7803 0172 52       		.byte	0x52
 7804 0173 04       		.byte	0x4
 7805 0174 CB09     		.uleb128 .LVL103-.Ltext0
 7806 0176 EA0C     		.uleb128 .LVL116-.Ltext0
 7807 0178 01       		.uleb128 0x1
 7808 0179 58       		.byte	0x58
 7809 017a 04       		.byte	0x4
 7810 017b EA0C     		.uleb128 .LVL116-.Ltext0
 7811 017d F00C     		.uleb128 .LVL117-.Ltext0
 7812 017f 01       		.uleb128 0x1
 7813 0180 52       		.byte	0x52
 7814 0181 04       		.byte	0x4
 7815 0182 F00C     		.uleb128 .LVL117-.Ltext0
 7816 0184 8F0D     		.uleb128 .LFE18-.Ltext0
 7817 0186 01       		.uleb128 0x1
 7818 0187 58       		.byte	0x58
 7819 0188 00       		.byte	0
 7820              	.LVUS54:
 7821 0189 00       		.uleb128 0
 7822 018a 00       		.uleb128 .LVU272
 7823 018b 00       		.uleb128 .LVU272
 7824 018c 00       		.uleb128 .LVU317
 7825 018d 00       		.uleb128 .LVU317
 7826 018e 00       		.uleb128 .LVU318
 7827 018f 00       		.uleb128 .LVU318
 7828 0190 00       		.uleb128 .LVU319
 7829 0191 00       		.uleb128 .LVU319
 7830 0192 00       		.uleb128 .LVU320
 7831 0193 00       		.uleb128 .LVU320
 7832 0194 00       		.uleb128 0
 7833              	.LLST54:
 7834 0195 04       		.byte	0x4
 7835 0196 A209     		.uleb128 .LVL102-.Ltext0
 7836 0198 CB09     		.uleb128 .LVL103-.Ltext0
 7837 019a 01       		.uleb128 0x1
 7838 019b 51       		.byte	0x51
 7839 019c 04       		.byte	0x4
 7840 019d CB09     		.uleb128 .LVL103-.Ltext0
 7841 019f EA0C     		.uleb128 .LVL116-.Ltext0
 7842 01a1 01       		.uleb128 0x1
 7843 01a2 53       		.byte	0x53
 7844 01a3 04       		.byte	0x4
 7845 01a4 EA0C     		.uleb128 .LVL116-.Ltext0
 7846 01a6 F00C     		.uleb128 .LVL117-.Ltext0
 7847 01a8 01       		.uleb128 0x1
 7848 01a9 51       		.byte	0x51
 7849 01aa 04       		.byte	0x4
 7850 01ab F00C     		.uleb128 .LVL117-.Ltext0
 7851 01ad F40C     		.uleb128 .LVL118-.Ltext0
 7852 01af 01       		.uleb128 0x1
 7853 01b0 53       		.byte	0x53
 7854 01b1 04       		.byte	0x4
 7855 01b2 F40C     		.uleb128 .LVL118-.Ltext0
 7856 01b4 F70C     		.uleb128 .LVL119-.Ltext0
 7857 01b6 04       		.uleb128 0x4
 7858 01b7 A3       		.byte	0xa3
 7859 01b8 01       		.uleb128 0x1
 7860 01b9 51       		.byte	0x51
 7861 01ba 9F       		.byte	0x9f
 7862 01bb 04       		.byte	0x4
 7863 01bc F70C     		.uleb128 .LVL119-.Ltext0
 7864 01be 8F0D     		.uleb128 .LFE18-.Ltext0
 7865 01c0 01       		.uleb128 0x1
 7866 01c1 53       		.byte	0x53
 7867 01c2 00       		.byte	0
 7868              	.LVUS55:
 7869 01c3 00       		.uleb128 .LVU272
 7870 01c4 00       		.uleb128 .LVU290
 7871 01c5 00       		.uleb128 .LVU290
 7872 01c6 00       		.uleb128 .LVU291
 7873 01c7 00       		.uleb128 .LVU291
 7874 01c8 00       		.uleb128 .LVU292
 7875 01c9 00       		.uleb128 .LVU302
 7876 01ca 00       		.uleb128 .LVU317
 7877 01cb 00       		.uleb128 .LVU320
 7878 01cc 00       		.uleb128 .LVU321
 7879 01cd 00       		.uleb128 .LVU321
 7880 01ce 00       		.uleb128 .LVU322
 7881 01cf 00       		.uleb128 .LVU322
 7882 01d0 00       		.uleb128 .LVU323
 7883 01d1 00       		.uleb128 .LVU323
 7884 01d2 00       		.uleb128 .LVU324
 7885 01d3 00       		.uleb128 .LVU324
 7886 01d4 00       		.uleb128 .LVU325
 7887 01d5 00       		.uleb128 .LVU325
 7888 01d6 00       		.uleb128 0
 7889              	.LLST55:
 7890 01d7 04       		.byte	0x4
 7891 01d8 CB09     		.uleb128 .LVL103-.Ltext0
 7892 01da 930B     		.uleb128 .LVL108-.Ltext0
 7893 01dc 01       		.uleb128 0x1
 7894 01dd 59       		.byte	0x59
 7895 01de 04       		.byte	0x4
 7896 01df 930B     		.uleb128 .LVL108-.Ltext0
 7897 01e1 980B     		.uleb128 .LVL109-.Ltext0
 7898 01e3 45       		.uleb128 0x45
 7899 01e4 7A       		.byte	0x7a
 7900 01e5 00       		.sleb128 0
 7901 01e6 34       		.byte	0x34
 7902 01e7 24       		.byte	0x24
 7903 01e8 78       		.byte	0x78
 7904 01e9 00       		.sleb128 0
 7905 01ea 22       		.byte	0x22
 7906 01eb 23       		.byte	0x23
 7907 01ec C703     		.uleb128 0x1c7
 7908 01ee 94       		.byte	0x94
 7909 01ef 01       		.byte	0x1
 7910 01f0 08       		.byte	0x8
 7911 01f1 FF       		.byte	0xff
 7912 01f2 1A       		.byte	0x1a
 7913 01f3 38       		.byte	0x38
 7914 01f4 24       		.byte	0x24
 7915 01f5 7A       		.byte	0x7a
 7916 01f6 00       		.sleb128 0
 7917 01f7 34       		.byte	0x34
 7918 01f8 24       		.byte	0x24
 7919 01f9 78       		.byte	0x78
 7920 01fa 00       		.sleb128 0
 7921 01fb 22       		.byte	0x22
 7922 01fc 23       		.byte	0x23
 7923 01fd C803     		.uleb128 0x1c8
 7924 01ff 94       		.byte	0x94
 7925 0200 01       		.byte	0x1
 7926 0201 08       		.byte	0x8
 7927 0202 FF       		.byte	0xff
 7928 0203 1A       		.byte	0x1a
 7929 0204 40       		.byte	0x40
 7930 0205 24       		.byte	0x24
 7931 0206 21       		.byte	0x21
 7932 0207 7A       		.byte	0x7a
 7933 0208 00       		.sleb128 0
 7934 0209 34       		.byte	0x34
 7935 020a 24       		.byte	0x24
 7936 020b 78       		.byte	0x78
 7937 020c 00       		.sleb128 0
 7938 020d 22       		.byte	0x22
 7939 020e 23       		.byte	0x23
 7940 020f C903     		.uleb128 0x1c9
 7941 0211 94       		.byte	0x94
 7942 0212 01       		.byte	0x1
 7943 0213 08       		.byte	0x8
 7944 0214 FF       		.byte	0xff
 7945 0215 1A       		.byte	0x1a
 7946 0216 48       		.byte	0x48
 7947 0217 24       		.byte	0x24
 7948 0218 21       		.byte	0x21
 7949 0219 7A       		.byte	0x7a
 7950 021a 1B       		.sleb128 27
 7951 021b 34       		.byte	0x34
 7952 021c 24       		.byte	0x24
 7953 021d 78       		.byte	0x78
 7954 021e 00       		.sleb128 0
 7955 021f 22       		.byte	0x22
 7956 0220 23       		.byte	0x23
 7957 0221 16       		.uleb128 0x16
 7958 0222 94       		.byte	0x94
 7959 0223 01       		.byte	0x1
 7960 0224 08       		.byte	0x8
 7961 0225 FF       		.byte	0xff
 7962 0226 1A       		.byte	0x1a
 7963 0227 21       		.byte	0x21
 7964 0228 9F       		.byte	0x9f
 7965 0229 04       		.byte	0x4
 7966 022a 980B     		.uleb128 .LVL109-.Ltext0
 7967 022c 9E0B     		.uleb128 .LVL110-.Ltext0
 7968 022e 01       		.uleb128 0x1
 7969 022f 59       		.byte	0x59
 7970 0230 04       		.byte	0x4
 7971 0231 B90C     		.uleb128 .LVL113-.Ltext0
 7972 0233 EA0C     		.uleb128 .LVL116-.Ltext0
 7973 0235 01       		.uleb128 0x1
 7974 0236 59       		.byte	0x59
 7975 0237 04       		.byte	0x4
 7976 0238 F70C     		.uleb128 .LVL119-.Ltext0
 7977 023a FD0C     		.uleb128 .LVL120-.Ltext0
 7978 023c 01       		.uleb128 0x1
 7979 023d 59       		.byte	0x59
 7980 023e 04       		.byte	0x4
 7981 023f FD0C     		.uleb128 .LVL120-.Ltext0
 7982 0241 FF0C     		.uleb128 .LVL121-.Ltext0
 7983 0243 36       		.uleb128 0x36
 7984 0244 7A       		.byte	0x7a
 7985 0245 00       		.sleb128 0
 7986 0246 34       		.byte	0x34
 7987 0247 24       		.byte	0x24
 7988 0248 78       		.byte	0x78
 7989 0249 00       		.sleb128 0
 7990 024a 22       		.byte	0x22
 7991 024b 23       		.byte	0x23
 7992 024c C703     		.uleb128 0x1c7
 7993 024e 94       		.byte	0x94
 7994 024f 01       		.byte	0x1
 7995 0250 08       		.byte	0x8
 7996 0251 FF       		.byte	0xff
 7997 0252 1A       		.byte	0x1a
 7998 0253 38       		.byte	0x38
 7999 0254 24       		.byte	0x24
 8000 0255 7A       		.byte	0x7a
 8001 0256 00       		.sleb128 0
 8002 0257 34       		.byte	0x34
 8003 0258 24       		.byte	0x24
 8004 0259 78       		.byte	0x78
 8005 025a 00       		.sleb128 0
 8006 025b 22       		.byte	0x22
 8007 025c 23       		.byte	0x23
 8008 025d C903     		.uleb128 0x1c9
 8009 025f 94       		.byte	0x94
 8010 0260 01       		.byte	0x1
 8011 0261 08       		.byte	0x8
 8012 0262 FF       		.byte	0xff
 8013 0263 1A       		.byte	0x1a
 8014 0264 48       		.byte	0x48
 8015 0265 24       		.byte	0x24
 8016 0266 21       		.byte	0x21
 8017 0267 7A       		.byte	0x7a
 8018 0268 1B       		.sleb128 27
 8019 0269 34       		.byte	0x34
 8020 026a 24       		.byte	0x24
 8021 026b 78       		.byte	0x78
 8022 026c 00       		.sleb128 0
 8023 026d 22       		.byte	0x22
 8024 026e 23       		.byte	0x23
 8025 026f 16       		.uleb128 0x16
 8026 0270 94       		.byte	0x94
 8027 0271 01       		.byte	0x1
 8028 0272 08       		.byte	0x8
 8029 0273 FF       		.byte	0xff
 8030 0274 1A       		.byte	0x1a
 8031 0275 21       		.byte	0x21
 8032 0276 72       		.byte	0x72
 8033 0277 00       		.sleb128 0
 8034 0278 21       		.byte	0x21
 8035 0279 9F       		.byte	0x9f
 8036 027a 04       		.byte	0x4
 8037 027b FF0C     		.uleb128 .LVL121-.Ltext0
 8038 027d 850D     		.uleb128 .LVL122-.Ltext0
 8039 027f 01       		.uleb128 0x1
 8040 0280 59       		.byte	0x59
 8041 0281 04       		.byte	0x4
 8042 0282 850D     		.uleb128 .LVL122-.Ltext0
 8043 0284 870D     		.uleb128 .LVL123-.Ltext0
 8044 0286 36       		.uleb128 0x36
 8045 0287 7A       		.byte	0x7a
 8046 0288 00       		.sleb128 0
 8047 0289 34       		.byte	0x34
 8048 028a 24       		.byte	0x24
 8049 028b 78       		.byte	0x78
 8050 028c 00       		.sleb128 0
 8051 028d 22       		.byte	0x22
 8052 028e 23       		.byte	0x23
 8053 028f C703     		.uleb128 0x1c7
 8054 0291 94       		.byte	0x94
 8055 0292 01       		.byte	0x1
 8056 0293 08       		.byte	0x8
 8057 0294 FF       		.byte	0xff
 8058 0295 1A       		.byte	0x1a
 8059 0296 38       		.byte	0x38
 8060 0297 24       		.byte	0x24
 8061 0298 7A       		.byte	0x7a
 8062 0299 00       		.sleb128 0
 8063 029a 34       		.byte	0x34
 8064 029b 24       		.byte	0x24
 8065 029c 78       		.byte	0x78
 8066 029d 00       		.sleb128 0
 8067 029e 22       		.byte	0x22
 8068 029f 23       		.byte	0x23
 8069 02a0 C903     		.uleb128 0x1c9
 8070 02a2 94       		.byte	0x94
 8071 02a3 01       		.byte	0x1
 8072 02a4 08       		.byte	0x8
 8073 02a5 FF       		.byte	0xff
 8074 02a6 1A       		.byte	0x1a
 8075 02a7 48       		.byte	0x48
 8076 02a8 24       		.byte	0x24
 8077 02a9 21       		.byte	0x21
 8078 02aa 7A       		.byte	0x7a
 8079 02ab 1B       		.sleb128 27
 8080 02ac 34       		.byte	0x34
 8081 02ad 24       		.byte	0x24
 8082 02ae 78       		.byte	0x78
 8083 02af 00       		.sleb128 0
 8084 02b0 22       		.byte	0x22
 8085 02b1 23       		.byte	0x23
 8086 02b2 16       		.uleb128 0x16
 8087 02b3 94       		.byte	0x94
 8088 02b4 01       		.byte	0x1
 8089 02b5 08       		.byte	0x8
 8090 02b6 FF       		.byte	0xff
 8091 02b7 1A       		.byte	0x1a
 8092 02b8 21       		.byte	0x21
 8093 02b9 72       		.byte	0x72
 8094 02ba 00       		.sleb128 0
 8095 02bb 21       		.byte	0x21
 8096 02bc 9F       		.byte	0x9f
 8097 02bd 04       		.byte	0x4
 8098 02be 870D     		.uleb128 .LVL123-.Ltext0
 8099 02c0 8D0D     		.uleb128 .LVL124-.Ltext0
 8100 02c2 01       		.uleb128 0x1
 8101 02c3 59       		.byte	0x59
 8102 02c4 04       		.byte	0x4
 8103 02c5 8D0D     		.uleb128 .LVL124-.Ltext0
 8104 02c7 8F0D     		.uleb128 .LFE18-.Ltext0
 8105 02c9 45       		.uleb128 0x45
 8106 02ca 7A       		.byte	0x7a
 8107 02cb 00       		.sleb128 0
 8108 02cc 34       		.byte	0x34
 8109 02cd 24       		.byte	0x24
 8110 02ce 78       		.byte	0x78
 8111 02cf 00       		.sleb128 0
 8112 02d0 22       		.byte	0x22
 8113 02d1 23       		.byte	0x23
 8114 02d2 C703     		.uleb128 0x1c7
 8115 02d4 94       		.byte	0x94
 8116 02d5 01       		.byte	0x1
 8117 02d6 08       		.byte	0x8
 8118 02d7 FF       		.byte	0xff
 8119 02d8 1A       		.byte	0x1a
 8120 02d9 38       		.byte	0x38
 8121 02da 24       		.byte	0x24
 8122 02db 7A       		.byte	0x7a
 8123 02dc 00       		.sleb128 0
 8124 02dd 34       		.byte	0x34
 8125 02de 24       		.byte	0x24
 8126 02df 78       		.byte	0x78
 8127 02e0 00       		.sleb128 0
 8128 02e1 22       		.byte	0x22
 8129 02e2 23       		.byte	0x23
 8130 02e3 C803     		.uleb128 0x1c8
 8131 02e5 94       		.byte	0x94
 8132 02e6 01       		.byte	0x1
 8133 02e7 08       		.byte	0x8
 8134 02e8 FF       		.byte	0xff
 8135 02e9 1A       		.byte	0x1a
 8136 02ea 40       		.byte	0x40
 8137 02eb 24       		.byte	0x24
 8138 02ec 21       		.byte	0x21
 8139 02ed 7A       		.byte	0x7a
 8140 02ee 00       		.sleb128 0
 8141 02ef 34       		.byte	0x34
 8142 02f0 24       		.byte	0x24
 8143 02f1 78       		.byte	0x78
 8144 02f2 00       		.sleb128 0
 8145 02f3 22       		.byte	0x22
 8146 02f4 23       		.byte	0x23
 8147 02f5 C903     		.uleb128 0x1c9
 8148 02f7 94       		.byte	0x94
 8149 02f8 01       		.byte	0x1
 8150 02f9 08       		.byte	0x8
 8151 02fa FF       		.byte	0xff
 8152 02fb 1A       		.byte	0x1a
 8153 02fc 48       		.byte	0x48
 8154 02fd 24       		.byte	0x24
 8155 02fe 21       		.byte	0x21
 8156 02ff 7A       		.byte	0x7a
 8157 0300 1B       		.sleb128 27
 8158 0301 34       		.byte	0x34
 8159 0302 24       		.byte	0x24
 8160 0303 78       		.byte	0x78
 8161 0304 00       		.sleb128 0
 8162 0305 22       		.byte	0x22
 8163 0306 23       		.byte	0x23
 8164 0307 16       		.uleb128 0x16
 8165 0308 94       		.byte	0x94
 8166 0309 01       		.byte	0x1
 8167 030a 08       		.byte	0x8
 8168 030b FF       		.byte	0xff
 8169 030c 1A       		.byte	0x1a
 8170 030d 21       		.byte	0x21
 8171 030e 9F       		.byte	0x9f
 8172 030f 00       		.byte	0
 8173              	.LVUS56:
 8174 0310 00       		.uleb128 .LVU272
 8175 0311 00       		.uleb128 .LVU292
 8176 0312 00       		.uleb128 .LVU304
 8177 0313 00       		.uleb128 .LVU317
 8178 0314 00       		.uleb128 .LVU320
 8179 0315 00       		.uleb128 0
 8180              	.LLST56:
 8181 0316 04       		.byte	0x4
 8182 0317 CB09     		.uleb128 .LVL103-.Ltext0
 8183 0319 9E0B     		.uleb128 .LVL110-.Ltext0
 8184 031b 01       		.uleb128 0x1
 8185 031c 5B       		.byte	0x5b
 8186 031d 04       		.byte	0x4
 8187 031e BE0C     		.uleb128 .LVL114-.Ltext0
 8188 0320 EA0C     		.uleb128 .LVL116-.Ltext0
 8189 0322 01       		.uleb128 0x1
 8190 0323 5B       		.byte	0x5b
 8191 0324 04       		.byte	0x4
 8192 0325 F70C     		.uleb128 .LVL119-.Ltext0
 8193 0327 8F0D     		.uleb128 .LFE18-.Ltext0
 8194 0329 01       		.uleb128 0x1
 8195 032a 5B       		.byte	0x5b
 8196 032b 00       		.byte	0
 8197              	.LVUS57:
 8198 032c 00       		.uleb128 .LVU274
 8199 032d 00       		.uleb128 .LVU277
 8200 032e 00       		.uleb128 .LVU277
 8201 032f 00       		.uleb128 .LVU278
 8202 0330 00       		.uleb128 .LVU324
 8203 0331 00       		.uleb128 0
 8204              	.LLST57:
 8205 0332 04       		.byte	0x4
 8206 0333 CF09     		.uleb128 .LVL104-.Ltext0
 8207 0335 DB09     		.uleb128 .LVL105-.Ltext0
 8208 0337 01       		.uleb128 0x1
 8209 0338 51       		.byte	0x51
 8210 0339 04       		.byte	0x4
 8211 033a DB09     		.uleb128 .LVL105-.Ltext0
 8212 033c E309     		.uleb128 .LVL106-.Ltext0
 8213 033e 6E       		.uleb128 0x6e
 8214 033f 70       		.byte	0x70
 8215 0340 00       		.sleb128 0
 8216 0341 34       		.byte	0x34
 8217 0342 24       		.byte	0x24
 8218 0343 78       		.byte	0x78
 8219 0344 00       		.sleb128 0
 8220 0345 22       		.byte	0x22
 8221 0346 23       		.byte	0x23
 8222 0347 CB03     		.uleb128 0x1cb
 8223 0349 94       		.byte	0x94
 8224 034a 01       		.byte	0x1
 8225 034b 08       		.byte	0x8
 8226 034c FF       		.byte	0xff
 8227 034d 1A       		.byte	0x1a
 8228 034e 38       		.byte	0x38
 8229 034f 24       		.byte	0x24
 8230 0350 70       		.byte	0x70
 8231 0351 00       		.sleb128 0
 8232 0352 34       		.byte	0x34
 8233 0353 24       		.byte	0x24
 8234 0354 78       		.byte	0x78
 8235 0355 00       		.sleb128 0
 8236 0356 22       		.byte	0x22
 8237 0357 23       		.byte	0x23
 8238 0358 CC03     		.uleb128 0x1cc
 8239 035a 94       		.byte	0x94
 8240 035b 01       		.byte	0x1
 8241 035c 08       		.byte	0x8
 8242 035d FF       		.byte	0xff
 8243 035e 1A       		.byte	0x1a
 8244 035f 40       		.byte	0x40
 8245 0360 24       		.byte	0x24
 8246 0361 21       		.byte	0x21
 8247 0362 70       		.byte	0x70
 8248 0363 00       		.sleb128 0
 8249 0364 34       		.byte	0x34
 8250 0365 24       		.byte	0x24
 8251 0366 78       		.byte	0x78
 8252 0367 00       		.sleb128 0
 8253 0368 22       		.byte	0x22
 8254 0369 23       		.byte	0x23
 8255 036a CD03     		.uleb128 0x1cd
 8256 036c 94       		.byte	0x94
 8257 036d 01       		.byte	0x1
 8258 036e 08       		.byte	0x8
 8259 036f FF       		.byte	0xff
 8260 0370 1A       		.byte	0x1a
 8261 0371 48       		.byte	0x48
 8262 0372 24       		.byte	0x24
 8263 0373 21       		.byte	0x21
 8264 0374 70       		.byte	0x70
 8265 0375 1B       		.sleb128 27
 8266 0376 34       		.byte	0x34
 8267 0377 24       		.byte	0x24
 8268 0378 78       		.byte	0x78
 8269 0379 00       		.sleb128 0
 8270 037a 22       		.byte	0x22
 8271 037b 23       		.byte	0x23
 8272 037c 1A       		.uleb128 0x1a
 8273 037d 94       		.byte	0x94
 8274 037e 01       		.byte	0x1
 8275 037f 08       		.byte	0x8
 8276 0380 FF       		.byte	0xff
 8277 0381 1A       		.byte	0x1a
 8278 0382 21       		.byte	0x21
 8279 0383 70       		.byte	0x70
 8280 0384 00       		.sleb128 0
 8281 0385 34       		.byte	0x34
 8282 0386 24       		.byte	0x24
 8283 0387 78       		.byte	0x78
 8284 0388 00       		.sleb128 0
 8285 0389 22       		.byte	0x22
 8286 038a 23       		.byte	0x23
 8287 038b C703     		.uleb128 0x1c7
 8288 038d 94       		.byte	0x94
 8289 038e 01       		.byte	0x1
 8290 038f 08       		.byte	0x8
 8291 0390 FF       		.byte	0xff
 8292 0391 1A       		.byte	0x1a
 8293 0392 38       		.byte	0x38
 8294 0393 24       		.byte	0x24
 8295 0394 70       		.byte	0x70
 8296 0395 1B       		.sleb128 27
 8297 0396 34       		.byte	0x34
 8298 0397 24       		.byte	0x24
 8299 0398 78       		.byte	0x78
 8300 0399 00       		.sleb128 0
 8301 039a 22       		.byte	0x22
 8302 039b 23       		.byte	0x23
 8303 039c 16       		.uleb128 0x16
 8304 039d 94       		.byte	0x94
 8305 039e 01       		.byte	0x1
 8306 039f 08       		.byte	0x8
 8307 03a0 FF       		.byte	0xff
 8308 03a1 1A       		.byte	0x1a
 8309 03a2 21       		.byte	0x21
 8310 03a3 75       		.byte	0x75
 8311 03a4 00       		.sleb128 0
 8312 03a5 21       		.byte	0x21
 8313 03a6 74       		.byte	0x74
 8314 03a7 00       		.sleb128 0
 8315 03a8 21       		.byte	0x21
 8316 03a9 22       		.byte	0x22
 8317 03aa 31       		.byte	0x31
 8318 03ab 1C       		.byte	0x1c
 8319 03ac 9F       		.byte	0x9f
 8320 03ad 04       		.byte	0x4
 8321 03ae 870D     		.uleb128 .LVL123-.Ltext0
 8322 03b0 8F0D     		.uleb128 .LFE18-.Ltext0
 8323 03b2 6E       		.uleb128 0x6e
 8324 03b3 70       		.byte	0x70
 8325 03b4 00       		.sleb128 0
 8326 03b5 34       		.byte	0x34
 8327 03b6 24       		.byte	0x24
 8328 03b7 78       		.byte	0x78
 8329 03b8 00       		.sleb128 0
 8330 03b9 22       		.byte	0x22
 8331 03ba 23       		.byte	0x23
 8332 03bb CB03     		.uleb128 0x1cb
 8333 03bd 94       		.byte	0x94
 8334 03be 01       		.byte	0x1
 8335 03bf 08       		.byte	0x8
 8336 03c0 FF       		.byte	0xff
 8337 03c1 1A       		.byte	0x1a
 8338 03c2 38       		.byte	0x38
 8339 03c3 24       		.byte	0x24
 8340 03c4 70       		.byte	0x70
 8341 03c5 00       		.sleb128 0
 8342 03c6 34       		.byte	0x34
 8343 03c7 24       		.byte	0x24
 8344 03c8 78       		.byte	0x78
 8345 03c9 00       		.sleb128 0
 8346 03ca 22       		.byte	0x22
 8347 03cb 23       		.byte	0x23
 8348 03cc CC03     		.uleb128 0x1cc
 8349 03ce 94       		.byte	0x94
 8350 03cf 01       		.byte	0x1
 8351 03d0 08       		.byte	0x8
 8352 03d1 FF       		.byte	0xff
 8353 03d2 1A       		.byte	0x1a
 8354 03d3 40       		.byte	0x40
 8355 03d4 24       		.byte	0x24
 8356 03d5 21       		.byte	0x21
 8357 03d6 70       		.byte	0x70
 8358 03d7 00       		.sleb128 0
 8359 03d8 34       		.byte	0x34
 8360 03d9 24       		.byte	0x24
 8361 03da 78       		.byte	0x78
 8362 03db 00       		.sleb128 0
 8363 03dc 22       		.byte	0x22
 8364 03dd 23       		.byte	0x23
 8365 03de CD03     		.uleb128 0x1cd
 8366 03e0 94       		.byte	0x94
 8367 03e1 01       		.byte	0x1
 8368 03e2 08       		.byte	0x8
 8369 03e3 FF       		.byte	0xff
 8370 03e4 1A       		.byte	0x1a
 8371 03e5 48       		.byte	0x48
 8372 03e6 24       		.byte	0x24
 8373 03e7 21       		.byte	0x21
 8374 03e8 70       		.byte	0x70
 8375 03e9 1B       		.sleb128 27
 8376 03ea 34       		.byte	0x34
 8377 03eb 24       		.byte	0x24
 8378 03ec 78       		.byte	0x78
 8379 03ed 00       		.sleb128 0
 8380 03ee 22       		.byte	0x22
 8381 03ef 23       		.byte	0x23
 8382 03f0 1A       		.uleb128 0x1a
 8383 03f1 94       		.byte	0x94
 8384 03f2 01       		.byte	0x1
 8385 03f3 08       		.byte	0x8
 8386 03f4 FF       		.byte	0xff
 8387 03f5 1A       		.byte	0x1a
 8388 03f6 21       		.byte	0x21
 8389 03f7 70       		.byte	0x70
 8390 03f8 00       		.sleb128 0
 8391 03f9 34       		.byte	0x34
 8392 03fa 24       		.byte	0x24
 8393 03fb 78       		.byte	0x78
 8394 03fc 00       		.sleb128 0
 8395 03fd 22       		.byte	0x22
 8396 03fe 23       		.byte	0x23
 8397 03ff C703     		.uleb128 0x1c7
 8398 0401 94       		.byte	0x94
 8399 0402 01       		.byte	0x1
 8400 0403 08       		.byte	0x8
 8401 0404 FF       		.byte	0xff
 8402 0405 1A       		.byte	0x1a
 8403 0406 38       		.byte	0x38
 8404 0407 24       		.byte	0x24
 8405 0408 70       		.byte	0x70
 8406 0409 1B       		.sleb128 27
 8407 040a 34       		.byte	0x34
 8408 040b 24       		.byte	0x24
 8409 040c 78       		.byte	0x78
 8410 040d 00       		.sleb128 0
 8411 040e 22       		.byte	0x22
 8412 040f 23       		.byte	0x23
 8413 0410 16       		.uleb128 0x16
 8414 0411 94       		.byte	0x94
 8415 0412 01       		.byte	0x1
 8416 0413 08       		.byte	0x8
 8417 0414 FF       		.byte	0xff
 8418 0415 1A       		.byte	0x1a
 8419 0416 21       		.byte	0x21
 8420 0417 75       		.byte	0x75
 8421 0418 00       		.sleb128 0
 8422 0419 21       		.byte	0x21
 8423 041a 74       		.byte	0x74
 8424 041b 00       		.sleb128 0
 8425 041c 21       		.byte	0x21
 8426 041d 22       		.byte	0x22
 8427 041e 31       		.byte	0x31
 8428 041f 1C       		.byte	0x1c
 8429 0420 9F       		.byte	0x9f
 8430 0421 00       		.byte	0
 8431              	.LVUS58:
 8432 0422 00       		.uleb128 .LVU272
 8433 0423 00       		.uleb128 .LVU317
 8434 0424 00       		.uleb128 .LVU320
 8435 0425 00       		.uleb128 0
 8436              	.LLST58:
 8437 0426 04       		.byte	0x4
 8438 0427 CB09     		.uleb128 .LVL103-.Ltext0
 8439 0429 EA0C     		.uleb128 .LVL116-.Ltext0
 8440 042b 01       		.uleb128 0x1
 8441 042c 5A       		.byte	0x5a
 8442 042d 04       		.byte	0x4
 8443 042e F70C     		.uleb128 .LVL119-.Ltext0
 8444 0430 8F0D     		.uleb128 .LFE18-.Ltext0
 8445 0432 01       		.uleb128 0x1
 8446 0433 5A       		.byte	0x5a
 8447 0434 00       		.byte	0
 8448              	.LVUS59:
 8449 0435 00       		.uleb128 .LVU272
 8450 0436 00       		.uleb128 .LVU292
 8451 0437 00       		.uleb128 .LVU316
 8452 0438 00       		.uleb128 .LVU317
 8453 0439 00       		.uleb128 .LVU324
 8454 043a 00       		.uleb128 0
 8455              	.LLST59:
 8456 043b 04       		.byte	0x4
 8457 043c CB09     		.uleb128 .LVL103-.Ltext0
 8458 043e 9E0B     		.uleb128 .LVL110-.Ltext0
 8459 0440 01       		.uleb128 0x1
 8460 0441 50       		.byte	0x50
 8461 0442 04       		.byte	0x4
 8462 0443 E50C     		.uleb128 .LVL115-.Ltext0
 8463 0445 EA0C     		.uleb128 .LVL116-.Ltext0
 8464 0447 01       		.uleb128 0x1
 8465 0448 50       		.byte	0x50
 8466 0449 04       		.byte	0x4
 8467 044a 870D     		.uleb128 .LVL123-.Ltext0
 8468 044c 8F0D     		.uleb128 .LFE18-.Ltext0
 8469 044e 01       		.uleb128 0x1
 8470 044f 50       		.byte	0x50
 8471 0450 00       		.byte	0
 8472              	.LVUS60:
 8473 0451 00       		.uleb128 .LVU272
 8474 0452 00       		.uleb128 .LVU292
 8475 0453 00       		.uleb128 .LVU292
 8476 0454 01       		.uleb128 .LVU300
 8477 0455 01       		.uleb128 .LVU300
 8478 0456 00       		.uleb128 .LVU317
 8479 0457 00       		.uleb128 .LVU320
 8480 0458 00       		.uleb128 0
 8481              	.LLST60:
 8482 0459 04       		.byte	0x4
 8483 045a CB09     		.uleb128 .LVL103-.Ltext0
 8484 045c 9E0B     		.uleb128 .LVL110-.Ltext0
 8485 045e 02       		.uleb128 0x2
 8486 045f 31       		.byte	0x31
 8487 0460 9F       		.byte	0x9f
 8488 0461 04       		.byte	0x4
 8489 0462 9E0B     		.uleb128 .LVL110-.Ltext0
 8490 0464 FA0B     		.uleb128 .LVL112-.Ltext0
 8491 0466 01       		.uleb128 0x1
 8492 0467 59       		.byte	0x59
 8493 0468 04       		.byte	0x4
 8494 0469 FA0B     		.uleb128 .LVL112-.Ltext0
 8495 046b EA0C     		.uleb128 .LVL116-.Ltext0
 8496 046d 02       		.uleb128 0x2
 8497 046e 31       		.byte	0x31
 8498 046f 9F       		.byte	0x9f
 8499 0470 04       		.byte	0x4
 8500 0471 F70C     		.uleb128 .LVL119-.Ltext0
 8501 0473 8F0D     		.uleb128 .LFE18-.Ltext0
 8502 0475 02       		.uleb128 0x2
 8503 0476 31       		.byte	0x31
 8504 0477 9F       		.byte	0x9f
 8505 0478 00       		.byte	0
 8506              	.LVUS47:
 8507 0479 00       		.uleb128 0
 8508 047a 00       		.uleb128 .LVU223
 8509 047b 00       		.uleb128 .LVU223
 8510 047c 00       		.uleb128 .LVU241
 8511 047d 00       		.uleb128 .LVU241
 8512 047e 00       		.uleb128 0
 8513              	.LLST47:
 8514 047f 04       		.byte	0x4
 8515 0480 B607     		.uleb128 .LVL83-.Ltext0
 8516 0482 D407     		.uleb128 .LVL85-.Ltext0
 8517 0484 01       		.uleb128 0x1
 8518 0485 52       		.byte	0x52
 8519 0486 04       		.byte	0x4
 8520 0487 D407     		.uleb128 .LVL85-.Ltext0
 8521 0489 A208     		.uleb128 .LVL92-.Ltext0
 8522 048b 01       		.uleb128 0x1
 8523 048c 55       		.byte	0x55
 8524 048d 04       		.byte	0x4
 8525 048e A208     		.uleb128 .LVL92-.Ltext0
 8526 0490 A209     		.uleb128 .LFE17-.Ltext0
 8527 0492 04       		.uleb128 0x4
 8528 0493 A3       		.byte	0xa3
 8529 0494 01       		.uleb128 0x1
 8530 0495 52       		.byte	0x52
 8531 0496 9F       		.byte	0x9f
 8532 0497 00       		.byte	0
 8533              	.LVUS48:
 8534 0498 00       		.uleb128 0
 8535 0499 00       		.uleb128 .LVU222
 8536 049a 00       		.uleb128 .LVU222
 8537 049b 00       		.uleb128 .LVU233
 8538 049c 00       		.uleb128 .LVU233
 8539 049d 00       		.uleb128 0
 8540              	.LLST48:
 8541 049e 04       		.byte	0x4
 8542 049f B607     		.uleb128 .LVL83-.Ltext0
 8543 04a1 CD07     		.uleb128 .LVL84-.Ltext0
 8544 04a3 01       		.uleb128 0x1
 8545 04a4 51       		.byte	0x51
 8546 04a5 04       		.byte	0x4
 8547 04a6 CD07     		.uleb128 .LVL84-.Ltext0
 8548 04a8 FB07     		.uleb128 .LVL89-.Ltext0
 8549 04aa 01       		.uleb128 0x1
 8550 04ab 53       		.byte	0x53
 8551 04ac 04       		.byte	0x4
 8552 04ad FB07     		.uleb128 .LVL89-.Ltext0
 8553 04af A209     		.uleb128 .LFE17-.Ltext0
 8554 04b1 04       		.uleb128 0x4
 8555 04b2 A3       		.byte	0xa3
 8556 04b3 01       		.uleb128 0x1
 8557 04b4 51       		.byte	0x51
 8558 04b5 9F       		.byte	0x9f
 8559 04b6 00       		.byte	0
 8560              	.LVUS49:
 8561 04b7 00       		.uleb128 .LVU224
 8562 04b8 00       		.uleb128 .LVU232
 8563 04b9 00       		.uleb128 .LVU232
 8564 04ba 00       		.uleb128 .LVU236
 8565 04bb 00       		.uleb128 .LVU236
 8566 04bc 00       		.uleb128 .LVU239
 8567 04bd 00       		.uleb128 .LVU239
 8568 04be 00       		.uleb128 .LVU260
 8569 04bf 00       		.uleb128 .LVU261
 8570 04c0 00       		.uleb128 0
 8571              	.LLST49:
 8572 04c1 04       		.byte	0x4
 8573 04c2 DC07     		.uleb128 .LVL87-.Ltext0
 8574 04c4 F707     		.uleb128 .LVL88-1-.Ltext0
 8575 04c6 01       		.uleb128 0x1
 8576 04c7 50       		.byte	0x50
 8577 04c8 04       		.byte	0x4
 8578 04c9 F707     		.uleb128 .LVL88-1-.Ltext0
 8579 04cb 8B08     		.uleb128 .LVL90-.Ltext0
 8580 04cd 01       		.uleb128 0x1
 8581 04ce 54       		.byte	0x54
 8582 04cf 04       		.byte	0x4
 8583 04d0 8B08     		.uleb128 .LVL90-.Ltext0
 8584 04d2 9708     		.uleb128 .LVL91-1-.Ltext0
 8585 04d4 01       		.uleb128 0x1
 8586 04d5 50       		.byte	0x50
 8587 04d6 04       		.byte	0x4
 8588 04d7 9708     		.uleb128 .LVL91-1-.Ltext0
 8589 04d9 9409     		.uleb128 .LVL100-.Ltext0
 8590 04db 01       		.uleb128 0x1
 8591 04dc 54       		.byte	0x54
 8592 04dd 04       		.byte	0x4
 8593 04de 9609     		.uleb128 .LVL101-.Ltext0
 8594 04e0 A209     		.uleb128 .LFE17-.Ltext0
 8595 04e2 01       		.uleb128 0x1
 8596 04e3 54       		.byte	0x54
 8597 04e4 00       		.byte	0
 8598              	.LVUS50:
 8599 04e5 00       		.uleb128 .LVU233
 8600 04e6 00       		.uleb128 .LVU236
 8601 04e7 00       		.uleb128 .LVU242
 8602 04e8 00       		.uleb128 .LVU259
 8603 04e9 00       		.uleb128 .LVU261
 8604 04ea 00       		.uleb128 0
 8605              	.LLST50:
 8606 04eb 04       		.byte	0x4
 8607 04ec FB07     		.uleb128 .LVL89-.Ltext0
 8608 04ee 8B08     		.uleb128 .LVL90-.Ltext0
 8609 04f0 01       		.uleb128 0x1
 8610 04f1 50       		.byte	0x50
 8611 04f2 04       		.byte	0x4
 8612 04f3 A408     		.uleb128 .LVL93-.Ltext0
 8613 04f5 8B09     		.uleb128 .LVL99-.Ltext0
 8614 04f7 01       		.uleb128 0x1
 8615 04f8 53       		.byte	0x53
 8616 04f9 04       		.byte	0x4
 8617 04fa 9609     		.uleb128 .LVL101-.Ltext0
 8618 04fc A209     		.uleb128 .LFE17-.Ltext0
 8619 04fe 01       		.uleb128 0x1
 8620 04ff 50       		.byte	0x50
 8621 0500 00       		.byte	0
 8622              	.LVUS51:
 8623 0501 00       		.uleb128 .LVU242
 8624 0502 00       		.uleb128 .LVU254
 8625              	.LLST51:
 8626 0503 04       		.byte	0x4
 8627 0504 A408     		.uleb128 .LVL93-.Ltext0
 8628 0506 EA08     		.uleb128 .LVL95-.Ltext0
 8629 0508 01       		.uleb128 0x1
 8630 0509 51       		.byte	0x51
 8631 050a 00       		.byte	0
 8632              	.LVUS52:
 8633 050b 00       		.uleb128 .LVU255
 8634 050c 00       		.uleb128 .LVU256
 8635 050d 00       		.uleb128 .LVU256
 8636 050e 00       		.uleb128 .LVU259
 8637              	.LLST52:
 8638 050f 04       		.byte	0x4
 8639 0510 F608     		.uleb128 .LVL97-.Ltext0
 8640 0512 FD08     		.uleb128 .LVL98-1-.Ltext0
 8641 0514 01       		.uleb128 0x1
 8642 0515 50       		.byte	0x50
 8643 0516 04       		.byte	0x4
 8644 0517 FD08     		.uleb128 .LVL98-1-.Ltext0
 8645 0519 8B09     		.uleb128 .LVL99-.Ltext0
 8646 051b 01       		.uleb128 0x1
 8647 051c 55       		.byte	0x55
 8648 051d 00       		.byte	0
 8649              	.LVUS42:
 8650 051e 00       		.uleb128 0
 8651 051f 00       		.uleb128 .LVU210
 8652 0520 00       		.uleb128 .LVU210
 8653 0521 00       		.uleb128 0
 8654              	.LLST42:
 8655 0522 04       		.byte	0x4
 8656 0523 8F07     		.uleb128 .LVL79-.Ltext0
 8657 0525 B007     		.uleb128 .LVL82-1-.Ltext0
 8658 0527 01       		.uleb128 0x1
 8659 0528 52       		.byte	0x52
 8660 0529 04       		.byte	0x4
 8661 052a B007     		.uleb128 .LVL82-1-.Ltext0
 8662 052c B607     		.uleb128 .LFE16-.Ltext0
 8663 052e 04       		.uleb128 0x4
 8664 052f A3       		.byte	0xa3
 8665 0530 01       		.uleb128 0x1
 8666 0531 52       		.byte	0x52
 8667 0532 9F       		.byte	0x9f
 8668 0533 00       		.byte	0
 8669              	.LVUS43:
 8670 0534 00       		.uleb128 0
 8671 0535 00       		.uleb128 .LVU210
 8672 0536 00       		.uleb128 .LVU210
 8673 0537 00       		.uleb128 0
 8674              	.LLST43:
 8675 0538 04       		.byte	0x4
 8676 0539 8F07     		.uleb128 .LVL79-.Ltext0
 8677 053b B007     		.uleb128 .LVL82-1-.Ltext0
 8678 053d 01       		.uleb128 0x1
 8679 053e 51       		.byte	0x51
 8680 053f 04       		.byte	0x4
 8681 0540 B007     		.uleb128 .LVL82-1-.Ltext0
 8682 0542 B607     		.uleb128 .LFE16-.Ltext0
 8683 0544 04       		.uleb128 0x4
 8684 0545 A3       		.byte	0xa3
 8685 0546 01       		.uleb128 0x1
 8686 0547 51       		.byte	0x51
 8687 0548 9F       		.byte	0x9f
 8688 0549 00       		.byte	0
 8689              	.LVUS44:
 8690 054a 00       		.uleb128 0
 8691 054b 00       		.uleb128 .LVU209
 8692 054c 00       		.uleb128 .LVU209
 8693 054d 00       		.uleb128 .LVU210
 8694 054e 00       		.uleb128 .LVU210
 8695 054f 00       		.uleb128 0
 8696              	.LLST44:
 8697 0550 04       		.byte	0x4
 8698 0551 8F07     		.uleb128 .LVL79-.Ltext0
 8699 0553 AF07     		.uleb128 .LVL81-.Ltext0
 8700 0555 01       		.uleb128 0x1
 8701 0556 58       		.byte	0x58
 8702 0557 04       		.byte	0x4
 8703 0558 AF07     		.uleb128 .LVL81-.Ltext0
 8704 055a B007     		.uleb128 .LVL82-1-.Ltext0
 8705 055c 01       		.uleb128 0x1
 8706 055d 59       		.byte	0x59
 8707 055e 04       		.byte	0x4
 8708 055f B007     		.uleb128 .LVL82-1-.Ltext0
 8709 0561 B607     		.uleb128 .LFE16-.Ltext0
 8710 0563 04       		.uleb128 0x4
 8711 0564 A3       		.byte	0xa3
 8712 0565 01       		.uleb128 0x1
 8713 0566 58       		.byte	0x58
 8714 0567 9F       		.byte	0x9f
 8715 0568 00       		.byte	0
 8716              	.LVUS45:
 8717 0569 00       		.uleb128 0
 8718 056a 00       		.uleb128 .LVU208
 8719 056b 00       		.uleb128 .LVU208
 8720 056c 00       		.uleb128 .LVU210
 8721 056d 00       		.uleb128 .LVU210
 8722 056e 00       		.uleb128 0
 8723              	.LLST45:
 8724 056f 04       		.byte	0x4
 8725 0570 8F07     		.uleb128 .LVL79-.Ltext0
 8726 0572 A907     		.uleb128 .LVL80-.Ltext0
 8727 0574 01       		.uleb128 0x1
 8728 0575 59       		.byte	0x59
 8729 0576 04       		.byte	0x4
 8730 0577 A907     		.uleb128 .LVL80-.Ltext0
 8731 0579 B007     		.uleb128 .LVL82-1-.Ltext0
 8732 057b 02       		.uleb128 0x2
 8733 057c 91       		.byte	0x91
 8734 057d 60       		.sleb128 -32
 8735 057e 04       		.byte	0x4
 8736 057f B007     		.uleb128 .LVL82-1-.Ltext0
 8737 0581 B607     		.uleb128 .LFE16-.Ltext0
 8738 0583 04       		.uleb128 0x4
 8739 0584 A3       		.byte	0xa3
 8740 0585 01       		.uleb128 0x1
 8741 0586 59       		.byte	0x59
 8742 0587 9F       		.byte	0x9f
 8743 0588 00       		.byte	0
 8744              	.LVUS46:
 8745 0589 00       		.uleb128 .LVU210
 8746 058a 00       		.uleb128 0
 8747              	.LLST46:
 8748 058b 04       		.byte	0x4
 8749 058c B107     		.uleb128 .LVL82-.Ltext0
 8750 058e B607     		.uleb128 .LFE16-.Ltext0
 8751 0590 01       		.uleb128 0x1
 8752 0591 50       		.byte	0x50
 8753 0592 00       		.byte	0
 8754              	.LVUS37:
 8755 0593 00       		.uleb128 0
 8756 0594 00       		.uleb128 .LVU200
 8757 0595 00       		.uleb128 .LVU200
 8758 0596 00       		.uleb128 0
 8759              	.LLST37:
 8760 0597 04       		.byte	0x4
 8761 0598 E806     		.uleb128 .LVL75-.Ltext0
 8762 059a 8907     		.uleb128 .LVL78-1-.Ltext0
 8763 059c 01       		.uleb128 0x1
 8764 059d 52       		.byte	0x52
 8765 059e 04       		.byte	0x4
 8766 059f 8907     		.uleb128 .LVL78-1-.Ltext0
 8767 05a1 8F07     		.uleb128 .LFE15-.Ltext0
 8768 05a3 04       		.uleb128 0x4
 8769 05a4 A3       		.byte	0xa3
 8770 05a5 01       		.uleb128 0x1
 8771 05a6 52       		.byte	0x52
 8772 05a7 9F       		.byte	0x9f
 8773 05a8 00       		.byte	0
 8774              	.LVUS38:
 8775 05a9 00       		.uleb128 0
 8776 05aa 00       		.uleb128 .LVU200
 8777 05ab 00       		.uleb128 .LVU200
 8778 05ac 00       		.uleb128 0
 8779              	.LLST38:
 8780 05ad 04       		.byte	0x4
 8781 05ae E806     		.uleb128 .LVL75-.Ltext0
 8782 05b0 8907     		.uleb128 .LVL78-1-.Ltext0
 8783 05b2 01       		.uleb128 0x1
 8784 05b3 51       		.byte	0x51
 8785 05b4 04       		.byte	0x4
 8786 05b5 8907     		.uleb128 .LVL78-1-.Ltext0
 8787 05b7 8F07     		.uleb128 .LFE15-.Ltext0
 8788 05b9 04       		.uleb128 0x4
 8789 05ba A3       		.byte	0xa3
 8790 05bb 01       		.uleb128 0x1
 8791 05bc 51       		.byte	0x51
 8792 05bd 9F       		.byte	0x9f
 8793 05be 00       		.byte	0
 8794              	.LVUS39:
 8795 05bf 00       		.uleb128 0
 8796 05c0 00       		.uleb128 .LVU199
 8797 05c1 00       		.uleb128 .LVU199
 8798 05c2 00       		.uleb128 .LVU200
 8799 05c3 00       		.uleb128 .LVU200
 8800 05c4 00       		.uleb128 0
 8801              	.LLST39:
 8802 05c5 04       		.byte	0x4
 8803 05c6 E806     		.uleb128 .LVL75-.Ltext0
 8804 05c8 8807     		.uleb128 .LVL77-.Ltext0
 8805 05ca 01       		.uleb128 0x1
 8806 05cb 58       		.byte	0x58
 8807 05cc 04       		.byte	0x4
 8808 05cd 8807     		.uleb128 .LVL77-.Ltext0
 8809 05cf 8907     		.uleb128 .LVL78-1-.Ltext0
 8810 05d1 01       		.uleb128 0x1
 8811 05d2 59       		.byte	0x59
 8812 05d3 04       		.byte	0x4
 8813 05d4 8907     		.uleb128 .LVL78-1-.Ltext0
 8814 05d6 8F07     		.uleb128 .LFE15-.Ltext0
 8815 05d8 04       		.uleb128 0x4
 8816 05d9 A3       		.byte	0xa3
 8817 05da 01       		.uleb128 0x1
 8818 05db 58       		.byte	0x58
 8819 05dc 9F       		.byte	0x9f
 8820 05dd 00       		.byte	0
 8821              	.LVUS40:
 8822 05de 00       		.uleb128 0
 8823 05df 00       		.uleb128 .LVU198
 8824 05e0 00       		.uleb128 .LVU198
 8825 05e1 00       		.uleb128 .LVU200
 8826 05e2 00       		.uleb128 .LVU200
 8827 05e3 00       		.uleb128 0
 8828              	.LLST40:
 8829 05e4 04       		.byte	0x4
 8830 05e5 E806     		.uleb128 .LVL75-.Ltext0
 8831 05e7 8207     		.uleb128 .LVL76-.Ltext0
 8832 05e9 01       		.uleb128 0x1
 8833 05ea 59       		.byte	0x59
 8834 05eb 04       		.byte	0x4
 8835 05ec 8207     		.uleb128 .LVL76-.Ltext0
 8836 05ee 8907     		.uleb128 .LVL78-1-.Ltext0
 8837 05f0 02       		.uleb128 0x2
 8838 05f1 91       		.byte	0x91
 8839 05f2 60       		.sleb128 -32
 8840 05f3 04       		.byte	0x4
 8841 05f4 8907     		.uleb128 .LVL78-1-.Ltext0
 8842 05f6 8F07     		.uleb128 .LFE15-.Ltext0
 8843 05f8 04       		.uleb128 0x4
 8844 05f9 A3       		.byte	0xa3
 8845 05fa 01       		.uleb128 0x1
 8846 05fb 59       		.byte	0x59
 8847 05fc 9F       		.byte	0x9f
 8848 05fd 00       		.byte	0
 8849              	.LVUS41:
 8850 05fe 00       		.uleb128 .LVU200
 8851 05ff 00       		.uleb128 0
 8852              	.LLST41:
 8853 0600 04       		.byte	0x4
 8854 0601 8A07     		.uleb128 .LVL78-.Ltext0
 8855 0603 8F07     		.uleb128 .LFE15-.Ltext0
 8856 0605 01       		.uleb128 0x1
 8857 0606 50       		.byte	0x50
 8858 0607 00       		.byte	0
 8859              	.LVUS33:
 8860 0608 00       		.uleb128 0
 8861 0609 00       		.uleb128 .LVU178
 8862 060a 00       		.uleb128 .LVU178
 8863 060b 00       		.uleb128 .LVU185
 8864 060c 00       		.uleb128 .LVU185
 8865 060d 00       		.uleb128 .LVU190
 8866 060e 00       		.uleb128 .LVU190
 8867 060f 00       		.uleb128 .LVU191
 8868 0610 00       		.uleb128 .LVU191
 8869 0611 00       		.uleb128 0
 8870              	.LLST33:
 8871 0612 04       		.byte	0x4
 8872 0613 8106     		.uleb128 .LVL64-.Ltext0
 8873 0615 9206     		.uleb128 .LVL65-1-.Ltext0
 8874 0617 01       		.uleb128 0x1
 8875 0618 52       		.byte	0x52
 8876 0619 04       		.byte	0x4
 8877 061a 9206     		.uleb128 .LVL65-1-.Ltext0
 8878 061c C906     		.uleb128 .LVL69-.Ltext0
 8879 061e 01       		.uleb128 0x1
 8880 061f 54       		.byte	0x54
 8881 0620 04       		.byte	0x4
 8882 0621 C906     		.uleb128 .LVL69-.Ltext0
 8883 0623 DC06     		.uleb128 .LVL73-.Ltext0
 8884 0625 04       		.uleb128 0x4
 8885 0626 A3       		.byte	0xa3
 8886 0627 01       		.uleb128 0x1
 8887 0628 52       		.byte	0x52
 8888 0629 9F       		.byte	0x9f
 8889 062a 04       		.byte	0x4
 8890 062b DC06     		.uleb128 .LVL73-.Ltext0
 8891 062d E606     		.uleb128 .LVL74-.Ltext0
 8892 062f 01       		.uleb128 0x1
 8893 0630 54       		.byte	0x54
 8894 0631 04       		.byte	0x4
 8895 0632 E606     		.uleb128 .LVL74-.Ltext0
 8896 0634 E806     		.uleb128 .LFE14-.Ltext0
 8897 0636 04       		.uleb128 0x4
 8898 0637 A3       		.byte	0xa3
 8899 0638 01       		.uleb128 0x1
 8900 0639 52       		.byte	0x52
 8901 063a 9F       		.byte	0x9f
 8902 063b 00       		.byte	0
 8903              	.LVUS34:
 8904 063c 00       		.uleb128 0
 8905 063d 00       		.uleb128 .LVU178
 8906 063e 00       		.uleb128 .LVU178
 8907 063f 00       		.uleb128 .LVU189
 8908 0640 00       		.uleb128 .LVU189
 8909 0641 00       		.uleb128 .LVU190
 8910 0642 00       		.uleb128 .LVU190
 8911 0643 00       		.uleb128 0
 8912              	.LLST34:
 8913 0644 04       		.byte	0x4
 8914 0645 8106     		.uleb128 .LVL64-.Ltext0
 8915 0647 9206     		.uleb128 .LVL65-1-.Ltext0
 8916 0649 01       		.uleb128 0x1
 8917 064a 51       		.byte	0x51
 8918 064b 04       		.byte	0x4
 8919 064c 9206     		.uleb128 .LVL65-1-.Ltext0
 8920 064e DB06     		.uleb128 .LVL72-.Ltext0
 8921 0650 01       		.uleb128 0x1
 8922 0651 55       		.byte	0x55
 8923 0652 04       		.byte	0x4
 8924 0653 DB06     		.uleb128 .LVL72-.Ltext0
 8925 0655 DC06     		.uleb128 .LVL73-.Ltext0
 8926 0657 04       		.uleb128 0x4
 8927 0658 A3       		.byte	0xa3
 8928 0659 01       		.uleb128 0x1
 8929 065a 51       		.byte	0x51
 8930 065b 9F       		.byte	0x9f
 8931 065c 04       		.byte	0x4
 8932 065d DC06     		.uleb128 .LVL73-.Ltext0
 8933 065f E806     		.uleb128 .LFE14-.Ltext0
 8934 0661 01       		.uleb128 0x1
 8935 0662 55       		.byte	0x55
 8936 0663 00       		.byte	0
 8937              	.LVUS35:
 8938 0664 00       		.uleb128 .LVU179
 8939 0665 00       		.uleb128 .LVU184
 8940 0666 00       		.uleb128 .LVU184
 8941 0667 00       		.uleb128 .LVU188
 8942 0668 00       		.uleb128 .LVU190
 8943 0669 00       		.uleb128 0
 8944              	.LLST35:
 8945 066a 04       		.byte	0x4
 8946 066b 9606     		.uleb128 .LVL66-.Ltext0
 8947 066d A206     		.uleb128 .LVL67-.Ltext0
 8948 066f 01       		.uleb128 0x1
 8949 0670 50       		.byte	0x50
 8950 0671 04       		.byte	0x4
 8951 0672 A206     		.uleb128 .LVL67-.Ltext0
 8952 0674 D906     		.uleb128 .LVL71-.Ltext0
 8953 0676 01       		.uleb128 0x1
 8954 0677 53       		.byte	0x53
 8955 0678 04       		.byte	0x4
 8956 0679 DC06     		.uleb128 .LVL73-.Ltext0
 8957 067b E806     		.uleb128 .LFE14-.Ltext0
 8958 067d 01       		.uleb128 0x1
 8959 067e 50       		.byte	0x50
 8960 067f 00       		.byte	0
 8961              	.LVUS36:
 8962 0680 01       		.uleb128 .LVU180
 8963 0681 00       		.uleb128 .LVU185
 8964 0682 00       		.uleb128 .LVU185
 8965 0683 00       		.uleb128 .LVU187
 8966 0684 00       		.uleb128 .LVU187
 8967 0685 00       		.uleb128 .LVU187
 8968 0686 00       		.uleb128 .LVU190
 8969 0687 00       		.uleb128 0
 8970              	.LLST36:
 8971 0688 04       		.byte	0x4
 8972 0689 9606     		.uleb128 .LVL66-.Ltext0
 8973 068b C906     		.uleb128 .LVL69-.Ltext0
 8974 068d 0A       		.uleb128 0xa
 8975 068e 9E       		.byte	0x9e
 8976 068f 08       		.uleb128 0x8
 8977 0690 0E000000 		.quad	0x800000000000000e
 8977      00000080 
 8978 0698 04       		.byte	0x4
 8979 0699 C906     		.uleb128 .LVL69-.Ltext0
 8980 069b D006     		.uleb128 .LVL70-1-.Ltext0
 8981 069d 01       		.uleb128 0x1
 8982 069e 50       		.byte	0x50
 8983 069f 04       		.byte	0x4
 8984 06a0 D006     		.uleb128 .LVL70-1-.Ltext0
 8985 06a2 D106     		.uleb128 .LVL70-.Ltext0
 8986 06a4 01       		.uleb128 0x1
 8987 06a5 54       		.byte	0x54
 8988 06a6 04       		.byte	0x4
 8989 06a7 DC06     		.uleb128 .LVL73-.Ltext0
 8990 06a9 E806     		.uleb128 .LFE14-.Ltext0
 8991 06ab 0A       		.uleb128 0xa
 8992 06ac 9E       		.byte	0x9e
 8993 06ad 08       		.uleb128 0x8
 8994 06ae 0E000000 		.quad	0x800000000000000e
 8994      00000080 
 8995 06b6 00       		.byte	0
 8996              	.LVUS31:
 8997 06b7 00       		.uleb128 0
 8998 06b8 00       		.uleb128 .LVU171
 8999 06b9 00       		.uleb128 .LVU171
 9000 06ba 00       		.uleb128 0
 9001              	.LLST31:
 9002 06bb 04       		.byte	0x4
 9003 06bc EE05     		.uleb128 .LVL62-.Ltext0
 9004 06be FB05     		.uleb128 .LVL63-1-.Ltext0
 9005 06c0 01       		.uleb128 0x1
 9006 06c1 52       		.byte	0x52
 9007 06c2 04       		.byte	0x4
 9008 06c3 FB05     		.uleb128 .LVL63-1-.Ltext0
 9009 06c5 8106     		.uleb128 .LFE13-.Ltext0
 9010 06c7 04       		.uleb128 0x4
 9011 06c8 A3       		.byte	0xa3
 9012 06c9 01       		.uleb128 0x1
 9013 06ca 52       		.byte	0x52
 9014 06cb 9F       		.byte	0x9f
 9015 06cc 00       		.byte	0
 9016              	.LVUS32:
 9017 06cd 00       		.uleb128 0
 9018 06ce 00       		.uleb128 .LVU171
 9019 06cf 00       		.uleb128 .LVU171
 9020 06d0 00       		.uleb128 0
 9021              	.LLST32:
 9022 06d1 04       		.byte	0x4
 9023 06d2 EE05     		.uleb128 .LVL62-.Ltext0
 9024 06d4 FB05     		.uleb128 .LVL63-1-.Ltext0
 9025 06d6 01       		.uleb128 0x1
 9026 06d7 51       		.byte	0x51
 9027 06d8 04       		.byte	0x4
 9028 06d9 FB05     		.uleb128 .LVL63-1-.Ltext0
 9029 06db 8106     		.uleb128 .LFE13-.Ltext0
 9030 06dd 04       		.uleb128 0x4
 9031 06de A3       		.byte	0xa3
 9032 06df 01       		.uleb128 0x1
 9033 06e0 51       		.byte	0x51
 9034 06e1 9F       		.byte	0x9f
 9035 06e2 00       		.byte	0
 9036              	.LVUS28:
 9037 06e3 00       		.uleb128 0
 9038 06e4 00       		.uleb128 .LVU150
 9039 06e5 00       		.uleb128 .LVU150
 9040 06e6 00       		.uleb128 .LVU162
 9041 06e7 00       		.uleb128 .LVU162
 9042 06e8 00       		.uleb128 .LVU164
 9043 06e9 00       		.uleb128 .LVU164
 9044 06ea 00       		.uleb128 0
 9045              	.LLST28:
 9046 06eb 04       		.byte	0x4
 9047 06ec D304     		.uleb128 .LVL54-.Ltext0
 9048 06ee 8005     		.uleb128 .LVL55-.Ltext0
 9049 06f0 01       		.uleb128 0x1
 9050 06f1 52       		.byte	0x52
 9051 06f2 04       		.byte	0x4
 9052 06f3 8005     		.uleb128 .LVL55-.Ltext0
 9053 06f5 E305     		.uleb128 .LVL59-.Ltext0
 9054 06f7 01       		.uleb128 0x1
 9055 06f8 54       		.byte	0x54
 9056 06f9 04       		.byte	0x4
 9057 06fa E305     		.uleb128 .LVL59-.Ltext0
 9058 06fc E505     		.uleb128 .LVL61-.Ltext0
 9059 06fe 04       		.uleb128 0x4
 9060 06ff A3       		.byte	0xa3
 9061 0700 01       		.uleb128 0x1
 9062 0701 52       		.byte	0x52
 9063 0702 9F       		.byte	0x9f
 9064 0703 04       		.byte	0x4
 9065 0704 E505     		.uleb128 .LVL61-.Ltext0
 9066 0706 EE05     		.uleb128 .LFE12-.Ltext0
 9067 0708 01       		.uleb128 0x1
 9068 0709 54       		.byte	0x54
 9069 070a 00       		.byte	0
 9070              	.LVUS29:
 9071 070b 00       		.uleb128 0
 9072 070c 00       		.uleb128 .LVU150
 9073 070d 00       		.uleb128 .LVU150
 9074 070e 00       		.uleb128 .LVU161
 9075 070f 00       		.uleb128 .LVU161
 9076 0710 00       		.uleb128 .LVU164
 9077 0711 00       		.uleb128 .LVU164
 9078 0712 00       		.uleb128 0
 9079              	.LLST29:
 9080 0713 04       		.byte	0x4
 9081 0714 D304     		.uleb128 .LVL54-.Ltext0
 9082 0716 8005     		.uleb128 .LVL55-.Ltext0
 9083 0718 01       		.uleb128 0x1
 9084 0719 51       		.byte	0x51
 9085 071a 04       		.byte	0x4
 9086 071b 8005     		.uleb128 .LVL55-.Ltext0
 9087 071d E205     		.uleb128 .LVL58-.Ltext0
 9088 071f 01       		.uleb128 0x1
 9089 0720 53       		.byte	0x53
 9090 0721 04       		.byte	0x4
 9091 0722 E205     		.uleb128 .LVL58-.Ltext0
 9092 0724 E505     		.uleb128 .LVL61-.Ltext0
 9093 0726 04       		.uleb128 0x4
 9094 0727 A3       		.byte	0xa3
 9095 0728 01       		.uleb128 0x1
 9096 0729 51       		.byte	0x51
 9097 072a 9F       		.byte	0x9f
 9098 072b 04       		.byte	0x4
 9099 072c E505     		.uleb128 .LVL61-.Ltext0
 9100 072e EE05     		.uleb128 .LFE12-.Ltext0
 9101 0730 01       		.uleb128 0x1
 9102 0731 53       		.byte	0x53
 9103 0732 00       		.byte	0
 9104              	.LVUS30:
 9105 0733 00       		.uleb128 0
 9106 0734 00       		.uleb128 .LVU150
 9107 0735 00       		.uleb128 .LVU150
 9108 0736 00       		.uleb128 .LVU163
 9109 0737 00       		.uleb128 .LVU163
 9110 0738 00       		.uleb128 .LVU164
 9111 0739 00       		.uleb128 .LVU164
 9112 073a 00       		.uleb128 0
 9113              	.LLST30:
 9114 073b 04       		.byte	0x4
 9115 073c D304     		.uleb128 .LVL54-.Ltext0
 9116 073e 8005     		.uleb128 .LVL55-.Ltext0
 9117 0740 01       		.uleb128 0x1
 9118 0741 58       		.byte	0x58
 9119 0742 04       		.byte	0x4
 9120 0743 8005     		.uleb128 .LVL55-.Ltext0
 9121 0745 E405     		.uleb128 .LVL60-.Ltext0
 9122 0747 01       		.uleb128 0x1
 9123 0748 55       		.byte	0x55
 9124 0749 04       		.byte	0x4
 9125 074a E405     		.uleb128 .LVL60-.Ltext0
 9126 074c E505     		.uleb128 .LVL61-.Ltext0
 9127 074e 04       		.uleb128 0x4
 9128 074f A3       		.byte	0xa3
 9129 0750 01       		.uleb128 0x1
 9130 0751 58       		.byte	0x58
 9131 0752 9F       		.byte	0x9f
 9132 0753 04       		.byte	0x4
 9133 0754 E505     		.uleb128 .LVL61-.Ltext0
 9134 0756 EE05     		.uleb128 .LFE12-.Ltext0
 9135 0758 01       		.uleb128 0x1
 9136 0759 55       		.byte	0x55
 9137 075a 00       		.byte	0
 9138              	.LVUS24:
 9139 075b 00       		.uleb128 0
 9140 075c 00       		.uleb128 .LVU122
 9141 075d 00       		.uleb128 .LVU122
 9142 075e 00       		.uleb128 .LVU137
 9143 075f 00       		.uleb128 .LVU137
 9144 0760 00       		.uleb128 0
 9145              	.LLST24:
 9146 0761 04       		.byte	0x4
 9147 0762 B903     		.uleb128 .LVL46-.Ltext0
 9148 0764 EA03     		.uleb128 .LVL47-.Ltext0
 9149 0766 01       		.uleb128 0x1
 9150 0767 52       		.byte	0x52
 9151 0768 04       		.byte	0x4
 9152 0769 EA03     		.uleb128 .LVL47-.Ltext0
 9153 076b D204     		.uleb128 .LVL53-.Ltext0
 9154 076d 01       		.uleb128 0x1
 9155 076e 56       		.byte	0x56
 9156 076f 04       		.byte	0x4
 9157 0770 D204     		.uleb128 .LVL53-.Ltext0
 9158 0772 D304     		.uleb128 .LFE11-.Ltext0
 9159 0774 04       		.uleb128 0x4
 9160 0775 A3       		.byte	0xa3
 9161 0776 01       		.uleb128 0x1
 9162 0777 52       		.byte	0x52
 9163 0778 9F       		.byte	0x9f
 9164 0779 00       		.byte	0
 9165              	.LVUS25:
 9166 077a 00       		.uleb128 0
 9167 077b 00       		.uleb128 .LVU122
 9168 077c 00       		.uleb128 .LVU122
 9169 077d 00       		.uleb128 .LVU136
 9170 077e 00       		.uleb128 .LVU136
 9171 077f 00       		.uleb128 0
 9172              	.LLST25:
 9173 0780 04       		.byte	0x4
 9174 0781 B903     		.uleb128 .LVL46-.Ltext0
 9175 0783 EA03     		.uleb128 .LVL47-.Ltext0
 9176 0785 01       		.uleb128 0x1
 9177 0786 51       		.byte	0x51
 9178 0787 04       		.byte	0x4
 9179 0788 EA03     		.uleb128 .LVL47-.Ltext0
 9180 078a D104     		.uleb128 .LVL52-.Ltext0
 9181 078c 01       		.uleb128 0x1
 9182 078d 55       		.byte	0x55
 9183 078e 04       		.byte	0x4
 9184 078f D104     		.uleb128 .LVL52-.Ltext0
 9185 0791 D304     		.uleb128 .LFE11-.Ltext0
 9186 0793 04       		.uleb128 0x4
 9187 0794 A3       		.byte	0xa3
 9188 0795 01       		.uleb128 0x1
 9189 0796 51       		.byte	0x51
 9190 0797 9F       		.byte	0x9f
 9191 0798 00       		.byte	0
 9192              	.LVUS26:
 9193 0799 00       		.uleb128 0
 9194 079a 00       		.uleb128 .LVU122
 9195 079b 00       		.uleb128 .LVU122
 9196 079c 00       		.uleb128 .LVU134
 9197 079d 00       		.uleb128 .LVU134
 9198 079e 00       		.uleb128 0
 9199              	.LLST26:
 9200 079f 04       		.byte	0x4
 9201 07a0 B903     		.uleb128 .LVL46-.Ltext0
 9202 07a2 EA03     		.uleb128 .LVL47-.Ltext0
 9203 07a4 01       		.uleb128 0x1
 9204 07a5 58       		.byte	0x58
 9205 07a6 04       		.byte	0x4
 9206 07a7 EA03     		.uleb128 .LVL47-.Ltext0
 9207 07a9 CF04     		.uleb128 .LVL50-.Ltext0
 9208 07ab 01       		.uleb128 0x1
 9209 07ac 53       		.byte	0x53
 9210 07ad 04       		.byte	0x4
 9211 07ae CF04     		.uleb128 .LVL50-.Ltext0
 9212 07b0 D304     		.uleb128 .LFE11-.Ltext0
 9213 07b2 04       		.uleb128 0x4
 9214 07b3 A3       		.byte	0xa3
 9215 07b4 01       		.uleb128 0x1
 9216 07b5 58       		.byte	0x58
 9217 07b6 9F       		.byte	0x9f
 9218 07b7 00       		.byte	0
 9219              	.LVUS27:
 9220 07b8 00       		.uleb128 0
 9221 07b9 00       		.uleb128 .LVU122
 9222 07ba 00       		.uleb128 .LVU122
 9223 07bb 00       		.uleb128 .LVU135
 9224 07bc 00       		.uleb128 .LVU135
 9225 07bd 00       		.uleb128 0
 9226              	.LLST27:
 9227 07be 04       		.byte	0x4
 9228 07bf B903     		.uleb128 .LVL46-.Ltext0
 9229 07c1 EA03     		.uleb128 .LVL47-.Ltext0
 9230 07c3 01       		.uleb128 0x1
 9231 07c4 59       		.byte	0x59
 9232 07c5 04       		.byte	0x4
 9233 07c6 EA03     		.uleb128 .LVL47-.Ltext0
 9234 07c8 D004     		.uleb128 .LVL51-.Ltext0
 9235 07ca 01       		.uleb128 0x1
 9236 07cb 54       		.byte	0x54
 9237 07cc 04       		.byte	0x4
 9238 07cd D004     		.uleb128 .LVL51-.Ltext0
 9239 07cf D304     		.uleb128 .LFE11-.Ltext0
 9240 07d1 04       		.uleb128 0x4
 9241 07d2 A3       		.byte	0xa3
 9242 07d3 01       		.uleb128 0x1
 9243 07d4 59       		.byte	0x59
 9244 07d5 9F       		.byte	0x9f
 9245 07d6 00       		.byte	0
 9246              	.LVUS20:
 9247 07d7 00       		.uleb128 0
 9248 07d8 00       		.uleb128 .LVU81
 9249 07d9 00       		.uleb128 .LVU81
 9250 07da 00       		.uleb128 .LVU85
 9251 07db 00       		.uleb128 .LVU85
 9252 07dc 00       		.uleb128 .LVU86
 9253 07dd 00       		.uleb128 .LVU86
 9254 07de 00       		.uleb128 .LVU91
 9255 07df 00       		.uleb128 .LVU91
 9256 07e0 00       		.uleb128 0
 9257              	.LLST20:
 9258 07e1 04       		.byte	0x4
 9259 07e2 9802     		.uleb128 .LVL33-.Ltext0
 9260 07e4 BD02     		.uleb128 .LVL35-.Ltext0
 9261 07e6 01       		.uleb128 0x1
 9262 07e7 52       		.byte	0x52
 9263 07e8 04       		.byte	0x4
 9264 07e9 BD02     		.uleb128 .LVL35-.Ltext0
 9265 07eb CF02     		.uleb128 .LVL38-.Ltext0
 9266 07ed 01       		.uleb128 0x1
 9267 07ee 55       		.byte	0x55
 9268 07ef 04       		.byte	0x4
 9269 07f0 CF02     		.uleb128 .LVL38-.Ltext0
 9270 07f2 D002     		.uleb128 .LVL39-.Ltext0
 9271 07f4 04       		.uleb128 0x4
 9272 07f5 A3       		.byte	0xa3
 9273 07f6 01       		.uleb128 0x1
 9274 07f7 52       		.byte	0x52
 9275 07f8 9F       		.byte	0x9f
 9276 07f9 04       		.byte	0x4
 9277 07fa D002     		.uleb128 .LVL39-.Ltext0
 9278 07fc E702     		.uleb128 .LVL41-.Ltext0
 9279 07fe 01       		.uleb128 0x1
 9280 07ff 52       		.byte	0x52
 9281 0800 04       		.byte	0x4
 9282 0801 E702     		.uleb128 .LVL41-.Ltext0
 9283 0803 B903     		.uleb128 .LFE10-.Ltext0
 9284 0805 01       		.uleb128 0x1
 9285 0806 55       		.byte	0x55
 9286 0807 00       		.byte	0
 9287              	.LVUS21:
 9288 0808 00       		.uleb128 0
 9289 0809 00       		.uleb128 .LVU81
 9290 080a 00       		.uleb128 .LVU81
 9291 080b 00       		.uleb128 .LVU83
 9292 080c 00       		.uleb128 .LVU83
 9293 080d 00       		.uleb128 .LVU86
 9294 080e 00       		.uleb128 .LVU86
 9295 080f 00       		.uleb128 .LVU93
 9296 0810 00       		.uleb128 .LVU93
 9297 0811 00       		.uleb128 0
 9298              	.LLST21:
 9299 0812 04       		.byte	0x4
 9300 0813 9802     		.uleb128 .LVL33-.Ltext0
 9301 0815 BD02     		.uleb128 .LVL35-.Ltext0
 9302 0817 01       		.uleb128 0x1
 9303 0818 51       		.byte	0x51
 9304 0819 04       		.byte	0x4
 9305 081a BD02     		.uleb128 .LVL35-.Ltext0
 9306 081c CD02     		.uleb128 .LVL36-.Ltext0
 9307 081e 01       		.uleb128 0x1
 9308 081f 53       		.byte	0x53
 9309 0820 04       		.byte	0x4
 9310 0821 CD02     		.uleb128 .LVL36-.Ltext0
 9311 0823 D002     		.uleb128 .LVL39-.Ltext0
 9312 0825 04       		.uleb128 0x4
 9313 0826 A3       		.byte	0xa3
 9314 0827 01       		.uleb128 0x1
 9315 0828 51       		.byte	0x51
 9316 0829 9F       		.byte	0x9f
 9317 082a 04       		.byte	0x4
 9318 082b D002     		.uleb128 .LVL39-.Ltext0
 9319 082d F002     		.uleb128 .LVL42-1-.Ltext0
 9320 082f 01       		.uleb128 0x1
 9321 0830 51       		.byte	0x51
 9322 0831 04       		.byte	0x4
 9323 0832 F002     		.uleb128 .LVL42-1-.Ltext0
 9324 0834 B903     		.uleb128 .LFE10-.Ltext0
 9325 0836 01       		.uleb128 0x1
 9326 0837 53       		.byte	0x53
 9327 0838 00       		.byte	0
 9328              	.LVUS22:
 9329 0839 00       		.uleb128 0
 9330 083a 00       		.uleb128 .LVU81
 9331 083b 00       		.uleb128 .LVU81
 9332 083c 00       		.uleb128 .LVU84
 9333 083d 00       		.uleb128 .LVU84
 9334 083e 00       		.uleb128 .LVU86
 9335 083f 00       		.uleb128 .LVU86
 9336 0840 00       		.uleb128 0
 9337              	.LLST22:
 9338 0841 04       		.byte	0x4
 9339 0842 9802     		.uleb128 .LVL33-.Ltext0
 9340 0844 BD02     		.uleb128 .LVL35-.Ltext0
 9341 0846 01       		.uleb128 0x1
 9342 0847 58       		.byte	0x58
 9343 0848 04       		.byte	0x4
 9344 0849 BD02     		.uleb128 .LVL35-.Ltext0
 9345 084b CE02     		.uleb128 .LVL37-.Ltext0
 9346 084d 01       		.uleb128 0x1
 9347 084e 54       		.byte	0x54
 9348 084f 04       		.byte	0x4
 9349 0850 CE02     		.uleb128 .LVL37-.Ltext0
 9350 0852 D002     		.uleb128 .LVL39-.Ltext0
 9351 0854 04       		.uleb128 0x4
 9352 0855 A3       		.byte	0xa3
 9353 0856 01       		.uleb128 0x1
 9354 0857 58       		.byte	0x58
 9355 0858 9F       		.byte	0x9f
 9356 0859 04       		.byte	0x4
 9357 085a D002     		.uleb128 .LVL39-.Ltext0
 9358 085c B903     		.uleb128 .LFE10-.Ltext0
 9359 085e 01       		.uleb128 0x1
 9360 085f 54       		.byte	0x54
 9361 0860 00       		.byte	0
 9362              	.LVUS23:
 9363 0861 01       		.uleb128 .LVU79
 9364 0862 00       		.uleb128 .LVU81
 9365 0863 00       		.uleb128 .LVU89
 9366 0864 00       		.uleb128 .LVU102
 9367              	.LLST23:
 9368 0865 04       		.byte	0x4
 9369 0866 AE02     		.uleb128 .LVL34-.Ltext0
 9370 0868 BD02     		.uleb128 .LVL35-.Ltext0
 9371 086a 02       		.uleb128 0x2
 9372 086b 30       		.byte	0x30
 9373 086c 9F       		.byte	0x9f
 9374 086d 04       		.byte	0x4
 9375 086e E402     		.uleb128 .LVL40-.Ltext0
 9376 0870 9703     		.uleb128 .LVL44-.Ltext0
 9377 0872 02       		.uleb128 0x2
 9378 0873 30       		.byte	0x30
 9379 0874 9F       		.byte	0x9f
 9380 0875 00       		.byte	0
 9381              	.LVUS17:
 9382 0876 00       		.uleb128 0
 9383 0877 00       		.uleb128 .LVU72
 9384 0878 00       		.uleb128 .LVU72
 9385 0879 00       		.uleb128 0
 9386              	.LLST17:
 9387 087a 04       		.byte	0x4
 9388 087b 8A02     		.uleb128 .LVL31-.Ltext0
 9389 087d 9202     		.uleb128 .LVL32-1-.Ltext0
 9390 087f 01       		.uleb128 0x1
 9391 0880 52       		.byte	0x52
 9392 0881 04       		.byte	0x4
 9393 0882 9202     		.uleb128 .LVL32-1-.Ltext0
 9394 0884 9802     		.uleb128 .LFE9-.Ltext0
 9395 0886 04       		.uleb128 0x4
 9396 0887 A3       		.byte	0xa3
 9397 0888 01       		.uleb128 0x1
 9398 0889 52       		.byte	0x52
 9399 088a 9F       		.byte	0x9f
 9400 088b 00       		.byte	0
 9401              	.LVUS18:
 9402 088c 00       		.uleb128 0
 9403 088d 00       		.uleb128 .LVU72
 9404 088e 00       		.uleb128 .LVU72
 9405 088f 00       		.uleb128 0
 9406              	.LLST18:
 9407 0890 04       		.byte	0x4
 9408 0891 8A02     		.uleb128 .LVL31-.Ltext0
 9409 0893 9202     		.uleb128 .LVL32-1-.Ltext0
 9410 0895 01       		.uleb128 0x1
 9411 0896 51       		.byte	0x51
 9412 0897 04       		.byte	0x4
 9413 0898 9202     		.uleb128 .LVL32-1-.Ltext0
 9414 089a 9802     		.uleb128 .LFE9-.Ltext0
 9415 089c 04       		.uleb128 0x4
 9416 089d A3       		.byte	0xa3
 9417 089e 01       		.uleb128 0x1
 9418 089f 51       		.byte	0x51
 9419 08a0 9F       		.byte	0x9f
 9420 08a1 00       		.byte	0
 9421              	.LVUS19:
 9422 08a2 00       		.uleb128 0
 9423 08a3 00       		.uleb128 .LVU72
 9424 08a4 00       		.uleb128 .LVU72
 9425 08a5 00       		.uleb128 0
 9426              	.LLST19:
 9427 08a6 04       		.byte	0x4
 9428 08a7 8A02     		.uleb128 .LVL31-.Ltext0
 9429 08a9 9202     		.uleb128 .LVL32-1-.Ltext0
 9430 08ab 01       		.uleb128 0x1
 9431 08ac 58       		.byte	0x58
 9432 08ad 04       		.byte	0x4
 9433 08ae 9202     		.uleb128 .LVL32-1-.Ltext0
 9434 08b0 9802     		.uleb128 .LFE9-.Ltext0
 9435 08b2 04       		.uleb128 0x4
 9436 08b3 A3       		.byte	0xa3
 9437 08b4 01       		.uleb128 0x1
 9438 08b5 58       		.byte	0x58
 9439 08b6 9F       		.byte	0x9f
 9440 08b7 00       		.byte	0
 9441              	.LVUS10:
 9442 08b8 00       		.uleb128 0
 9443 08b9 00       		.uleb128 .LVU44
 9444 08ba 00       		.uleb128 .LVU44
 9445 08bb 00       		.uleb128 0
 9446              	.LLST10:
 9447 08bc 04       		.byte	0x4
 9448 08bd A001     		.uleb128 .LVL17-.Ltext0
 9449 08bf A901     		.uleb128 .LVL18-1-.Ltext0
 9450 08c1 01       		.uleb128 0x1
 9451 08c2 52       		.byte	0x52
 9452 08c3 04       		.byte	0x4
 9453 08c4 A901     		.uleb128 .LVL18-1-.Ltext0
 9454 08c6 AF01     		.uleb128 .LFE8-.Ltext0
 9455 08c8 04       		.uleb128 0x4
 9456 08c9 A3       		.byte	0xa3
 9457 08ca 01       		.uleb128 0x1
 9458 08cb 52       		.byte	0x52
 9459 08cc 9F       		.byte	0x9f
 9460 08cd 00       		.byte	0
 9461              	.LVUS11:
 9462 08ce 00       		.uleb128 0
 9463 08cf 00       		.uleb128 .LVU44
 9464 08d0 00       		.uleb128 .LVU44
 9465 08d1 00       		.uleb128 0
 9466              	.LLST11:
 9467 08d2 04       		.byte	0x4
 9468 08d3 A001     		.uleb128 .LVL17-.Ltext0
 9469 08d5 A901     		.uleb128 .LVL18-1-.Ltext0
 9470 08d7 01       		.uleb128 0x1
 9471 08d8 51       		.byte	0x51
 9472 08d9 04       		.byte	0x4
 9473 08da A901     		.uleb128 .LVL18-1-.Ltext0
 9474 08dc AF01     		.uleb128 .LFE8-.Ltext0
 9475 08de 04       		.uleb128 0x4
 9476 08df A3       		.byte	0xa3
 9477 08e0 01       		.uleb128 0x1
 9478 08e1 51       		.byte	0x51
 9479 08e2 9F       		.byte	0x9f
 9480 08e3 00       		.byte	0
 9481              	.LVUS12:
 9482 08e4 00       		.uleb128 0
 9483 08e5 00       		.uleb128 .LVU44
 9484 08e6 00       		.uleb128 .LVU44
 9485 08e7 00       		.uleb128 0
 9486              	.LLST12:
 9487 08e8 04       		.byte	0x4
 9488 08e9 A001     		.uleb128 .LVL17-.Ltext0
 9489 08eb A901     		.uleb128 .LVL18-1-.Ltext0
 9490 08ed 01       		.uleb128 0x1
 9491 08ee 58       		.byte	0x58
 9492 08ef 04       		.byte	0x4
 9493 08f0 A901     		.uleb128 .LVL18-1-.Ltext0
 9494 08f2 AF01     		.uleb128 .LFE8-.Ltext0
 9495 08f4 04       		.uleb128 0x4
 9496 08f5 A3       		.byte	0xa3
 9497 08f6 01       		.uleb128 0x1
 9498 08f7 58       		.byte	0x58
 9499 08f8 9F       		.byte	0x9f
 9500 08f9 00       		.byte	0
 9501              	.LVUS7:
 9502 08fa 00       		.uleb128 0
 9503 08fb 00       		.uleb128 .LVU40
 9504 08fc 00       		.uleb128 .LVU40
 9505 08fd 00       		.uleb128 0
 9506              	.LLST7:
 9507 08fe 04       		.byte	0x4
 9508 08ff 8D01     		.uleb128 .LVL15-.Ltext0
 9509 0901 9A01     		.uleb128 .LVL16-1-.Ltext0
 9510 0903 01       		.uleb128 0x1
 9511 0904 52       		.byte	0x52
 9512 0905 04       		.byte	0x4
 9513 0906 9A01     		.uleb128 .LVL16-1-.Ltext0
 9514 0908 A001     		.uleb128 .LFE7-.Ltext0
 9515 090a 04       		.uleb128 0x4
 9516 090b A3       		.byte	0xa3
 9517 090c 01       		.uleb128 0x1
 9518 090d 52       		.byte	0x52
 9519 090e 9F       		.byte	0x9f
 9520 090f 00       		.byte	0
 9521              	.LVUS8:
 9522 0910 00       		.uleb128 0
 9523 0911 00       		.uleb128 .LVU40
 9524 0912 00       		.uleb128 .LVU40
 9525 0913 00       		.uleb128 0
 9526              	.LLST8:
 9527 0914 04       		.byte	0x4
 9528 0915 8D01     		.uleb128 .LVL15-.Ltext0
 9529 0917 9A01     		.uleb128 .LVL16-1-.Ltext0
 9530 0919 01       		.uleb128 0x1
 9531 091a 51       		.byte	0x51
 9532 091b 04       		.byte	0x4
 9533 091c 9A01     		.uleb128 .LVL16-1-.Ltext0
 9534 091e A001     		.uleb128 .LFE7-.Ltext0
 9535 0920 04       		.uleb128 0x4
 9536 0921 A3       		.byte	0xa3
 9537 0922 01       		.uleb128 0x1
 9538 0923 51       		.byte	0x51
 9539 0924 9F       		.byte	0x9f
 9540 0925 00       		.byte	0
 9541              	.LVUS9:
 9542 0926 00       		.uleb128 0
 9543 0927 00       		.uleb128 .LVU40
 9544 0928 00       		.uleb128 .LVU40
 9545 0929 00       		.uleb128 0
 9546              	.LLST9:
 9547 092a 04       		.byte	0x4
 9548 092b 8D01     		.uleb128 .LVL15-.Ltext0
 9549 092d 9A01     		.uleb128 .LVL16-1-.Ltext0
 9550 092f 01       		.uleb128 0x1
 9551 0930 58       		.byte	0x58
 9552 0931 04       		.byte	0x4
 9553 0932 9A01     		.uleb128 .LVL16-1-.Ltext0
 9554 0934 A001     		.uleb128 .LFE7-.Ltext0
 9555 0936 04       		.uleb128 0x4
 9556 0937 A3       		.byte	0xa3
 9557 0938 01       		.uleb128 0x1
 9558 0939 58       		.byte	0x58
 9559 093a 9F       		.byte	0x9f
 9560 093b 00       		.byte	0
 9561              	.LVUS3:
 9562 093c 00       		.uleb128 0
 9563 093d 00       		.uleb128 .LVU22
 9564 093e 00       		.uleb128 .LVU22
 9565 093f 00       		.uleb128 0
 9566              	.LLST3:
 9567 0940 04       		.byte	0x4
 9568 0941 53       		.uleb128 .LVL7-.Ltext0
 9569 0942 5C       		.uleb128 .LVL8-1-.Ltext0
 9570 0943 01       		.uleb128 0x1
 9571 0944 52       		.byte	0x52
 9572 0945 04       		.byte	0x4
 9573 0946 5C       		.uleb128 .LVL8-1-.Ltext0
 9574 0947 62       		.uleb128 .LFE6-.Ltext0
 9575 0948 04       		.uleb128 0x4
 9576 0949 A3       		.byte	0xa3
 9577 094a 01       		.uleb128 0x1
 9578 094b 52       		.byte	0x52
 9579 094c 9F       		.byte	0x9f
 9580 094d 00       		.byte	0
 9581              	.LVUS4:
 9582 094e 00       		.uleb128 0
 9583 094f 00       		.uleb128 .LVU22
 9584 0950 00       		.uleb128 .LVU22
 9585 0951 00       		.uleb128 0
 9586              	.LLST4:
 9587 0952 04       		.byte	0x4
 9588 0953 53       		.uleb128 .LVL7-.Ltext0
 9589 0954 5C       		.uleb128 .LVL8-1-.Ltext0
 9590 0955 01       		.uleb128 0x1
 9591 0956 51       		.byte	0x51
 9592 0957 04       		.byte	0x4
 9593 0958 5C       		.uleb128 .LVL8-1-.Ltext0
 9594 0959 62       		.uleb128 .LFE6-.Ltext0
 9595 095a 04       		.uleb128 0x4
 9596 095b A3       		.byte	0xa3
 9597 095c 01       		.uleb128 0x1
 9598 095d 51       		.byte	0x51
 9599 095e 9F       		.byte	0x9f
 9600 095f 00       		.byte	0
 9601              	.LVUS2:
 9602 0960 00       		.uleb128 0
 9603 0961 00       		.uleb128 .LVU18
 9604 0962 00       		.uleb128 .LVU18
 9605 0963 00       		.uleb128 0
 9606              	.LLST2:
 9607 0964 04       		.byte	0x4
 9608 0965 3C       		.uleb128 .LVL5-.Ltext0
 9609 0966 4D       		.uleb128 .LVL6-1-.Ltext0
 9610 0967 01       		.uleb128 0x1
 9611 0968 52       		.byte	0x52
 9612 0969 04       		.byte	0x4
 9613 096a 4D       		.uleb128 .LVL6-1-.Ltext0
 9614 096b 53       		.uleb128 .LFE5-.Ltext0
 9615 096c 04       		.uleb128 0x4
 9616 096d A3       		.byte	0xa3
 9617 096e 01       		.uleb128 0x1
 9618 096f 52       		.byte	0x52
 9619 0970 9F       		.byte	0x9f
 9620 0971 00       		.byte	0
 9621              	.LVUS13:
 9622 0972 00       		.uleb128 0
 9623 0973 00       		.uleb128 .LVU53
 9624 0974 00       		.uleb128 .LVU53
 9625 0975 00       		.uleb128 .LVU64
 9626 0976 00       		.uleb128 .LVU64
 9627 0977 00       		.uleb128 .LVU67
 9628 0978 00       		.uleb128 .LVU67
 9629 0979 00       		.uleb128 0
 9630              	.LLST13:
 9631 097a 04       		.byte	0x4
 9632 097b AF01     		.uleb128 .LVL19-.Ltext0
 9633 097d C801     		.uleb128 .LVL21-.Ltext0
 9634 097f 01       		.uleb128 0x1
 9635 0980 52       		.byte	0x52
 9636 0981 04       		.byte	0x4
 9637 0982 C801     		.uleb128 .LVL21-.Ltext0
 9638 0984 8002     		.uleb128 .LVL27-.Ltext0
 9639 0986 01       		.uleb128 0x1
 9640 0987 54       		.byte	0x54
 9641 0988 04       		.byte	0x4
 9642 0989 8002     		.uleb128 .LVL27-.Ltext0
 9643 098b 8302     		.uleb128 .LVL30-.Ltext0
 9644 098d 04       		.uleb128 0x4
 9645 098e A3       		.byte	0xa3
 9646 098f 01       		.uleb128 0x1
 9647 0990 52       		.byte	0x52
 9648 0991 9F       		.byte	0x9f
 9649 0992 04       		.byte	0x4
 9650 0993 8302     		.uleb128 .LVL30-.Ltext0
 9651 0995 8A02     		.uleb128 .LFE4-.Ltext0
 9652 0997 01       		.uleb128 0x1
 9653 0998 52       		.byte	0x52
 9654 0999 00       		.byte	0
 9655              	.LVUS14:
 9656 099a 00       		.uleb128 0
 9657 099b 00       		.uleb128 .LVU54
 9658 099c 00       		.uleb128 .LVU54
 9659 099d 00       		.uleb128 .LVU66
 9660 099e 00       		.uleb128 .LVU66
 9661 099f 00       		.uleb128 .LVU67
 9662 09a0 00       		.uleb128 .LVU67
 9663 09a1 00       		.uleb128 0
 9664              	.LLST14:
 9665 09a2 04       		.byte	0x4
 9666 09a3 AF01     		.uleb128 .LVL19-.Ltext0
 9667 09a5 CC01     		.uleb128 .LVL22-1-.Ltext0
 9668 09a7 01       		.uleb128 0x1
 9669 09a8 51       		.byte	0x51
 9670 09a9 04       		.byte	0x4
 9671 09aa CC01     		.uleb128 .LVL22-1-.Ltext0
 9672 09ac 8202     		.uleb128 .LVL29-.Ltext0
 9673 09ae 01       		.uleb128 0x1
 9674 09af 56       		.byte	0x56
 9675 09b0 04       		.byte	0x4
 9676 09b1 8202     		.uleb128 .LVL29-.Ltext0
 9677 09b3 8302     		.uleb128 .LVL30-.Ltext0
 9678 09b5 04       		.uleb128 0x4
 9679 09b6 A3       		.byte	0xa3
 9680 09b7 01       		.uleb128 0x1
 9681 09b8 51       		.byte	0x51
 9682 09b9 9F       		.byte	0x9f
 9683 09ba 04       		.byte	0x4
 9684 09bb 8302     		.uleb128 .LVL30-.Ltext0
 9685 09bd 8A02     		.uleb128 .LFE4-.Ltext0
 9686 09bf 01       		.uleb128 0x1
 9687 09c0 51       		.byte	0x51
 9688 09c1 00       		.byte	0
 9689              	.LVUS15:
 9690 09c2 00       		.uleb128 0
 9691 09c3 00       		.uleb128 .LVU54
 9692 09c4 00       		.uleb128 .LVU54
 9693 09c5 00       		.uleb128 .LVU63
 9694 09c6 00       		.uleb128 .LVU63
 9695 09c7 00       		.uleb128 .LVU67
 9696 09c8 00       		.uleb128 .LVU67
 9697 09c9 00       		.uleb128 0
 9698              	.LLST15:
 9699 09ca 04       		.byte	0x4
 9700 09cb AF01     		.uleb128 .LVL19-.Ltext0
 9701 09cd CC01     		.uleb128 .LVL22-1-.Ltext0
 9702 09cf 01       		.uleb128 0x1
 9703 09d0 58       		.byte	0x58
 9704 09d1 04       		.byte	0x4
 9705 09d2 CC01     		.uleb128 .LVL22-1-.Ltext0
 9706 09d4 FF01     		.uleb128 .LVL26-.Ltext0
 9707 09d6 01       		.uleb128 0x1
 9708 09d7 53       		.byte	0x53
 9709 09d8 04       		.byte	0x4
 9710 09d9 FF01     		.uleb128 .LVL26-.Ltext0
 9711 09db 8302     		.uleb128 .LVL30-.Ltext0
 9712 09dd 04       		.uleb128 0x4
 9713 09de A3       		.byte	0xa3
 9714 09df 01       		.uleb128 0x1
 9715 09e0 58       		.byte	0x58
 9716 09e1 9F       		.byte	0x9f
 9717 09e2 04       		.byte	0x4
 9718 09e3 8302     		.uleb128 .LVL30-.Ltext0
 9719 09e5 8A02     		.uleb128 .LFE4-.Ltext0
 9720 09e7 01       		.uleb128 0x1
 9721 09e8 53       		.byte	0x53
 9722 09e9 00       		.byte	0
 9723              	.LVUS16:
 9724 09ea 02       		.uleb128 .LVU49
 9725 09eb 00       		.uleb128 .LVU55
 9726 09ec 00       		.uleb128 .LVU55
 9727 09ed 00       		.uleb128 .LVU65
 9728 09ee 00       		.uleb128 .LVU65
 9729 09ef 00       		.uleb128 .LVU67
 9730 09f0 00       		.uleb128 .LVU67
 9731 09f1 00       		.uleb128 0
 9732              	.LLST16:
 9733 09f2 04       		.byte	0x4
 9734 09f3 C001     		.uleb128 .LVL20-.Ltext0
 9735 09f5 D001     		.uleb128 .LVL23-.Ltext0
 9736 09f7 02       		.uleb128 0x2
 9737 09f8 30       		.byte	0x30
 9738 09f9 9F       		.byte	0x9f
 9739 09fa 04       		.byte	0x4
 9740 09fb D001     		.uleb128 .LVL23-.Ltext0
 9741 09fd 8102     		.uleb128 .LVL28-.Ltext0
 9742 09ff 01       		.uleb128 0x1
 9743 0a00 55       		.byte	0x55
 9744 0a01 04       		.byte	0x4
 9745 0a02 8102     		.uleb128 .LVL28-.Ltext0
 9746 0a04 8302     		.uleb128 .LVL30-.Ltext0
 9747 0a06 01       		.uleb128 0x1
 9748 0a07 50       		.byte	0x50
 9749 0a08 04       		.byte	0x4
 9750 0a09 8302     		.uleb128 .LVL30-.Ltext0
 9751 0a0b 8A02     		.uleb128 .LFE4-.Ltext0
 9752 0a0d 02       		.uleb128 0x2
 9753 0a0e 30       		.byte	0x30
 9754 0a0f 9F       		.byte	0x9f
 9755 0a10 00       		.byte	0
 9756              	.LVUS5:
 9757 0a11 00       		.uleb128 0
 9758 0a12 00       		.uleb128 .LVU28
 9759 0a13 00       		.uleb128 .LVU28
 9760 0a14 00       		.uleb128 .LVU35
 9761 0a15 00       		.uleb128 .LVU35
 9762 0a16 00       		.uleb128 0
 9763              	.LLST5:
 9764 0a17 04       		.byte	0x4
 9765 0a18 62       		.uleb128 .LVL9-.Ltext0
 9766 0a19 6F       		.uleb128 .LVL10-1-.Ltext0
 9767 0a1a 01       		.uleb128 0x1
 9768 0a1b 52       		.byte	0x52
 9769 0a1c 04       		.byte	0x4
 9770 0a1d 6F       		.uleb128 .LVL10-1-.Ltext0
 9771 0a1e 8C01     		.uleb128 .LVL14-.Ltext0
 9772 0a20 01       		.uleb128 0x1
 9773 0a21 54       		.byte	0x54
 9774 0a22 04       		.byte	0x4
 9775 0a23 8C01     		.uleb128 .LVL14-.Ltext0
 9776 0a25 8D01     		.uleb128 .LFE3-.Ltext0
 9777 0a27 04       		.uleb128 0x4
 9778 0a28 A3       		.byte	0xa3
 9779 0a29 01       		.uleb128 0x1
 9780 0a2a 52       		.byte	0x52
 9781 0a2b 9F       		.byte	0x9f
 9782 0a2c 00       		.byte	0
 9783              	.LVUS6:
 9784 0a2d 00       		.uleb128 .LVU29
 9785 0a2e 00       		.uleb128 .LVU32
 9786 0a2f 00       		.uleb128 .LVU32
 9787 0a30 00       		.uleb128 .LVU34
 9788 0a31 00       		.uleb128 .LVU34
 9789 0a32 00       		.uleb128 0
 9790              	.LLST6:
 9791 0a33 04       		.byte	0x4
 9792 0a34 73       		.uleb128 .LVL11-.Ltext0
 9793 0a35 8201     		.uleb128 .LVL12-1-.Ltext0
 9794 0a37 01       		.uleb128 0x1
 9795 0a38 50       		.byte	0x50
 9796 0a39 04       		.byte	0x4
 9797 0a3a 8201     		.uleb128 .LVL12-1-.Ltext0
 9798 0a3c 8B01     		.uleb128 .LVL13-.Ltext0
 9799 0a3e 01       		.uleb128 0x1
 9800 0a3f 53       		.byte	0x53
 9801 0a40 04       		.byte	0x4
 9802 0a41 8B01     		.uleb128 .LVL13-.Ltext0
 9803 0a43 8D01     		.uleb128 .LFE3-.Ltext0
 9804 0a45 01       		.uleb128 0x1
 9805 0a46 50       		.byte	0x50
 9806 0a47 00       		.byte	0
 9807              	.LVUS0:
 9808 0a48 00       		.uleb128 0
 9809 0a49 00       		.uleb128 .LVU6
 9810 0a4a 00       		.uleb128 .LVU6
 9811 0a4b 00       		.uleb128 .LVU7
 9812 0a4c 00       		.uleb128 .LVU7
 9813 0a4d 00       		.uleb128 0
 9814              	.LLST0:
 9815 0a4e 04       		.byte	0x4
 9816 0a4f 00       		.uleb128 .LVL0-.Ltext0
 9817 0a50 18       		.uleb128 .LVL1-.Ltext0
 9818 0a51 01       		.uleb128 0x1
 9819 0a52 52       		.byte	0x52
 9820 0a53 04       		.byte	0x4
 9821 0a54 18       		.uleb128 .LVL1-.Ltext0
 9822 0a55 21       		.uleb128 .LVL2-1-.Ltext0
 9823 0a56 01       		.uleb128 0x1
 9824 0a57 51       		.byte	0x51
 9825 0a58 04       		.byte	0x4
 9826 0a59 21       		.uleb128 .LVL2-1-.Ltext0
 9827 0a5a 3C       		.uleb128 .LFE2-.Ltext0
 9828 0a5b 04       		.uleb128 0x4
 9829 0a5c A3       		.byte	0xa3
 9830 0a5d 01       		.uleb128 0x1
 9831 0a5e 52       		.byte	0x52
 9832 0a5f 9F       		.byte	0x9f
 9833 0a60 00       		.byte	0
 9834              	.LVUS1:
 9835 0a61 00       		.uleb128 .LVU7
 9836 0a62 00       		.uleb128 .LVU11
 9837 0a63 00       		.uleb128 .LVU12
 9838 0a64 00       		.uleb128 0
 9839              	.LLST1:
 9840 0a65 04       		.byte	0x4
 9841 0a66 22       		.uleb128 .LVL2-.Ltext0
 9842 0a67 2C       		.uleb128 .LVL3-.Ltext0
 9843 0a68 01       		.uleb128 0x1
 9844 0a69 50       		.byte	0x50
 9845 0a6a 04       		.byte	0x4
 9846 0a6b 31       		.uleb128 .LVL4-.Ltext0
 9847 0a6c 3C       		.uleb128 .LFE2-.Ltext0
 9848 0a6d 01       		.uleb128 0x1
 9849 0a6e 50       		.byte	0x50
 9850 0a6f 00       		.byte	0
 9851              	.Ldebug_loc3:
 9852              		.section	.debug_aranges,"dr"
 9853 0000 2C000000 		.long	0x2c
 9854 0004 0200     		.word	0x2
 9855 0006 00000000 		.secrel32	.Ldebug_info0
 9856 000a 08       		.byte	0x8
 9857 000b 00       		.byte	0
 9858 000c 0000     		.word	0
 9859 000e 0000     		.word	0
 9860 0010 00000000 		.quad	.Ltext0
 9860      00000000 
 9861 0018 E2070000 		.quad	.Letext0-.Ltext0
 9861      00000000 
 9862 0020 00000000 		.quad	0
 9862      00000000 
 9863 0028 00000000 		.quad	0
 9863      00000000 
 9864              		.section	.debug_macro,"dr"
 9865              	.Ldebug_macro0:
 9866 0000 0500     		.word	0x5
 9867 0002 02       		.byte	0x2
 9868 0003 00000000 		.secrel32	.Ldebug_line0
 9869 0007 01       		.byte	0x1
 9870 0008 00       		.uleb128 0
 9871 0009 5F5F5354 		.ascii "__STDC__ 1\0"
 9871      44435F5F 
 9871      203100
 9872 0014 01       		.byte	0x1
 9873 0015 00       		.uleb128 0
 9874 0016 5F5F5354 		.ascii "__STDC_VERSION__ 201112L\0"
 9874      44435F56 
 9874      45525349 
 9874      4F4E5F5F 
 9874      20323031 
 9875 002f 01       		.byte	0x1
 9876 0030 00       		.uleb128 0
 9877 0031 5F5F5354 		.ascii "__STDC_UTF_16__ 1\0"
 9877      44435F55 
 9877      54465F31 
 9877      365F5F20 
 9877      3100
 9878 0043 01       		.byte	0x1
 9879 0044 00       		.uleb128 0
 9880 0045 5F5F5354 		.ascii "__STDC_UTF_32__ 1\0"
 9880      44435F55 
 9880      54465F33 
 9880      325F5F20 
 9880      3100
 9881 0057 01       		.byte	0x1
 9882 0058 00       		.uleb128 0
 9883 0059 5F5F5354 		.ascii "__STDC_HOSTED__ 0\0"
 9883      44435F48 
 9883      4F535445 
 9883      445F5F20 
 9883      3000
 9884 006b 01       		.byte	0x1
 9885 006c 00       		.uleb128 0
 9886 006d 5F5F474E 		.ascii "__GNUC__ 13\0"
 9886      55435F5F 
 9886      20313300 
 9887 0079 01       		.byte	0x1
 9888 007a 00       		.uleb128 0
 9889 007b 5F5F474E 		.ascii "__GNUC_MINOR__ 2\0"
 9889      55435F4D 
 9889      494E4F52 
 9889      5F5F2032 
 9889      00
 9890 008c 01       		.byte	0x1
 9891 008d 00       		.uleb128 0
 9892 008e 5F5F474E 		.ascii "__GNUC_PATCHLEVEL__ 0\0"
 9892      55435F50 
 9892      41544348 
 9892      4C455645 
 9892      4C5F5F20 
 9893 00a4 01       		.byte	0x1
 9894 00a5 00       		.uleb128 0
 9895 00a6 5F5F5645 		.ascii "__VERSION__ \"13.2.0\"\0"
 9895      5253494F 
 9895      4E5F5F20 
 9895      2231332E 
 9895      322E3022 
 9896 00bb 01       		.byte	0x1
 9897 00bc 00       		.uleb128 0
 9898 00bd 5F5F4154 		.ascii "__ATOMIC_RELAXED 0\0"
 9898      4F4D4943 
 9898      5F52454C 
 9898      41584544 
 9898      203000
 9899 00d0 01       		.byte	0x1
 9900 00d1 00       		.uleb128 0
 9901 00d2 5F5F4154 		.ascii "__ATOMIC_SEQ_CST 5\0"
 9901      4F4D4943 
 9901      5F534551 
 9901      5F435354 
 9901      203500
 9902 00e5 01       		.byte	0x1
 9903 00e6 00       		.uleb128 0
 9904 00e7 5F5F4154 		.ascii "__ATOMIC_ACQUIRE 2\0"
 9904      4F4D4943 
 9904      5F414351 
 9904      55495245 
 9904      203200
 9905 00fa 01       		.byte	0x1
 9906 00fb 00       		.uleb128 0
 9907 00fc 5F5F4154 		.ascii "__ATOMIC_RELEASE 3\0"
 9907      4F4D4943 
 9907      5F52454C 
 9907      45415345 
 9907      203300
 9908 010f 01       		.byte	0x1
 9909 0110 00       		.uleb128 0
 9910 0111 5F5F4154 		.ascii "__ATOMIC_ACQ_REL 4\0"
 9910      4F4D4943 
 9910      5F414351 
 9910      5F52454C 
 9910      203400
 9911 0124 01       		.byte	0x1
 9912 0125 00       		.uleb128 0
 9913 0126 5F5F4154 		.ascii "__ATOMIC_CONSUME 1\0"
 9913      4F4D4943 
 9913      5F434F4E 
 9913      53554D45 
 9913      203100
 9914 0139 01       		.byte	0x1
 9915 013a 00       		.uleb128 0
 9916 013b 5F5F7069 		.ascii "__pic__ 1\0"
 9916      635F5F20 
 9916      3100
 9917 0145 01       		.byte	0x1
 9918 0146 00       		.uleb128 0
 9919 0147 5F5F5049 		.ascii "__PIC__ 1\0"
 9919      435F5F20 
 9919      3100
 9920 0151 01       		.byte	0x1
 9921 0152 00       		.uleb128 0
 9922 0153 5F5F4F50 		.ascii "__OPTIMIZE__ 1\0"
 9922      54494D49 
 9922      5A455F5F 
 9922      203100
 9923 0162 01       		.byte	0x1
 9924 0163 00       		.uleb128 0
 9925 0164 5F5F4649 		.ascii "__FINITE_MATH_ONLY__ 0\0"
 9925      4E495445 
 9925      5F4D4154 
 9925      485F4F4E 
 9925      4C595F5F 
 9926 017b 01       		.byte	0x1
 9927 017c 00       		.uleb128 0
 9928 017d 5F5F5349 		.ascii "__SIZEOF_INT__ 4\0"
 9928      5A454F46 
 9928      5F494E54 
 9928      5F5F2034 
 9928      00
 9929 018e 01       		.byte	0x1
 9930 018f 00       		.uleb128 0
 9931 0190 5F5F5349 		.ascii "__SIZEOF_LONG__ 4\0"
 9931      5A454F46 
 9931      5F4C4F4E 
 9931      475F5F20 
 9931      3400
 9932 01a2 01       		.byte	0x1
 9933 01a3 00       		.uleb128 0
 9934 01a4 5F5F5349 		.ascii "__SIZEOF_LONG_LONG__ 8\0"
 9934      5A454F46 
 9934      5F4C4F4E 
 9934      475F4C4F 
 9934      4E475F5F 
 9935 01bb 01       		.byte	0x1
 9936 01bc 00       		.uleb128 0
 9937 01bd 5F5F5349 		.ascii "__SIZEOF_SHORT__ 2\0"
 9937      5A454F46 
 9937      5F53484F 
 9937      52545F5F 
 9937      203200
 9938 01d0 01       		.byte	0x1
 9939 01d1 00       		.uleb128 0
 9940 01d2 5F5F5349 		.ascii "__SIZEOF_FLOAT__ 4\0"
 9940      5A454F46 
 9940      5F464C4F 
 9940      41545F5F 
 9940      203400
 9941 01e5 01       		.byte	0x1
 9942 01e6 00       		.uleb128 0
 9943 01e7 5F5F5349 		.ascii "__SIZEOF_DOUBLE__ 8\0"
 9943      5A454F46 
 9943      5F444F55 
 9943      424C455F 
 9943      5F203800 
 9944 01fb 01       		.byte	0x1
 9945 01fc 00       		.uleb128 0
 9946 01fd 5F5F5349 		.ascii "__SIZEOF_LONG_DOUBLE__ 16\0"
 9946      5A454F46 
 9946      5F4C4F4E 
 9946      475F444F 
 9946      55424C45 
 9947 0217 01       		.byte	0x1
 9948 0218 00       		.uleb128 0
 9949 0219 5F5F5349 		.ascii "__SIZEOF_SIZE_T__ 8\0"
 9949      5A454F46 
 9949      5F53495A 
 9949      455F545F 
 9949      5F203800 
 9950 022d 01       		.byte	0x1
 9951 022e 00       		.uleb128 0
 9952 022f 5F5F4348 		.ascii "__CHAR_BIT__ 8\0"
 9952      41525F42 
 9952      49545F5F 
 9952      203800
 9953 023e 01       		.byte	0x1
 9954 023f 00       		.uleb128 0
 9955 0240 5F5F4249 		.ascii "__BIGGEST_ALIGNMENT__ 16\0"
 9955      47474553 
 9955      545F414C 
 9955      49474E4D 
 9955      454E545F 
 9956 0259 01       		.byte	0x1
 9957 025a 00       		.uleb128 0
 9958 025b 5F5F4F52 		.ascii "__ORDER_LITTLE_ENDIAN__ 1234\0"
 9958      4445525F 
 9958      4C495454 
 9958      4C455F45 
 9958      4E444941 
 9959 0278 01       		.byte	0x1
 9960 0279 00       		.uleb128 0
 9961 027a 5F5F4F52 		.ascii "__ORDER_BIG_ENDIAN__ 4321\0"
 9961      4445525F 
 9961      4249475F 
 9961      454E4449 
 9961      414E5F5F 
 9962 0294 01       		.byte	0x1
 9963 0295 00       		.uleb128 0
 9964 0296 5F5F4F52 		.ascii "__ORDER_PDP_ENDIAN__ 3412\0"
 9964      4445525F 
 9964      5044505F 
 9964      454E4449 
 9964      414E5F5F 
 9965 02b0 01       		.byte	0x1
 9966 02b1 00       		.uleb128 0
 9967 02b2 5F5F4259 		.ascii "__BYTE_ORDER__ __ORDER_LITTLE_ENDIAN__\0"
 9967      54455F4F 
 9967      52444552 
 9967      5F5F205F 
 9967      5F4F5244 
 9968 02d9 01       		.byte	0x1
 9969 02da 00       		.uleb128 0
 9970 02db 5F5F464C 		.ascii "__FLOAT_WORD_ORDER__ __ORDER_LITTLE_ENDIAN__\0"
 9970      4F41545F 
 9970      574F5244 
 9970      5F4F5244 
 9970      45525F5F 
 9971 0308 01       		.byte	0x1
 9972 0309 00       		.uleb128 0
 9973 030a 5F5F5349 		.ascii "__SIZEOF_POINTER__ 8\0"
 9973      5A454F46 
 9973      5F504F49 
 9973      4E544552 
 9973      5F5F2038 
 9974 031f 01       		.byte	0x1
 9975 0320 00       		.uleb128 0
 9976 0321 5F5F474E 		.ascii "__GNUC_EXECUTION_CHARSET_NAME \"UTF-8\"\0"
 9976      55435F45 
 9976      58454355 
 9976      54494F4E 
 9976      5F434841 
 9977 0347 01       		.byte	0x1
 9978 0348 00       		.uleb128 0
 9979 0349 5F5F474E 		.ascii "__GNUC_WIDE_EXECUTION_CHARSET_NAME \"UTF-16LE\"\0"
 9979      55435F57 
 9979      4944455F 
 9979      45584543 
 9979      5554494F 
 9980 0377 01       		.byte	0x1
 9981 0378 00       		.uleb128 0
 9982 0379 5F5F5349 		.ascii "__SIZE_TYPE__ long long unsigned int\0"
 9982      5A455F54 
 9982      5950455F 
 9982      5F206C6F 
 9982      6E67206C 
 9983 039e 01       		.byte	0x1
 9984 039f 00       		.uleb128 0
 9985 03a0 5F5F5054 		.ascii "__PTRDIFF_TYPE__ long long int\0"
 9985      52444946 
 9985      465F5459 
 9985      50455F5F 
 9985      206C6F6E 
 9986 03bf 01       		.byte	0x1
 9987 03c0 00       		.uleb128 0
 9988 03c1 5F5F5743 		.ascii "__WCHAR_TYPE__ short unsigned int\0"
 9988      4841525F 
 9988      54595045 
 9988      5F5F2073 
 9988      686F7274 
 9989 03e3 01       		.byte	0x1
 9990 03e4 00       		.uleb128 0
 9991 03e5 5F5F5749 		.ascii "__WINT_TYPE__ short unsigned int\0"
 9991      4E545F54 
 9991      5950455F 
 9991      5F207368 
 9991      6F727420 
 9992 0406 01       		.byte	0x1
 9993 0407 00       		.uleb128 0
 9994 0408 5F5F494E 		.ascii "__INTMAX_TYPE__ long long int\0"
 9994      544D4158 
 9994      5F545950 
 9994      455F5F20 
 9994      6C6F6E67 
 9995 0426 01       		.byte	0x1
 9996 0427 00       		.uleb128 0
 9997 0428 5F5F5549 		.ascii "__UINTMAX_TYPE__ long long unsigned int\0"
 9997      4E544D41 
 9997      585F5459 
 9997      50455F5F 
 9997      206C6F6E 
 9998 0450 01       		.byte	0x1
 9999 0451 00       		.uleb128 0
 10000 0452 5F5F4348 		.ascii "__CHAR16_TYPE__ short unsigned int\0"
 10000      41523136 
 10000      5F545950 
 10000      455F5F20 
 10000      73686F72 
 10001 0475 01       		.byte	0x1
 10002 0476 00       		.uleb128 0
 10003 0477 5F5F4348 		.ascii "__CHAR32_TYPE__ unsigned int\0"
 10003      41523332 
 10003      5F545950 
 10003      455F5F20 
 10003      756E7369 
 10004 0494 01       		.byte	0x1
 10005 0495 00       		.uleb128 0
 10006 0496 5F5F5349 		.ascii "__SIG_ATOMIC_TYPE__ int\0"
 10006      475F4154 
 10006      4F4D4943 
 10006      5F545950 
 10006      455F5F20 
 10007 04ae 01       		.byte	0x1
 10008 04af 00       		.uleb128 0
 10009 04b0 5F5F494E 		.ascii "__INT8_TYPE__ signed char\0"
 10009      54385F54 
 10009      5950455F 
 10009      5F207369 
 10009      676E6564 
 10010 04ca 01       		.byte	0x1
 10011 04cb 00       		.uleb128 0
 10012 04cc 5F5F494E 		.ascii "__INT16_TYPE__ short int\0"
 10012      5431365F 
 10012      54595045 
 10012      5F5F2073 
 10012      686F7274 
 10013 04e5 01       		.byte	0x1
 10014 04e6 00       		.uleb128 0
 10015 04e7 5F5F494E 		.ascii "__INT32_TYPE__ int\0"
 10015      5433325F 
 10015      54595045 
 10015      5F5F2069 
 10015      6E7400
 10016 04fa 01       		.byte	0x1
 10017 04fb 00       		.uleb128 0
 10018 04fc 5F5F494E 		.ascii "__INT64_TYPE__ long long int\0"
 10018      5436345F 
 10018      54595045 
 10018      5F5F206C 
 10018      6F6E6720 
 10019 0519 01       		.byte	0x1
 10020 051a 00       		.uleb128 0
 10021 051b 5F5F5549 		.ascii "__UINT8_TYPE__ unsigned char\0"
 10021      4E54385F 
 10021      54595045 
 10021      5F5F2075 
 10021      6E736967 
 10022 0538 01       		.byte	0x1
 10023 0539 00       		.uleb128 0
 10024 053a 5F5F5549 		.ascii "__UINT16_TYPE__ short unsigned int\0"
 10024      4E543136 
 10024      5F545950 
 10024      455F5F20 
 10024      73686F72 
 10025 055d 01       		.byte	0x1
 10026 055e 00       		.uleb128 0
 10027 055f 5F5F5549 		.ascii "__UINT32_TYPE__ unsigned int\0"
 10027      4E543332 
 10027      5F545950 
 10027      455F5F20 
 10027      756E7369 
 10028 057c 01       		.byte	0x1
 10029 057d 00       		.uleb128 0
 10030 057e 5F5F5549 		.ascii "__UINT64_TYPE__ long long unsigned int\0"
 10030      4E543634 
 10030      5F545950 
 10030      455F5F20 
 10030      6C6F6E67 
 10031 05a5 01       		.byte	0x1
 10032 05a6 00       		.uleb128 0
 10033 05a7 5F5F494E 		.ascii "__INT_LEAST8_TYPE__ signed char\0"
 10033      545F4C45 
 10033      41535438 
 10033      5F545950 
 10033      455F5F20 
 10034 05c7 01       		.byte	0x1
 10035 05c8 00       		.uleb128 0
 10036 05c9 5F5F494E 		.ascii "__INT_LEAST16_TYPE__ short int\0"
 10036      545F4C45 
 10036      41535431 
 10036      365F5459 
 10036      50455F5F 
 10037 05e8 01       		.byte	0x1
 10038 05e9 00       		.uleb128 0
 10039 05ea 5F5F494E 		.ascii "__INT_LEAST32_TYPE__ int\0"
 10039      545F4C45 
 10039      41535433 
 10039      325F5459 
 10039      50455F5F 
 10040 0603 01       		.byte	0x1
 10041 0604 00       		.uleb128 0
 10042 0605 5F5F494E 		.ascii "__INT_LEAST64_TYPE__ long long int\0"
 10042      545F4C45 
 10042      41535436 
 10042      345F5459 
 10042      50455F5F 
 10043 0628 01       		.byte	0x1
 10044 0629 00       		.uleb128 0
 10045 062a 5F5F5549 		.ascii "__UINT_LEAST8_TYPE__ unsigned char\0"
 10045      4E545F4C 
 10045      45415354 
 10045      385F5459 
 10045      50455F5F 
 10046 064d 01       		.byte	0x1
 10047 064e 00       		.uleb128 0
 10048 064f 5F5F5549 		.ascii "__UINT_LEAST16_TYPE__ short unsigned int\0"
 10048      4E545F4C 
 10048      45415354 
 10048      31365F54 
 10048      5950455F 
 10049 0678 01       		.byte	0x1
 10050 0679 00       		.uleb128 0
 10051 067a 5F5F5549 		.ascii "__UINT_LEAST32_TYPE__ unsigned int\0"
 10051      4E545F4C 
 10051      45415354 
 10051      33325F54 
 10051      5950455F 
 10052 069d 01       		.byte	0x1
 10053 069e 00       		.uleb128 0
 10054 069f 5F5F5549 		.ascii "__UINT_LEAST64_TYPE__ long long unsigned int\0"
 10054      4E545F4C 
 10054      45415354 
 10054      36345F54 
 10054      5950455F 
 10055 06cc 01       		.byte	0x1
 10056 06cd 00       		.uleb128 0
 10057 06ce 5F5F494E 		.ascii "__INT_FAST8_TYPE__ signed char\0"
 10057      545F4641 
 10057      5354385F 
 10057      54595045 
 10057      5F5F2073 
 10058 06ed 01       		.byte	0x1
 10059 06ee 00       		.uleb128 0
 10060 06ef 5F5F494E 		.ascii "__INT_FAST16_TYPE__ short int\0"
 10060      545F4641 
 10060      53543136 
 10060      5F545950 
 10060      455F5F20 
 10061 070d 01       		.byte	0x1
 10062 070e 00       		.uleb128 0
 10063 070f 5F5F494E 		.ascii "__INT_FAST32_TYPE__ int\0"
 10063      545F4641 
 10063      53543332 
 10063      5F545950 
 10063      455F5F20 
 10064 0727 01       		.byte	0x1
 10065 0728 00       		.uleb128 0
 10066 0729 5F5F494E 		.ascii "__INT_FAST64_TYPE__ long long int\0"
 10066      545F4641 
 10066      53543634 
 10066      5F545950 
 10066      455F5F20 
 10067 074b 01       		.byte	0x1
 10068 074c 00       		.uleb128 0
 10069 074d 5F5F5549 		.ascii "__UINT_FAST8_TYPE__ unsigned char\0"
 10069      4E545F46 
 10069      41535438 
 10069      5F545950 
 10069      455F5F20 
 10070 076f 01       		.byte	0x1
 10071 0770 00       		.uleb128 0
 10072 0771 5F5F5549 		.ascii "__UINT_FAST16_TYPE__ short unsigned int\0"
 10072      4E545F46 
 10072      41535431 
 10072      365F5459 
 10072      50455F5F 
 10073 0799 01       		.byte	0x1
 10074 079a 00       		.uleb128 0
 10075 079b 5F5F5549 		.ascii "__UINT_FAST32_TYPE__ unsigned int\0"
 10075      4E545F46 
 10075      41535433 
 10075      325F5459 
 10075      50455F5F 
 10076 07bd 01       		.byte	0x1
 10077 07be 00       		.uleb128 0
 10078 07bf 5F5F5549 		.ascii "__UINT_FAST64_TYPE__ long long unsigned int\0"
 10078      4E545F46 
 10078      41535436 
 10078      345F5459 
 10078      50455F5F 
 10079 07eb 01       		.byte	0x1
 10080 07ec 00       		.uleb128 0
 10081 07ed 5F5F494E 		.ascii "__INTPTR_TYPE__ long long int\0"
 10081      54505452 
 10081      5F545950 
 10081      455F5F20 
 10081      6C6F6E67 
 10082 080b 01       		.byte	0x1
 10083 080c 00       		.uleb128 0
 10084 080d 5F5F5549 		.ascii "__UINTPTR_TYPE__ long long unsigned int\0"
 10084      4E545054 
 10084      525F5459 
 10084      50455F5F 
 10084      206C6F6E 
 10085 0835 01       		.byte	0x1
 10086 0836 00       		.uleb128 0
 10087 0837 5F5F4758 		.ascii "__GXX_ABI_VERSION 1018\0"
 10087      585F4142 
 10087      495F5645 
 10087      5253494F 
 10087      4E203130 
 10088 084e 01       		.byte	0x1
 10089 084f 00       		.uleb128 0
 10090 0850 5F5F5343 		.ascii "__SCHAR_MAX__ 0x7f\0"
 10090      4841525F 
 10090      4D41585F 
 10090      5F203078 
 10090      376600
 10091 0863 01       		.byte	0x1
 10092 0864 00       		.uleb128 0
 10093 0865 5F5F5348 		.ascii "__SHRT_MAX__ 0x7fff\0"
 10093      52545F4D 
 10093      41585F5F 
 10093      20307837 
 10093      66666600 
 10094 0879 01       		.byte	0x1
 10095 087a 00       		.uleb128 0
 10096 087b 5F5F494E 		.ascii "__INT_MAX__ 0x7fffffff\0"
 10096      545F4D41 
 10096      585F5F20 
 10096      30783766 
 10096      66666666 
 10097 0892 01       		.byte	0x1
 10098 0893 00       		.uleb128 0
 10099 0894 5F5F4C4F 		.ascii "__LONG_MAX__ 0x7fffffffL\0"
 10099      4E475F4D 
 10099      41585F5F 
 10099      20307837 
 10099      66666666 
 10100 08ad 01       		.byte	0x1
 10101 08ae 00       		.uleb128 0
 10102 08af 5F5F4C4F 		.ascii "__LONG_LONG_MAX__ 0x7fffffffffffffffLL\0"
 10102      4E475F4C 
 10102      4F4E475F 
 10102      4D41585F 
 10102      5F203078 
 10103 08d6 01       		.byte	0x1
 10104 08d7 00       		.uleb128 0
 10105 08d8 5F5F5743 		.ascii "__WCHAR_MAX__ 0xffff\0"
 10105      4841525F 
 10105      4D41585F 
 10105      5F203078 
 10105      66666666 
 10106 08ed 01       		.byte	0x1
 10107 08ee 00       		.uleb128 0
 10108 08ef 5F5F5743 		.ascii "__WCHAR_MIN__ 0\0"
 10108      4841525F 
 10108      4D494E5F 
 10108      5F203000 
 10109 08ff 01       		.byte	0x1
 10110 0900 00       		.uleb128 0
 10111 0901 5F5F5749 		.ascii "__WINT_MAX__ 0xffff\0"
 10111      4E545F4D 
 10111      41585F5F 
 10111      20307866 
 10111      66666600 
 10112 0915 01       		.byte	0x1
 10113 0916 00       		.uleb128 0
 10114 0917 5F5F5749 		.ascii "__WINT_MIN__ 0\0"
 10114      4E545F4D 
 10114      494E5F5F 
 10114      203000
 10115 0926 01       		.byte	0x1
 10116 0927 00       		.uleb128 0
 10117 0928 5F5F5054 		.ascii "__PTRDIFF_MAX__ 0x7fffffffffffffffLL\0"
 10117      52444946 
 10117      465F4D41 
 10117      585F5F20 
 10117      30783766 
 10118 094d 01       		.byte	0x1
 10119 094e 00       		.uleb128 0
 10120 094f 5F5F5349 		.ascii "__SIZE_MAX__ 0xffffffffffffffffULL\0"
 10120      5A455F4D 
 10120      41585F5F 
 10120      20307866 
 10120      66666666 
 10121 0972 01       		.byte	0x1
 10122 0973 00       		.uleb128 0
 10123 0974 5F5F5343 		.ascii "__SCHAR_WIDTH__ 8\0"
 10123      4841525F 
 10123      57494454 
 10123      485F5F20 
 10123      3800
 10124 0986 01       		.byte	0x1
 10125 0987 00       		.uleb128 0
 10126 0988 5F5F5348 		.ascii "__SHRT_WIDTH__ 16\0"
 10126      52545F57 
 10126      49445448 
 10126      5F5F2031 
 10126      3600
 10127 099a 01       		.byte	0x1
 10128 099b 00       		.uleb128 0
 10129 099c 5F5F494E 		.ascii "__INT_WIDTH__ 32\0"
 10129      545F5749 
 10129      4454485F 
 10129      5F203332 
 10129      00
 10130 09ad 01       		.byte	0x1
 10131 09ae 00       		.uleb128 0
 10132 09af 5F5F4C4F 		.ascii "__LONG_WIDTH__ 32\0"
 10132      4E475F57 
 10132      49445448 
 10132      5F5F2033 
 10132      3200
 10133 09c1 01       		.byte	0x1
 10134 09c2 00       		.uleb128 0
 10135 09c3 5F5F4C4F 		.ascii "__LONG_LONG_WIDTH__ 64\0"
 10135      4E475F4C 
 10135      4F4E475F 
 10135      57494454 
 10135      485F5F20 
 10136 09da 01       		.byte	0x1
 10137 09db 00       		.uleb128 0
 10138 09dc 5F5F5743 		.ascii "__WCHAR_WIDTH__ 16\0"
 10138      4841525F 
 10138      57494454 
 10138      485F5F20 
 10138      313600
 10139 09ef 01       		.byte	0x1
 10140 09f0 00       		.uleb128 0
 10141 09f1 5F5F5749 		.ascii "__WINT_WIDTH__ 16\0"
 10141      4E545F57 
 10141      49445448 
 10141      5F5F2031 
 10141      3600
 10142 0a03 01       		.byte	0x1
 10143 0a04 00       		.uleb128 0
 10144 0a05 5F5F5054 		.ascii "__PTRDIFF_WIDTH__ 64\0"
 10144      52444946 
 10144      465F5749 
 10144      4454485F 
 10144      5F203634 
 10145 0a1a 01       		.byte	0x1
 10146 0a1b 00       		.uleb128 0
 10147 0a1c 5F5F5349 		.ascii "__SIZE_WIDTH__ 64\0"
 10147      5A455F57 
 10147      49445448 
 10147      5F5F2036 
 10147      3400
 10148 0a2e 01       		.byte	0x1
 10149 0a2f 00       		.uleb128 0
 10150 0a30 5F5F494E 		.ascii "__INTMAX_MAX__ 0x7fffffffffffffffLL\0"
 10150      544D4158 
 10150      5F4D4158 
 10150      5F5F2030 
 10150      78376666 
 10151 0a54 01       		.byte	0x1
 10152 0a55 00       		.uleb128 0
 10153 0a56 5F5F494E 		.ascii "__INTMAX_C(c) c ## LL\0"
 10153      544D4158 
 10153      5F432863 
 10153      29206320 
 10153      2323204C 
 10154 0a6c 01       		.byte	0x1
 10155 0a6d 00       		.uleb128 0
 10156 0a6e 5F5F5549 		.ascii "__UINTMAX_MAX__ 0xffffffffffffffffULL\0"
 10156      4E544D41 
 10156      585F4D41 
 10156      585F5F20 
 10156      30786666 
 10157 0a94 01       		.byte	0x1
 10158 0a95 00       		.uleb128 0
 10159 0a96 5F5F5549 		.ascii "__UINTMAX_C(c) c ## ULL\0"
 10159      4E544D41 
 10159      585F4328 
 10159      63292063 
 10159      20232320 
 10160 0aae 01       		.byte	0x1
 10161 0aaf 00       		.uleb128 0
 10162 0ab0 5F5F494E 		.ascii "__INTMAX_WIDTH__ 64\0"
 10162      544D4158 
 10162      5F574944 
 10162      54485F5F 
 10162      20363400 
 10163 0ac4 01       		.byte	0x1
 10164 0ac5 00       		.uleb128 0
 10165 0ac6 5F5F5349 		.ascii "__SIG_ATOMIC_MAX__ 0x7fffffff\0"
 10165      475F4154 
 10165      4F4D4943 
 10165      5F4D4158 
 10165      5F5F2030 
 10166 0ae4 01       		.byte	0x1
 10167 0ae5 00       		.uleb128 0
 10168 0ae6 5F5F5349 		.ascii "__SIG_ATOMIC_MIN__ (-__SIG_ATOMIC_MAX__ - 1)\0"
 10168      475F4154 
 10168      4F4D4943 
 10168      5F4D494E 
 10168      5F5F2028 
 10169 0b13 01       		.byte	0x1
 10170 0b14 00       		.uleb128 0
 10171 0b15 5F5F5349 		.ascii "__SIG_ATOMIC_WIDTH__ 32\0"
 10171      475F4154 
 10171      4F4D4943 
 10171      5F574944 
 10171      54485F5F 
 10172 0b2d 01       		.byte	0x1
 10173 0b2e 00       		.uleb128 0
 10174 0b2f 5F5F494E 		.ascii "__INT8_MAX__ 0x7f\0"
 10174      54385F4D 
 10174      41585F5F 
 10174      20307837 
 10174      6600
 10175 0b41 01       		.byte	0x1
 10176 0b42 00       		.uleb128 0
 10177 0b43 5F5F494E 		.ascii "__INT16_MAX__ 0x7fff\0"
 10177      5431365F 
 10177      4D41585F 
 10177      5F203078 
 10177      37666666 
 10178 0b58 01       		.byte	0x1
 10179 0b59 00       		.uleb128 0
 10180 0b5a 5F5F494E 		.ascii "__INT32_MAX__ 0x7fffffff\0"
 10180      5433325F 
 10180      4D41585F 
 10180      5F203078 
 10180      37666666 
 10181 0b73 01       		.byte	0x1
 10182 0b74 00       		.uleb128 0
 10183 0b75 5F5F494E 		.ascii "__INT64_MAX__ 0x7fffffffffffffffLL\0"
 10183      5436345F 
 10183      4D41585F 
 10183      5F203078 
 10183      37666666 
 10184 0b98 01       		.byte	0x1
 10185 0b99 00       		.uleb128 0
 10186 0b9a 5F5F5549 		.ascii "__UINT8_MAX__ 0xff\0"
 10186      4E54385F 
 10186      4D41585F 
 10186      5F203078 
 10186      666600
 10187 0bad 01       		.byte	0x1
 10188 0bae 00       		.uleb128 0
 10189 0baf 5F5F5549 		.ascii "__UINT16_MAX__ 0xffff\0"
 10189      4E543136 
 10189      5F4D4158 
 10189      5F5F2030 
 10189      78666666 
 10190 0bc5 01       		.byte	0x1
 10191 0bc6 00       		.uleb128 0
 10192 0bc7 5F5F5549 		.ascii "__UINT32_MAX__ 0xffffffffU\0"
 10192      4E543332 
 10192      5F4D4158 
 10192      5F5F2030 
 10192      78666666 
 10193 0be2 01       		.byte	0x1
 10194 0be3 00       		.uleb128 0
 10195 0be4 5F5F5549 		.ascii "__UINT64_MAX__ 0xffffffffffffffffULL\0"
 10195      4E543634 
 10195      5F4D4158 
 10195      5F5F2030 
 10195      78666666 
 10196 0c09 01       		.byte	0x1
 10197 0c0a 00       		.uleb128 0
 10198 0c0b 5F5F494E 		.ascii "__INT_LEAST8_MAX__ 0x7f\0"
 10198      545F4C45 
 10198      41535438 
 10198      5F4D4158 
 10198      5F5F2030 
 10199 0c23 01       		.byte	0x1
 10200 0c24 00       		.uleb128 0
 10201 0c25 5F5F494E 		.ascii "__INT8_C(c) c\0"
 10201      54385F43 
 10201      28632920 
 10201      6300
 10202 0c33 01       		.byte	0x1
 10203 0c34 00       		.uleb128 0
 10204 0c35 5F5F494E 		.ascii "__INT_LEAST8_WIDTH__ 8\0"
 10204      545F4C45 
 10204      41535438 
 10204      5F574944 
 10204      54485F5F 
 10205 0c4c 01       		.byte	0x1
 10206 0c4d 00       		.uleb128 0
 10207 0c4e 5F5F494E 		.ascii "__INT_LEAST16_MAX__ 0x7fff\0"
 10207      545F4C45 
 10207      41535431 
 10207      365F4D41 
 10207      585F5F20 
 10208 0c69 01       		.byte	0x1
 10209 0c6a 00       		.uleb128 0
 10210 0c6b 5F5F494E 		.ascii "__INT16_C(c) c\0"
 10210      5431365F 
 10210      43286329 
 10210      206300
 10211 0c7a 01       		.byte	0x1
 10212 0c7b 00       		.uleb128 0
 10213 0c7c 5F5F494E 		.ascii "__INT_LEAST16_WIDTH__ 16\0"
 10213      545F4C45 
 10213      41535431 
 10213      365F5749 
 10213      4454485F 
 10214 0c95 01       		.byte	0x1
 10215 0c96 00       		.uleb128 0
 10216 0c97 5F5F494E 		.ascii "__INT_LEAST32_MAX__ 0x7fffffff\0"
 10216      545F4C45 
 10216      41535433 
 10216      325F4D41 
 10216      585F5F20 
 10217 0cb6 01       		.byte	0x1
 10218 0cb7 00       		.uleb128 0
 10219 0cb8 5F5F494E 		.ascii "__INT32_C(c) c\0"
 10219      5433325F 
 10219      43286329 
 10219      206300
 10220 0cc7 01       		.byte	0x1
 10221 0cc8 00       		.uleb128 0
 10222 0cc9 5F5F494E 		.ascii "__INT_LEAST32_WIDTH__ 32\0"
 10222      545F4C45 
 10222      41535433 
 10222      325F5749 
 10222      4454485F 
 10223 0ce2 01       		.byte	0x1
 10224 0ce3 00       		.uleb128 0
 10225 0ce4 5F5F494E 		.ascii "__INT_LEAST64_MAX__ 0x7fffffffffffffffLL\0"
 10225      545F4C45 
 10225      41535436 
 10225      345F4D41 
 10225      585F5F20 
 10226 0d0d 01       		.byte	0x1
 10227 0d0e 00       		.uleb128 0
 10228 0d0f 5F5F494E 		.ascii "__INT64_C(c) c ## LL\0"
 10228      5436345F 
 10228      43286329 
 10228      20632023 
 10228      23204C4C 
 10229 0d24 01       		.byte	0x1
 10230 0d25 00       		.uleb128 0
 10231 0d26 5F5F494E 		.ascii "__INT_LEAST64_WIDTH__ 64\0"
 10231      545F4C45 
 10231      41535436 
 10231      345F5749 
 10231      4454485F 
 10232 0d3f 01       		.byte	0x1
 10233 0d40 00       		.uleb128 0
 10234 0d41 5F5F5549 		.ascii "__UINT_LEAST8_MAX__ 0xff\0"
 10234      4E545F4C 
 10234      45415354 
 10234      385F4D41 
 10234      585F5F20 
 10235 0d5a 01       		.byte	0x1
 10236 0d5b 00       		.uleb128 0
 10237 0d5c 5F5F5549 		.ascii "__UINT8_C(c) c\0"
 10237      4E54385F 
 10237      43286329 
 10237      206300
 10238 0d6b 01       		.byte	0x1
 10239 0d6c 00       		.uleb128 0
 10240 0d6d 5F5F5549 		.ascii "__UINT_LEAST16_MAX__ 0xffff\0"
 10240      4E545F4C 
 10240      45415354 
 10240      31365F4D 
 10240      41585F5F 
 10241 0d89 01       		.byte	0x1
 10242 0d8a 00       		.uleb128 0
 10243 0d8b 5F5F5549 		.ascii "__UINT16_C(c) c\0"
 10243      4E543136 
 10243      5F432863 
 10243      29206300 
 10244 0d9b 01       		.byte	0x1
 10245 0d9c 00       		.uleb128 0
 10246 0d9d 5F5F5549 		.ascii "__UINT_LEAST32_MAX__ 0xffffffffU\0"
 10246      4E545F4C 
 10246      45415354 
 10246      33325F4D 
 10246      41585F5F 
 10247 0dbe 01       		.byte	0x1
 10248 0dbf 00       		.uleb128 0
 10249 0dc0 5F5F5549 		.ascii "__UINT32_C(c) c ## U\0"
 10249      4E543332 
 10249      5F432863 
 10249      29206320 
 10249      23232055 
 10250 0dd5 01       		.byte	0x1
 10251 0dd6 00       		.uleb128 0
 10252 0dd7 5F5F5549 		.ascii "__UINT_LEAST64_MAX__ 0xffffffffffffffffULL\0"
 10252      4E545F4C 
 10252      45415354 
 10252      36345F4D 
 10252      41585F5F 
 10253 0e02 01       		.byte	0x1
 10254 0e03 00       		.uleb128 0
 10255 0e04 5F5F5549 		.ascii "__UINT64_C(c) c ## ULL\0"
 10255      4E543634 
 10255      5F432863 
 10255      29206320 
 10255      23232055 
 10256 0e1b 01       		.byte	0x1
 10257 0e1c 00       		.uleb128 0
 10258 0e1d 5F5F494E 		.ascii "__INT_FAST8_MAX__ 0x7f\0"
 10258      545F4641 
 10258      5354385F 
 10258      4D41585F 
 10258      5F203078 
 10259 0e34 01       		.byte	0x1
 10260 0e35 00       		.uleb128 0
 10261 0e36 5F5F494E 		.ascii "__INT_FAST8_WIDTH__ 8\0"
 10261      545F4641 
 10261      5354385F 
 10261      57494454 
 10261      485F5F20 
 10262 0e4c 01       		.byte	0x1
 10263 0e4d 00       		.uleb128 0
 10264 0e4e 5F5F494E 		.ascii "__INT_FAST16_MAX__ 0x7fff\0"
 10264      545F4641 
 10264      53543136 
 10264      5F4D4158 
 10264      5F5F2030 
 10265 0e68 01       		.byte	0x1
 10266 0e69 00       		.uleb128 0
 10267 0e6a 5F5F494E 		.ascii "__INT_FAST16_WIDTH__ 16\0"
 10267      545F4641 
 10267      53543136 
 10267      5F574944 
 10267      54485F5F 
 10268 0e82 01       		.byte	0x1
 10269 0e83 00       		.uleb128 0
 10270 0e84 5F5F494E 		.ascii "__INT_FAST32_MAX__ 0x7fffffff\0"
 10270      545F4641 
 10270      53543332 
 10270      5F4D4158 
 10270      5F5F2030 
 10271 0ea2 01       		.byte	0x1
 10272 0ea3 00       		.uleb128 0
 10273 0ea4 5F5F494E 		.ascii "__INT_FAST32_WIDTH__ 32\0"
 10273      545F4641 
 10273      53543332 
 10273      5F574944 
 10273      54485F5F 
 10274 0ebc 01       		.byte	0x1
 10275 0ebd 00       		.uleb128 0
 10276 0ebe 5F5F494E 		.ascii "__INT_FAST64_MAX__ 0x7fffffffffffffffLL\0"
 10276      545F4641 
 10276      53543634 
 10276      5F4D4158 
 10276      5F5F2030 
 10277 0ee6 01       		.byte	0x1
 10278 0ee7 00       		.uleb128 0
 10279 0ee8 5F5F494E 		.ascii "__INT_FAST64_WIDTH__ 64\0"
 10279      545F4641 
 10279      53543634 
 10279      5F574944 
 10279      54485F5F 
 10280 0f00 01       		.byte	0x1
 10281 0f01 00       		.uleb128 0
 10282 0f02 5F5F5549 		.ascii "__UINT_FAST8_MAX__ 0xff\0"
 10282      4E545F46 
 10282      41535438 
 10282      5F4D4158 
 10282      5F5F2030 
 10283 0f1a 01       		.byte	0x1
 10284 0f1b 00       		.uleb128 0
 10285 0f1c 5F5F5549 		.ascii "__UINT_FAST16_MAX__ 0xffff\0"
 10285      4E545F46 
 10285      41535431 
 10285      365F4D41 
 10285      585F5F20 
 10286 0f37 01       		.byte	0x1
 10287 0f38 00       		.uleb128 0
 10288 0f39 5F5F5549 		.ascii "__UINT_FAST32_MAX__ 0xffffffffU\0"
 10288      4E545F46 
 10288      41535433 
 10288      325F4D41 
 10288      585F5F20 
 10289 0f59 01       		.byte	0x1
 10290 0f5a 00       		.uleb128 0
 10291 0f5b 5F5F5549 		.ascii "__UINT_FAST64_MAX__ 0xffffffffffffffffULL\0"
 10291      4E545F46 
 10291      41535436 
 10291      345F4D41 
 10291      585F5F20 
 10292 0f85 01       		.byte	0x1
 10293 0f86 00       		.uleb128 0
 10294 0f87 5F5F494E 		.ascii "__INTPTR_MAX__ 0x7fffffffffffffffLL\0"
 10294      54505452 
 10294      5F4D4158 
 10294      5F5F2030 
 10294      78376666 
 10295 0fab 01       		.byte	0x1
 10296 0fac 00       		.uleb128 0
 10297 0fad 5F5F494E 		.ascii "__INTPTR_WIDTH__ 64\0"
 10297      54505452 
 10297      5F574944 
 10297      54485F5F 
 10297      20363400 
 10298 0fc1 01       		.byte	0x1
 10299 0fc2 00       		.uleb128 0
 10300 0fc3 5F5F5549 		.ascii "__UINTPTR_MAX__ 0xffffffffffffffffULL\0"
 10300      4E545054 
 10300      525F4D41 
 10300      585F5F20 
 10300      30786666 
 10301 0fe9 01       		.byte	0x1
 10302 0fea 00       		.uleb128 0
 10303 0feb 5F5F4743 		.ascii "__GCC_IEC_559 2\0"
 10303      435F4945 
 10303      435F3535 
 10303      39203200 
 10304 0ffb 01       		.byte	0x1
 10305 0ffc 00       		.uleb128 0
 10306 0ffd 5F5F4743 		.ascii "__GCC_IEC_559_COMPLEX 2\0"
 10306      435F4945 
 10306      435F3535 
 10306      395F434F 
 10306      4D504C45 
 10307 1015 01       		.byte	0x1
 10308 1016 00       		.uleb128 0
 10309 1017 5F5F464C 		.ascii "__FLT_EVAL_METHOD__ 0\0"
 10309      545F4556 
 10309      414C5F4D 
 10309      4554484F 
 10309      445F5F20 
 10310 102d 01       		.byte	0x1
 10311 102e 00       		.uleb128 0
 10312 102f 5F5F464C 		.ascii "__FLT_EVAL_METHOD_TS_18661_3__ 0\0"
 10312      545F4556 
 10312      414C5F4D 
 10312      4554484F 
 10312      445F5453 
 10313 1050 01       		.byte	0x1
 10314 1051 00       		.uleb128 0
 10315 1052 5F5F4445 		.ascii "__DEC_EVAL_METHOD__ 2\0"
 10315      435F4556 
 10315      414C5F4D 
 10315      4554484F 
 10315      445F5F20 
 10316 1068 01       		.byte	0x1
 10317 1069 00       		.uleb128 0
 10318 106a 5F5F464C 		.ascii "__FLT_RADIX__ 2\0"
 10318      545F5241 
 10318      4449585F 
 10318      5F203200 
 10319 107a 01       		.byte	0x1
 10320 107b 00       		.uleb128 0
 10321 107c 5F5F464C 		.ascii "__FLT_MANT_DIG__ 24\0"
 10321      545F4D41 
 10321      4E545F44 
 10321      49475F5F 
 10321      20323400 
 10322 1090 01       		.byte	0x1
 10323 1091 00       		.uleb128 0
 10324 1092 5F5F464C 		.ascii "__FLT_DIG__ 6\0"
 10324      545F4449 
 10324      475F5F20 
 10324      3600
 10325 10a0 01       		.byte	0x1
 10326 10a1 00       		.uleb128 0
 10327 10a2 5F5F464C 		.ascii "__FLT_MIN_EXP__ (-125)\0"
 10327      545F4D49 
 10327      4E5F4558 
 10327      505F5F20 
 10327      282D3132 
 10328 10b9 01       		.byte	0x1
 10329 10ba 00       		.uleb128 0
 10330 10bb 5F5F464C 		.ascii "__FLT_MIN_10_EXP__ (-37)\0"
 10330      545F4D49 
 10330      4E5F3130 
 10330      5F455850 
 10330      5F5F2028 
 10331 10d4 01       		.byte	0x1
 10332 10d5 00       		.uleb128 0
 10333 10d6 5F5F464C 		.ascii "__FLT_MAX_EXP__ 128\0"
 10333      545F4D41 
 10333      585F4558 
 10333      505F5F20 
 10333      31323800 
 10334 10ea 01       		.byte	0x1
 10335 10eb 00       		.uleb128 0
 10336 10ec 5F5F464C 		.ascii "__FLT_MAX_10_EXP__ 38\0"
 10336      545F4D41 
 10336      585F3130 
 10336      5F455850 
 10336      5F5F2033 
 10337 1102 01       		.byte	0x1
 10338 1103 00       		.uleb128 0
 10339 1104 5F5F464C 		.ascii "__FLT_DECIMAL_DIG__ 9\0"
 10339      545F4445 
 10339      43494D41 
 10339      4C5F4449 
 10339      475F5F20 
 10340 111a 01       		.byte	0x1
 10341 111b 00       		.uleb128 0
 10342 111c 5F5F464C 		.ascii "__FLT_MAX__ 3.40282346638528859811704183484516925e+38F\0"
 10342      545F4D41 
 10342      585F5F20 
 10342      332E3430 
 10342      32383233 
 10343 1153 01       		.byte	0x1
 10344 1154 00       		.uleb128 0
 10345 1155 5F5F464C 		.ascii "__FLT_NORM_MAX__ 3.40282346638528859811704183484516925e+38F\0"
 10345      545F4E4F 
 10345      524D5F4D 
 10345      41585F5F 
 10345      20332E34 
 10346 1191 01       		.byte	0x1
 10347 1192 00       		.uleb128 0
 10348 1193 5F5F464C 		.ascii "__FLT_MIN__ 1.17549435082228750796873653722224568e-38F\0"
 10348      545F4D49 
 10348      4E5F5F20 
 10348      312E3137 
 10348      35343934 
 10349 11ca 01       		.byte	0x1
 10350 11cb 00       		.uleb128 0
 10351 11cc 5F5F464C 		.ascii "__FLT_EPSILON__ 1.19209289550781250000000000000000000e-7F\0"
 10351      545F4550 
 10351      53494C4F 
 10351      4E5F5F20 
 10351      312E3139 
 10352 1206 01       		.byte	0x1
 10353 1207 00       		.uleb128 0
 10354 1208 5F5F464C 		.ascii "__FLT_DENORM_MIN__ 1.40129846432481707092372958328991613e-45F\0"
 10354      545F4445 
 10354      4E4F524D 
 10354      5F4D494E 
 10354      5F5F2031 
 10355 1246 01       		.byte	0x1
 10356 1247 00       		.uleb128 0
 10357 1248 5F5F464C 		.ascii "__FLT_HAS_DENORM__ 1\0"
 10357      545F4841 
 10357      535F4445 
 10357      4E4F524D 
 10357      5F5F2031 
 10358 125d 01       		.byte	0x1
 10359 125e 00       		.uleb128 0
 10360 125f 5F5F464C 		.ascii "__FLT_HAS_INFINITY__ 1\0"
 10360      545F4841 
 10360      535F494E 
 10360      46494E49 
 10360      54595F5F 
 10361 1276 01       		.byte	0x1
 10362 1277 00       		.uleb128 0
 10363 1278 5F5F464C 		.ascii "__FLT_HAS_QUIET_NAN__ 1\0"
 10363      545F4841 
 10363      535F5155 
 10363      4945545F 
 10363      4E414E5F 
 10364 1290 01       		.byte	0x1
 10365 1291 00       		.uleb128 0
 10366 1292 5F5F464C 		.ascii "__FLT_IS_IEC_60559__ 1\0"
 10366      545F4953 
 10366      5F494543 
 10366      5F363035 
 10366      35395F5F 
 10367 12a9 01       		.byte	0x1
 10368 12aa 00       		.uleb128 0
 10369 12ab 5F5F4442 		.ascii "__DBL_MANT_DIG__ 53\0"
 10369      4C5F4D41 
 10369      4E545F44 
 10369      49475F5F 
 10369      20353300 
 10370 12bf 01       		.byte	0x1
 10371 12c0 00       		.uleb128 0
 10372 12c1 5F5F4442 		.ascii "__DBL_DIG__ 15\0"
 10372      4C5F4449 
 10372      475F5F20 
 10372      313500
 10373 12d0 01       		.byte	0x1
 10374 12d1 00       		.uleb128 0
 10375 12d2 5F5F4442 		.ascii "__DBL_MIN_EXP__ (-1021)\0"
 10375      4C5F4D49 
 10375      4E5F4558 
 10375      505F5F20 
 10375      282D3130 
 10376 12ea 01       		.byte	0x1
 10377 12eb 00       		.uleb128 0
 10378 12ec 5F5F4442 		.ascii "__DBL_MIN_10_EXP__ (-307)\0"
 10378      4C5F4D49 
 10378      4E5F3130 
 10378      5F455850 
 10378      5F5F2028 
 10379 1306 01       		.byte	0x1
 10380 1307 00       		.uleb128 0
 10381 1308 5F5F4442 		.ascii "__DBL_MAX_EXP__ 1024\0"
 10381      4C5F4D41 
 10381      585F4558 
 10381      505F5F20 
 10381      31303234 
 10382 131d 01       		.byte	0x1
 10383 131e 00       		.uleb128 0
 10384 131f 5F5F4442 		.ascii "__DBL_MAX_10_EXP__ 308\0"
 10384      4C5F4D41 
 10384      585F3130 
 10384      5F455850 
 10384      5F5F2033 
 10385 1336 01       		.byte	0x1
 10386 1337 00       		.uleb128 0
 10387 1338 5F5F4442 		.ascii "__DBL_DECIMAL_DIG__ 17\0"
 10387      4C5F4445 
 10387      43494D41 
 10387      4C5F4449 
 10387      475F5F20 
 10388 134f 01       		.byte	0x1
 10389 1350 00       		.uleb128 0
 10390 1351 5F5F4442 		.ascii "__DBL_MAX__ ((double)1.79769313486231570814527423731704357e+308L)\0"
 10390      4C5F4D41 
 10390      585F5F20 
 10390      2828646F 
 10390      75626C65 
 10391 1393 01       		.byte	0x1
 10392 1394 00       		.uleb128 0
 10393 1395 5F5F4442 		.ascii "__DBL_NORM_MAX__ ((double)1.79769313486231570814527423731704357e+308L)\0"
 10393      4C5F4E4F 
 10393      524D5F4D 
 10393      41585F5F 
 10393      20282864 
 10394 13dc 01       		.byte	0x1
 10395 13dd 00       		.uleb128 0
 10396 13de 5F5F4442 		.ascii "__DBL_MIN__ ((double)2.22507385850720138309023271733240406e-308L)\0"
 10396      4C5F4D49 
 10396      4E5F5F20 
 10396      2828646F 
 10396      75626C65 
 10397 1420 01       		.byte	0x1
 10398 1421 00       		.uleb128 0
 10399 1422 5F5F4442 		.ascii "__DBL_EPSILON__ ((double)2.22044604925031308084726333618164062e-16L)\0"
 10399      4C5F4550 
 10399      53494C4F 
 10399      4E5F5F20 
 10399      2828646F 
 10400 1467 01       		.byte	0x1
 10401 1468 00       		.uleb128 0
 10402 1469 5F5F4442 		.ascii "__DBL_DENORM_MIN__ ((double)4.94065645841246544176568792868221372e-324L)\0"
 10402      4C5F4445 
 10402      4E4F524D 
 10402      5F4D494E 
 10402      5F5F2028 
 10403 14b2 01       		.byte	0x1
 10404 14b3 00       		.uleb128 0
 10405 14b4 5F5F4442 		.ascii "__DBL_HAS_DENORM__ 1\0"
 10405      4C5F4841 
 10405      535F4445 
 10405      4E4F524D 
 10405      5F5F2031 
 10406 14c9 01       		.byte	0x1
 10407 14ca 00       		.uleb128 0
 10408 14cb 5F5F4442 		.ascii "__DBL_HAS_INFINITY__ 1\0"
 10408      4C5F4841 
 10408      535F494E 
 10408      46494E49 
 10408      54595F5F 
 10409 14e2 01       		.byte	0x1
 10410 14e3 00       		.uleb128 0
 10411 14e4 5F5F4442 		.ascii "__DBL_HAS_QUIET_NAN__ 1\0"
 10411      4C5F4841 
 10411      535F5155 
 10411      4945545F 
 10411      4E414E5F 
 10412 14fc 01       		.byte	0x1
 10413 14fd 00       		.uleb128 0
 10414 14fe 5F5F4442 		.ascii "__DBL_IS_IEC_60559__ 1\0"
 10414      4C5F4953 
 10414      5F494543 
 10414      5F363035 
 10414      35395F5F 
 10415 1515 01       		.byte	0x1
 10416 1516 00       		.uleb128 0
 10417 1517 5F5F4C44 		.ascii "__LDBL_MANT_DIG__ 64\0"
 10417      424C5F4D 
 10417      414E545F 
 10417      4449475F 
 10417      5F203634 
 10418 152c 01       		.byte	0x1
 10419 152d 00       		.uleb128 0
 10420 152e 5F5F4C44 		.ascii "__LDBL_DIG__ 18\0"
 10420      424C5F44 
 10420      49475F5F 
 10420      20313800 
 10421 153e 01       		.byte	0x1
 10422 153f 00       		.uleb128 0
 10423 1540 5F5F4C44 		.ascii "__LDBL_MIN_EXP__ (-16381)\0"
 10423      424C5F4D 
 10423      494E5F45 
 10423      58505F5F 
 10423      20282D31 
 10424 155a 01       		.byte	0x1
 10425 155b 00       		.uleb128 0
 10426 155c 5F5F4C44 		.ascii "__LDBL_MIN_10_EXP__ (-4931)\0"
 10426      424C5F4D 
 10426      494E5F31 
 10426      305F4558 
 10426      505F5F20 
 10427 1578 01       		.byte	0x1
 10428 1579 00       		.uleb128 0
 10429 157a 5F5F4C44 		.ascii "__LDBL_MAX_EXP__ 16384\0"
 10429      424C5F4D 
 10429      41585F45 
 10429      58505F5F 
 10429      20313633 
 10430 1591 01       		.byte	0x1
 10431 1592 00       		.uleb128 0
 10432 1593 5F5F4C44 		.ascii "__LDBL_MAX_10_EXP__ 4932\0"
 10432      424C5F4D 
 10432      41585F31 
 10432      305F4558 
 10432      505F5F20 
 10433 15ac 01       		.byte	0x1
 10434 15ad 00       		.uleb128 0
 10435 15ae 5F5F4445 		.ascii "__DECIMAL_DIG__ 21\0"
 10435      43494D41 
 10435      4C5F4449 
 10435      475F5F20 
 10435      323100
 10436 15c1 01       		.byte	0x1
 10437 15c2 00       		.uleb128 0
 10438 15c3 5F5F4C44 		.ascii "__LDBL_DECIMAL_DIG__ 21\0"
 10438      424C5F44 
 10438      4543494D 
 10438      414C5F44 
 10438      49475F5F 
 10439 15db 01       		.byte	0x1
 10440 15dc 00       		.uleb128 0
 10441 15dd 5F5F4C44 		.ascii "__LDBL_MAX__ 1.18973149535723176502126385303097021e+4932L\0"
 10441      424C5F4D 
 10441      41585F5F 
 10441      20312E31 
 10441      38393733 
 10442 1617 01       		.byte	0x1
 10443 1618 00       		.uleb128 0
 10444 1619 5F5F4C44 		.ascii "__LDBL_NORM_MAX__ 1.18973149535723176502126385303097021e+4932L\0"
 10444      424C5F4E 
 10444      4F524D5F 
 10444      4D41585F 
 10444      5F20312E 
 10445 1658 01       		.byte	0x1
 10446 1659 00       		.uleb128 0
 10447 165a 5F5F4C44 		.ascii "__LDBL_MIN__ 3.36210314311209350626267781732175260e-4932L\0"
 10447      424C5F4D 
 10447      494E5F5F 
 10447      20332E33 
 10447      36323130 
 10448 1694 01       		.byte	0x1
 10449 1695 00       		.uleb128 0
 10450 1696 5F5F4C44 		.ascii "__LDBL_EPSILON__ 1.08420217248550443400745280086994171e-19L\0"
 10450      424C5F45 
 10450      5053494C 
 10450      4F4E5F5F 
 10450      20312E30 
 10451 16d2 01       		.byte	0x1
 10452 16d3 00       		.uleb128 0
 10453 16d4 5F5F4C44 		.ascii "__LDBL_DENORM_MIN__ 3.64519953188247460252840593361941982e-4951L\0"
 10453      424C5F44 
 10453      454E4F52 
 10453      4D5F4D49 
 10453      4E5F5F20 
 10454 1715 01       		.byte	0x1
 10455 1716 00       		.uleb128 0
 10456 1717 5F5F4C44 		.ascii "__LDBL_HAS_DENORM__ 1\0"
 10456      424C5F48 
 10456      41535F44 
 10456      454E4F52 
 10456      4D5F5F20 
 10457 172d 01       		.byte	0x1
 10458 172e 00       		.uleb128 0
 10459 172f 5F5F4C44 		.ascii "__LDBL_HAS_INFINITY__ 1\0"
 10459      424C5F48 
 10459      41535F49 
 10459      4E46494E 
 10459      4954595F 
 10460 1747 01       		.byte	0x1
 10461 1748 00       		.uleb128 0
 10462 1749 5F5F4C44 		.ascii "__LDBL_HAS_QUIET_NAN__ 1\0"
 10462      424C5F48 
 10462      41535F51 
 10462      55494554 
 10462      5F4E414E 
 10463 1762 01       		.byte	0x1
 10464 1763 00       		.uleb128 0
 10465 1764 5F5F4C44 		.ascii "__LDBL_IS_IEC_60559__ 1\0"
 10465      424C5F49 
 10465      535F4945 
 10465      435F3630 
 10465      3535395F 
 10466 177c 01       		.byte	0x1
 10467 177d 00       		.uleb128 0
 10468 177e 5F5F464C 		.ascii "__FLT16_MANT_DIG__ 11\0"
 10468      5431365F 
 10468      4D414E54 
 10468      5F444947 
 10468      5F5F2031 
 10469 1794 01       		.byte	0x1
 10470 1795 00       		.uleb128 0
 10471 1796 5F5F464C 		.ascii "__FLT16_DIG__ 3\0"
 10471      5431365F 
 10471      4449475F 
 10471      5F203300 
 10472 17a6 01       		.byte	0x1
 10473 17a7 00       		.uleb128 0
 10474 17a8 5F5F464C 		.ascii "__FLT16_MIN_EXP__ (-13)\0"
 10474      5431365F 
 10474      4D494E5F 
 10474      4558505F 
 10474      5F20282D 
 10475 17c0 01       		.byte	0x1
 10476 17c1 00       		.uleb128 0
 10477 17c2 5F5F464C 		.ascii "__FLT16_MIN_10_EXP__ (-4)\0"
 10477      5431365F 
 10477      4D494E5F 
 10477      31305F45 
 10477      58505F5F 
 10478 17dc 01       		.byte	0x1
 10479 17dd 00       		.uleb128 0
 10480 17de 5F5F464C 		.ascii "__FLT16_MAX_EXP__ 16\0"
 10480      5431365F 
 10480      4D41585F 
 10480      4558505F 
 10480      5F203136 
 10481 17f3 01       		.byte	0x1
 10482 17f4 00       		.uleb128 0
 10483 17f5 5F5F464C 		.ascii "__FLT16_MAX_10_EXP__ 4\0"
 10483      5431365F 
 10483      4D41585F 
 10483      31305F45 
 10483      58505F5F 
 10484 180c 01       		.byte	0x1
 10485 180d 00       		.uleb128 0
 10486 180e 5F5F464C 		.ascii "__FLT16_DECIMAL_DIG__ 5\0"
 10486      5431365F 
 10486      44454349 
 10486      4D414C5F 
 10486      4449475F 
 10487 1826 01       		.byte	0x1
 10488 1827 00       		.uleb128 0
 10489 1828 5F5F464C 		.ascii "__FLT16_MAX__ 6.55040000000000000000000000000000000e+4F16\0"
 10489      5431365F 
 10489      4D41585F 
 10489      5F20362E 
 10489      35353034 
 10490 1862 01       		.byte	0x1
 10491 1863 00       		.uleb128 0
 10492 1864 5F5F464C 		.ascii "__FLT16_NORM_MAX__ 6.55040000000000000000000000000000000e+4F16\0"
 10492      5431365F 
 10492      4E4F524D 
 10492      5F4D4158 
 10492      5F5F2036 
 10493 18a3 01       		.byte	0x1
 10494 18a4 00       		.uleb128 0
 10495 18a5 5F5F464C 		.ascii "__FLT16_MIN__ 6.10351562500000000000000000000000000e-5F16\0"
 10495      5431365F 
 10495      4D494E5F 
 10495      5F20362E 
 10495      31303335 
 10496 18df 01       		.byte	0x1
 10497 18e0 00       		.uleb128 0
 10498 18e1 5F5F464C 		.ascii "__FLT16_EPSILON__ 9.76562500000000000000000000000000000e-4F16\0"
 10498      5431365F 
 10498      45505349 
 10498      4C4F4E5F 
 10498      5F20392E 
 10499 191f 01       		.byte	0x1
 10500 1920 00       		.uleb128 0
 10501 1921 5F5F464C 		.ascii "__FLT16_DENORM_MIN__ 5.96046447753906250000000000000000000e-8F16\0"
 10501      5431365F 
 10501      44454E4F 
 10501      524D5F4D 
 10501      494E5F5F 
 10502 1962 01       		.byte	0x1
 10503 1963 00       		.uleb128 0
 10504 1964 5F5F464C 		.ascii "__FLT16_HAS_DENORM__ 1\0"
 10504      5431365F 
 10504      4841535F 
 10504      44454E4F 
 10504      524D5F5F 
 10505 197b 01       		.byte	0x1
 10506 197c 00       		.uleb128 0
 10507 197d 5F5F464C 		.ascii "__FLT16_HAS_INFINITY__ 1\0"
 10507      5431365F 
 10507      4841535F 
 10507      494E4649 
 10507      4E495459 
 10508 1996 01       		.byte	0x1
 10509 1997 00       		.uleb128 0
 10510 1998 5F5F464C 		.ascii "__FLT16_HAS_QUIET_NAN__ 1\0"
 10510      5431365F 
 10510      4841535F 
 10510      51554945 
 10510      545F4E41 
 10511 19b2 01       		.byte	0x1
 10512 19b3 00       		.uleb128 0
 10513 19b4 5F5F464C 		.ascii "__FLT16_IS_IEC_60559__ 1\0"
 10513      5431365F 
 10513      49535F49 
 10513      45435F36 
 10513      30353539 
 10514 19cd 01       		.byte	0x1
 10515 19ce 00       		.uleb128 0
 10516 19cf 5F5F464C 		.ascii "__FLT32_MANT_DIG__ 24\0"
 10516      5433325F 
 10516      4D414E54 
 10516      5F444947 
 10516      5F5F2032 
 10517 19e5 01       		.byte	0x1
 10518 19e6 00       		.uleb128 0
 10519 19e7 5F5F464C 		.ascii "__FLT32_DIG__ 6\0"
 10519      5433325F 
 10519      4449475F 
 10519      5F203600 
 10520 19f7 01       		.byte	0x1
 10521 19f8 00       		.uleb128 0
 10522 19f9 5F5F464C 		.ascii "__FLT32_MIN_EXP__ (-125)\0"
 10522      5433325F 
 10522      4D494E5F 
 10522      4558505F 
 10522      5F20282D 
 10523 1a12 01       		.byte	0x1
 10524 1a13 00       		.uleb128 0
 10525 1a14 5F5F464C 		.ascii "__FLT32_MIN_10_EXP__ (-37)\0"
 10525      5433325F 
 10525      4D494E5F 
 10525      31305F45 
 10525      58505F5F 
 10526 1a2f 01       		.byte	0x1
 10527 1a30 00       		.uleb128 0
 10528 1a31 5F5F464C 		.ascii "__FLT32_MAX_EXP__ 128\0"
 10528      5433325F 
 10528      4D41585F 
 10528      4558505F 
 10528      5F203132 
 10529 1a47 01       		.byte	0x1
 10530 1a48 00       		.uleb128 0
 10531 1a49 5F5F464C 		.ascii "__FLT32_MAX_10_EXP__ 38\0"
 10531      5433325F 
 10531      4D41585F 
 10531      31305F45 
 10531      58505F5F 
 10532 1a61 01       		.byte	0x1
 10533 1a62 00       		.uleb128 0
 10534 1a63 5F5F464C 		.ascii "__FLT32_DECIMAL_DIG__ 9\0"
 10534      5433325F 
 10534      44454349 
 10534      4D414C5F 
 10534      4449475F 
 10535 1a7b 01       		.byte	0x1
 10536 1a7c 00       		.uleb128 0
 10537 1a7d 5F5F464C 		.ascii "__FLT32_MAX__ 3.40282346638528859811704183484516925e+38F32\0"
 10537      5433325F 
 10537      4D41585F 
 10537      5F20332E 
 10537      34303238 
 10538 1ab8 01       		.byte	0x1
 10539 1ab9 00       		.uleb128 0
 10540 1aba 5F5F464C 		.ascii "__FLT32_NORM_MAX__ 3.40282346638528859811704183484516925e+38F32\0"
 10540      5433325F 
 10540      4E4F524D 
 10540      5F4D4158 
 10540      5F5F2033 
 10541 1afa 01       		.byte	0x1
 10542 1afb 00       		.uleb128 0
 10543 1afc 5F5F464C 		.ascii "__FLT32_MIN__ 1.17549435082228750796873653722224568e-38F32\0"
 10543      5433325F 
 10543      4D494E5F 
 10543      5F20312E 
 10543      31373534 
 10544 1b37 01       		.byte	0x1
 10545 1b38 00       		.uleb128 0
 10546 1b39 5F5F464C 		.ascii "__FLT32_EPSILON__ 1.19209289550781250000000000000000000e-7F32\0"
 10546      5433325F 
 10546      45505349 
 10546      4C4F4E5F 
 10546      5F20312E 
 10547 1b77 01       		.byte	0x1
 10548 1b78 00       		.uleb128 0
 10549 1b79 5F5F464C 		.ascii "__FLT32_DENORM_MIN__ 1.40129846432481707092372958328991613e-45F32\0"
 10549      5433325F 
 10549      44454E4F 
 10549      524D5F4D 
 10549      494E5F5F 
 10550 1bbb 01       		.byte	0x1
 10551 1bbc 00       		.uleb128 0
 10552 1bbd 5F5F464C 		.ascii "__FLT32_HAS_DENORM__ 1\0"
 10552      5433325F 
 10552      4841535F 
 10552      44454E4F 
 10552      524D5F5F 
 10553 1bd4 01       		.byte	0x1
 10554 1bd5 00       		.uleb128 0
 10555 1bd6 5F5F464C 		.ascii "__FLT32_HAS_INFINITY__ 1\0"
 10555      5433325F 
 10555      4841535F 
 10555      494E4649 
 10555      4E495459 
 10556 1bef 01       		.byte	0x1
 10557 1bf0 00       		.uleb128 0
 10558 1bf1 5F5F464C 		.ascii "__FLT32_HAS_QUIET_NAN__ 1\0"
 10558      5433325F 
 10558      4841535F 
 10558      51554945 
 10558      545F4E41 
 10559 1c0b 01       		.byte	0x1
 10560 1c0c 00       		.uleb128 0
 10561 1c0d 5F5F464C 		.ascii "__FLT32_IS_IEC_60559__ 1\0"
 10561      5433325F 
 10561      49535F49 
 10561      45435F36 
 10561      30353539 
 10562 1c26 01       		.byte	0x1
 10563 1c27 00       		.uleb128 0
 10564 1c28 5F5F464C 		.ascii "__FLT64_MANT_DIG__ 53\0"
 10564      5436345F 
 10564      4D414E54 
 10564      5F444947 
 10564      5F5F2035 
 10565 1c3e 01       		.byte	0x1
 10566 1c3f 00       		.uleb128 0
 10567 1c40 5F5F464C 		.ascii "__FLT64_DIG__ 15\0"
 10567      5436345F 
 10567      4449475F 
 10567      5F203135 
 10567      00
 10568 1c51 01       		.byte	0x1
 10569 1c52 00       		.uleb128 0
 10570 1c53 5F5F464C 		.ascii "__FLT64_MIN_EXP__ (-1021)\0"
 10570      5436345F 
 10570      4D494E5F 
 10570      4558505F 
 10570      5F20282D 
 10571 1c6d 01       		.byte	0x1
 10572 1c6e 00       		.uleb128 0
 10573 1c6f 5F5F464C 		.ascii "__FLT64_MIN_10_EXP__ (-307)\0"
 10573      5436345F 
 10573      4D494E5F 
 10573      31305F45 
 10573      58505F5F 
 10574 1c8b 01       		.byte	0x1
 10575 1c8c 00       		.uleb128 0
 10576 1c8d 5F5F464C 		.ascii "__FLT64_MAX_EXP__ 1024\0"
 10576      5436345F 
 10576      4D41585F 
 10576      4558505F 
 10576      5F203130 
 10577 1ca4 01       		.byte	0x1
 10578 1ca5 00       		.uleb128 0
 10579 1ca6 5F5F464C 		.ascii "__FLT64_MAX_10_EXP__ 308\0"
 10579      5436345F 
 10579      4D41585F 
 10579      31305F45 
 10579      58505F5F 
 10580 1cbf 01       		.byte	0x1
 10581 1cc0 00       		.uleb128 0
 10582 1cc1 5F5F464C 		.ascii "__FLT64_DECIMAL_DIG__ 17\0"
 10582      5436345F 
 10582      44454349 
 10582      4D414C5F 
 10582      4449475F 
 10583 1cda 01       		.byte	0x1
 10584 1cdb 00       		.uleb128 0
 10585 1cdc 5F5F464C 		.ascii "__FLT64_MAX__ 1.79769313486231570814527423731704357e+308F64\0"
 10585      5436345F 
 10585      4D41585F 
 10585      5F20312E 
 10585      37393736 
 10586 1d18 01       		.byte	0x1
 10587 1d19 00       		.uleb128 0
 10588 1d1a 5F5F464C 		.ascii "__FLT64_NORM_MAX__ 1.79769313486231570814527423731704357e+308F64\0"
 10588      5436345F 
 10588      4E4F524D 
 10588      5F4D4158 
 10588      5F5F2031 
 10589 1d5b 01       		.byte	0x1
 10590 1d5c 00       		.uleb128 0
 10591 1d5d 5F5F464C 		.ascii "__FLT64_MIN__ 2.22507385850720138309023271733240406e-308F64\0"
 10591      5436345F 
 10591      4D494E5F 
 10591      5F20322E 
 10591      32323530 
 10592 1d99 01       		.byte	0x1
 10593 1d9a 00       		.uleb128 0
 10594 1d9b 5F5F464C 		.ascii "__FLT64_EPSILON__ 2.22044604925031308084726333618164062e-16F64\0"
 10594      5436345F 
 10594      45505349 
 10594      4C4F4E5F 
 10594      5F20322E 
 10595 1dda 01       		.byte	0x1
 10596 1ddb 00       		.uleb128 0
 10597 1ddc 5F5F464C 		.ascii "__FLT64_DENORM_MIN__ 4.94065645841246544176568792868221372e-324F64\0"
 10597      5436345F 
 10597      44454E4F 
 10597      524D5F4D 
 10597      494E5F5F 
 10598 1e1f 01       		.byte	0x1
 10599 1e20 00       		.uleb128 0
 10600 1e21 5F5F464C 		.ascii "__FLT64_HAS_DENORM__ 1\0"
 10600      5436345F 
 10600      4841535F 
 10600      44454E4F 
 10600      524D5F5F 
 10601 1e38 01       		.byte	0x1
 10602 1e39 00       		.uleb128 0
 10603 1e3a 5F5F464C 		.ascii "__FLT64_HAS_INFINITY__ 1\0"
 10603      5436345F 
 10603      4841535F 
 10603      494E4649 
 10603      4E495459 
 10604 1e53 01       		.byte	0x1
 10605 1e54 00       		.uleb128 0
 10606 1e55 5F5F464C 		.ascii "__FLT64_HAS_QUIET_NAN__ 1\0"
 10606      5436345F 
 10606      4841535F 
 10606      51554945 
 10606      545F4E41 
 10607 1e6f 01       		.byte	0x1
 10608 1e70 00       		.uleb128 0
 10609 1e71 5F5F464C 		.ascii "__FLT64_IS_IEC_60559__ 1\0"
 10609      5436345F 
 10609      49535F49 
 10609      45435F36 
 10609      30353539 
 10610 1e8a 01       		.byte	0x1
 10611 1e8b 00       		.uleb128 0
 10612 1e8c 5F5F464C 		.ascii "__FLT128_MANT_DIG__ 113\0"
 10612      54313238 
 10612      5F4D414E 
 10612      545F4449 
 10612      475F5F20 
 10613 1ea4 01       		.byte	0x1
 10614 1ea5 00       		.uleb128 0
 10615 1ea6 5F5F464C 		.ascii "__FLT128_DIG__ 33\0"
 10615      54313238 
 10615      5F444947 
 10615      5F5F2033 
 10615      3300
 10616 1eb8 01       		.byte	0x1
 10617 1eb9 00       		.uleb128 0
 10618 1eba 5F5F464C 		.ascii "__FLT128_MIN_EXP__ (-16381)\0"
 10618      54313238 
 10618      5F4D494E 
 10618      5F455850 
 10618      5F5F2028 
 10619 1ed6 01       		.byte	0x1
 10620 1ed7 00       		.uleb128 0
 10621 1ed8 5F5F464C 		.ascii "__FLT128_MIN_10_EXP__ (-4931)\0"
 10621      54313238 
 10621      5F4D494E 
 10621      5F31305F 
 10621      4558505F 
 10622 1ef6 01       		.byte	0x1
 10623 1ef7 00       		.uleb128 0
 10624 1ef8 5F5F464C 		.ascii "__FLT128_MAX_EXP__ 16384\0"
 10624      54313238 
 10624      5F4D4158 
 10624      5F455850 
 10624      5F5F2031 
 10625 1f11 01       		.byte	0x1
 10626 1f12 00       		.uleb128 0
 10627 1f13 5F5F464C 		.ascii "__FLT128_MAX_10_EXP__ 4932\0"
 10627      54313238 
 10627      5F4D4158 
 10627      5F31305F 
 10627      4558505F 
 10628 1f2e 01       		.byte	0x1
 10629 1f2f 00       		.uleb128 0
 10630 1f30 5F5F464C 		.ascii "__FLT128_DECIMAL_DIG__ 36\0"
 10630      54313238 
 10630      5F444543 
 10630      494D414C 
 10630      5F444947 
 10631 1f4a 01       		.byte	0x1
 10632 1f4b 00       		.uleb128 0
 10633 1f4c 5F5F464C 		.ascii "__FLT128_MAX__ 1.18973149535723176508575932662800702e+4932F128\0"
 10633      54313238 
 10633      5F4D4158 
 10633      5F5F2031 
 10633      2E313839 
 10634 1f8b 01       		.byte	0x1
 10635 1f8c 00       		.uleb128 0
 10636 1f8d 5F5F464C 		.ascii "__FLT128_NORM_MAX__ 1.18973149535723176508575932662800702e+4932F128\0"
 10636      54313238 
 10636      5F4E4F52 
 10636      4D5F4D41 
 10636      585F5F20 
 10637 1fd1 01       		.byte	0x1
 10638 1fd2 00       		.uleb128 0
 10639 1fd3 5F5F464C 		.ascii "__FLT128_MIN__ 3.36210314311209350626267781732175260e-4932F128\0"
 10639      54313238 
 10639      5F4D494E 
 10639      5F5F2033 
 10639      2E333632 
 10640 2012 01       		.byte	0x1
 10641 2013 00       		.uleb128 0
 10642 2014 5F5F464C 		.ascii "__FLT128_EPSILON__ 1.92592994438723585305597794258492732e-34F128\0"
 10642      54313238 
 10642      5F455053 
 10642      494C4F4E 
 10642      5F5F2031 
 10643 2055 01       		.byte	0x1
 10644 2056 00       		.uleb128 0
 10645 2057 5F5F464C 		.ascii "__FLT128_DENORM_MIN__ 6.47517511943802511092443895822764655e-4966F128\0"
 10645      54313238 
 10645      5F44454E 
 10645      4F524D5F 
 10645      4D494E5F 
 10646 209d 01       		.byte	0x1
 10647 209e 00       		.uleb128 0
 10648 209f 5F5F464C 		.ascii "__FLT128_HAS_DENORM__ 1\0"
 10648      54313238 
 10648      5F484153 
 10648      5F44454E 
 10648      4F524D5F 
 10649 20b7 01       		.byte	0x1
 10650 20b8 00       		.uleb128 0
 10651 20b9 5F5F464C 		.ascii "__FLT128_HAS_INFINITY__ 1\0"
 10651      54313238 
 10651      5F484153 
 10651      5F494E46 
 10651      494E4954 
 10652 20d3 01       		.byte	0x1
 10653 20d4 00       		.uleb128 0
 10654 20d5 5F5F464C 		.ascii "__FLT128_HAS_QUIET_NAN__ 1\0"
 10654      54313238 
 10654      5F484153 
 10654      5F515549 
 10654      45545F4E 
 10655 20f0 01       		.byte	0x1
 10656 20f1 00       		.uleb128 0
 10657 20f2 5F5F464C 		.ascii "__FLT128_IS_IEC_60559__ 1\0"
 10657      54313238 
 10657      5F49535F 
 10657      4945435F 
 10657      36303535 
 10658 210c 01       		.byte	0x1
 10659 210d 00       		.uleb128 0
 10660 210e 5F5F464C 		.ascii "__FLT32X_MANT_DIG__ 53\0"
 10660      54333258 
 10660      5F4D414E 
 10660      545F4449 
 10660      475F5F20 
 10661 2125 01       		.byte	0x1
 10662 2126 00       		.uleb128 0
 10663 2127 5F5F464C 		.ascii "__FLT32X_DIG__ 15\0"
 10663      54333258 
 10663      5F444947 
 10663      5F5F2031 
 10663      3500
 10664 2139 01       		.byte	0x1
 10665 213a 00       		.uleb128 0
 10666 213b 5F5F464C 		.ascii "__FLT32X_MIN_EXP__ (-1021)\0"
 10666      54333258 
 10666      5F4D494E 
 10666      5F455850 
 10666      5F5F2028 
 10667 2156 01       		.byte	0x1
 10668 2157 00       		.uleb128 0
 10669 2158 5F5F464C 		.ascii "__FLT32X_MIN_10_EXP__ (-307)\0"
 10669      54333258 
 10669      5F4D494E 
 10669      5F31305F 
 10669      4558505F 
 10670 2175 01       		.byte	0x1
 10671 2176 00       		.uleb128 0
 10672 2177 5F5F464C 		.ascii "__FLT32X_MAX_EXP__ 1024\0"
 10672      54333258 
 10672      5F4D4158 
 10672      5F455850 
 10672      5F5F2031 
 10673 218f 01       		.byte	0x1
 10674 2190 00       		.uleb128 0
 10675 2191 5F5F464C 		.ascii "__FLT32X_MAX_10_EXP__ 308\0"
 10675      54333258 
 10675      5F4D4158 
 10675      5F31305F 
 10675      4558505F 
 10676 21ab 01       		.byte	0x1
 10677 21ac 00       		.uleb128 0
 10678 21ad 5F5F464C 		.ascii "__FLT32X_DECIMAL_DIG__ 17\0"
 10678      54333258 
 10678      5F444543 
 10678      494D414C 
 10678      5F444947 
 10679 21c7 01       		.byte	0x1
 10680 21c8 00       		.uleb128 0
 10681 21c9 5F5F464C 		.ascii "__FLT32X_MAX__ 1.79769313486231570814527423731704357e+308F32x\0"
 10681      54333258 
 10681      5F4D4158 
 10681      5F5F2031 
 10681      2E373937 
 10682 2207 01       		.byte	0x1
 10683 2208 00       		.uleb128 0
 10684 2209 5F5F464C 		.ascii "__FLT32X_NORM_MAX__ 1.79769313486231570814527423731704357e+308F32x\0"
 10684      54333258 
 10684      5F4E4F52 
 10684      4D5F4D41 
 10684      585F5F20 
 10685 224c 01       		.byte	0x1
 10686 224d 00       		.uleb128 0
 10687 224e 5F5F464C 		.ascii "__FLT32X_MIN__ 2.22507385850720138309023271733240406e-308F32x\0"
 10687      54333258 
 10687      5F4D494E 
 10687      5F5F2032 
 10687      2E323235 
 10688 228c 01       		.byte	0x1
 10689 228d 00       		.uleb128 0
 10690 228e 5F5F464C 		.ascii "__FLT32X_EPSILON__ 2.22044604925031308084726333618164062e-16F32x\0"
 10690      54333258 
 10690      5F455053 
 10690      494C4F4E 
 10690      5F5F2032 
 10691 22cf 01       		.byte	0x1
 10692 22d0 00       		.uleb128 0
 10693 22d1 5F5F464C 		.ascii "__FLT32X_DENORM_MIN__ 4.94065645841246544176568792868221372e-324F32x\0"
 10693      54333258 
 10693      5F44454E 
 10693      4F524D5F 
 10693      4D494E5F 
 10694 2316 01       		.byte	0x1
 10695 2317 00       		.uleb128 0
 10696 2318 5F5F464C 		.ascii "__FLT32X_HAS_DENORM__ 1\0"
 10696      54333258 
 10696      5F484153 
 10696      5F44454E 
 10696      4F524D5F 
 10697 2330 01       		.byte	0x1
 10698 2331 00       		.uleb128 0
 10699 2332 5F5F464C 		.ascii "__FLT32X_HAS_INFINITY__ 1\0"
 10699      54333258 
 10699      5F484153 
 10699      5F494E46 
 10699      494E4954 
 10700 234c 01       		.byte	0x1
 10701 234d 00       		.uleb128 0
 10702 234e 5F5F464C 		.ascii "__FLT32X_HAS_QUIET_NAN__ 1\0"
 10702      54333258 
 10702      5F484153 
 10702      5F515549 
 10702      45545F4E 
 10703 2369 01       		.byte	0x1
 10704 236a 00       		.uleb128 0
 10705 236b 5F5F464C 		.ascii "__FLT32X_IS_IEC_60559__ 1\0"
 10705      54333258 
 10705      5F49535F 
 10705      4945435F 
 10705      36303535 
 10706 2385 01       		.byte	0x1
 10707 2386 00       		.uleb128 0
 10708 2387 5F5F464C 		.ascii "__FLT64X_MANT_DIG__ 64\0"
 10708      54363458 
 10708      5F4D414E 
 10708      545F4449 
 10708      475F5F20 
 10709 239e 01       		.byte	0x1
 10710 239f 00       		.uleb128 0
 10711 23a0 5F5F464C 		.ascii "__FLT64X_DIG__ 18\0"
 10711      54363458 
 10711      5F444947 
 10711      5F5F2031 
 10711      3800
 10712 23b2 01       		.byte	0x1
 10713 23b3 00       		.uleb128 0
 10714 23b4 5F5F464C 		.ascii "__FLT64X_MIN_EXP__ (-16381)\0"
 10714      54363458 
 10714      5F4D494E 
 10714      5F455850 
 10714      5F5F2028 
 10715 23d0 01       		.byte	0x1
 10716 23d1 00       		.uleb128 0
 10717 23d2 5F5F464C 		.ascii "__FLT64X_MIN_10_EXP__ (-4931)\0"
 10717      54363458 
 10717      5F4D494E 
 10717      5F31305F 
 10717      4558505F 
 10718 23f0 01       		.byte	0x1
 10719 23f1 00       		.uleb128 0
 10720 23f2 5F5F464C 		.ascii "__FLT64X_MAX_EXP__ 16384\0"
 10720      54363458 
 10720      5F4D4158 
 10720      5F455850 
 10720      5F5F2031 
 10721 240b 01       		.byte	0x1
 10722 240c 00       		.uleb128 0
 10723 240d 5F5F464C 		.ascii "__FLT64X_MAX_10_EXP__ 4932\0"
 10723      54363458 
 10723      5F4D4158 
 10723      5F31305F 
 10723      4558505F 
 10724 2428 01       		.byte	0x1
 10725 2429 00       		.uleb128 0
 10726 242a 5F5F464C 		.ascii "__FLT64X_DECIMAL_DIG__ 21\0"
 10726      54363458 
 10726      5F444543 
 10726      494D414C 
 10726      5F444947 
 10727 2444 01       		.byte	0x1
 10728 2445 00       		.uleb128 0
 10729 2446 5F5F464C 		.ascii "__FLT64X_MAX__ 1.18973149535723176502126385303097021e+4932F64x\0"
 10729      54363458 
 10729      5F4D4158 
 10729      5F5F2031 
 10729      2E313839 
 10730 2485 01       		.byte	0x1
 10731 2486 00       		.uleb128 0
 10732 2487 5F5F464C 		.ascii "__FLT64X_NORM_MAX__ 1.18973149535723176502126385303097021e+4932F64x\0"
 10732      54363458 
 10732      5F4E4F52 
 10732      4D5F4D41 
 10732      585F5F20 
 10733 24cb 01       		.byte	0x1
 10734 24cc 00       		.uleb128 0
 10735 24cd 5F5F464C 		.ascii "__FLT64X_MIN__ 3.36210314311209350626267781732175260e-4932F64x\0"
 10735      54363458 
 10735      5F4D494E 
 10735      5F5F2033 
 10735      2E333632 
 10736 250c 01       		.byte	0x1
 10737 250d 00       		.uleb128 0
 10738 250e 5F5F464C 		.ascii "__FLT64X_EPSILON__ 1.08420217248550443400745280086994171e-19F64x\0"
 10738      54363458 
 10738      5F455053 
 10738      494C4F4E 
 10738      5F5F2031 
 10739 254f 01       		.byte	0x1
 10740 2550 00       		.uleb128 0
 10741 2551 5F5F464C 		.ascii "__FLT64X_DENORM_MIN__ 3.64519953188247460252840593361941982e-4951F64x\0"
 10741      54363458 
 10741      5F44454E 
 10741      4F524D5F 
 10741      4D494E5F 
 10742 2597 01       		.byte	0x1
 10743 2598 00       		.uleb128 0
 10744 2599 5F5F464C 		.ascii "__FLT64X_HAS_DENORM__ 1\0"
 10744      54363458 
 10744      5F484153 
 10744      5F44454E 
 10744      4F524D5F 
 10745 25b1 01       		.byte	0x1
 10746 25b2 00       		.uleb128 0
 10747 25b3 5F5F464C 		.ascii "__FLT64X_HAS_INFINITY__ 1\0"
 10747      54363458 
 10747      5F484153 
 10747      5F494E46 
 10747      494E4954 
 10748 25cd 01       		.byte	0x1
 10749 25ce 00       		.uleb128 0
 10750 25cf 5F5F464C 		.ascii "__FLT64X_HAS_QUIET_NAN__ 1\0"
 10750      54363458 
 10750      5F484153 
 10750      5F515549 
 10750      45545F4E 
 10751 25ea 01       		.byte	0x1
 10752 25eb 00       		.uleb128 0
 10753 25ec 5F5F464C 		.ascii "__FLT64X_IS_IEC_60559__ 1\0"
 10753      54363458 
 10753      5F49535F 
 10753      4945435F 
 10753      36303535 
 10754 2606 01       		.byte	0x1
 10755 2607 00       		.uleb128 0
 10756 2608 5F5F4246 		.ascii "__BFLT16_MANT_DIG__ 8\0"
 10756      4C543136 
 10756      5F4D414E 
 10756      545F4449 
 10756      475F5F20 
 10757 261e 01       		.byte	0x1
 10758 261f 00       		.uleb128 0
 10759 2620 5F5F4246 		.ascii "__BFLT16_DIG__ 2\0"
 10759      4C543136 
 10759      5F444947 
 10759      5F5F2032 
 10759      00
 10760 2631 01       		.byte	0x1
 10761 2632 00       		.uleb128 0
 10762 2633 5F5F4246 		.ascii "__BFLT16_MIN_EXP__ (-125)\0"
 10762      4C543136 
 10762      5F4D494E 
 10762      5F455850 
 10762      5F5F2028 
 10763 264d 01       		.byte	0x1
 10764 264e 00       		.uleb128 0
 10765 264f 5F5F4246 		.ascii "__BFLT16_MIN_10_EXP__ (-37)\0"
 10765      4C543136 
 10765      5F4D494E 
 10765      5F31305F 
 10765      4558505F 
 10766 266b 01       		.byte	0x1
 10767 266c 00       		.uleb128 0
 10768 266d 5F5F4246 		.ascii "__BFLT16_MAX_EXP__ 128\0"
 10768      4C543136 
 10768      5F4D4158 
 10768      5F455850 
 10768      5F5F2031 
 10769 2684 01       		.byte	0x1
 10770 2685 00       		.uleb128 0
 10771 2686 5F5F4246 		.ascii "__BFLT16_MAX_10_EXP__ 38\0"
 10771      4C543136 
 10771      5F4D4158 
 10771      5F31305F 
 10771      4558505F 
 10772 269f 01       		.byte	0x1
 10773 26a0 00       		.uleb128 0
 10774 26a1 5F5F4246 		.ascii "__BFLT16_DECIMAL_DIG__ 4\0"
 10774      4C543136 
 10774      5F444543 
 10774      494D414C 
 10774      5F444947 
 10775 26ba 01       		.byte	0x1
 10776 26bb 00       		.uleb128 0
 10777 26bc 5F5F4246 		.ascii "__BFLT16_MAX__ 3.38953138925153547590470800371487867e+38BF16\0"
 10777      4C543136 
 10777      5F4D4158 
 10777      5F5F2033 
 10777      2E333839 
 10778 26f9 01       		.byte	0x1
 10779 26fa 00       		.uleb128 0
 10780 26fb 5F5F4246 		.ascii "__BFLT16_NORM_MAX__ 3.38953138925153547590470800371487867e+38BF16\0"
 10780      4C543136 
 10780      5F4E4F52 
 10780      4D5F4D41 
 10780      585F5F20 
 10781 273d 01       		.byte	0x1
 10782 273e 00       		.uleb128 0
 10783 273f 5F5F4246 		.ascii "__BFLT16_MIN__ 1.17549435082228750796873653722224568e-38BF16\0"
 10783      4C543136 
 10783      5F4D494E 
 10783      5F5F2031 
 10783      2E313735 
 10784 277c 01       		.byte	0x1
 10785 277d 00       		.uleb128 0
 10786 277e 5F5F4246 		.ascii "__BFLT16_EPSILON__ 7.81250000000000000000000000000000000e-3BF16\0"
 10786      4C543136 
 10786      5F455053 
 10786      494C4F4E 
 10786      5F5F2037 
 10787 27be 01       		.byte	0x1
 10788 27bf 00       		.uleb128 0
 10789 27c0 5F5F4246 		.ascii "__BFLT16_DENORM_MIN__ 9.18354961579912115600575419704879436e-41BF16\0"
 10789      4C543136 
 10789      5F44454E 
 10789      4F524D5F 
 10789      4D494E5F 
 10790 2804 01       		.byte	0x1
 10791 2805 00       		.uleb128 0
 10792 2806 5F5F4246 		.ascii "__BFLT16_HAS_DENORM__ 1\0"
 10792      4C543136 
 10792      5F484153 
 10792      5F44454E 
 10792      4F524D5F 
 10793 281e 01       		.byte	0x1
 10794 281f 00       		.uleb128 0
 10795 2820 5F5F4246 		.ascii "__BFLT16_HAS_INFINITY__ 1\0"
 10795      4C543136 
 10795      5F484153 
 10795      5F494E46 
 10795      494E4954 
 10796 283a 01       		.byte	0x1
 10797 283b 00       		.uleb128 0
 10798 283c 5F5F4246 		.ascii "__BFLT16_HAS_QUIET_NAN__ 1\0"
 10798      4C543136 
 10798      5F484153 
 10798      5F515549 
 10798      45545F4E 
 10799 2857 01       		.byte	0x1
 10800 2858 00       		.uleb128 0
 10801 2859 5F5F4246 		.ascii "__BFLT16_IS_IEC_60559__ 0\0"
 10801      4C543136 
 10801      5F49535F 
 10801      4945435F 
 10801      36303535 
 10802 2873 01       		.byte	0x1
 10803 2874 00       		.uleb128 0
 10804 2875 5F5F4445 		.ascii "__DEC32_MANT_DIG__ 7\0"
 10804      4333325F 
 10804      4D414E54 
 10804      5F444947 
 10804      5F5F2037 
 10805 288a 01       		.byte	0x1
 10806 288b 00       		.uleb128 0
 10807 288c 5F5F4445 		.ascii "__DEC32_MIN_EXP__ (-94)\0"
 10807      4333325F 
 10807      4D494E5F 
 10807      4558505F 
 10807      5F20282D 
 10808 28a4 01       		.byte	0x1
 10809 28a5 00       		.uleb128 0
 10810 28a6 5F5F4445 		.ascii "__DEC32_MAX_EXP__ 97\0"
 10810      4333325F 
 10810      4D41585F 
 10810      4558505F 
 10810      5F203937 
 10811 28bb 01       		.byte	0x1
 10812 28bc 00       		.uleb128 0
 10813 28bd 5F5F4445 		.ascii "__DEC32_MIN__ 1E-95DF\0"
 10813      4333325F 
 10813      4D494E5F 
 10813      5F203145 
 10813      2D393544 
 10814 28d3 01       		.byte	0x1
 10815 28d4 00       		.uleb128 0
 10816 28d5 5F5F4445 		.ascii "__DEC32_MAX__ 9.999999E96DF\0"
 10816      4333325F 
 10816      4D41585F 
 10816      5F20392E 
 10816      39393939 
 10817 28f1 01       		.byte	0x1
 10818 28f2 00       		.uleb128 0
 10819 28f3 5F5F4445 		.ascii "__DEC32_EPSILON__ 1E-6DF\0"
 10819      4333325F 
 10819      45505349 
 10819      4C4F4E5F 
 10819      5F203145 
 10820 290c 01       		.byte	0x1
 10821 290d 00       		.uleb128 0
 10822 290e 5F5F4445 		.ascii "__DEC32_SUBNORMAL_MIN__ 0.000001E-95DF\0"
 10822      4333325F 
 10822      5355424E 
 10822      4F524D41 
 10822      4C5F4D49 
 10823 2935 01       		.byte	0x1
 10824 2936 00       		.uleb128 0
 10825 2937 5F5F4445 		.ascii "__DEC64_MANT_DIG__ 16\0"
 10825      4336345F 
 10825      4D414E54 
 10825      5F444947 
 10825      5F5F2031 
 10826 294d 01       		.byte	0x1
 10827 294e 00       		.uleb128 0
 10828 294f 5F5F4445 		.ascii "__DEC64_MIN_EXP__ (-382)\0"
 10828      4336345F 
 10828      4D494E5F 
 10828      4558505F 
 10828      5F20282D 
 10829 2968 01       		.byte	0x1
 10830 2969 00       		.uleb128 0
 10831 296a 5F5F4445 		.ascii "__DEC64_MAX_EXP__ 385\0"
 10831      4336345F 
 10831      4D41585F 
 10831      4558505F 
 10831      5F203338 
 10832 2980 01       		.byte	0x1
 10833 2981 00       		.uleb128 0
 10834 2982 5F5F4445 		.ascii "__DEC64_MIN__ 1E-383DD\0"
 10834      4336345F 
 10834      4D494E5F 
 10834      5F203145 
 10834      2D333833 
 10835 2999 01       		.byte	0x1
 10836 299a 00       		.uleb128 0
 10837 299b 5F5F4445 		.ascii "__DEC64_MAX__ 9.999999999999999E384DD\0"
 10837      4336345F 
 10837      4D41585F 
 10837      5F20392E 
 10837      39393939 
 10838 29c1 01       		.byte	0x1
 10839 29c2 00       		.uleb128 0
 10840 29c3 5F5F4445 		.ascii "__DEC64_EPSILON__ 1E-15DD\0"
 10840      4336345F 
 10840      45505349 
 10840      4C4F4E5F 
 10840      5F203145 
 10841 29dd 01       		.byte	0x1
 10842 29de 00       		.uleb128 0
 10843 29df 5F5F4445 		.ascii "__DEC64_SUBNORMAL_MIN__ 0.000000000000001E-383DD\0"
 10843      4336345F 
 10843      5355424E 
 10843      4F524D41 
 10843      4C5F4D49 
 10844 2a10 01       		.byte	0x1
 10845 2a11 00       		.uleb128 0
 10846 2a12 5F5F4445 		.ascii "__DEC128_MANT_DIG__ 34\0"
 10846      43313238 
 10846      5F4D414E 
 10846      545F4449 
 10846      475F5F20 
 10847 2a29 01       		.byte	0x1
 10848 2a2a 00       		.uleb128 0
 10849 2a2b 5F5F4445 		.ascii "__DEC128_MIN_EXP__ (-6142)\0"
 10849      43313238 
 10849      5F4D494E 
 10849      5F455850 
 10849      5F5F2028 
 10850 2a46 01       		.byte	0x1
 10851 2a47 00       		.uleb128 0
 10852 2a48 5F5F4445 		.ascii "__DEC128_MAX_EXP__ 6145\0"
 10852      43313238 
 10852      5F4D4158 
 10852      5F455850 
 10852      5F5F2036 
 10853 2a60 01       		.byte	0x1
 10854 2a61 00       		.uleb128 0
 10855 2a62 5F5F4445 		.ascii "__DEC128_MIN__ 1E-6143DL\0"
 10855      43313238 
 10855      5F4D494E 
 10855      5F5F2031 
 10855      452D3631 
 10856 2a7b 01       		.byte	0x1
 10857 2a7c 00       		.uleb128 0
 10858 2a7d 5F5F4445 		.ascii "__DEC128_MAX__ 9.999999999999999999999999999999999E6144DL\0"
 10858      43313238 
 10858      5F4D4158 
 10858      5F5F2039 
 10858      2E393939 
 10859 2ab7 01       		.byte	0x1
 10860 2ab8 00       		.uleb128 0
 10861 2ab9 5F5F4445 		.ascii "__DEC128_EPSILON__ 1E-33DL\0"
 10861      43313238 
 10861      5F455053 
 10861      494C4F4E 
 10861      5F5F2031 
 10862 2ad4 01       		.byte	0x1
 10863 2ad5 00       		.uleb128 0
 10864 2ad6 5F5F4445 		.ascii "__DEC128_SUBNORMAL_MIN__ 0.000000000000000000000000000000001E-6143DL\0"
 10864      43313238 
 10864      5F535542 
 10864      4E4F524D 
 10864      414C5F4D 
 10865 2b1b 01       		.byte	0x1
 10866 2b1c 00       		.uleb128 0
 10867 2b1d 5F5F5245 		.ascii "__REGISTER_PREFIX__ \0"
 10867      47495354 
 10867      45525F50 
 10867      52454649 
 10867      585F5F20 
 10868 2b32 01       		.byte	0x1
 10869 2b33 00       		.uleb128 0
 10870 2b34 5F5F5553 		.ascii "__USER_LABEL_PREFIX__ \0"
 10870      45525F4C 
 10870      4142454C 
 10870      5F505245 
 10870      4649585F 
 10871 2b4b 01       		.byte	0x1
 10872 2b4c 00       		.uleb128 0
 10873 2b4d 5F5F474E 		.ascii "__GNUC_STDC_INLINE__ 1\0"
 10873      55435F53 
 10873      5444435F 
 10873      494E4C49 
 10873      4E455F5F 
 10874 2b64 01       		.byte	0x1
 10875 2b65 00       		.uleb128 0
 10876 2b66 5F5F5354 		.ascii "__STRICT_ANSI__ 1\0"
 10876      52494354 
 10876      5F414E53 
 10876      495F5F20 
 10876      3100
 10877 2b78 01       		.byte	0x1
 10878 2b79 00       		.uleb128 0
 10879 2b7a 5F5F4743 		.ascii "__GCC_HAVE_SYNC_COMPARE_AND_SWAP_1 1\0"
 10879      435F4841 
 10879      56455F53 
 10879      594E435F 
 10879      434F4D50 
 10880 2b9f 01       		.byte	0x1
 10881 2ba0 00       		.uleb128 0
 10882 2ba1 5F5F4743 		.ascii "__GCC_HAVE_SYNC_COMPARE_AND_SWAP_2 1\0"
 10882      435F4841 
 10882      56455F53 
 10882      594E435F 
 10882      434F4D50 
 10883 2bc6 01       		.byte	0x1
 10884 2bc7 00       		.uleb128 0
 10885 2bc8 5F5F4743 		.ascii "__GCC_HAVE_SYNC_COMPARE_AND_SWAP_4 1\0"
 10885      435F4841 
 10885      56455F53 
 10885      594E435F 
 10885      434F4D50 
 10886 2bed 01       		.byte	0x1
 10887 2bee 00       		.uleb128 0
 10888 2bef 5F5F4743 		.ascii "__GCC_HAVE_SYNC_COMPARE_AND_SWAP_8 1\0"
 10888      435F4841 
 10888      56455F53 
 10888      594E435F 
 10888      434F4D50 
 10889 2c14 01       		.byte	0x1
 10890 2c15 00       		.uleb128 0
 10891 2c16 5F5F4743 		.ascii "__GCC_HAVE_SYNC_COMPARE_AND_SWAP_16 1\0"
 10891      435F4841 
 10891      56455F53 
 10891      594E435F 
 10891      434F4D50 
 10892 2c3c 01       		.byte	0x1
 10893 2c3d 00       		.uleb128 0
 10894 2c3e 5F5F4743 		.ascii "__GCC_ATOMIC_BOOL_LOCK_FREE 2\0"
 10894      435F4154 
 10894      4F4D4943 
 10894      5F424F4F 
 10894      4C5F4C4F 
 10895 2c5c 01       		.byte	0x1
 10896 2c5d 00       		.uleb128 0
 10897 2c5e 5F5F4743 		.ascii "__GCC_ATOMIC_CHAR_LOCK_FREE 2\0"
 10897      435F4154 
 10897      4F4D4943 
 10897      5F434841 
 10897      525F4C4F 
 10898 2c7c 01       		.byte	0x1
 10899 2c7d 00       		.uleb128 0
 10900 2c7e 5F5F4743 		.ascii "__GCC_ATOMIC_CHAR16_T_LOCK_FREE 2\0"
 10900      435F4154 
 10900      4F4D4943 
 10900      5F434841 
 10900      5231365F 
 10901 2ca0 01       		.byte	0x1
 10902 2ca1 00       		.uleb128 0
 10903 2ca2 5F5F4743 		.ascii "__GCC_ATOMIC_CHAR32_T_LOCK_FREE 2\0"
 10903      435F4154 
 10903      4F4D4943 
 10903      5F434841 
 10903      5233325F 
 10904 2cc4 01       		.byte	0x1
 10905 2cc5 00       		.uleb128 0
 10906 2cc6 5F5F4743 		.ascii "__GCC_ATOMIC_WCHAR_T_LOCK_FREE 2\0"
 10906      435F4154 
 10906      4F4D4943 
 10906      5F574348 
 10906      41525F54 
 10907 2ce7 01       		.byte	0x1
 10908 2ce8 00       		.uleb128 0
 10909 2ce9 5F5F4743 		.ascii "__GCC_ATOMIC_SHORT_LOCK_FREE 2\0"
 10909      435F4154 
 10909      4F4D4943 
 10909      5F53484F 
 10909      52545F4C 
 10910 2d08 01       		.byte	0x1
 10911 2d09 00       		.uleb128 0
 10912 2d0a 5F5F4743 		.ascii "__GCC_ATOMIC_INT_LOCK_FREE 2\0"
 10912      435F4154 
 10912      4F4D4943 
 10912      5F494E54 
 10912      5F4C4F43 
 10913 2d27 01       		.byte	0x1
 10914 2d28 00       		.uleb128 0
 10915 2d29 5F5F4743 		.ascii "__GCC_ATOMIC_LONG_LOCK_FREE 2\0"
 10915      435F4154 
 10915      4F4D4943 
 10915      5F4C4F4E 
 10915      475F4C4F 
 10916 2d47 01       		.byte	0x1
 10917 2d48 00       		.uleb128 0
 10918 2d49 5F5F4743 		.ascii "__GCC_ATOMIC_LLONG_LOCK_FREE 2\0"
 10918      435F4154 
 10918      4F4D4943 
 10918      5F4C4C4F 
 10918      4E475F4C 
 10919 2d68 01       		.byte	0x1
 10920 2d69 00       		.uleb128 0
 10921 2d6a 5F5F4743 		.ascii "__GCC_ATOMIC_TEST_AND_SET_TRUEVAL 1\0"
 10921      435F4154 
 10921      4F4D4943 
 10921      5F544553 
 10921      545F414E 
 10922 2d8e 01       		.byte	0x1
 10923 2d8f 00       		.uleb128 0
 10924 2d90 5F5F4743 		.ascii "__GCC_DESTRUCTIVE_SIZE 64\0"
 10924      435F4445 
 10924      53545255 
 10924      43544956 
 10924      455F5349 
 10925 2daa 01       		.byte	0x1
 10926 2dab 00       		.uleb128 0
 10927 2dac 5F5F4743 		.ascii "__GCC_CONSTRUCTIVE_SIZE 64\0"
 10927      435F434F 
 10927      4E535452 
 10927      55435449 
 10927      56455F53 
 10928 2dc7 01       		.byte	0x1
 10929 2dc8 00       		.uleb128 0
 10930 2dc9 5F5F4743 		.ascii "__GCC_ATOMIC_POINTER_LOCK_FREE 2\0"
 10930      435F4154 
 10930      4F4D4943 
 10930      5F504F49 
 10930      4E544552 
 10931 2dea 01       		.byte	0x1
 10932 2deb 00       		.uleb128 0
 10933 2dec 5F5F4841 		.ascii "__HAVE_SPECULATION_SAFE_VALUE 1\0"
 10933      56455F53 
 10933      50454355 
 10933      4C415449 
 10933      4F4E5F53 
 10934 2e0c 01       		.byte	0x1
 10935 2e0d 00       		.uleb128 0
 10936 2e0e 5F5F4743 		.ascii "__GCC_HAVE_DWARF2_CFI_ASM 1\0"
 10936      435F4841 
 10936      56455F44 
 10936      57415246 
 10936      325F4346 
 10937 2e2a 01       		.byte	0x1
 10938 2e2b 00       		.uleb128 0
 10939 2e2c 5F5F5052 		.ascii "__PRAGMA_REDEFINE_EXTNAME 1\0"
 10939      41474D41 
 10939      5F524544 
 10939      4546494E 
 10939      455F4558 
 10940 2e48 01       		.byte	0x1
 10941 2e49 00       		.uleb128 0
 10942 2e4a 5F5F5349 		.ascii "__SIZEOF_INT128__ 16\0"
 10942      5A454F46 
 10942      5F494E54 
 10942      3132385F 
 10942      5F203136 
 10943 2e5f 01       		.byte	0x1
 10944 2e60 00       		.uleb128 0
 10945 2e61 5F5F5349 		.ascii "__SIZEOF_WCHAR_T__ 2\0"
 10945      5A454F46 
 10945      5F574348 
 10945      41525F54 
 10945      5F5F2032 
 10946 2e76 01       		.byte	0x1
 10947 2e77 00       		.uleb128 0
 10948 2e78 5F5F5349 		.ascii "__SIZEOF_WINT_T__ 2\0"
 10948      5A454F46 
 10948      5F57494E 
 10948      545F545F 
 10948      5F203200 
 10949 2e8c 01       		.byte	0x1
 10950 2e8d 00       		.uleb128 0
 10951 2e8e 5F5F5349 		.ascii "__SIZEOF_PTRDIFF_T__ 8\0"
 10951      5A454F46 
 10951      5F505452 
 10951      44494646 
 10951      5F545F5F 
 10952 2ea5 01       		.byte	0x1
 10953 2ea6 00       		.uleb128 0
 10954 2ea7 5F5F616D 		.ascii "__amd64 1\0"
 10954      64363420 
 10954      3100
 10955 2eb1 01       		.byte	0x1
 10956 2eb2 00       		.uleb128 0
 10957 2eb3 5F5F616D 		.ascii "__amd64__ 1\0"
 10957      6436345F 
 10957      5F203100 
 10958 2ebf 01       		.byte	0x1
 10959 2ec0 00       		.uleb128 0
 10960 2ec1 5F5F7838 		.ascii "__x86_64 1\0"
 10960      365F3634 
 10960      203100
 10961 2ecc 01       		.byte	0x1
 10962 2ecd 00       		.uleb128 0
 10963 2ece 5F5F7838 		.ascii "__x86_64__ 1\0"
 10963      365F3634 
 10963      5F5F2031 
 10963      00
 10964 2edb 01       		.byte	0x1
 10965 2edc 00       		.uleb128 0
 10966 2edd 5F5F5349 		.ascii "__SIZEOF_FLOAT80__ 16\0"
 10966      5A454F46 
 10966      5F464C4F 
 10966      41543830 
 10966      5F5F2031 
 10967 2ef3 01       		.byte	0x1
 10968 2ef4 00       		.uleb128 0
 10969 2ef5 5F5F5349 		.ascii "__SIZEOF_FLOAT128__ 16\0"
 10969      5A454F46 
 10969      5F464C4F 
 10969      41543132 
 10969      385F5F20 
 10970 2f0c 01       		.byte	0x1
 10971 2f0d 00       		.uleb128 0
 10972 2f0e 5F5F4154 		.ascii "__ATOMIC_HLE_ACQUIRE 65536\0"
 10972      4F4D4943 
 10972      5F484C45 
 10972      5F414351 
 10972      55495245 
 10973 2f29 01       		.byte	0x1
 10974 2f2a 00       		.uleb128 0
 10975 2f2b 5F5F4154 		.ascii "__ATOMIC_HLE_RELEASE 131072\0"
 10975      4F4D4943 
 10975      5F484C45 
 10975      5F52454C 
 10975      45415345 
 10976 2f47 01       		.byte	0x1
 10977 2f48 00       		.uleb128 0
 10978 2f49 5F5F4743 		.ascii "__GCC_ASM_FLAG_OUTPUTS__ 1\0"
 10978      435F4153 
 10978      4D5F464C 
 10978      41475F4F 
 10978      55545055 
 10979 2f64 01       		.byte	0x1
 10980 2f65 00       		.uleb128 0
 10981 2f66 5F5F6E6F 		.ascii "__nocona 1\0"
 10981      636F6E61 
 10981      203100
 10982 2f71 01       		.byte	0x1
 10983 2f72 00       		.uleb128 0
 10984 2f73 5F5F6E6F 		.ascii "__nocona__ 1\0"
 10984      636F6E61 
 10984      5F5F2031 
 10984      00
 10985 2f80 01       		.byte	0x1
 10986 2f81 00       		.uleb128 0
 10987 2f82 5F5F636F 		.ascii "__code_model_medium__ 1\0"
 10987      64655F6D 
 10987      6F64656C 
 10987      5F6D6564 
 10987      69756D5F 
 10988 2f9a 01       		.byte	0x1
 10989 2f9b 00       		.uleb128 0
 10990 2f9c 5F5F4D4D 		.ascii "__MMX__ 1\0"
 10990      585F5F20 
 10990      3100
 10991 2fa6 01       		.byte	0x1
 10992 2fa7 00       		.uleb128 0
 10993 2fa8 5F5F5353 		.ascii "__SSE__ 1\0"
 10993      455F5F20 
 10993      3100
 10994 2fb2 01       		.byte	0x1
 10995 2fb3 00       		.uleb128 0
 10996 2fb4 5F5F5353 		.ascii "__SSE2__ 1\0"
 10996      45325F5F 
 10996      203100
 10997 2fbf 01       		.byte	0x1
 10998 2fc0 00       		.uleb128 0
 10999 2fc1 5F5F5353 		.ascii "__SSE3__ 1\0"
 10999      45335F5F 
 10999      203100
 11000 2fcc 01       		.byte	0x1
 11001 2fcd 00       		.uleb128 0
 11002 2fce 5F5F4658 		.ascii "__FXSR__ 1\0"
 11002      53525F5F 
 11002      203100
 11003 2fd9 01       		.byte	0x1
 11004 2fda 00       		.uleb128 0
 11005 2fdb 5F5F5353 		.ascii "__SSE_MATH__ 1\0"
 11005      455F4D41 
 11005      54485F5F 
 11005      203100
 11006 2fea 01       		.byte	0x1
 11007 2feb 00       		.uleb128 0
 11008 2fec 5F5F5353 		.ascii "__SSE2_MATH__ 1\0"
 11008      45325F4D 
 11008      4154485F 
 11008      5F203100 
 11009 2ffc 01       		.byte	0x1
 11010 2ffd 00       		.uleb128 0
 11011 2ffe 5F5F4D4D 		.ascii "__MMX_WITH_SSE__ 1\0"
 11011      585F5749 
 11011      54485F53 
 11011      53455F5F 
 11011      203100
 11012 3011 01       		.byte	0x1
 11013 3012 00       		.uleb128 0
 11014 3013 5F5F5345 		.ascii "__SEG_FS 1\0"
 11014      475F4653 
 11014      203100
 11015 301e 01       		.byte	0x1
 11016 301f 00       		.uleb128 0
 11017 3020 5F5F5345 		.ascii "__SEG_GS 1\0"
 11017      475F4753 
 11017      203100
 11018 302b 01       		.byte	0x1
 11019 302c 00       		.uleb128 0
 11020 302d 5F5F5345 		.ascii "__SEH__ 1\0"
 11020      485F5F20 
 11020      3100
 11021 3037 01       		.byte	0x1
 11022 3038 00       		.uleb128 0
 11023 3039 5F5F7374 		.ascii "__stdcall __attribute__((__stdcall__))\0"
 11023      6463616C 
 11023      6C205F5F 
 11023      61747472 
 11023      69627574 
 11024 3060 01       		.byte	0x1
 11025 3061 00       		.uleb128 0
 11026 3062 5F5F6661 		.ascii "__fastcall __attribute__((__fastcall__))\0"
 11026      73746361 
 11026      6C6C205F 
 11026      5F617474 
 11026      72696275 
 11027 308b 01       		.byte	0x1
 11028 308c 00       		.uleb128 0
 11029 308d 5F5F7468 		.ascii "__thiscall __attribute__((__thiscall__))\0"
 11029      69736361 
 11029      6C6C205F 
 11029      5F617474 
 11029      72696275 
 11030 30b6 01       		.byte	0x1
 11031 30b7 00       		.uleb128 0
 11032 30b8 5F5F6364 		.ascii "__cdecl __attribute__((__cdecl__))\0"
 11032      65636C20 
 11032      5F5F6174 
 11032      74726962 
 11032      7574655F 
 11033 30db 01       		.byte	0x1
 11034 30dc 00       		.uleb128 0
 11035 30dd 5F5F4758 		.ascii "__GXX_MERGED_TYPEINFO_NAMES 0\0"
 11035      585F4D45 
 11035      52474544 
 11035      5F545950 
 11035      45494E46 
 11036 30fb 01       		.byte	0x1
 11037 30fc 00       		.uleb128 0
 11038 30fd 5F5F4758 		.ascii "__GXX_TYPEINFO_EQUALITY_INLINE 0\0"
 11038      585F5459 
 11038      5045494E 
 11038      464F5F45 
 11038      5155414C 
 11039 311e 01       		.byte	0x1
 11040 311f 00       		.uleb128 0
 11041 3120 5F5F4D53 		.ascii "__MSVCRT__ 1\0"
 11041      56435254 
 11041      5F5F2031 
 11041      00
 11042 312d 01       		.byte	0x1
 11043 312e 00       		.uleb128 0
 11044 312f 5F5F4D49 		.ascii "__MINGW32__ 1\0"
 11044      4E475733 
 11044      325F5F20 
 11044      3100
 11045 313d 01       		.byte	0x1
 11046 313e 00       		.uleb128 0
 11047 313f 5F57494E 		.ascii "_WIN32 1\0"
 11047      33322031 
 11047      00
 11048 3148 01       		.byte	0x1
 11049 3149 00       		.uleb128 0
 11050 314a 5F5F5749 		.ascii "__WIN32 1\0"
 11050      4E333220 
 11050      3100
 11051 3154 01       		.byte	0x1
 11052 3155 00       		.uleb128 0
 11053 3156 5F5F5749 		.ascii "__WIN32__ 1\0"
 11053      4E33325F 
 11053      5F203100 
 11054 3162 01       		.byte	0x1
 11055 3163 00       		.uleb128 0
 11056 3164 5F5F5749 		.ascii "__WINNT 1\0"
 11056      4E4E5420 
 11056      3100
 11057 316e 01       		.byte	0x1
 11058 316f 00       		.uleb128 0
 11059 3170 5F5F5749 		.ascii "__WINNT__ 1\0"
 11059      4E4E545F 
 11059      5F203100 
 11060 317c 01       		.byte	0x1
 11061 317d 00       		.uleb128 0
 11062 317e 5F494E54 		.ascii "_INTEGRAL_MAX_BITS 64\0"
 11062      45475241 
 11062      4C5F4D41 
 11062      585F4249 
 11062      54532036 
 11063 3194 01       		.byte	0x1
 11064 3195 00       		.uleb128 0
 11065 3196 5F5F4D49 		.ascii "__MINGW64__ 1\0"
 11065      4E475736 
 11065      345F5F20 
 11065      3100
 11066 31a4 01       		.byte	0x1
 11067 31a5 00       		.uleb128 0
 11068 31a6 5F5F5749 		.ascii "__WIN64 1\0"
 11068      4E363420 
 11068      3100
 11069 31b0 01       		.byte	0x1
 11070 31b1 00       		.uleb128 0
 11071 31b2 5F5F5749 		.ascii "__WIN64__ 1\0"
 11071      4E36345F 
 11071      5F203100 
 11072 31be 01       		.byte	0x1
 11073 31bf 00       		.uleb128 0
 11074 31c0 5F57494E 		.ascii "_WIN64 1\0"
 11074      36342031 
 11074      00
 11075 31c9 01       		.byte	0x1
 11076 31ca 00       		.uleb128 0
 11077 31cb 5F5F6465 		.ascii "__declspec(x) __attribute__((x))\0"
 11077      636C7370 
 11077      65632878 
 11077      29205F5F 
 11077      61747472 
 11078 31ec 01       		.byte	0x1
 11079 31ed 00       		.uleb128 0
 11080 31ee 5F5F4445 		.ascii "__DECIMAL_BID_FORMAT__ 1\0"
 11080      43494D41 
 11080      4C5F4249 
 11080      445F464F 
 11080      524D4154 
 11081 3207 01       		.byte	0x1
 11082 3208 00       		.uleb128 0
 11083 3209 5F524545 		.ascii "_REENTRANT 1\0"
 11083      4E545241 
 11083      4E542031 
 11083      00
 11084 3216 01       		.byte	0x1
 11085 3217 00       		.uleb128 0
 11086 3218 474E555F 		.ascii "GNU_EFI_USE_MS_ABI 1\0"
 11086      4546495F 
 11086      5553455F 
 11086      4D535F41 
 11086      42492031 
 11087 322d 03       		.byte	0x3
 11088 322e 00       		.uleb128 0
 11089 322f 01       		.uleb128 0x1
 11090              		.file 14 "gnu-efi-3.0.18/inc/lib.h"
 11091 3230 03       		.byte	0x3
 11092 3231 12       		.uleb128 0x12
 11093 3232 0E       		.uleb128 0xe
 11094              		.file 15 "gnu-efi-3.0.18/inc/efi.h"
 11095 3233 03       		.byte	0x3
 11096 3234 17       		.uleb128 0x17
 11097 3235 0F       		.uleb128 0xf
 11098 3236 01       		.byte	0x1
 11099 3237 16       		.uleb128 0x16
 11100 3238 5F474E55 		.ascii "_GNU_EFI \0"
 11100      5F454649 
 11100      2000
 11101 3242 01       		.byte	0x1
 11102 3243 22       		.uleb128 0x22
 11103 3244 5F454649 		.ascii "_EFI_INCLUDE_ \0"
 11103      5F494E43 
 11103      4C554445 
 11103      5F2000
 11104 3253 01       		.byte	0x1
 11105 3254 28       		.uleb128 0x28
 11106 3255 4546495F 		.ascii "EFI_FIRMWARE_VENDOR L\"INTEL\"\0"
 11106      4649524D 
 11106      57415245 
 11106      5F56454E 
 11106      444F5220 
 11107 3272 01       		.byte	0x1
 11108 3273 29       		.uleb128 0x29
 11109 3274 4546495F 		.ascii "EFI_FIRMWARE_MAJOR_REVISION 12\0"
 11109      4649524D 
 11109      57415245 
 11109      5F4D414A 
 11109      4F525F52 
 11110 3293 01       		.byte	0x1
 11111 3294 2A       		.uleb128 0x2a
 11112 3295 4546495F 		.ascii "EFI_FIRMWARE_MINOR_REVISION 33\0"
 11112      4649524D 
 11112      57415245 
 11112      5F4D494E 
 11112      4F525F52 
 11113 32b4 01       		.byte	0x1
 11114 32b5 2B       		.uleb128 0x2b
 11115 32b6 4546495F 		.ascii "EFI_FIRMWARE_REVISION ((EFI_FIRMWARE_MAJOR_REVISION <<16) | (EFI_FIRMWARE_MINOR_REVISION))
 11115      4649524D 
 11115      57415245 
 11115      5F524556 
 11115      4953494F 
 11116 3311 03       		.byte	0x3
 11117 3312 2E       		.uleb128 0x2e
 11118 3313 04       		.uleb128 0x4
 11119 3314 01       		.byte	0x1
 11120 3315 14       		.uleb128 0x14
 11121 3316 5838365F 		.ascii "X86_64_EFI_BIND \0"
 11121      36345F45 
 11121      46495F42 
 11121      494E4420 
 11121      00
 11122 3327 01       		.byte	0x1
 11123 3328 1D       		.uleb128 0x1d
 11124 3329 48415645 		.ascii "HAVE_USE_MS_ABI 1\0"
 11124      5F555345 
 11124      5F4D535F 
 11124      41424920 
 11124      3100
 11125              		.file 16 "C:/Users/victim/Desktop/dangerous/yuziakicin/UEFI/UEFI/Backend/mingw64/lib/gcc/x86_64-w6
 11126 333b 03       		.byte	0x3
 11127 333c 5C       		.uleb128 0x5c
 11128 333d 10       		.uleb128 0x10
 11129 333e 03       		.byte	0x3
 11130 333f 0B       		.uleb128 0xb
 11131 3340 02       		.uleb128 0x2
 11132 3341 01       		.byte	0x1
 11133 3342 1D       		.uleb128 0x1d
 11134 3343 5F474343 		.ascii "_GCC_STDINT_H \0"
 11134      5F535444 
 11134      494E545F 
 11134      482000
 11135 3352 02       		.byte	0x2
 11136 3353 64       		.uleb128 0x64
 11137 3354 494E5438 		.ascii "INT8_MAX\0"
 11137      5F4D4158 
 11137      00
 11138 335d 01       		.byte	0x1
 11139 335e 65       		.uleb128 0x65
 11140 335f 494E5438 		.ascii "INT8_MAX __INT8_MAX__\0"
 11140      5F4D4158 
 11140      205F5F49 
 11140      4E54385F 
 11140      4D41585F 
 11141 3375 02       		.byte	0x2
 11142 3376 66       		.uleb128 0x66
 11143 3377 494E5438 		.ascii "INT8_MIN\0"
 11143      5F4D494E 
 11143      00
 11144 3380 01       		.byte	0x1
 11145 3381 67       		.uleb128 0x67
 11146 3382 494E5438 		.ascii "INT8_MIN (-INT8_MAX - 1)\0"
 11146      5F4D494E 
 11146      20282D49 
 11146      4E54385F 
 11146      4D415820 
 11147 339b 02       		.byte	0x2
 11148 339c 6A       		.uleb128 0x6a
 11149 339d 55494E54 		.ascii "UINT8_MAX\0"
 11149      385F4D41 
 11149      5800
 11150 33a7 01       		.byte	0x1
 11151 33a8 6B       		.uleb128 0x6b
 11152 33a9 55494E54 		.ascii "UINT8_MAX __UINT8_MAX__\0"
 11152      385F4D41 
 11152      58205F5F 
 11152      55494E54 
 11152      385F4D41 
 11153 33c1 02       		.byte	0x2
 11154 33c2 6E       		.uleb128 0x6e
 11155 33c3 494E5431 		.ascii "INT16_MAX\0"
 11155      365F4D41 
 11155      5800
 11156 33cd 01       		.byte	0x1
 11157 33ce 6F       		.uleb128 0x6f
 11158 33cf 494E5431 		.ascii "INT16_MAX __INT16_MAX__\0"
 11158      365F4D41 
 11158      58205F5F 
 11158      494E5431 
 11158      365F4D41 
 11159 33e7 02       		.byte	0x2
 11160 33e8 70       		.uleb128 0x70
 11161 33e9 494E5431 		.ascii "INT16_MIN\0"
 11161      365F4D49 
 11161      4E00
 11162 33f3 01       		.byte	0x1
 11163 33f4 71       		.uleb128 0x71
 11164 33f5 494E5431 		.ascii "INT16_MIN (-INT16_MAX - 1)\0"
 11164      365F4D49 
 11164      4E20282D 
 11164      494E5431 
 11164      365F4D41 
 11165 3410 02       		.byte	0x2
 11166 3411 74       		.uleb128 0x74
 11167 3412 55494E54 		.ascii "UINT16_MAX\0"
 11167      31365F4D 
 11167      415800
 11168 341d 01       		.byte	0x1
 11169 341e 75       		.uleb128 0x75
 11170 341f 55494E54 		.ascii "UINT16_MAX __UINT16_MAX__\0"
 11170      31365F4D 
 11170      4158205F 
 11170      5F55494E 
 11170      5431365F 
 11171 3439 02       		.byte	0x2
 11172 343a 78       		.uleb128 0x78
 11173 343b 494E5433 		.ascii "INT32_MAX\0"
 11173      325F4D41 
 11173      5800
 11174 3445 01       		.byte	0x1
 11175 3446 79       		.uleb128 0x79
 11176 3447 494E5433 		.ascii "INT32_MAX __INT32_MAX__\0"
 11176      325F4D41 
 11176      58205F5F 
 11176      494E5433 
 11176      325F4D41 
 11177 345f 02       		.byte	0x2
 11178 3460 7A       		.uleb128 0x7a
 11179 3461 494E5433 		.ascii "INT32_MIN\0"
 11179      325F4D49 
 11179      4E00
 11180 346b 01       		.byte	0x1
 11181 346c 7B       		.uleb128 0x7b
 11182 346d 494E5433 		.ascii "INT32_MIN (-INT32_MAX - 1)\0"
 11182      325F4D49 
 11182      4E20282D 
 11182      494E5433 
 11182      325F4D41 
 11183 3488 02       		.byte	0x2
 11184 3489 7E       		.uleb128 0x7e
 11185 348a 55494E54 		.ascii "UINT32_MAX\0"
 11185      33325F4D 
 11185      415800
 11186 3495 01       		.byte	0x1
 11187 3496 7F       		.uleb128 0x7f
 11188 3497 55494E54 		.ascii "UINT32_MAX __UINT32_MAX__\0"
 11188      33325F4D 
 11188      4158205F 
 11188      5F55494E 
 11188      5433325F 
 11189 34b1 02       		.byte	0x2
 11190 34b2 8201     		.uleb128 0x82
 11191 34b4 494E5436 		.ascii "INT64_MAX\0"
 11191      345F4D41 
 11191      5800
 11192 34be 01       		.byte	0x1
 11193 34bf 8301     		.uleb128 0x83
 11194 34c1 494E5436 		.ascii "INT64_MAX __INT64_MAX__\0"
 11194      345F4D41 
 11194      58205F5F 
 11194      494E5436 
 11194      345F4D41 
 11195 34d9 02       		.byte	0x2
 11196 34da 8401     		.uleb128 0x84
 11197 34dc 494E5436 		.ascii "INT64_MIN\0"
 11197      345F4D49 
 11197      4E00
 11198 34e6 01       		.byte	0x1
 11199 34e7 8501     		.uleb128 0x85
 11200 34e9 494E5436 		.ascii "INT64_MIN (-INT64_MAX - 1)\0"
 11200      345F4D49 
 11200      4E20282D 
 11200      494E5436 
 11200      345F4D41 
 11201 3504 02       		.byte	0x2
 11202 3505 8801     		.uleb128 0x88
 11203 3507 55494E54 		.ascii "UINT64_MAX\0"
 11203      36345F4D 
 11203      415800
 11204 3512 01       		.byte	0x1
 11205 3513 8901     		.uleb128 0x89
 11206 3515 55494E54 		.ascii "UINT64_MAX __UINT64_MAX__\0"
 11206      36345F4D 
 11206      4158205F 
 11206      5F55494E 
 11206      5436345F 
 11207 352f 02       		.byte	0x2
 11208 3530 8C01     		.uleb128 0x8c
 11209 3532 494E545F 		.ascii "INT_LEAST8_MAX\0"
 11209      4C454153 
 11209      54385F4D 
 11209      415800
 11210 3541 01       		.byte	0x1
 11211 3542 8D01     		.uleb128 0x8d
 11212 3544 494E545F 		.ascii "INT_LEAST8_MAX __INT_LEAST8_MAX__\0"
 11212      4C454153 
 11212      54385F4D 
 11212      4158205F 
 11212      5F494E54 
 11213 3566 02       		.byte	0x2
 11214 3567 8E01     		.uleb128 0x8e
 11215 3569 494E545F 		.ascii "INT_LEAST8_MIN\0"
 11215      4C454153 
 11215      54385F4D 
 11215      494E00
 11216 3578 01       		.byte	0x1
 11217 3579 8F01     		.uleb128 0x8f
 11218 357b 494E545F 		.ascii "INT_LEAST8_MIN (-INT_LEAST8_MAX - 1)\0"
 11218      4C454153 
 11218      54385F4D 
 11218      494E2028 
 11218      2D494E54 
 11219 35a0 02       		.byte	0x2
 11220 35a1 9001     		.uleb128 0x90
 11221 35a3 55494E54 		.ascii "UINT_LEAST8_MAX\0"
 11221      5F4C4541 
 11221      5354385F 
 11221      4D415800 
 11222 35b3 01       		.byte	0x1
 11223 35b4 9101     		.uleb128 0x91
 11224 35b6 55494E54 		.ascii "UINT_LEAST8_MAX __UINT_LEAST8_MAX__\0"
 11224      5F4C4541 
 11224      5354385F 
 11224      4D415820 
 11224      5F5F5549 
 11225 35da 02       		.byte	0x2
 11226 35db 9201     		.uleb128 0x92
 11227 35dd 494E545F 		.ascii "INT_LEAST16_MAX\0"
 11227      4C454153 
 11227      5431365F 
 11227      4D415800 
 11228 35ed 01       		.byte	0x1
 11229 35ee 9301     		.uleb128 0x93
 11230 35f0 494E545F 		.ascii "INT_LEAST16_MAX __INT_LEAST16_MAX__\0"
 11230      4C454153 
 11230      5431365F 
 11230      4D415820 
 11230      5F5F494E 
 11231 3614 02       		.byte	0x2
 11232 3615 9401     		.uleb128 0x94
 11233 3617 494E545F 		.ascii "INT_LEAST16_MIN\0"
 11233      4C454153 
 11233      5431365F 
 11233      4D494E00 
 11234 3627 01       		.byte	0x1
 11235 3628 9501     		.uleb128 0x95
 11236 362a 494E545F 		.ascii "INT_LEAST16_MIN (-INT_LEAST16_MAX - 1)\0"
 11236      4C454153 
 11236      5431365F 
 11236      4D494E20 
 11236      282D494E 
 11237 3651 02       		.byte	0x2
 11238 3652 9601     		.uleb128 0x96
 11239 3654 55494E54 		.ascii "UINT_LEAST16_MAX\0"
 11239      5F4C4541 
 11239      53543136 
 11239      5F4D4158 
 11239      00
 11240 3665 01       		.byte	0x1
 11241 3666 9701     		.uleb128 0x97
 11242 3668 55494E54 		.ascii "UINT_LEAST16_MAX __UINT_LEAST16_MAX__\0"
 11242      5F4C4541 
 11242      53543136 
 11242      5F4D4158 
 11242      205F5F55 
 11243 368e 02       		.byte	0x2
 11244 368f 9801     		.uleb128 0x98
 11245 3691 494E545F 		.ascii "INT_LEAST32_MAX\0"
 11245      4C454153 
 11245      5433325F 
 11245      4D415800 
 11246 36a1 01       		.byte	0x1
 11247 36a2 9901     		.uleb128 0x99
 11248 36a4 494E545F 		.ascii "INT_LEAST32_MAX __INT_LEAST32_MAX__\0"
 11248      4C454153 
 11248      5433325F 
 11248      4D415820 
 11248      5F5F494E 
 11249 36c8 02       		.byte	0x2
 11250 36c9 9A01     		.uleb128 0x9a
 11251 36cb 494E545F 		.ascii "INT_LEAST32_MIN\0"
 11251      4C454153 
 11251      5433325F 
 11251      4D494E00 
 11252 36db 01       		.byte	0x1
 11253 36dc 9B01     		.uleb128 0x9b
 11254 36de 494E545F 		.ascii "INT_LEAST32_MIN (-INT_LEAST32_MAX - 1)\0"
 11254      4C454153 
 11254      5433325F 
 11254      4D494E20 
 11254      282D494E 
 11255 3705 02       		.byte	0x2
 11256 3706 9C01     		.uleb128 0x9c
 11257 3708 55494E54 		.ascii "UINT_LEAST32_MAX\0"
 11257      5F4C4541 
 11257      53543332 
 11257      5F4D4158 
 11257      00
 11258 3719 01       		.byte	0x1
 11259 371a 9D01     		.uleb128 0x9d
 11260 371c 55494E54 		.ascii "UINT_LEAST32_MAX __UINT_LEAST32_MAX__\0"
 11260      5F4C4541 
 11260      53543332 
 11260      5F4D4158 
 11260      205F5F55 
 11261 3742 02       		.byte	0x2
 11262 3743 9E01     		.uleb128 0x9e
 11263 3745 494E545F 		.ascii "INT_LEAST64_MAX\0"
 11263      4C454153 
 11263      5436345F 
 11263      4D415800 
 11264 3755 01       		.byte	0x1
 11265 3756 9F01     		.uleb128 0x9f
 11266 3758 494E545F 		.ascii "INT_LEAST64_MAX __INT_LEAST64_MAX__\0"
 11266      4C454153 
 11266      5436345F 
 11266      4D415820 
 11266      5F5F494E 
 11267 377c 02       		.byte	0x2
 11268 377d A001     		.uleb128 0xa0
 11269 377f 494E545F 		.ascii "INT_LEAST64_MIN\0"
 11269      4C454153 
 11269      5436345F 
 11269      4D494E00 
 11270 378f 01       		.byte	0x1
 11271 3790 A101     		.uleb128 0xa1
 11272 3792 494E545F 		.ascii "INT_LEAST64_MIN (-INT_LEAST64_MAX - 1)\0"
 11272      4C454153 
 11272      5436345F 
 11272      4D494E20 
 11272      282D494E 
 11273 37b9 02       		.byte	0x2
 11274 37ba A201     		.uleb128 0xa2
 11275 37bc 55494E54 		.ascii "UINT_LEAST64_MAX\0"
 11275      5F4C4541 
 11275      53543634 
 11275      5F4D4158 
 11275      00
 11276 37cd 01       		.byte	0x1
 11277 37ce A301     		.uleb128 0xa3
 11278 37d0 55494E54 		.ascii "UINT_LEAST64_MAX __UINT_LEAST64_MAX__\0"
 11278      5F4C4541 
 11278      53543634 
 11278      5F4D4158 
 11278      205F5F55 
 11279 37f6 02       		.byte	0x2
 11280 37f7 A501     		.uleb128 0xa5
 11281 37f9 494E545F 		.ascii "INT_FAST8_MAX\0"
 11281      46415354 
 11281      385F4D41 
 11281      5800
 11282 3807 01       		.byte	0x1
 11283 3808 A601     		.uleb128 0xa6
 11284 380a 494E545F 		.ascii "INT_FAST8_MAX __INT_FAST8_MAX__\0"
 11284      46415354 
 11284      385F4D41 
 11284      58205F5F 
 11284      494E545F 
 11285 382a 02       		.byte	0x2
 11286 382b A701     		.uleb128 0xa7
 11287 382d 494E545F 		.ascii "INT_FAST8_MIN\0"
 11287      46415354 
 11287      385F4D49 
 11287      4E00
 11288 383b 01       		.byte	0x1
 11289 383c A801     		.uleb128 0xa8
 11290 383e 494E545F 		.ascii "INT_FAST8_MIN (-INT_FAST8_MAX - 1)\0"
 11290      46415354 
 11290      385F4D49 
 11290      4E20282D 
 11290      494E545F 
 11291 3861 02       		.byte	0x2
 11292 3862 A901     		.uleb128 0xa9
 11293 3864 55494E54 		.ascii "UINT_FAST8_MAX\0"
 11293      5F464153 
 11293      54385F4D 
 11293      415800
 11294 3873 01       		.byte	0x1
 11295 3874 AA01     		.uleb128 0xaa
 11296 3876 55494E54 		.ascii "UINT_FAST8_MAX __UINT_FAST8_MAX__\0"
 11296      5F464153 
 11296      54385F4D 
 11296      4158205F 
 11296      5F55494E 
 11297 3898 02       		.byte	0x2
 11298 3899 AB01     		.uleb128 0xab
 11299 389b 494E545F 		.ascii "INT_FAST16_MAX\0"
 11299      46415354 
 11299      31365F4D 
 11299      415800
 11300 38aa 01       		.byte	0x1
 11301 38ab AC01     		.uleb128 0xac
 11302 38ad 494E545F 		.ascii "INT_FAST16_MAX __INT_FAST16_MAX__\0"
 11302      46415354 
 11302      31365F4D 
 11302      4158205F 
 11302      5F494E54 
 11303 38cf 02       		.byte	0x2
 11304 38d0 AD01     		.uleb128 0xad
 11305 38d2 494E545F 		.ascii "INT_FAST16_MIN\0"
 11305      46415354 
 11305      31365F4D 
 11305      494E00
 11306 38e1 01       		.byte	0x1
 11307 38e2 AE01     		.uleb128 0xae
 11308 38e4 494E545F 		.ascii "INT_FAST16_MIN (-INT_FAST16_MAX - 1)\0"
 11308      46415354 
 11308      31365F4D 
 11308      494E2028 
 11308      2D494E54 
 11309 3909 02       		.byte	0x2
 11310 390a AF01     		.uleb128 0xaf
 11311 390c 55494E54 		.ascii "UINT_FAST16_MAX\0"
 11311      5F464153 
 11311      5431365F 
 11311      4D415800 
 11312 391c 01       		.byte	0x1
 11313 391d B001     		.uleb128 0xb0
 11314 391f 55494E54 		.ascii "UINT_FAST16_MAX __UINT_FAST16_MAX__\0"
 11314      5F464153 
 11314      5431365F 
 11314      4D415820 
 11314      5F5F5549 
 11315 3943 02       		.byte	0x2
 11316 3944 B101     		.uleb128 0xb1
 11317 3946 494E545F 		.ascii "INT_FAST32_MAX\0"
 11317      46415354 
 11317      33325F4D 
 11317      415800
 11318 3955 01       		.byte	0x1
 11319 3956 B201     		.uleb128 0xb2
 11320 3958 494E545F 		.ascii "INT_FAST32_MAX __INT_FAST32_MAX__\0"
 11320      46415354 
 11320      33325F4D 
 11320      4158205F 
 11320      5F494E54 
 11321 397a 02       		.byte	0x2
 11322 397b B301     		.uleb128 0xb3
 11323 397d 494E545F 		.ascii "INT_FAST32_MIN\0"
 11323      46415354 
 11323      33325F4D 
 11323      494E00
 11324 398c 01       		.byte	0x1
 11325 398d B401     		.uleb128 0xb4
 11326 398f 494E545F 		.ascii "INT_FAST32_MIN (-INT_FAST32_MAX - 1)\0"
 11326      46415354 
 11326      33325F4D 
 11326      494E2028 
 11326      2D494E54 
 11327 39b4 02       		.byte	0x2
 11328 39b5 B501     		.uleb128 0xb5
 11329 39b7 55494E54 		.ascii "UINT_FAST32_MAX\0"
 11329      5F464153 
 11329      5433325F 
 11329      4D415800 
 11330 39c7 01       		.byte	0x1
 11331 39c8 B601     		.uleb128 0xb6
 11332 39ca 55494E54 		.ascii "UINT_FAST32_MAX __UINT_FAST32_MAX__\0"
 11332      5F464153 
 11332      5433325F 
 11332      4D415820 
 11332      5F5F5549 
 11333 39ee 02       		.byte	0x2
 11334 39ef B701     		.uleb128 0xb7
 11335 39f1 494E545F 		.ascii "INT_FAST64_MAX\0"
 11335      46415354 
 11335      36345F4D 
 11335      415800
 11336 3a00 01       		.byte	0x1
 11337 3a01 B801     		.uleb128 0xb8
 11338 3a03 494E545F 		.ascii "INT_FAST64_MAX __INT_FAST64_MAX__\0"
 11338      46415354 
 11338      36345F4D 
 11338      4158205F 
 11338      5F494E54 
 11339 3a25 02       		.byte	0x2
 11340 3a26 B901     		.uleb128 0xb9
 11341 3a28 494E545F 		.ascii "INT_FAST64_MIN\0"
 11341      46415354 
 11341      36345F4D 
 11341      494E00
 11342 3a37 01       		.byte	0x1
 11343 3a38 BA01     		.uleb128 0xba
 11344 3a3a 494E545F 		.ascii "INT_FAST64_MIN (-INT_FAST64_MAX - 1)\0"
 11344      46415354 
 11344      36345F4D 
 11344      494E2028 
 11344      2D494E54 
 11345 3a5f 02       		.byte	0x2
 11346 3a60 BB01     		.uleb128 0xbb
 11347 3a62 55494E54 		.ascii "UINT_FAST64_MAX\0"
 11347      5F464153 
 11347      5436345F 
 11347      4D415800 
 11348 3a72 01       		.byte	0x1
 11349 3a73 BC01     		.uleb128 0xbc
 11350 3a75 55494E54 		.ascii "UINT_FAST64_MAX __UINT_FAST64_MAX__\0"
 11350      5F464153 
 11350      5436345F 
 11350      4D415820 
 11350      5F5F5549 
 11351 3a99 02       		.byte	0x2
 11352 3a9a BF01     		.uleb128 0xbf
 11353 3a9c 494E5450 		.ascii "INTPTR_MAX\0"
 11353      54525F4D 
 11353      415800
 11354 3aa7 01       		.byte	0x1
 11355 3aa8 C001     		.uleb128 0xc0
 11356 3aaa 494E5450 		.ascii "INTPTR_MAX __INTPTR_MAX__\0"
 11356      54525F4D 
 11356      4158205F 
 11356      5F494E54 
 11356      5054525F 
 11357 3ac4 02       		.byte	0x2
 11358 3ac5 C101     		.uleb128 0xc1
 11359 3ac7 494E5450 		.ascii "INTPTR_MIN\0"
 11359      54525F4D 
 11359      494E00
 11360 3ad2 01       		.byte	0x1
 11361 3ad3 C201     		.uleb128 0xc2
 11362 3ad5 494E5450 		.ascii "INTPTR_MIN (-INTPTR_MAX - 1)\0"
 11362      54525F4D 
 11362      494E2028 
 11362      2D494E54 
 11362      5054525F 
 11363 3af2 02       		.byte	0x2
 11364 3af3 C501     		.uleb128 0xc5
 11365 3af5 55494E54 		.ascii "UINTPTR_MAX\0"
 11365      5054525F 
 11365      4D415800 
 11366 3b01 01       		.byte	0x1
 11367 3b02 C601     		.uleb128 0xc6
 11368 3b04 55494E54 		.ascii "UINTPTR_MAX __UINTPTR_MAX__\0"
 11368      5054525F 
 11368      4D415820 
 11368      5F5F5549 
 11368      4E545054 
 11369 3b20 02       		.byte	0x2
 11370 3b21 C901     		.uleb128 0xc9
 11371 3b23 494E544D 		.ascii "INTMAX_MAX\0"
 11371      41585F4D 
 11371      415800
 11372 3b2e 01       		.byte	0x1
 11373 3b2f CA01     		.uleb128 0xca
 11374 3b31 494E544D 		.ascii "INTMAX_MAX __INTMAX_MAX__\0"
 11374      41585F4D 
 11374      4158205F 
 11374      5F494E54 
 11374      4D41585F 
 11375 3b4b 02       		.byte	0x2
 11376 3b4c CB01     		.uleb128 0xcb
 11377 3b4e 494E544D 		.ascii "INTMAX_MIN\0"
 11377      41585F4D 
 11377      494E00
 11378 3b59 01       		.byte	0x1
 11379 3b5a CC01     		.uleb128 0xcc
 11380 3b5c 494E544D 		.ascii "INTMAX_MIN (-INTMAX_MAX - 1)\0"
 11380      41585F4D 
 11380      494E2028 
 11380      2D494E54 
 11380      4D41585F 
 11381 3b79 02       		.byte	0x2
 11382 3b7a CD01     		.uleb128 0xcd
 11383 3b7c 55494E54 		.ascii "UINTMAX_MAX\0"
 11383      4D41585F 
 11383      4D415800 
 11384 3b88 01       		.byte	0x1
 11385 3b89 CE01     		.uleb128 0xce
 11386 3b8b 55494E54 		.ascii "UINTMAX_MAX __UINTMAX_MAX__\0"
 11386      4D41585F 
 11386      4D415820 
 11386      5F5F5549 
 11386      4E544D41 
 11387 3ba7 02       		.byte	0x2
 11388 3ba8 D201     		.uleb128 0xd2
 11389 3baa 50545244 		.ascii "PTRDIFF_MAX\0"
 11389      4946465F 
 11389      4D415800 
 11390 3bb6 01       		.byte	0x1
 11391 3bb7 D301     		.uleb128 0xd3
 11392 3bb9 50545244 		.ascii "PTRDIFF_MAX __PTRDIFF_MAX__\0"
 11392      4946465F 
 11392      4D415820 
 11392      5F5F5054 
 11392      52444946 
 11393 3bd5 02       		.byte	0x2
 11394 3bd6 D401     		.uleb128 0xd4
 11395 3bd8 50545244 		.ascii "PTRDIFF_MIN\0"
 11395      4946465F 
 11395      4D494E00 
 11396 3be4 01       		.byte	0x1
 11397 3be5 D501     		.uleb128 0xd5
 11398 3be7 50545244 		.ascii "PTRDIFF_MIN (-PTRDIFF_MAX - 1)\0"
 11398      4946465F 
 11398      4D494E20 
 11398      282D5054 
 11398      52444946 
 11399 3c06 02       		.byte	0x2
 11400 3c07 D701     		.uleb128 0xd7
 11401 3c09 5349475F 		.ascii "SIG_ATOMIC_MAX\0"
 11401      41544F4D 
 11401      49435F4D 
 11401      415800
 11402 3c18 01       		.byte	0x1
 11403 3c19 D801     		.uleb128 0xd8
 11404 3c1b 5349475F 		.ascii "SIG_ATOMIC_MAX __SIG_ATOMIC_MAX__\0"
 11404      41544F4D 
 11404      49435F4D 
 11404      4158205F 
 11404      5F534947 
 11405 3c3d 02       		.byte	0x2
 11406 3c3e D901     		.uleb128 0xd9
 11407 3c40 5349475F 		.ascii "SIG_ATOMIC_MIN\0"
 11407      41544F4D 
 11407      49435F4D 
 11407      494E00
 11408 3c4f 01       		.byte	0x1
 11409 3c50 DA01     		.uleb128 0xda
 11410 3c52 5349475F 		.ascii "SIG_ATOMIC_MIN __SIG_ATOMIC_MIN__\0"
 11410      41544F4D 
 11410      49435F4D 
 11410      494E205F 
 11410      5F534947 
 11411 3c74 02       		.byte	0x2
 11412 3c75 DC01     		.uleb128 0xdc
 11413 3c77 53495A45 		.ascii "SIZE_MAX\0"
 11413      5F4D4158 
 11413      00
 11414 3c80 01       		.byte	0x1
 11415 3c81 DD01     		.uleb128 0xdd
 11416 3c83 53495A45 		.ascii "SIZE_MAX __SIZE_MAX__\0"
 11416      5F4D4158 
 11416      205F5F53 
 11416      495A455F 
 11416      4D41585F 
 11417 3c99 02       		.byte	0x2
 11418 3c9a DF01     		.uleb128 0xdf
 11419 3c9c 57434841 		.ascii "WCHAR_MAX\0"
 11419      525F4D41 
 11419      5800
 11420 3ca6 01       		.byte	0x1
 11421 3ca7 E001     		.uleb128 0xe0
 11422 3ca9 57434841 		.ascii "WCHAR_MAX __WCHAR_MAX__\0"
 11422      525F4D41 
 11422      58205F5F 
 11422      57434841 
 11422      525F4D41 
 11423 3cc1 02       		.byte	0x2
 11424 3cc2 E101     		.uleb128 0xe1
 11425 3cc4 57434841 		.ascii "WCHAR_MIN\0"
 11425      525F4D49 
 11425      4E00
 11426 3cce 01       		.byte	0x1
 11427 3ccf E201     		.uleb128 0xe2
 11428 3cd1 57434841 		.ascii "WCHAR_MIN __WCHAR_MIN__\0"
 11428      525F4D49 
 11428      4E205F5F 
 11428      57434841 
 11428      525F4D49 
 11429 3ce9 02       		.byte	0x2
 11430 3cea E401     		.uleb128 0xe4
 11431 3cec 57494E54 		.ascii "WINT_MAX\0"
 11431      5F4D4158 
 11431      00
 11432 3cf5 01       		.byte	0x1
 11433 3cf6 E501     		.uleb128 0xe5
 11434 3cf8 57494E54 		.ascii "WINT_MAX __WINT_MAX__\0"
 11434      5F4D4158 
 11434      205F5F57 
 11434      494E545F 
 11434      4D41585F 
 11435 3d0e 02       		.byte	0x2
 11436 3d0f E601     		.uleb128 0xe6
 11437 3d11 57494E54 		.ascii "WINT_MIN\0"
 11437      5F4D494E 
 11437      00
 11438 3d1a 01       		.byte	0x1
 11439 3d1b E701     		.uleb128 0xe7
 11440 3d1d 57494E54 		.ascii "WINT_MIN __WINT_MIN__\0"
 11440      5F4D494E 
 11440      205F5F57 
 11440      494E545F 
 11440      4D494E5F 
 11441 3d33 02       		.byte	0x2
 11442 3d34 EF01     		.uleb128 0xef
 11443 3d36 494E5438 		.ascii "INT8_C\0"
 11443      5F4300
 11444 3d3d 01       		.byte	0x1
 11445 3d3e F001     		.uleb128 0xf0
 11446 3d40 494E5438 		.ascii "INT8_C(c) __INT8_C(c)\0"
 11446      5F432863 
 11446      29205F5F 
 11446      494E5438 
 11446      5F432863 
 11447 3d56 02       		.byte	0x2
 11448 3d57 F101     		.uleb128 0xf1
 11449 3d59 494E5431 		.ascii "INT16_C\0"
 11449      365F4300 
 11450 3d61 01       		.byte	0x1
 11451 3d62 F201     		.uleb128 0xf2
 11452 3d64 494E5431 		.ascii "INT16_C(c) __INT16_C(c)\0"
 11452      365F4328 
 11452      6329205F 
 11452      5F494E54 
 11452      31365F43 
 11453 3d7c 02       		.byte	0x2
 11454 3d7d F301     		.uleb128 0xf3
 11455 3d7f 494E5433 		.ascii "INT32_C\0"
 11455      325F4300 
 11456 3d87 01       		.byte	0x1
 11457 3d88 F401     		.uleb128 0xf4
 11458 3d8a 494E5433 		.ascii "INT32_C(c) __INT32_C(c)\0"
 11458      325F4328 
 11458      6329205F 
 11458      5F494E54 
 11458      33325F43 
 11459 3da2 02       		.byte	0x2
 11460 3da3 F501     		.uleb128 0xf5
 11461 3da5 494E5436 		.ascii "INT64_C\0"
 11461      345F4300 
 11462 3dad 01       		.byte	0x1
 11463 3dae F601     		.uleb128 0xf6
 11464 3db0 494E5436 		.ascii "INT64_C(c) __INT64_C(c)\0"
 11464      345F4328 
 11464      6329205F 
 11464      5F494E54 
 11464      36345F43 
 11465 3dc8 02       		.byte	0x2
 11466 3dc9 F701     		.uleb128 0xf7
 11467 3dcb 55494E54 		.ascii "UINT8_C\0"
 11467      385F4300 
 11468 3dd3 01       		.byte	0x1
 11469 3dd4 F801     		.uleb128 0xf8
 11470 3dd6 55494E54 		.ascii "UINT8_C(c) __UINT8_C(c)\0"
 11470      385F4328 
 11470      6329205F 
 11470      5F55494E 
 11470      54385F43 
 11471 3dee 02       		.byte	0x2
 11472 3def F901     		.uleb128 0xf9
 11473 3df1 55494E54 		.ascii "UINT16_C\0"
 11473      31365F43 
 11473      00
 11474 3dfa 01       		.byte	0x1
 11475 3dfb FA01     		.uleb128 0xfa
 11476 3dfd 55494E54 		.ascii "UINT16_C(c) __UINT16_C(c)\0"
 11476      31365F43 
 11476      28632920 
 11476      5F5F5549 
 11476      4E543136 
 11477 3e17 02       		.byte	0x2
 11478 3e18 FB01     		.uleb128 0xfb
 11479 3e1a 55494E54 		.ascii "UINT32_C\0"
 11479      33325F43 
 11479      00
 11480 3e23 01       		.byte	0x1
 11481 3e24 FC01     		.uleb128 0xfc
 11482 3e26 55494E54 		.ascii "UINT32_C(c) __UINT32_C(c)\0"
 11482      33325F43 
 11482      28632920 
 11482      5F5F5549 
 11482      4E543332 
 11483 3e40 02       		.byte	0x2
 11484 3e41 FD01     		.uleb128 0xfd
 11485 3e43 55494E54 		.ascii "UINT64_C\0"
 11485      36345F43 
 11485      00
 11486 3e4c 01       		.byte	0x1
 11487 3e4d FE01     		.uleb128 0xfe
 11488 3e4f 55494E54 		.ascii "UINT64_C(c) __UINT64_C(c)\0"
 11488      36345F43 
 11488      28632920 
 11488      5F5F5549 
 11488      4E543634 
 11489 3e69 02       		.byte	0x2
 11490 3e6a FF01     		.uleb128 0xff
 11491 3e6c 494E544D 		.ascii "INTMAX_C\0"
 11491      41585F43 
 11491      00
 11492 3e75 01       		.byte	0x1
 11493 3e76 8002     		.uleb128 0x100
 11494 3e78 494E544D 		.ascii "INTMAX_C(c) __INTMAX_C(c)\0"
 11494      41585F43 
 11494      28632920 
 11494      5F5F494E 
 11494      544D4158 
 11495 3e92 02       		.byte	0x2
 11496 3e93 8102     		.uleb128 0x101
 11497 3e95 55494E54 		.ascii "UINTMAX_C\0"
 11497      4D41585F 
 11497      4300
 11498 3e9f 01       		.byte	0x1
 11499 3ea0 8202     		.uleb128 0x102
 11500 3ea2 55494E54 		.ascii "UINTMAX_C(c) __UINTMAX_C(c)\0"
 11500      4D41585F 
 11500      43286329 
 11500      205F5F55 
 11500      494E544D 
 11501 3ebe 04       		.byte	0x4
 11502 3ebf 01       		.byte	0x1
 11503 3ec0 0D       		.uleb128 0xd
 11504 3ec1 5F474343 		.ascii "_GCC_WRAP_STDINT_H \0"
 11504      5F575241 
 11504      505F5354 
 11504      44494E54 
 11504      5F482000 
 11505 3ed5 04       		.byte	0x4
 11506              		.file 17 "C:/Users/victim/Desktop/dangerous/yuziakicin/UEFI/UEFI/Backend/mingw64/lib/gcc/x86_64-w6
 11507 3ed6 03       		.byte	0x3
 11508 3ed7 63       		.uleb128 0x63
 11509 3ed8 11       		.uleb128 0x11
 11510              		.file 18 "C:/Users/victim/Desktop/dangerous/yuziakicin/UEFI/UEFI/Backend/mingw64/include/stddef.h"
 11511 3ed9 03       		.byte	0x3
 11512 3eda 01       		.uleb128 0x1
 11513 3edb 12       		.uleb128 0x12
 11514              		.file 19 "C:/Users/victim/Desktop/dangerous/yuziakicin/UEFI/UEFI/Backend/mingw64/include/crtdefs.h
 11515 3edc 03       		.byte	0x3
 11516 3edd 07       		.uleb128 0x7
 11517 3ede 13       		.uleb128 0x13
 11518 3edf 01       		.byte	0x1
 11519 3ee0 08       		.uleb128 0x8
 11520 3ee1 5F494E43 		.ascii "_INC_CRTDEFS \0"
 11520      5F435254 
 11520      44454653 
 11520      2000
 11521 3eef 03       		.byte	0x3
 11522 3ef0 0A       		.uleb128 0xa
 11523 3ef1 03       		.uleb128 0x3
 11524 3ef2 01       		.byte	0x1
 11525 3ef3 08       		.uleb128 0x8
 11526 3ef4 5F494E43 		.ascii "_INC_CORECRT \0"
 11526      5F434F52 
 11526      45435254 
 11526      2000
 11527              		.file 20 "C:/Users/victim/Desktop/dangerous/yuziakicin/UEFI/UEFI/Backend/mingw64/include/_mingw.h"
 11528 3f02 03       		.byte	0x3
 11529 3f03 0A       		.uleb128 0xa
 11530 3f04 14       		.uleb128 0x14
 11531 3f05 01       		.byte	0x1
 11532 3f06 08       		.uleb128 0x8
 11533 3f07 5F494E43 		.ascii "_INC__MINGW_H \0"
 11533      5F5F4D49 
 11533      4E47575F 
 11533      482000
 11534              		.file 21 "C:/Users/victim/Desktop/dangerous/yuziakicin/UEFI/UEFI/Backend/mingw64/include/_mingw_ma
 11535 3f16 03       		.byte	0x3
 11536 3f17 0A       		.uleb128 0xa
 11537 3f18 15       		.uleb128 0x15
 11538 3f19 01       		.byte	0x1
 11539 3f1a 08       		.uleb128 0x8
 11540 3f1b 5F494E43 		.ascii "_INC_CRTDEFS_MACRO \0"
 11540      5F435254 
 11540      44454653 
 11540      5F4D4143 
 11540      524F2000 
 11541 3f2f 01       		.byte	0x1
 11542 3f30 0A       		.uleb128 0xa
 11543 3f31 5F5F5354 		.ascii "__STRINGIFY(x) #x\0"
 11543      52494E47 
 11543      49465928 
 11543      78292023 
 11543      7800
 11544 3f43 01       		.byte	0x1
 11545 3f44 0B       		.uleb128 0xb
 11546 3f45 5F5F4D49 		.ascii "__MINGW64_STRINGIFY(x) __STRINGIFY(x)\0"
 11546      4E475736 
 11546      345F5354 
 11546      52494E47 
 11546      49465928 
 11547 3f6b 01       		.byte	0x1
 11548 3f6c 0E       		.uleb128 0xe
 11549 3f6d 5F5F4D49 		.ascii "__MINGW64_VERSION_MAJOR 12\0"
 11549      4E475736 
 11549      345F5645 
 11549      5253494F 
 11549      4E5F4D41 
 11550 3f88 01       		.byte	0x1
 11551 3f89 0F       		.uleb128 0xf
 11552 3f8a 5F5F4D49 		.ascii "__MINGW64_VERSION_MINOR 0\0"
 11552      4E475736 
 11552      345F5645 
 11552      5253494F 
 11552      4E5F4D49 
 11553 3fa4 01       		.byte	0x1
 11554 3fa5 10       		.uleb128 0x10
 11555 3fa6 5F5F4D49 		.ascii "__MINGW64_VERSION_BUGFIX 0\0"
 11555      4E475736 
 11555      345F5645 
 11555      5253494F 
 11555      4E5F4255 
 11556 3fc1 01       		.byte	0x1
 11557 3fc2 18       		.uleb128 0x18
 11558 3fc3 5F5F4D49 		.ascii "__MINGW64_VERSION_RC 0\0"
 11558      4E475736 
 11558      345F5645 
 11558      5253494F 
 11558      4E5F5243 
 11559 3fda 01       		.byte	0x1
 11560 3fdb 1A       		.uleb128 0x1a
 11561 3fdc 5F5F4D49 		.ascii "__MINGW64_VERSION_STR __MINGW64_STRINGIFY(__MINGW64_VERSION_MAJOR) \".\" __MINGW64_STRINGI
 11561      4E475736 
 11561      345F5645 
 11561      5253494F 
 11561      4E5F5354 
 11562 4082 01       		.byte	0x1
 11563 4083 21       		.uleb128 0x21
 11564 4084 5F5F4D49 		.ascii "__MINGW64_VERSION_STATE \"alpha\"\0"
 11564      4E475736 
 11564      345F5645 
 11564      5253494F 
 11564      4E5F5354 
 11565 40a4 01       		.byte	0x1
 11566 40a5 27       		.uleb128 0x27
 11567 40a6 5F5F4D49 		.ascii "__MINGW32_MAJOR_VERSION 3\0"
 11567      4E475733 
 11567      325F4D41 
 11567      4A4F525F 
 11567      56455253 
 11568 40c0 01       		.byte	0x1
 11569 40c1 28       		.uleb128 0x28
 11570 40c2 5F5F4D49 		.ascii "__MINGW32_MINOR_VERSION 11\0"
 11570      4E475733 
 11570      325F4D49 
 11570      4E4F525F 
 11570      56455253 
 11571 40dd 01       		.byte	0x1
 11572 40de 3E       		.uleb128 0x3e
 11573 40df 5F4D5F41 		.ascii "_M_AMD64 100\0"
 11573      4D443634 
 11573      20313030 
 11573      00
 11574 40ec 01       		.byte	0x1
 11575 40ed 3F       		.uleb128 0x3f
 11576 40ee 5F4D5F58 		.ascii "_M_X64 100\0"
 11576      36342031 
 11576      303000
 11577 40f9 02       		.byte	0x2
 11578 40fa 63       		.uleb128 0x63
 11579 40fb 5F00     		.ascii "_\0"
 11580 40fd 01       		.byte	0x1
 11581 40fe 64       		.uleb128 0x64
 11582 40ff 5F203100 		.ascii "_ 1\0"
 11583 4103 01       		.byte	0x1
 11584 4104 68       		.uleb128 0x68
 11585 4105 5F5F4D49 		.ascii "__MINGW_USE_UNDERSCORE_PREFIX 0\0"
 11585      4E47575F 
 11585      5553455F 
 11585      554E4445 
 11585      5253434F 
 11586 4125 02       		.byte	0x2
 11587 4126 6A       		.uleb128 0x6a
 11588 4127 5F00     		.ascii "_\0"
 11589 4129 01       		.byte	0x1
 11590 412a 77       		.uleb128 0x77
 11591 412b 5F5F4D49 		.ascii "__MINGW_IMP_SYMBOL(sym) __imp_ ##sym\0"
 11591      4E47575F 
 11591      494D505F 
 11591      53594D42 
 11591      4F4C2873 
 11592 4150 01       		.byte	0x1
 11593 4151 78       		.uleb128 0x78
 11594 4152 5F5F4D49 		.ascii "__MINGW_IMP_LSYMBOL(sym) __imp_ ##sym\0"
 11594      4E47575F 
 11594      494D505F 
 11594      4C53594D 
 11594      424F4C28 
 11595 4178 01       		.byte	0x1
 11596 4179 79       		.uleb128 0x79
 11597 417a 5F5F4D49 		.ascii "__MINGW_USYMBOL(sym) sym\0"
 11597      4E47575F 
 11597      5553594D 
 11597      424F4C28 
 11597      73796D29 
 11598 4193 01       		.byte	0x1
 11599 4194 7A       		.uleb128 0x7a
 11600 4195 5F5F4D49 		.ascii "__MINGW_LSYMBOL(sym) _ ##sym\0"
 11600      4E47575F 
 11600      4C53594D 
 11600      424F4C28 
 11600      73796D29 
 11601 41b2 01       		.byte	0x1
 11602 41b3 8201     		.uleb128 0x82
 11603 41b5 5F5F4D49 		.ascii "__MINGW_ASM_CALL(func) __asm__(__MINGW64_STRINGIFY(__MINGW_USYMBOL(func)))\0"
 11603      4E47575F 
 11603      41534D5F 
 11603      43414C4C 
 11603      2866756E 
 11604 4200 01       		.byte	0x1
 11605 4201 8301     		.uleb128 0x83
 11606 4203 5F5F4D49 		.ascii "__MINGW_ASM_CRT_CALL(func) __asm__(__STRINGIFY(func))\0"
 11606      4E47575F 
 11606      41534D5F 
 11606      4352545F 
 11606      43414C4C 
 11607 4239 02       		.byte	0x2
 11608 423a 9D01     		.uleb128 0x9d
 11609 423c 5F5F4D49 		.ascii "__MINGW_EXTENSION\0"
 11609      4E47575F 
 11609      45585445 
 11609      4E53494F 
 11609      4E00
 11610 424e 01       		.byte	0x1
 11611 424f A301     		.uleb128 0xa3
 11612 4251 5F5F4D49 		.ascii "__MINGW_EXTENSION __extension__\0"
 11612      4E47575F 
 11612      45585445 
 11612      4E53494F 
 11612      4E205F5F 
 11613 4271 01       		.byte	0x1
 11614 4272 AB01     		.uleb128 0xab
 11615 4274 5F5F4338 		.ascii "__C89_NAMELESS __MINGW_EXTENSION\0"
 11615      395F4E41 
 11615      4D454C45 
 11615      5353205F 
 11615      5F4D494E 
 11616 4295 01       		.byte	0x1
 11617 4296 AC01     		.uleb128 0xac
 11618 4298 5F5F4338 		.ascii "__C89_NAMELESSSTRUCTNAME \0"
 11618      395F4E41 
 11618      4D454C45 
 11618      53535354 
 11618      52554354 
 11619 42b2 01       		.byte	0x1
 11620 42b3 AD01     		.uleb128 0xad
 11621 42b5 5F5F4338 		.ascii "__C89_NAMELESSSTRUCTNAME1 \0"
 11621      395F4E41 
 11621      4D454C45 
 11621      53535354 
 11621      52554354 
 11622 42d0 01       		.byte	0x1
 11623 42d1 AE01     		.uleb128 0xae
 11624 42d3 5F5F4338 		.ascii "__C89_NAMELESSSTRUCTNAME2 \0"
 11624      395F4E41 
 11624      4D454C45 
 11624      53535354 
 11624      52554354 
 11625 42ee 01       		.byte	0x1
 11626 42ef AF01     		.uleb128 0xaf
 11627 42f1 5F5F4338 		.ascii "__C89_NAMELESSSTRUCTNAME3 \0"
 11627      395F4E41 
 11627      4D454C45 
 11627      53535354 
 11627      52554354 
 11628 430c 01       		.byte	0x1
 11629 430d B001     		.uleb128 0xb0
 11630 430f 5F5F4338 		.ascii "__C89_NAMELESSSTRUCTNAME4 \0"
 11630      395F4E41 
 11630      4D454C45 
 11630      53535354 
 11630      52554354 
 11631 432a 01       		.byte	0x1
 11632 432b B101     		.uleb128 0xb1
 11633 432d 5F5F4338 		.ascii "__C89_NAMELESSSTRUCTNAME5 \0"
 11633      395F4E41 
 11633      4D454C45 
 11633      53535354 
 11633      52554354 
 11634 4348 01       		.byte	0x1
 11635 4349 B201     		.uleb128 0xb2
 11636 434b 5F5F4338 		.ascii "__C89_NAMELESSUNIONNAME \0"
 11636      395F4E41 
 11636      4D454C45 
 11636      5353554E 
 11636      494F4E4E 
 11637 4364 01       		.byte	0x1
 11638 4365 B301     		.uleb128 0xb3
 11639 4367 5F5F4338 		.ascii "__C89_NAMELESSUNIONNAME1 \0"
 11639      395F4E41 
 11639      4D454C45 
 11639      5353554E 
 11639      494F4E4E 
 11640 4381 01       		.byte	0x1
 11641 4382 B401     		.uleb128 0xb4
 11642 4384 5F5F4338 		.ascii "__C89_NAMELESSUNIONNAME2 \0"
 11642      395F4E41 
 11642      4D454C45 
 11642      5353554E 
 11642      494F4E4E 
 11643 439e 01       		.byte	0x1
 11644 439f B501     		.uleb128 0xb5
 11645 43a1 5F5F4338 		.ascii "__C89_NAMELESSUNIONNAME3 \0"
 11645      395F4E41 
 11645      4D454C45 
 11645      5353554E 
 11645      494F4E4E 
 11646 43bb 01       		.byte	0x1
 11647 43bc B601     		.uleb128 0xb6
 11648 43be 5F5F4338 		.ascii "__C89_NAMELESSUNIONNAME4 \0"
 11648      395F4E41 
 11648      4D454C45 
 11648      5353554E 
 11648      494F4E4E 
 11649 43d8 01       		.byte	0x1
 11650 43d9 B701     		.uleb128 0xb7
 11651 43db 5F5F4338 		.ascii "__C89_NAMELESSUNIONNAME5 \0"
 11651      395F4E41 
 11651      4D454C45 
 11651      5353554E 
 11651      494F4E4E 
 11652 43f5 01       		.byte	0x1
 11653 43f6 B801     		.uleb128 0xb8
 11654 43f8 5F5F4338 		.ascii "__C89_NAMELESSUNIONNAME6 \0"
 11654      395F4E41 
 11654      4D454C45 
 11654      5353554E 
 11654      494F4E4E 
 11655 4412 01       		.byte	0x1
 11656 4413 B901     		.uleb128 0xb9
 11657 4415 5F5F4338 		.ascii "__C89_NAMELESSUNIONNAME7 \0"
 11657      395F4E41 
 11657      4D454C45 
 11657      5353554E 
 11657      494F4E4E 
 11658 442f 01       		.byte	0x1
 11659 4430 BA01     		.uleb128 0xba
 11660 4432 5F5F4338 		.ascii "__C89_NAMELESSUNIONNAME8 \0"
 11660      395F4E41 
 11660      4D454C45 
 11660      5353554E 
 11660      494F4E4E 
 11661 444c 01       		.byte	0x1
 11662 444d BE01     		.uleb128 0xbe
 11663 444f 5F5F474E 		.ascii "__GNU_EXTENSION __MINGW_EXTENSION\0"
 11663      555F4558 
 11663      54454E53 
 11663      494F4E20 
 11663      5F5F4D49 
 11664 4471 01       		.byte	0x1
 11665 4472 C301     		.uleb128 0xc3
 11666 4474 5F5F4D49 		.ascii "__MINGW_HAVE_ANSI_C99_PRINTF 1\0"
 11666      4E47575F 
 11666      48415645 
 11666      5F414E53 
 11666      495F4339 
 11667 4493 01       		.byte	0x1
 11668 4494 C401     		.uleb128 0xc4
 11669 4496 5F5F4D49 		.ascii "__MINGW_HAVE_WIDE_C99_PRINTF 1\0"
 11669      4E47575F 
 11669      48415645 
 11669      5F574944 
 11669      455F4339 
 11670 44b5 01       		.byte	0x1
 11671 44b6 C501     		.uleb128 0xc5
 11672 44b8 5F5F4D49 		.ascii "__MINGW_HAVE_ANSI_C99_SCANF 1\0"
 11672      4E47575F 
 11672      48415645 
 11672      5F414E53 
 11672      495F4339 
 11673 44d6 01       		.byte	0x1
 11674 44d7 C601     		.uleb128 0xc6
 11675 44d9 5F5F4D49 		.ascii "__MINGW_HAVE_WIDE_C99_SCANF 1\0"
 11675      4E47575F 
 11675      48415645 
 11675      5F574944 
 11675      455F4339 
 11676 44f7 01       		.byte	0x1
 11677 44f8 CB01     		.uleb128 0xcb
 11678 44fa 5F5F4D49 		.ascii "__MINGW_POISON_NAME(__IFACE) __IFACE ##_layout_has_not_been_verified_and_its_declaration_i
 11678      4E47575F 
 11678      504F4953 
 11678      4F4E5F4E 
 11678      414D4528 
 11679 456c 01       		.byte	0x1
 11680 456d D101     		.uleb128 0xd1
 11681 456f 5F5F4D53 		.ascii "__MSABI_LONG(x) x ## l\0"
 11681      4142495F 
 11681      4C4F4E47 
 11681      28782920 
 11681      78202323 
 11682 4586 01       		.byte	0x1
 11683 4587 D801     		.uleb128 0xd8
 11684 4589 5F5F4D49 		.ascii "__MINGW_GCC_VERSION (__GNUC__ * 10000 + __GNUC_MINOR__ * 100 + __GNUC_PATCHLEVEL__)\0"
 11684      4E47575F 
 11684      4743435F 
 11684      56455253 
 11684      494F4E20 
 11685 45dd 01       		.byte	0x1
 11686 45de E001     		.uleb128 0xe0
 11687 45e0 5F5F4D49 		.ascii "__MINGW_GNUC_PREREQ(major,minor) (__GNUC__ > (major) || (__GNUC__ == (major) && __GNUC_MIN
 11687      4E47575F 
 11687      474E5543 
 11687      5F505245 
 11687      52455128 
 11688 464c 01       		.byte	0x1
 11689 464d EB01     		.uleb128 0xeb
 11690 464f 5F5F4D49 		.ascii "__MINGW_MSC_PREREQ(major,minor) 0\0"
 11690      4E47575F 
 11690      4D53435F 
 11690      50524552 
 11690      4551286D 
 11691 4671 01       		.byte	0x1
 11692 4672 F701     		.uleb128 0xf7
 11693 4674 5F5F4D49 		.ascii "__MINGW_ATTRIB_DEPRECATED_STR(X) \0"
 11693      4E47575F 
 11693      41545452 
 11693      49425F44 
 11693      45505245 
 11694 4696 01       		.byte	0x1
 11695 4697 FA01     		.uleb128 0xfa
 11696 4699 5F5F4D49 		.ascii "__MINGW_SEC_WARN_STR \"This function or variable may be unsafe, use _CRT_SECURE_NO_WARNING
 11696      4E47575F 
 11696      5345435F 
 11696      5741524E 
 11696      5F535452 
 11697 470c 01       		.byte	0x1
 11698 470d FD01     		.uleb128 0xfd
 11699 470f 5F5F4D49 		.ascii "__MINGW_MSVC2005_DEPREC_STR \"This POSIX function is deprecated beginning in Visual C++ 20
 11699      4E47575F 
 11699      4D535643 
 11699      32303035 
 11699      5F444550 
 11700 47a2 01       		.byte	0x1
 11701 47a3 8102     		.uleb128 0x101
 11702 47a5 5F5F4D49 		.ascii "__MINGW_ATTRIB_DEPRECATED_MSVC2005 __MINGW_ATTRIB_DEPRECATED_STR(__MINGW_MSVC2005_DEPREC_S
 11702      4E47575F 
 11702      41545452 
 11702      49425F44 
 11702      45505245 
 11703 4803 01       		.byte	0x1
 11704 4804 8802     		.uleb128 0x108
 11705 4806 5F5F4D49 		.ascii "__MINGW_ATTRIB_DEPRECATED_SEC_WARN __MINGW_ATTRIB_DEPRECATED_STR(__MINGW_SEC_WARN_STR)\0"
 11705      4E47575F 
 11705      41545452 
 11705      49425F44 
 11705      45505245 
 11706 485d 01       		.byte	0x1
 11707 485e 8E02     		.uleb128 0x10e
 11708 4860 5F5F4D49 		.ascii "__MINGW_MS_PRINTF(__format,__args) __attribute__((__format__(ms_printf, __format,__args)))
 11708      4E47575F 
 11708      4D535F50 
 11708      52494E54 
 11708      46285F5F 
 11709 48bb 01       		.byte	0x1
 11710 48bc 9102     		.uleb128 0x111
 11711 48be 5F5F4D49 		.ascii "__MINGW_MS_SCANF(__format,__args) __attribute__((__format__(ms_scanf, __format,__args)))\0
 11711      4E47575F 
 11711      4D535F53 
 11711      43414E46 
 11711      285F5F66 
 11712 4917 01       		.byte	0x1
 11713 4918 9402     		.uleb128 0x114
 11714 491a 5F5F4D49 		.ascii "__MINGW_GNU_PRINTF(__format,__args) __attribute__((__format__(gnu_printf,__format,__args))
 11714      4E47575F 
 11714      474E555F 
 11714      5052494E 
 11714      5446285F 
 11715 4976 01       		.byte	0x1
 11716 4977 9702     		.uleb128 0x117
 11717 4979 5F5F4D49 		.ascii "__MINGW_GNU_SCANF(__format,__args) __attribute__((__format__(gnu_scanf, __format,__args)))
 11717      4E47575F 
 11717      474E555F 
 11717      5343414E 
 11717      46285F5F 
 11718 49d4 02       		.byte	0x2
 11719 49d5 9A02     		.uleb128 0x11a
 11720 49d7 5F5F6D69 		.ascii "__mingw_ovr\0"
 11720      6E67775F 
 11720      6F767200 
 11721 49e3 02       		.byte	0x2
 11722 49e4 9B02     		.uleb128 0x11b
 11723 49e6 5F5F6D69 		.ascii "__mingw_static_ovr\0"
 11723      6E67775F 
 11723      73746174 
 11723      69635F6F 
 11723      767200
 11724 49f9 01       		.byte	0x1
 11725 49fa A102     		.uleb128 0x121
 11726 49fc 5F5F6D69 		.ascii "__mingw_ovr static __attribute__ ((__unused__)) __inline__ __cdecl\0"
 11726      6E67775F 
 11726      6F767220 
 11726      73746174 
 11726      6963205F 
 11727 4a3f 01       		.byte	0x1
 11728 4a40 A302     		.uleb128 0x123
 11729 4a42 5F5F6D69 		.ascii "__mingw_static_ovr __mingw_ovr\0"
 11729      6E67775F 
 11729      73746174 
 11729      69635F6F 
 11729      7672205F 
 11730 4a61 01       		.byte	0x1
 11731 4a62 AA02     		.uleb128 0x12a
 11732 4a64 5F5F6D69 		.ascii "__mingw_attribute_artificial __attribute__((__artificial__))\0"
 11732      6E67775F 
 11732      61747472 
 11732      69627574 
 11732      655F6172 
 11733 4aa1 01       		.byte	0x1
 11734 4aa2 B002     		.uleb128 0x130
 11735 4aa4 5F5F4D49 		.ascii "__MINGW_SELECTANY __attribute__((__selectany__))\0"
 11735      4E47575F 
 11735      53454C45 
 11735      4354414E 
 11735      59205F5F 
 11736 4ad5 01       		.byte	0x1
 11737 4ad6 C802     		.uleb128 0x148
 11738 4ad8 5F5F4D49 		.ascii "__MINGW_FORTIFY_LEVEL 0\0"
 11738      4E47575F 
 11738      464F5254 
 11738      4946595F 
 11738      4C455645 
 11739 4af0 01       		.byte	0x1
 11740 4af1 F002     		.uleb128 0x170
 11741 4af3 5F5F6D69 		.ascii "__mingw_bos_ovr __mingw_ovr\0"
 11741      6E67775F 
 11741      626F735F 
 11741      6F767220 
 11741      5F5F6D69 
 11742 4b0f 01       		.byte	0x1
 11743 4b10 FD02     		.uleb128 0x17d
 11744 4b12 5F5F4D49 		.ascii "__MINGW_FORTIFY_VA_ARG 0\0"
 11744      4E47575F 
 11744      464F5254 
 11744      4946595F 
 11744      56415F41 
 11745 4b2b 02       		.byte	0x2
 11746 4b2c 8003     		.uleb128 0x180
 11747 4b2e 5F5F6861 		.ascii "__has_builtin\0"
 11747      735F6275 
 11747      696C7469 
 11747      6E00
 11748 4b3c 04       		.byte	0x4
 11749              		.file 22 "C:/Users/victim/Desktop/dangerous/yuziakicin/UEFI/UEFI/Backend/mingw64/include/_mingw_se
 11750 4b3d 03       		.byte	0x3
 11751 4b3e 0B       		.uleb128 0xb
 11752 4b3f 16       		.uleb128 0x16
 11753 4b40 01       		.byte	0x1
 11754 4b41 08       		.uleb128 0x8
 11755 4b42 5F494E43 		.ascii "_INC_MINGW_SECAPI \0"
 11755      5F4D494E 
 11755      47575F53 
 11755      45434150 
 11755      492000
 11756 4b55 02       		.byte	0x2
 11757 4b56 1D       		.uleb128 0x1d
 11758 4b57 5F435254 		.ascii "_CRT_SECURE_CPP_OVERLOAD_SECURE_NAMES\0"
 11758      5F534543 
 11758      5552455F 
 11758      4350505F 
 11758      4F564552 
 11759 4b7d 02       		.byte	0x2
 11760 4b7e 1E       		.uleb128 0x1e
 11761 4b7f 5F435254 		.ascii "_CRT_SECURE_CPP_OVERLOAD_SECURE_NAMES_MEMORY\0"
 11761      5F534543 
 11761      5552455F 
 11761      4350505F 
 11761      4F564552 
 11762 4bac 02       		.byte	0x2
 11763 4bad 1F       		.uleb128 0x1f
 11764 4bae 5F435254 		.ascii "_CRT_SECURE_CPP_OVERLOAD_STANDARD_NAMES\0"
 11764      5F534543 
 11764      5552455F 
 11764      4350505F 
 11764      4F564552 
 11765 4bd6 02       		.byte	0x2
 11766 4bd7 20       		.uleb128 0x20
 11767 4bd8 5F435254 		.ascii "_CRT_SECURE_CPP_OVERLOAD_STANDARD_NAMES_COUNT\0"
 11767      5F534543 
 11767      5552455F 
 11767      4350505F 
 11767      4F564552 
 11768 4c06 02       		.byte	0x2
 11769 4c07 21       		.uleb128 0x21
 11770 4c08 5F435254 		.ascii "_CRT_SECURE_CPP_OVERLOAD_STANDARD_NAMES_MEMORY\0"
 11770      5F534543 
 11770      5552455F 
 11770      4350505F 
 11770      4F564552 
 11771 4c37 01       		.byte	0x1
 11772 4c38 22       		.uleb128 0x22
 11773 4c39 5F435254 		.ascii "_CRT_SECURE_CPP_OVERLOAD_SECURE_NAMES 0\0"
 11773      5F534543 
 11773      5552455F 
 11773      4350505F 
 11773      4F564552 
 11774 4c61 01       		.byte	0x1
 11775 4c62 23       		.uleb128 0x23
 11776 4c63 5F435254 		.ascii "_CRT_SECURE_CPP_OVERLOAD_SECURE_NAMES_MEMORY 0\0"
 11776      5F534543 
 11776      5552455F 
 11776      4350505F 
 11776      4F564552 
 11777 4c92 01       		.byte	0x1
 11778 4c93 24       		.uleb128 0x24
 11779 4c94 5F435254 		.ascii "_CRT_SECURE_CPP_OVERLOAD_STANDARD_NAMES 0\0"
 11779      5F534543 
 11779      5552455F 
 11779      4350505F 
 11779      4F564552 
 11780 4cbe 01       		.byte	0x1
 11781 4cbf 25       		.uleb128 0x25
 11782 4cc0 5F435254 		.ascii "_CRT_SECURE_CPP_OVERLOAD_STANDARD_NAMES_COUNT 0\0"
 11782      5F534543 
 11782      5552455F 
 11782      4350505F 
 11782      4F564552 
 11783 4cf0 01       		.byte	0x1
 11784 4cf1 26       		.uleb128 0x26
 11785 4cf2 5F435254 		.ascii "_CRT_SECURE_CPP_OVERLOAD_STANDARD_NAMES_MEMORY 0\0"
 11785      5F534543 
 11785      5552455F 
 11785      4350505F 
 11785      4F564552 
 11786 4d23 01       		.byte	0x1
 11787 4d24 29       		.uleb128 0x29
 11788 4d25 5F5F4D49 		.ascii "__MINGW_CRT_NAME_CONCAT2(sym) ::sym ##_s\0"
 11788      4E47575F 
 11788      4352545F 
 11788      4E414D45 
 11788      5F434F4E 
 11789 4d4e 01       		.byte	0x1
 11790 4d4f 45       		.uleb128 0x45
 11791 4d50 5F5F4352 		.ascii "__CRT_SECURE_CPP_OVERLOAD_STANDARD_NAMES_MEMORY_0_3_(__ret,__func,__type1,__attrib1,__arg1
 11791      545F5345 
 11791      43555245 
 11791      5F435050 
 11791      5F4F5645 
 11792 4e6f 04       		.byte	0x4
 11793 4e70 01       		.byte	0x1
 11794 4e71 18       		.uleb128 0x18
 11795 4e72 5F5F4C4F 		.ascii "__LONG32 long\0"
 11795      4E473332 
 11795      206C6F6E 
 11795      6700
 11796 4e80 01       		.byte	0x1
 11797 4e81 2C       		.uleb128 0x2c
 11798 4e82 5F5F4D49 		.ascii "__MINGW_IMPORT extern __attribute__ ((__dllimport__))\0"
 11798      4E47575F 
 11798      494D504F 
 11798      52542065 
 11798      78746572 
 11799 4eb8 02       		.byte	0x2
 11800 4eb9 2F       		.uleb128 0x2f
 11801 4eba 5F5F5553 		.ascii "__USE_CRTIMP\0"
 11801      455F4352 
 11801      54494D50 
 11801      00
 11802 4ec7 01       		.byte	0x1
 11803 4ec8 31       		.uleb128 0x31
 11804 4ec9 5F5F5553 		.ascii "__USE_CRTIMP 1\0"
 11804      455F4352 
 11804      54494D50 
 11804      203100
 11805 4ed8 01       		.byte	0x1
 11806 4ed9 34       		.uleb128 0x34
 11807 4eda 5F435254 		.ascii "_CRTIMP __attribute__ ((__dllimport__))\0"
 11807      494D5020 
 11807      5F5F6174 
 11807      74726962 
 11807      7574655F 
 11808 4f02 01       		.byte	0x1
 11809 4f03 39       		.uleb128 0x39
 11810 4f04 5F5F4445 		.ascii "__DECLSPEC_SUPPORTED \0"
 11810      434C5350 
 11810      45435F53 
 11810      5550504F 
 11810      52544544 
 11811 4f1a 01       		.byte	0x1
 11812 4f1b 46       		.uleb128 0x46
 11813 4f1c 5553455F 		.ascii "USE___UUIDOF 0\0"
 11813      5F5F5555 
 11813      49444F46 
 11813      203000
 11814 4f2b 01       		.byte	0x1
 11815 4f2c 4A       		.uleb128 0x4a
 11816 4f2d 5F696E6C 		.ascii "_inline __inline\0"
 11816      696E6520 
 11816      5F5F696E 
 11816      6C696E65 
 11816      00
 11817 4f3e 01       		.byte	0x1
 11818 4f3f 53       		.uleb128 0x53
 11819 4f40 5F5F4352 		.ascii "__CRT_INLINE extern inline __attribute__((__gnu_inline__))\0"
 11819      545F494E 
 11819      4C494E45 
 11819      20657874 
 11819      65726E20 
 11820 4f7b 01       		.byte	0x1
 11821 4f7c 5A       		.uleb128 0x5a
 11822 4f7d 5F5F4D49 		.ascii "__MINGW_INTRIN_INLINE extern __inline__ __attribute__((__always_inline__,__gnu_inline__))\
 11822      4E47575F 
 11822      494E5452 
 11822      494E5F49 
 11822      4E4C494E 
 11823 4fd7 01       		.byte	0x1
 11824 4fd8 68       		.uleb128 0x68
 11825 4fd9 5F5F554E 		.ascii "__UNUSED_PARAM(x) x __attribute__ ((__unused__))\0"
 11825      55534544 
 11825      5F504152 
 11825      414D2878 
 11825      29207820 
 11826 500a 01       		.byte	0x1
 11827 500b 77       		.uleb128 0x77
 11828 500c 5F5F7265 		.ascii "__restrict_arr __restrict\0"
 11828      73747269 
 11828      63745F61 
 11828      7272205F 
 11828      5F726573 
 11829 5026 01       		.byte	0x1
 11830 5027 8701     		.uleb128 0x87
 11831 5029 5F5F4D49 		.ascii "__MINGW_ATTRIB_NORETURN __attribute__ ((__noreturn__))\0"
 11831      4E47575F 
 11831      41545452 
 11831      49425F4E 
 11831      4F524554 
 11832 5060 01       		.byte	0x1
 11833 5061 8801     		.uleb128 0x88
 11834 5063 5F5F4D49 		.ascii "__MINGW_ATTRIB_CONST __attribute__ ((__const__))\0"
 11834      4E47575F 
 11834      41545452 
 11834      49425F43 
 11834      4F4E5354 
 11835 5094 01       		.byte	0x1
 11836 5095 9201     		.uleb128 0x92
 11837 5097 5F5F4D49 		.ascii "__MINGW_ATTRIB_MALLOC __attribute__ ((__malloc__))\0"
 11837      4E47575F 
 11837      41545452 
 11837      49425F4D 
 11837      414C4C4F 
 11838 50ca 01       		.byte	0x1
 11839 50cb 9301     		.uleb128 0x93
 11840 50cd 5F5F4D49 		.ascii "__MINGW_ATTRIB_PURE __attribute__ ((__pure__))\0"
 11840      4E47575F 
 11840      41545452 
 11840      49425F50 
 11840      55524520 
 11841 50fc 01       		.byte	0x1
 11842 50fd A001     		.uleb128 0xa0
 11843 50ff 5F5F4D49 		.ascii "__MINGW_ATTRIB_NONNULL(arg) __attribute__ ((__nonnull__ (arg)))\0"
 11843      4E47575F 
 11843      41545452 
 11843      49425F4E 
 11843      4F4E4E55 
 11844 513f 01       		.byte	0x1
 11845 5140 A601     		.uleb128 0xa6
 11846 5142 5F5F4D49 		.ascii "__MINGW_ATTRIB_UNUSED __attribute__ ((__unused__))\0"
 11846      4E47575F 
 11846      41545452 
 11846      49425F55 
 11846      4E555345 
 11847 5175 01       		.byte	0x1
 11848 5176 AC01     		.uleb128 0xac
 11849 5178 5F5F4D49 		.ascii "__MINGW_ATTRIB_USED __attribute__ ((__used__))\0"
 11849      4E47575F 
 11849      41545452 
 11849      49425F55 
 11849      53454420 
 11850 51a7 01       		.byte	0x1
 11851 51a8 AD01     		.uleb128 0xad
 11852 51aa 5F5F4D49 		.ascii "__MINGW_ATTRIB_DEPRECATED __attribute__ ((__deprecated__))\0"
 11852      4E47575F 
 11852      41545452 
 11852      49425F44 
 11852      45505245 
 11853 51e5 01       		.byte	0x1
 11854 51e6 AF01     		.uleb128 0xaf
 11855 51e8 5F5F4D49 		.ascii "__MINGW_ATTRIB_DEPRECATED_MSG(x) __attribute__ ((__deprecated__(x)))\0"
 11855      4E47575F 
 11855      41545452 
 11855      49425F44 
 11855      45505245 
 11856 522d 01       		.byte	0x1
 11857 522e BE01     		.uleb128 0xbe
 11858 5230 5F5F4D49 		.ascii "__MINGW_NOTHROW __attribute__ ((__nothrow__))\0"
 11858      4E47575F 
 11858      4E4F5448 
 11858      524F5720 
 11858      5F5F6174 
 11859 525e 01       		.byte	0x1
 11860 525f C601     		.uleb128 0xc6
 11861 5261 5F5F4D49 		.ascii "__MINGW_ATTRIB_NO_OPTIMIZE __attribute__((__optimize__ (\"0\")))\0"
 11861      4E47575F 
 11861      41545452 
 11861      49425F4E 
 11861      4F5F4F50 
 11862 52a0 01       		.byte	0x1
 11863 52a1 CC01     		.uleb128 0xcc
 11864 52a3 5F5F4D49 		.ascii "__MINGW_PRAGMA_PARAM(x) _Pragma (#x)\0"
 11864      4E47575F 
 11864      50524147 
 11864      4D415F50 
 11864      4152414D 
 11865 52c8 01       		.byte	0x1
 11866 52c9 D301     		.uleb128 0xd3
 11867 52cb 5F5F4D49 		.ascii "__MINGW_BROKEN_INTERFACE(x) __MINGW_PRAGMA_PARAM(message (\"Interface \" _CRT_STRINGIZE(x)
 11867      4E47575F 
 11867      42524F4B 
 11867      454E5F49 
 11867      4E544552 
 11868 5340 01       		.byte	0x1
 11869 5341 DE01     		.uleb128 0xde
 11870 5343 5F5F4D53 		.ascii "__MSVCRT_VERSION__ 0x700\0"
 11870      56435254 
 11870      5F564552 
 11870      53494F4E 
 11870      5F5F2030 
 11871 535c 01       		.byte	0x1
 11872 535d E801     		.uleb128 0xe8
 11873 535f 5F57494E 		.ascii "_WIN32_WINNT 0x601\0"
 11873      33325F57 
 11873      494E4E54 
 11873      20307836 
 11873      303100
 11874 5372 01       		.byte	0x1
 11875 5373 EC01     		.uleb128 0xec
 11876 5375 5F494E54 		.ascii "_INT128_DEFINED \0"
 11876      3132385F 
 11876      44454649 
 11876      4E454420 
 11876      00
 11877 5386 01       		.byte	0x1
 11878 5387 EE01     		.uleb128 0xee
 11879 5389 5F5F696E 		.ascii "__int8 char\0"
 11879      74382063 
 11879      68617200 
 11880 5395 01       		.byte	0x1
 11881 5396 EF01     		.uleb128 0xef
 11882 5398 5F5F696E 		.ascii "__int16 short\0"
 11882      74313620 
 11882      73686F72 
 11882      7400
 11883 53a6 01       		.byte	0x1
 11884 53a7 F001     		.uleb128 0xf0
 11885 53a9 5F5F696E 		.ascii "__int32 int\0"
 11885      74333220 
 11885      696E7400 
 11886 53b5 01       		.byte	0x1
 11887 53b6 F101     		.uleb128 0xf1
 11888 53b8 5F5F696E 		.ascii "__int64 long long\0"
 11888      74363420 
 11888      6C6F6E67 
 11888      206C6F6E 
 11888      6700
 11889 53ca 01       		.byte	0x1
 11890 53cb FF01     		.uleb128 0xff
 11891 53cd 5F5F7074 		.ascii "__ptr32 \0"
 11891      72333220 
 11891      00
 11892 53d6 01       		.byte	0x1
 11893 53d7 8002     		.uleb128 0x100
 11894 53d9 5F5F7074 		.ascii "__ptr64 \0"
 11894      72363420 
 11894      00
 11895 53e2 01       		.byte	0x1
 11896 53e3 8202     		.uleb128 0x102
 11897 53e5 5F5F756E 		.ascii "__unaligned \0"
 11897      616C6967 
 11897      6E656420 
 11897      00
 11898 53f2 01       		.byte	0x1
 11899 53f3 8502     		.uleb128 0x105
 11900 53f5 5F5F7736 		.ascii "__w64 \0"
 11900      342000
 11901 53fc 01       		.byte	0x1
 11902 53fd 8A02     		.uleb128 0x10a
 11903 53ff 5F5F666F 		.ascii "__forceinline extern __inline__ __attribute__((__always_inline__,__gnu_inline__))\0"
 11903      72636569 
 11903      6E6C696E 
 11903      65206578 
 11903      7465726E 
 11904 5451 01       		.byte	0x1
 11905 5452 9602     		.uleb128 0x116
 11906 5454 5F5F6E6F 		.ascii "__nothrow \0"
 11906      7468726F 
 11906      772000
 11907              		.file 23 "C:/Users/victim/Desktop/dangerous/yuziakicin/UEFI/UEFI/Backend/mingw64/include/vadefs.h"
 11908 545f 03       		.byte	0x3
 11909 5460 9A02     		.uleb128 0x11a
 11910 5462 17       		.uleb128 0x17
 11911 5463 01       		.byte	0x1
 11912 5464 07       		.uleb128 0x7
 11913 5465 5F494E43 		.ascii "_INC_VADEFS \0"
 11913      5F564144 
 11913      45465320 
 11913      00
 11914 5472 03       		.byte	0x3
 11915 5473 09       		.uleb128 0x9
 11916 5474 14       		.uleb128 0x14
 11917 5475 01       		.byte	0x1
 11918 5476 8A05     		.uleb128 0x28a
 11919 5478 4D494E47 		.ascii "MINGW_SDK_INIT \0"
 11919      575F5344 
 11919      4B5F494E 
 11919      49542000 
 11920 5488 01       		.byte	0x1
 11921 5489 8E05     		.uleb128 0x28e
 11922 548b 4D494E47 		.ascii "MINGW_HAS_SECURE_API 1\0"
 11922      575F4841 
 11922      535F5345 
 11922      43555245 
 11922      5F415049 
 11923 54a2 01       		.byte	0x1
 11924 54a3 9105     		.uleb128 0x291
 11925 54a5 5F5F5354 		.ascii "__STDC_SECURE_LIB__ 200411L\0"
 11925      44435F53 
 11925      45435552 
 11925      455F4C49 
 11925      425F5F20 
 11926 54c1 01       		.byte	0x1
 11927 54c2 9205     		.uleb128 0x292
 11928 54c4 5F5F474F 		.ascii "__GOT_SECURE_LIB__ __STDC_SECURE_LIB__\0"
 11928      545F5345 
 11928      43555245 
 11928      5F4C4942 
 11928      5F5F205F 
 11929              		.file 24 "C:/Users/victim/Desktop/dangerous/yuziakicin/UEFI/UEFI/Backend/mingw64/include/sdks/_min
 11930 54eb 03       		.byte	0x3
 11931 54ec 9505     		.uleb128 0x295
 11932 54ee 18       		.uleb128 0x18
 11933 54ef 01       		.byte	0x1
 11934 54f0 02       		.uleb128 0x2
 11935 54f1 4D494E47 		.ascii "MINGW_DDK_H \0"
 11935      575F4444 
 11935      4B5F4820 
 11935      00
 11936 54fe 01       		.byte	0x1
 11937 54ff 04       		.uleb128 0x4
 11938 5500 4D494E47 		.ascii "MINGW_HAS_DDK_H 1\0"
 11938      575F4841 
 11938      535F4444 
 11938      4B5F4820 
 11938      3100
 11939 5512 04       		.byte	0x4
 11940 5513 04       		.byte	0x4
 11941 5514 02       		.byte	0x2
 11942 5515 0C       		.uleb128 0xc
 11943 5516 5F435254 		.ascii "_CRT_PACKING\0"
 11943      5F504143 
 11943      4B494E47 
 11943      00
 11944 5523 01       		.byte	0x1
 11945 5524 0D       		.uleb128 0xd
 11946 5525 5F435254 		.ascii "_CRT_PACKING 8\0"
 11946      5F504143 
 11946      4B494E47 
 11946      203800
 11947 5534 01       		.byte	0x1
 11948 5535 17       		.uleb128 0x17
 11949 5536 5F5F474E 		.ascii "__GNUC_VA_LIST \0"
 11949      55435F56 
 11949      415F4C49 
 11949      53542000 
 11950 5546 01       		.byte	0x1
 11951 5547 1D       		.uleb128 0x1d
 11952 5548 5F56415F 		.ascii "_VA_LIST_DEFINED \0"
 11952      4C495354 
 11952      5F444546 
 11952      494E4544 
 11952      2000
 11953 555a 01       		.byte	0x1
 11954 555b 2A       		.uleb128 0x2a
 11955 555c 5F414444 		.ascii "_ADDRESSOF(v) (&(v))\0"
 11955      52455353 
 11955      4F462876 
 11955      29202826 
 11955      28762929 
 11956 5571 01       		.byte	0x1
 11957 5572 30       		.uleb128 0x30
 11958 5573 5F637274 		.ascii "_crt_va_start(v,l) __builtin_va_start(v,l)\0"
 11958      5F76615F 
 11958      73746172 
 11958      7428762C 
 11958      6C29205F 
 11959 559e 01       		.byte	0x1
 11960 559f 31       		.uleb128 0x31
 11961 55a0 5F637274 		.ascii "_crt_va_arg(v,l) __builtin_va_arg(v,l)\0"
 11961      5F76615F 
 11961      61726728 
 11961      762C6C29 
 11961      205F5F62 
 11962 55c7 01       		.byte	0x1
 11963 55c8 32       		.uleb128 0x32
 11964 55c9 5F637274 		.ascii "_crt_va_end(v) __builtin_va_end(v)\0"
 11964      5F76615F 
 11964      656E6428 
 11964      7629205F 
 11964      5F627569 
 11965 55ec 01       		.byte	0x1
 11966 55ed 33       		.uleb128 0x33
 11967 55ee 5F637274 		.ascii "_crt_va_copy(d,s) __builtin_va_copy(d,s)\0"
 11967      5F76615F 
 11967      636F7079 
 11967      28642C73 
 11967      29205F5F 
 11968 5617 04       		.byte	0x4
 11969 5618 01       		.byte	0x1
 11970 5619 9D02     		.uleb128 0x11d
 11971 561b 5F5F4352 		.ascii "__CRT_STRINGIZE(_Value) #_Value\0"
 11971      545F5354 
 11971      52494E47 
 11971      495A4528 
 11971      5F56616C 
 11972 563b 01       		.byte	0x1
 11973 563c 9E02     		.uleb128 0x11e
 11974 563e 5F435254 		.ascii "_CRT_STRINGIZE(_Value) __CRT_STRINGIZE(_Value)\0"
 11974      5F535452 
 11974      494E4749 
 11974      5A45285F 
 11974      56616C75 
 11975 566d 01       		.byte	0x1
 11976 566e A202     		.uleb128 0x122
 11977 5670 5F5F4352 		.ascii "__CRT_WIDE(_String) L ## _String\0"
 11977      545F5749 
 11977      4445285F 
 11977      53747269 
 11977      6E672920 
 11978 5691 01       		.byte	0x1
 11979 5692 A302     		.uleb128 0x123
 11980 5694 5F435254 		.ascii "_CRT_WIDE(_String) __CRT_WIDE(_String)\0"
 11980      5F574944 
 11980      45285F53 
 11980      7472696E 
 11980      6729205F 
 11981 56bb 01       		.byte	0x1
 11982 56bc A702     		.uleb128 0x127
 11983 56be 5F573634 		.ascii "_W64 \0"
 11983      2000
 11984 56c4 01       		.byte	0x1
 11985 56c5 AE02     		.uleb128 0x12e
 11986 56c7 5F435254 		.ascii "_CRTIMP_NOIA64 _CRTIMP\0"
 11986      494D505F 
 11986      4E4F4941 
 11986      3634205F 
 11986      43525449 
 11987 56de 01       		.byte	0x1
 11988 56df B302     		.uleb128 0x133
 11989 56e1 5F435254 		.ascii "_CRTIMP2 _CRTIMP\0"
 11989      494D5032 
 11989      205F4352 
 11989      54494D50 
 11989      00
 11990 56f2 01       		.byte	0x1
 11991 56f3 B702     		.uleb128 0x137
 11992 56f5 5F435254 		.ascii "_CRTIMP_ALTERNATIVE _CRTIMP\0"
 11992      494D505F 
 11992      414C5445 
 11992      524E4154 
 11992      49564520 
 11993 5711 01       		.byte	0x1
 11994 5712 B802     		.uleb128 0x138
 11995 5714 5F435254 		.ascii "_CRT_ALTERNATIVE_IMPORTED \0"
 11995      5F414C54 
 11995      45524E41 
 11995      54495645 
 11995      5F494D50 
 11996 572f 01       		.byte	0x1
 11997 5730 BC02     		.uleb128 0x13c
 11998 5732 5F4D5254 		.ascii "_MRTIMP2 _CRTIMP\0"
 11998      494D5032 
 11998      205F4352 
 11998      54494D50 
 11998      00
 11999 5743 01       		.byte	0x1
 12000 5744 C502     		.uleb128 0x145
 12001 5746 5F444C4C 		.ascii "_DLL \0"
 12001      2000
 12002 574c 01       		.byte	0x1
 12003 574d C902     		.uleb128 0x149
 12004 574f 5F4D5420 		.ascii "_MT \0"
 12004      00
 12005 5754 01       		.byte	0x1
 12006 5755 CD02     		.uleb128 0x14d
 12007 5757 5F4D4352 		.ascii "_MCRTIMP _CRTIMP\0"
 12007      54494D50 
 12007      205F4352 
 12007      54494D50 
 12007      00
 12008 5768 01       		.byte	0x1
 12009 5769 D102     		.uleb128 0x151
 12010 576b 5F435254 		.ascii "_CRTIMP_PURE _CRTIMP\0"
 12010      494D505F 
 12010      50555245 
 12010      205F4352 
 12010      54494D50 
 12011 5780 01       		.byte	0x1
 12012 5781 D502     		.uleb128 0x155
 12013 5783 5F50474C 		.ascii "_PGLOBAL \0"
 12013      4F42414C 
 12013      2000
 12014 578d 01       		.byte	0x1
 12015 578e D902     		.uleb128 0x159
 12016 5790 5F41474C 		.ascii "_AGLOBAL \0"
 12016      4F42414C 
 12016      2000
 12017 579a 01       		.byte	0x1
 12018 579b DC02     		.uleb128 0x15c
 12019 579d 5F534543 		.ascii "_SECURECRT_FILL_BUFFER_PATTERN 0xFD\0"
 12019      55524543 
 12019      52545F46 
 12019      494C4C5F 
 12019      42554646 
 12020 57c1 01       		.byte	0x1
 12021 57c2 DD02     		.uleb128 0x15d
 12022 57c4 5F435254 		.ascii "_CRT_DEPRECATE_TEXT(_Text) __declspec(deprecated)\0"
 12022      5F444550 
 12022      52454341 
 12022      54455F54 
 12022      45585428 
 12023 57f6 01       		.byte	0x1
 12024 57f7 E002     		.uleb128 0x160
 12025 57f9 5F435254 		.ascii "_CRT_INSECURE_DEPRECATE_MEMORY(_Replacement) \0"
 12025      5F494E53 
 12025      45435552 
 12025      455F4445 
 12025      50524543 
 12026 5827 01       		.byte	0x1
 12027 5828 E402     		.uleb128 0x164
 12028 582a 5F435254 		.ascii "_CRT_INSECURE_DEPRECATE_GLOBALS(_Replacement) \0"
 12028      5F494E53 
 12028      45435552 
 12028      455F4445 
 12028      50524543 
 12029 5859 01       		.byte	0x1
 12030 585a E802     		.uleb128 0x168
 12031 585c 5F435254 		.ascii "_CRT_MANAGED_HEAP_DEPRECATE \0"
 12031      5F4D414E 
 12031      41474544 
 12031      5F484541 
 12031      505F4445 
 12032 5879 01       		.byte	0x1
 12033 587a EC02     		.uleb128 0x16c
 12034 587c 5F435254 		.ascii "_CRT_OBSOLETE(_NewItem) \0"
 12034      5F4F4253 
 12034      4F4C4554 
 12034      45285F4E 
 12034      65774974 
 12035 5895 01       		.byte	0x1
 12036 5896 F802     		.uleb128 0x178
 12037 5898 5F434F4E 		.ascii "_CONST_RETURN \0"
 12037      53545F52 
 12037      45545552 
 12037      4E2000
 12038 58a7 01       		.byte	0x1
 12039 58a8 FD02     		.uleb128 0x17d
 12040 58aa 554E414C 		.ascii "UNALIGNED __unaligned\0"
 12040      49474E45 
 12040      44205F5F 
 12040      756E616C 
 12040      69676E65 
 12041 58c0 01       		.byte	0x1
 12042 58c1 8703     		.uleb128 0x187
 12043 58c3 5F435254 		.ascii "_CRT_ALIGN(x) __attribute__ ((__aligned__ (x)))\0"
 12043      5F414C49 
 12043      474E2878 
 12043      29205F5F 
 12043      61747472 
 12044 58f3 01       		.byte	0x1
 12045 58f4 8E03     		.uleb128 0x18e
 12046 58f6 5F5F4352 		.ascii "__CRTDECL __cdecl\0"
 12046      54444543 
 12046      4C205F5F 
 12046      63646563 
 12046      6C00
 12047 5908 01       		.byte	0x1
 12048 5909 9103     		.uleb128 0x191
 12049 590b 5F415247 		.ascii "_ARGMAX 100\0"
 12049      4D415820 
 12049      31303000 
 12050 5917 01       		.byte	0x1
 12051 5918 9403     		.uleb128 0x194
 12052 591a 5F545255 		.ascii "_TRUNCATE ((size_t)-1)\0"
 12052      4E434154 
 12052      45202828 
 12052      73697A65 
 12052      5F74292D 
 12053 5931 01       		.byte	0x1
 12054 5932 9803     		.uleb128 0x198
 12055 5934 5F435254 		.ascii "_CRT_UNUSED(x) (void)x\0"
 12055      5F554E55 
 12055      53454428 
 12055      78292028 
 12055      766F6964 
 12056 594b 01       		.byte	0x1
 12057 594c AD03     		.uleb128 0x1ad
 12058 594e 5F5F5553 		.ascii "__USE_MINGW_ANSI_STDIO 1\0"
 12058      455F4D49 
 12058      4E47575F 
 12058      414E5349 
 12058      5F535444 
 12059 5967 01       		.byte	0x1
 12060 5968 B403     		.uleb128 0x1b4
 12061 596a 5F5F5553 		.ascii "__USE_MINGW_ANSI_STDIO 1\0"
 12061      455F4D49 
 12061      4E47575F 
 12061      414E5349 
 12061      5F535444 
 12062 5983 02       		.byte	0x2
 12063 5984 C603     		.uleb128 0x1c6
 12064 5986 5F435254 		.ascii "_CRT_glob\0"
 12064      5F676C6F 
 12064      6200
 12065 5990 01       		.byte	0x1
 12066 5991 C703     		.uleb128 0x1c7
 12067 5993 5F435254 		.ascii "_CRT_glob _dowildcard\0"
 12067      5F676C6F 
 12067      62205F64 
 12067      6F77696C 
 12067      64636172 
 12068 59a9 01       		.byte	0x1
 12069 59aa D703     		.uleb128 0x1d7
 12070 59ac 5F5F414E 		.ascii "__ANONYMOUS_DEFINED \0"
 12070      4F4E594D 
 12070      4F55535F 
 12070      44454649 
 12070      4E454420 
 12071 59c1 01       		.byte	0x1
 12072 59c2 D803     		.uleb128 0x1d8
 12073 59c4 5F414E4F 		.ascii "_ANONYMOUS_UNION __MINGW_EXTENSION\0"
 12073      4E594D4F 
 12073      55535F55 
 12073      4E494F4E 
 12073      205F5F4D 
 12074 59e7 01       		.byte	0x1
 12075 59e8 D903     		.uleb128 0x1d9
 12076 59ea 5F414E4F 		.ascii "_ANONYMOUS_STRUCT __MINGW_EXTENSION\0"
 12076      4E594D4F 
 12076      55535F53 
 12076      54525543 
 12076      54205F5F 
 12077 5a0e 01       		.byte	0x1
 12078 5a0f DB03     		.uleb128 0x1db
 12079 5a11 5F554E49 		.ascii "_UNION_NAME(x) \0"
 12079      4F4E5F4E 
 12079      414D4528 
 12079      78292000 
 12080 5a21 01       		.byte	0x1
 12081 5a22 DC03     		.uleb128 0x1dc
 12082 5a24 5F535452 		.ascii "_STRUCT_NAME(x) \0"
 12082      5543545F 
 12082      4E414D45 
 12082      28782920 
 12082      00
 12083 5a35 01       		.byte	0x1
 12084 5a36 F003     		.uleb128 0x1f0
 12085 5a38 44554D4D 		.ascii "DUMMYUNIONNAME \0"
 12085      59554E49 
 12085      4F4E4E41 
 12085      4D452000 
 12086 5a48 01       		.byte	0x1
 12087 5a49 F103     		.uleb128 0x1f1
 12088 5a4b 44554D4D 		.ascii "DUMMYUNIONNAME1 \0"
 12088      59554E49 
 12088      4F4E4E41 
 12088      4D453120 
 12088      00
 12089 5a5c 01       		.byte	0x1
 12090 5a5d F203     		.uleb128 0x1f2
 12091 5a5f 44554D4D 		.ascii "DUMMYUNIONNAME2 \0"
 12091      59554E49 
 12091      4F4E4E41 
 12091      4D453220 
 12091      00
 12092 5a70 01       		.byte	0x1
 12093 5a71 F303     		.uleb128 0x1f3
 12094 5a73 44554D4D 		.ascii "DUMMYUNIONNAME3 \0"
 12094      59554E49 
 12094      4F4E4E41 
 12094      4D453320 
 12094      00
 12095 5a84 01       		.byte	0x1
 12096 5a85 F403     		.uleb128 0x1f4
 12097 5a87 44554D4D 		.ascii "DUMMYUNIONNAME4 \0"
 12097      59554E49 
 12097      4F4E4E41 
 12097      4D453420 
 12097      00
 12098 5a98 01       		.byte	0x1
 12099 5a99 F503     		.uleb128 0x1f5
 12100 5a9b 44554D4D 		.ascii "DUMMYUNIONNAME5 \0"
 12100      59554E49 
 12100      4F4E4E41 
 12100      4D453520 
 12100      00
 12101 5aac 01       		.byte	0x1
 12102 5aad F603     		.uleb128 0x1f6
 12103 5aaf 44554D4D 		.ascii "DUMMYUNIONNAME6 \0"
 12103      59554E49 
 12103      4F4E4E41 
 12103      4D453620 
 12103      00
 12104 5ac0 01       		.byte	0x1
 12105 5ac1 F703     		.uleb128 0x1f7
 12106 5ac3 44554D4D 		.ascii "DUMMYUNIONNAME7 \0"
 12106      59554E49 
 12106      4F4E4E41 
 12106      4D453720 
 12106      00
 12107 5ad4 01       		.byte	0x1
 12108 5ad5 F803     		.uleb128 0x1f8
 12109 5ad7 44554D4D 		.ascii "DUMMYUNIONNAME8 \0"
 12109      59554E49 
 12109      4F4E4E41 
 12109      4D453820 
 12109      00
 12110 5ae8 01       		.byte	0x1
 12111 5ae9 F903     		.uleb128 0x1f9
 12112 5aeb 44554D4D 		.ascii "DUMMYUNIONNAME9 \0"
 12112      59554E49 
 12112      4F4E4E41 
 12112      4D453920 
 12112      00
 12113 5afc 01       		.byte	0x1
 12114 5afd 8604     		.uleb128 0x206
 12115 5aff 44554D4D 		.ascii "DUMMYSTRUCTNAME \0"
 12115      59535452 
 12115      5543544E 
 12115      414D4520 
 12115      00
 12116 5b10 01       		.byte	0x1
 12117 5b11 8704     		.uleb128 0x207
 12118 5b13 44554D4D 		.ascii "DUMMYSTRUCTNAME1 \0"
 12118      59535452 
 12118      5543544E 
 12118      414D4531 
 12118      2000
 12119 5b25 01       		.byte	0x1
 12120 5b26 8804     		.uleb128 0x208
 12121 5b28 44554D4D 		.ascii "DUMMYSTRUCTNAME2 \0"
 12121      59535452 
 12121      5543544E 
 12121      414D4532 
 12121      2000
 12122 5b3a 01       		.byte	0x1
 12123 5b3b 8904     		.uleb128 0x209
 12124 5b3d 44554D4D 		.ascii "DUMMYSTRUCTNAME3 \0"
 12124      59535452 
 12124      5543544E 
 12124      414D4533 
 12124      2000
 12125 5b4f 01       		.byte	0x1
 12126 5b50 8A04     		.uleb128 0x20a
 12127 5b52 44554D4D 		.ascii "DUMMYSTRUCTNAME4 \0"
 12127      59535452 
 12127      5543544E 
 12127      414D4534 
 12127      2000
 12128 5b64 01       		.byte	0x1
 12129 5b65 8B04     		.uleb128 0x20b
 12130 5b67 44554D4D 		.ascii "DUMMYSTRUCTNAME5 \0"
 12130      59535452 
 12130      5543544E 
 12130      414D4535 
 12130      2000
 12131 5b79 01       		.byte	0x1
 12132 5b7a B304     		.uleb128 0x233
 12133 5b7c 5F5F4352 		.ascii "__CRT_UUID_DECL(type,l,w1,w2,b1,b2,b3,b4,b5,b6,b7,b8) \0"
 12133      545F5555 
 12133      49445F44 
 12133      45434C28 
 12133      74797065 
 12134 5bb3 01       		.byte	0x1
 12135 5bb4 BF04     		.uleb128 0x23f
 12136 5bb6 5F5F4D49 		.ascii "__MINGW_DEBUGBREAK_IMPL !__has_builtin(__debugbreak)\0"
 12136      4E47575F 
 12136      44454255 
 12136      47425245 
 12136      414B5F49 
 12137 5beb 01       		.byte	0x1
 12138 5bec D404     		.uleb128 0x254
 12139 5bee 5F5F4D49 		.ascii "__MINGW_FASTFAIL_IMPL !__has_builtin(__fastfail)\0"
 12139      4E47575F 
 12139      46415354 
 12139      4641494C 
 12139      5F494D50 
 12140 5c1f 01       		.byte	0x1
 12141 5c20 EC04     		.uleb128 0x26c
 12142 5c22 5F5F4D49 		.ascii "__MINGW_PREFETCH_IMPL !__has_builtin(__prefetch)\0"
 12142      4E47575F 
 12142      50524546 
 12142      45544348 
 12142      5F494D50 
 12143 5c53 04       		.byte	0x4
 12144 5c54 02       		.byte	0x2
 12145 5c55 0D       		.uleb128 0xd
 12146 5c56 5F435254 		.ascii "_CRT_PACKING\0"
 12146      5F504143 
 12146      4B494E47 
 12146      00
 12147 5c63 01       		.byte	0x1
 12148 5c64 0E       		.uleb128 0xe
 12149 5c65 5F435254 		.ascii "_CRT_PACKING 8\0"
 12149      5F504143 
 12149      4B494E47 
 12149      203800
 12150 5c74 01       		.byte	0x1
 12151 5c75 18       		.uleb128 0x18
 12152 5c76 5F435254 		.ascii "_CRTNOALIAS \0"
 12152      4E4F414C 
 12152      49415320 
 12152      00
 12153 5c83 01       		.byte	0x1
 12154 5c84 1C       		.uleb128 0x1c
 12155 5c85 5F435254 		.ascii "_CRTRESTRICT \0"
 12155      52455354 
 12155      52494354 
 12155      2000
 12156 5c93 01       		.byte	0x1
 12157 5c94 20       		.uleb128 0x20
 12158 5c95 5F53495A 		.ascii "_SIZE_T_DEFINED \0"
 12158      455F545F 
 12158      44454649 
 12158      4E454420 
 12158      00
 12159 5ca6 02       		.byte	0x2
 12160 5ca7 21       		.uleb128 0x21
 12161 5ca8 73697A65 		.ascii "size_t\0"
 12161      5F7400
 12162 5caf 01       		.byte	0x1
 12163 5cb0 2A       		.uleb128 0x2a
 12164 5cb1 5F535349 		.ascii "_SSIZE_T_DEFINED \0"
 12164      5A455F54 
 12164      5F444546 
 12164      494E4544 
 12164      2000
 12165 5cc3 02       		.byte	0x2
 12166 5cc4 2B       		.uleb128 0x2b
 12167 5cc5 7373697A 		.ascii "ssize_t\0"
 12167      655F7400 
 12168 5ccd 01       		.byte	0x1
 12169 5cce 35       		.uleb128 0x35
 12170 5ccf 5F525349 		.ascii "_RSIZE_T_DEFINED \0"
 12170      5A455F54 
 12170      5F444546 
 12170      494E4544 
 12170      2000
 12171 5ce1 01       		.byte	0x1
 12172 5ce2 39       		.uleb128 0x39
 12173 5ce3 5F494E54 		.ascii "_INTPTR_T_DEFINED \0"
 12173      5054525F 
 12173      545F4445 
 12173      46494E45 
 12173      442000
 12174 5cf6 01       		.byte	0x1
 12175 5cf7 3B       		.uleb128 0x3b
 12176 5cf8 5F5F696E 		.ascii "__intptr_t_defined \0"
 12176      74707472 
 12176      5F745F64 
 12176      6566696E 
 12176      65642000 
 12177 5d0c 02       		.byte	0x2
 12178 5d0d 3C       		.uleb128 0x3c
 12179 5d0e 696E7470 		.ascii "intptr_t\0"
 12179      74725F74 
 12179      00
 12180 5d17 01       		.byte	0x1
 12181 5d18 46       		.uleb128 0x46
 12182 5d19 5F55494E 		.ascii "_UINTPTR_T_DEFINED \0"
 12182      54505452 
 12182      5F545F44 
 12182      4546494E 
 12182      45442000 
 12183 5d2d 01       		.byte	0x1
 12184 5d2e 48       		.uleb128 0x48
 12185 5d2f 5F5F7569 		.ascii "__uintptr_t_defined \0"
 12185      6E747074 
 12185      725F745F 
 12185      64656669 
 12185      6E656420 
 12186 5d44 02       		.byte	0x2
 12187 5d45 49       		.uleb128 0x49
 12188 5d46 75696E74 		.ascii "uintptr_t\0"
 12188      7074725F 
 12188      7400
 12189 5d50 01       		.byte	0x1
 12190 5d51 53       		.uleb128 0x53
 12191 5d52 5F505452 		.ascii "_PTRDIFF_T_DEFINED \0"
 12191      44494646 
 12191      5F545F44 
 12191      4546494E 
 12191      45442000 
 12192 5d66 01       		.byte	0x1
 12193 5d67 55       		.uleb128 0x55
 12194 5d68 5F505452 		.ascii "_PTRDIFF_T_ \0"
 12194      44494646 
 12194      5F545F20 
 12194      00
 12195 5d75 02       		.byte	0x2
 12196 5d76 56       		.uleb128 0x56
 12197 5d77 70747264 		.ascii "ptrdiff_t\0"
 12197      6966665F 
 12197      7400
 12198 5d81 01       		.byte	0x1
 12199 5d82 60       		.uleb128 0x60
 12200 5d83 5F574348 		.ascii "_WCHAR_T_DEFINED \0"
 12200      41525F54 
 12200      5F444546 
 12200      494E4544 
 12200      2000
 12201 5d95 01       		.byte	0x1
 12202 5d96 67       		.uleb128 0x67
 12203 5d97 5F574354 		.ascii "_WCTYPE_T_DEFINED \0"
 12203      5950455F 
 12203      545F4445 
 12203      46494E45 
 12203      442000
 12204 5daa 01       		.byte	0x1
 12205 5dab 69       		.uleb128 0x69
 12206 5dac 5F57494E 		.ascii "_WINT_T \0"
 12206      545F5420 
 12206      00
 12207 5db5 01       		.byte	0x1
 12208 5db6 70       		.uleb128 0x70
 12209 5db7 5F455252 		.ascii "_ERRCODE_DEFINED \0"
 12209      434F4445 
 12209      5F444546 
 12209      494E4544 
 12209      2000
 12210 5dc9 01       		.byte	0x1
 12211 5dca 75       		.uleb128 0x75
 12212 5dcb 5F54494D 		.ascii "_TIME32_T_DEFINED \0"
 12212      4533325F 
 12212      545F4445 
 12212      46494E45 
 12212      442000
 12213 5dde 01       		.byte	0x1
 12214 5ddf 7A       		.uleb128 0x7a
 12215 5de0 5F54494D 		.ascii "_TIME64_T_DEFINED \0"
 12215      4536345F 
 12215      545F4445 
 12215      46494E45 
 12215      442000
 12216 5df3 01       		.byte	0x1
 12217 5df4 8601     		.uleb128 0x86
 12218 5df6 5F54494D 		.ascii "_TIME_T_DEFINED \0"
 12218      455F545F 
 12218      44454649 
 12218      4E454420 
 12218      00
 12219 5e07 01       		.byte	0x1
 12220 5e08 8F01     		.uleb128 0x8f
 12221 5e0a 5F435254 		.ascii "_CRT_SECURE_CPP_NOTHROW throw()\0"
 12221      5F534543 
 12221      5552455F 
 12221      4350505F 
 12221      4E4F5448 
 12222 5e2a 01       		.byte	0x1
 12223 5e2b 8602     		.uleb128 0x106
 12224 5e2d 5F5F4445 		.ascii "__DEFINE_CPP_OVERLOAD_SECURE_FUNC_0_0(__ret,__func,__dsttype,__dst) \0"
 12224      46494E45 
 12224      5F435050 
 12224      5F4F5645 
 12224      524C4F41 
 12225 5e72 01       		.byte	0x1
 12226 5e73 8702     		.uleb128 0x107
 12227 5e75 5F5F4445 		.ascii "__DEFINE_CPP_OVERLOAD_SECURE_FUNC_0_1(__ret,__func,__dsttype,__dst,__type1,__arg1) \0"
 12227      46494E45 
 12227      5F435050 
 12227      5F4F5645 
 12227      524C4F41 
 12228 5ec9 01       		.byte	0x1
 12229 5eca 8802     		.uleb128 0x108
 12230 5ecc 5F5F4445 		.ascii "__DEFINE_CPP_OVERLOAD_SECURE_FUNC_0_2(__ret,__func,__dsttype,__dst,__type1,__arg1,__type2,
 12230      46494E45 
 12230      5F435050 
 12230      5F4F5645 
 12230      524C4F41 
 12231 5f2f 01       		.byte	0x1
 12232 5f30 8902     		.uleb128 0x109
 12233 5f32 5F5F4445 		.ascii "__DEFINE_CPP_OVERLOAD_SECURE_FUNC_0_3(__ret,__func,__dsttype,__dst,__type1,__arg1,__type2,
 12233      46494E45 
 12233      5F435050 
 12233      5F4F5645 
 12233      524C4F41 
 12234 5fa4 01       		.byte	0x1
 12235 5fa5 8A02     		.uleb128 0x10a
 12236 5fa7 5F5F4445 		.ascii "__DEFINE_CPP_OVERLOAD_SECURE_FUNC_0_4(__ret,__func,__dsttype,__dst,__type1,__arg1,__type2,
 12236      46494E45 
 12236      5F435050 
 12236      5F4F5645 
 12236      524C4F41 
 12237 6028 01       		.byte	0x1
 12238 6029 8B02     		.uleb128 0x10b
 12239 602b 5F5F4445 		.ascii "__DEFINE_CPP_OVERLOAD_SECURE_FUNC_1_1(__ret,__func,__type0,__arg0,__dsttype,__dst,__type1,
 12239      46494E45 
 12239      5F435050 
 12239      5F4F5645 
 12239      524C4F41 
 12240 608e 01       		.byte	0x1
 12241 608f 8C02     		.uleb128 0x10c
 12242 6091 5F5F4445 		.ascii "__DEFINE_CPP_OVERLOAD_SECURE_FUNC_1_2(__ret,__func,__type0,__arg0,__dsttype,__dst,__type1,
 12242      46494E45 
 12242      5F435050 
 12242      5F4F5645 
 12242      524C4F41 
 12243 6103 01       		.byte	0x1
 12244 6104 8D02     		.uleb128 0x10d
 12245 6106 5F5F4445 		.ascii "__DEFINE_CPP_OVERLOAD_SECURE_FUNC_1_3(__ret,__func,__type0,__arg0,__dsttype,__dst,__type1,
 12245      46494E45 
 12245      5F435050 
 12245      5F4F5645 
 12245      524C4F41 
 12246 6187 01       		.byte	0x1
 12247 6188 8E02     		.uleb128 0x10e
 12248 618a 5F5F4445 		.ascii "__DEFINE_CPP_OVERLOAD_SECURE_FUNC_2_0(__ret,__func,__type1,__arg1,__type2,__arg2,__dsttype
 12248      46494E45 
 12248      5F435050 
 12248      5F4F5645 
 12248      524C4F41 
 12249 61ed 01       		.byte	0x1
 12250 61ee 8F02     		.uleb128 0x10f
 12251 61f0 5F5F4445 		.ascii "__DEFINE_CPP_OVERLOAD_SECURE_FUNC_0_1_ARGLIST(__ret,__func,__vfunc,__dsttype,__dst,__type1
 12251      46494E45 
 12251      5F435050 
 12251      5F4F5645 
 12251      524C4F41 
 12252 6254 01       		.byte	0x1
 12253 6255 9002     		.uleb128 0x110
 12254 6257 5F5F4445 		.ascii "__DEFINE_CPP_OVERLOAD_SECURE_FUNC_0_2_ARGLIST(__ret,__func,__vfunc,__dsttype,__dst,__type1
 12254      46494E45 
 12254      5F435050 
 12254      5F4F5645 
 12254      524C4F41 
 12255 62ca 01       		.byte	0x1
 12256 62cb 9102     		.uleb128 0x111
 12257 62cd 5F5F4445 		.ascii "__DEFINE_CPP_OVERLOAD_SECURE_FUNC_SPLITPATH(__ret,__func,__dsttype,__src) \0"
 12257      46494E45 
 12257      5F435050 
 12257      5F4F5645 
 12257      524C4F41 
 12258 6318 01       		.byte	0x1
 12259 6319 9502     		.uleb128 0x115
 12260 631b 5F5F4445 		.ascii "__DEFINE_CPP_OVERLOAD_STANDARD_FUNC_0_0(__ret_type,__ret_policy,__decl_spec,__name,__dst_a
 12260      46494E45 
 12260      5F435050 
 12260      5F4F5645 
 12260      524C4F41 
 12261 641b 01       		.byte	0x1
 12262 641c 9702     		.uleb128 0x117
 12263 641e 5F5F4445 		.ascii "__DEFINE_CPP_OVERLOAD_STANDARD_FUNC_0_1(__ret_type,__ret_policy,__decl_spec,__name,__dst_a
 12263      46494E45 
 12263      5F435050 
 12263      5F4F5645 
 12263      524C4F41 
 12264 655b 01       		.byte	0x1
 12265 655c 9902     		.uleb128 0x119
 12266 655e 5F5F4445 		.ascii "__DEFINE_CPP_OVERLOAD_STANDARD_FUNC_0_2(__ret_type,__ret_policy,__decl_spec,__name,__dst_a
 12266      46494E45 
 12266      5F435050 
 12266      5F4F5645 
 12266      524C4F41 
 12267 66ae 01       		.byte	0x1
 12268 66af 9B02     		.uleb128 0x11b
 12269 66b1 5F5F4445 		.ascii "__DEFINE_CPP_OVERLOAD_STANDARD_FUNC_0_3(__ret_type,__ret_policy,__decl_spec,__name,__dst_a
 12269      46494E45 
 12269      5F435050 
 12269      5F4F5645 
 12269      524C4F41 
 12270 6829 01       		.byte	0x1
 12271 682a 9D02     		.uleb128 0x11d
 12272 682c 5F5F4445 		.ascii "__DEFINE_CPP_OVERLOAD_STANDARD_FUNC_0_4(__ret_type,__ret_policy,__decl_spec,__name,__dst_a
 12272      46494E45 
 12272      5F435050 
 12272      5F4F5645 
 12272      524C4F41 
 12273 69cc 01       		.byte	0x1
 12274 69cd A603     		.uleb128 0x1a6
 12275 69cf 5F5F4445 		.ascii "__DEFINE_CPP_OVERLOAD_STANDARD_FUNC_0_0_EX(__ret_type,__ret_policy,__decl_spec,__name,__se
 12275      46494E45 
 12275      5F435050 
 12275      5F4F5645 
 12275      524C4F41 
 12276 6a4e 01       		.byte	0x1
 12277 6a4f A703     		.uleb128 0x1a7
 12278 6a51 5F5F4445 		.ascii "__DEFINE_CPP_OVERLOAD_STANDARD_FUNC_0_1_EX(__ret_type,__ret_policy,__decl_spec,__name,__se
 12278      46494E45 
 12278      5F435050 
 12278      5F4F5645 
 12278      524C4F41 
 12279 6ae3 01       		.byte	0x1
 12280 6ae4 A803     		.uleb128 0x1a8
 12281 6ae6 5F5F4445 		.ascii "__DEFINE_CPP_OVERLOAD_STANDARD_FUNC_0_2_EX(__ret_type,__ret_policy,__decl_spec,__name,__se
 12281      46494E45 
 12281      5F435050 
 12281      5F4F5645 
 12281      524C4F41 
 12282 6b8b 01       		.byte	0x1
 12283 6b8c A903     		.uleb128 0x1a9
 12284 6b8e 5F5F4445 		.ascii "__DEFINE_CPP_OVERLOAD_STANDARD_FUNC_0_3_EX(__ret_type,__ret_policy,__decl_spec,__name,__se
 12284      46494E45 
 12284      5F435050 
 12284      5F4F5645 
 12284      524C4F41 
 12285 6c46 01       		.byte	0x1
 12286 6c47 AA03     		.uleb128 0x1aa
 12287 6c49 5F5F4445 		.ascii "__DEFINE_CPP_OVERLOAD_STANDARD_FUNC_0_4_EX(__ret_type,__ret_policy,__decl_spec,__name,__se
 12287      46494E45 
 12287      5F435050 
 12287      5F4F5645 
 12287      524C4F41 
 12288 6d14 01       		.byte	0x1
 12289 6d15 BA03     		.uleb128 0x1ba
 12290 6d17 5F544147 		.ascii "_TAGLC_ID_DEFINED \0"
 12290      4C435F49 
 12290      445F4445 
 12290      46494E45 
 12290      442000
 12291 6d2a 01       		.byte	0x1
 12292 6d2b C303     		.uleb128 0x1c3
 12293 6d2d 5F544852 		.ascii "_THREADLOCALEINFO \0"
 12293      4541444C 
 12293      4F43414C 
 12293      45494E46 
 12293      4F2000
 12294 6d40 01       		.byte	0x1
 12295 6d41 E603     		.uleb128 0x1e6
 12296 6d43 5F5F6372 		.ascii "__crt_typefix(ctype) \0"
 12296      745F7479 
 12296      70656669 
 12296      78286374 
 12296      79706529 
 12297 6d59 01       		.byte	0x1
 12298 6d5a F003     		.uleb128 0x1f0
 12299 6d5c 5F435254 		.ascii "_CRT_USE_WINAPI_FAMILY_DESKTOP_APP \0"
 12299      5F555345 
 12299      5F57494E 
 12299      4150495F 
 12299      46414D49 
 12300 6d80 04       		.byte	0x4
 12301 6d81 04       		.byte	0x4
 12302 6d82 01       		.byte	0x1
 12303 6d83 0A       		.uleb128 0xa
 12304 6d84 5F494E43 		.ascii "_INC_STDDEF \0"
 12304      5F535444 
 12304      44454620 
 12304      00
 12305 6d91 01       		.byte	0x1
 12306 6d92 11       		.uleb128 0x11
 12307 6d93 5F435254 		.ascii "_CRT_ERRNO_DEFINED \0"
 12307      5F455252 
 12307      4E4F5F44 
 12307      4546494E 
 12307      45442000 
 12308 6da7 01       		.byte	0x1
 12309 6da8 13       		.uleb128 0x13
 12310 6da9 6572726E 		.ascii "errno (*_errno())\0"
 12310      6F20282A 
 12310      5F657272 
 12310      6E6F2829 
 12310      2900
 12311 6dbb 01       		.byte	0x1
 12312 6dbc 19       		.uleb128 0x19
 12313 6dbd 5F746872 		.ascii "_threadid (__threadid())\0"
 12313      65616469 
 12313      6420285F 
 12313      5F746872 
 12313      65616469 
 12314 6dd6 01       		.byte	0x1
 12315 6dd7 31       		.uleb128 0x31
 12316 6dd8 5F535444 		.ascii "_STDDEF_H \0"
 12316      4445465F 
 12316      482000
 12317 6de3 01       		.byte	0x1
 12318 6de4 32       		.uleb128 0x32
 12319 6de5 5F535444 		.ascii "_STDDEF_H_ \0"
 12319      4445465F 
 12319      485F2000 
 12320 6df1 01       		.byte	0x1
 12321 6df2 34       		.uleb128 0x34
 12322 6df3 5F414E53 		.ascii "_ANSI_STDDEF_H \0"
 12322      495F5354 
 12322      44444546 
 12322      5F482000 
 12323 6e03 01       		.byte	0x1
 12324 6e04 36       		.uleb128 0x36
 12325 6e05 5F5F5354 		.ascii "__STDDEF_H__ \0"
 12325      44444546 
 12325      5F485F5F 
 12325      2000
 12326 6e13 02       		.byte	0x2
 12327 6e14 A301     		.uleb128 0xa3
 12328 6e16 5F5F6E65 		.ascii "__need_ptrdiff_t\0"
 12328      65645F70 
 12328      74726469 
 12328      66665F74 
 12328      00
 12329 6e27 02       		.byte	0x2
 12330 6e28 F001     		.uleb128 0xf0
 12331 6e2a 5F5F6E65 		.ascii "__need_size_t\0"
 12331      65645F73 
 12331      697A655F 
 12331      7400
 12332 6e38 02       		.byte	0x2
 12333 6e39 D102     		.uleb128 0x151
 12334 6e3b 5F5F6E65 		.ascii "__need_wchar_t\0"
 12334      65645F77 
 12334      63686172 
 12334      5F7400
 12335 6e4a 02       		.byte	0x2
 12336 6e4b 8A03     		.uleb128 0x18a
 12337 6e4d 4E554C4C 		.ascii "NULL\0"
 12337      00
 12338 6e52 01       		.byte	0x1
 12339 6e53 8F03     		.uleb128 0x18f
 12340 6e55 4E554C4C 		.ascii "NULL ((void *)0)\0"
 12340      20282876 
 12340      6F696420 
 12340      2A293029 
 12340      00
 12341 6e66 02       		.byte	0x2
 12342 6e67 9903     		.uleb128 0x199
 12343 6e69 5F5F6E65 		.ascii "__need_NULL\0"
 12343      65645F4E 
 12343      554C4C00 
 12344 6e75 01       		.byte	0x1
 12345 6e76 9E03     		.uleb128 0x19e
 12346 6e78 6F666673 		.ascii "offsetof(TYPE,MEMBER) __builtin_offsetof (TYPE, MEMBER)\0"
 12346      65746F66 
 12346      28545950 
 12346      452C4D45 
 12346      4D424552 
 12347 6eb0 01       		.byte	0x1
 12348 6eb1 A303     		.uleb128 0x1a3
 12349 6eb3 5F474343 		.ascii "_GCC_MAX_ALIGN_T \0"
 12349      5F4D4158 
 12349      5F414C49 
 12349      474E5F54 
 12349      2000
 12350 6ec5 01       		.byte	0x1
 12351 6ec6 A403     		.uleb128 0x1a4
 12352 6ec8 5F5F434C 		.ascii "__CLANG_MAX_ALIGN_T_DEFINED \0"
 12352      414E475F 
 12352      4D41585F 
 12352      414C4947 
 12352      4E5F545F 
 12353 6ee5 04       		.byte	0x4
 12354 6ee6 04       		.byte	0x4
 12355 6ee7 01       		.byte	0x1
 12356 6ee8 66       		.uleb128 0x66
 12357 6ee9 57434841 		.ascii "WCHAR CHAR16\0"
 12357      52204348 
 12357      41523136 
 12357      00
 12358 6ef6 02       		.byte	0x2
 12359 6ef7 77       		.uleb128 0x77
 12360 6ef8 564F4944 		.ascii "VOID\0"
 12360      00
 12361 6efd 01       		.byte	0x1
 12362 6efe 8401     		.uleb128 0x84
 12363 6f00 504F5354 		.ascii "POST_CODE(_Data) \0"
 12363      5F434F44 
 12363      45285F44 
 12363      61746129 
 12363      2000
 12364 6f12 01       		.byte	0x1
 12365 6f13 8801     		.uleb128 0x88
 12366 6f15 45464945 		.ascii "EFIERR(a) (0x8000000000000000 | a)\0"
 12366      52522861 
 12366      29202830 
 12366      78383030 
 12366      30303030 
 12367 6f38 01       		.byte	0x1
 12368 6f39 8901     		.uleb128 0x89
 12369 6f3b 4546495F 		.ascii "EFI_ERROR_MASK 0x8000000000000000\0"
 12369      4552524F 
 12369      525F4D41 
 12369      534B2030 
 12369      78383030 
 12370 6f5d 01       		.byte	0x1
 12371 6f5e 8A01     		.uleb128 0x8a
 12372 6f60 45464945 		.ascii "EFIERR_OEM(a) (0xc000000000000000 | a)\0"
 12372      52525F4F 
 12372      454D2861 
 12372      29202830 
 12372      78633030 
 12373 6f87 01       		.byte	0x1
 12374 6f88 8D01     		.uleb128 0x8d
 12375 6f8a 4241445F 		.ascii "BAD_POINTER 0xFBFBFBFBFBFBFBFB\0"
 12375      504F494E 
 12375      54455220 
 12375      30784642 
 12375      46424642 
 12376 6fa9 01       		.byte	0x1
 12377 6faa 8E01     		.uleb128 0x8e
 12378 6fac 4D41585F 		.ascii "MAX_ADDRESS 0xFFFFFFFFFFFFFFFF\0"
 12378      41444452 
 12378      45535320 
 12378      30784646 
 12378      46464646 
 12379 6fcb 01       		.byte	0x1
 12380 6fcc 9301     		.uleb128 0x93
 12381 6fce 42524541 		.ascii "BREAKPOINT() while (TRUE);\0"
 12381      4B504F49 
 12381      4E542829 
 12381      20776869 
 12381      6C652028 
 12382 6fe9 01       		.byte	0x1
 12383 6fea 9A01     		.uleb128 0x9a
 12384 6fec 4D494E5F 		.ascii "MIN_ALIGNMENT_SIZE 4\0"
 12384      414C4947 
 12384      4E4D454E 
 12384      545F5349 
 12384      5A452034 
 12385 7001 01       		.byte	0x1
 12386 7002 9C01     		.uleb128 0x9c
 12387 7004 414C4947 		.ascii "ALIGN_VARIABLE(Value,Adjustment) (UINTN)Adjustment = 0; if((UINTN)Value % MIN_ALIGNMENT_SI
 12387      4E5F5641 
 12387      52494142 
 12387      4C452856 
 12387      616C7565 
 12388 70d9 01       		.byte	0x1
 12389 70da A701     		.uleb128 0xa7
 12390 70dc 4546495F 		.ascii "EFI_SIGNATURE_16(A,B) ((A) | (B<<8))\0"
 12390      5349474E 
 12390      41545552 
 12390      455F3136 
 12390      28412C42 
 12391 7101 01       		.byte	0x1
 12392 7102 A801     		.uleb128 0xa8
 12393 7104 4546495F 		.ascii "EFI_SIGNATURE_32(A,B,C,D) (EFI_SIGNATURE_16(A,B) | (EFI_SIGNATURE_16(C,D) << 16))\0"
 12393      5349474E 
 12393      41545552 
 12393      455F3332 
 12393      28412C42 
 12394 7156 01       		.byte	0x1
 12395 7157 A901     		.uleb128 0xa9
 12396 7159 4546495F 		.ascii "EFI_SIGNATURE_64(A,B,C,D,E,F,G,H) (EFI_SIGNATURE_32(A,B,C,D) | ((UINT64)(EFI_SIGNATURE_32(
 12396      5349474E 
 12396      41545552 
 12396      455F3634 
 12396      28412C42 
 12397 71c5 01       		.byte	0x1
 12398 71c6 B101     		.uleb128 0xb1
 12399 71c8 4558504F 		.ascii "EXPORTAPI \0"
 12399      52544150 
 12399      492000
 12400 71d3 01       		.byte	0x1
 12401 71d4 C201     		.uleb128 0xc2
 12402 71d6 45464941 		.ascii "EFIAPI __attribute__((ms_abi))\0"
 12402      5049205F 
 12402      5F617474 
 12402      72696275 
 12402      74655F5F 
 12403 71f5 01       		.byte	0x1
 12404 71f6 C801     		.uleb128 0xc8
 12405 71f8 424F4F54 		.ascii "BOOTSERVICE \0"
 12405      53455256 
 12405      49434520 
 12405      00
 12406 7205 01       		.byte	0x1
 12407 7206 CB01     		.uleb128 0xcb
 12408 7208 52554E54 		.ascii "RUNTIMESERVICE \0"
 12408      494D4553 
 12408      45525649 
 12408      43452000 
 12409 7218 01       		.byte	0x1
 12410 7219 CC01     		.uleb128 0xcc
 12411 721b 52554E54 		.ascii "RUNTIMEFUNCTION \0"
 12411      494D4546 
 12411      554E4354 
 12411      494F4E20 
 12411      00
 12412 722c 01       		.byte	0x1
 12413 722d CF01     		.uleb128 0xcf
 12414 722f 52554E54 		.ascii "RUNTIME_CODE(a) alloc_text(\"rtcode\", a)\0"
 12414      494D455F 
 12414      434F4445 
 12414      28612920 
 12414      616C6C6F 
 12415 7257 01       		.byte	0x1
 12416 7258 D001     		.uleb128 0xd0
 12417 725a 42454749 		.ascii "BEGIN_RUNTIME_DATA() data_seg(\"rtdata\")\0"
 12417      4E5F5255 
 12417      4E54494D 
 12417      455F4441 
 12417      54412829 
 12418 7282 01       		.byte	0x1
 12419 7283 D101     		.uleb128 0xd1
 12420 7285 454E445F 		.ascii "END_RUNTIME_DATA() data_seg(\"\")\0"
 12420      52554E54 
 12420      494D455F 
 12420      44415441 
 12420      28292064 
 12421 72a5 01       		.byte	0x1
 12422 72a6 D301     		.uleb128 0xd3
 12423 72a8 564F4C41 		.ascii "VOLATILE volatile\0"
 12423      54494C45 
 12423      20766F6C 
 12423      6174696C 
 12423      6500
 12424 72ba 01       		.byte	0x1
 12425 72bb D501     		.uleb128 0xd5
 12426 72bd 4D454D4F 		.ascii "MEMORY_FENCE() \0"
 12426      52595F46 
 12426      454E4345 
 12426      28292000 
 12427 72cd 01       		.byte	0x1
 12428 72ce 8502     		.uleb128 0x105
 12429 72d0 4546495F 		.ascii "EFI_DRIVER_ENTRY_POINT(InitFunction) UINTN InitializeDriver ( VOID *ImageHandle, VOID *Sys
 12429      44524956 
 12429      45525F45 
 12429      4E545259 
 12429      5F504F49 
 12430 73dd 01       		.byte	0x1
 12431 73de 9702     		.uleb128 0x117
 12432 73e0 4C4F4144 		.ascii "LOAD_INTERNAL_DRIVER(_if,type,name,entry) (_if)->LoadInternal(type, name, entry)\0"
 12432      5F494E54 
 12432      45524E41 
 12432      4C5F4452 
 12432      49564552 
 12433 7431 01       		.byte	0x1
 12434 7432 A602     		.uleb128 0x126
 12435 7434 494E5445 		.ascii "INTERFACE_DECL(x) struct x\0"
 12435      52464143 
 12435      455F4445 
 12435      434C2878 
 12435      29207374 
 12436 744f 01       		.byte	0x1
 12437 7450 AE02     		.uleb128 0x12e
 12438 7452 75656669 		.ascii "uefi_call_wrapper(func,va_num,...) func(__VA_ARGS__)\0"
 12438      5F63616C 
 12438      6C5F7772 
 12438      61707065 
 12438      72286675 
 12439 7487 01       		.byte	0x1
 12440 7488 8303     		.uleb128 0x183
 12441 748a 4546495F 		.ascii "EFI_FUNCTION __attribute__((ms_abi))\0"
 12441      46554E43 
 12441      54494F4E 
 12441      205F5F61 
 12441      74747269 
 12442 74af 04       		.byte	0x4
 12443              		.file 25 "gnu-efi-3.0.18/inc/eficompiler.h"
 12444 74b0 03       		.byte	0x3
 12445 74b1 41       		.uleb128 0x41
 12446 74b2 19       		.uleb128 0x19
 12447 74b3 01       		.byte	0x1
 12448 74b4 12       		.uleb128 0x12
 12449 74b5 4546495F 		.ascii "EFI_UNUSED __attribute__((__unused__))\0"
 12449      554E5553 
 12449      4544205F 
 12449      5F617474 
 12449      72696275 
 12450 74dc 01       		.byte	0x1
 12451 74dd 1B       		.uleb128 0x1b
 12452 74de 4546495F 		.ascii "EFI_NO_TAIL_CALL __attribute__((optimize(\"no-optimize-sibling-calls\")))\0"
 12452      4E4F5F54 
 12452      41494C5F 
 12452      43414C4C 
 12452      205F5F61 
 12453 7526 01       		.byte	0x1
 12454 7527 25       		.uleb128 0x25
 12455 7528 4546495F 		.ascii "EFI_OPTNONE __attribute__((__optimize__(\"0\")))\0"
 12455      4F50544E 
 12455      4F4E4520 
 12455      5F5F6174 
 12455      74726962 
 12456 7557 01       		.byte	0x1
 12457 7558 2C       		.uleb128 0x2c
 12458 7559 4546495F 		.ascii "EFI_ALIGN(x) __attribute__((__aligned__(x)))\0"
 12458      414C4947 
 12458      4E287829 
 12458      205F5F61 
 12458      74747269 
 12459 7586 01       		.byte	0x1
 12460 7587 30       		.uleb128 0x30
 12461 7588 414C4947 		.ascii "ALIGN(x) EFI_ALIGN(x)\0"
 12461      4E287829 
 12461      20454649 
 12461      5F414C49 
 12461      474E2878 
 12462 759e 01       		.byte	0x1
 12463 759f 36       		.uleb128 0x36
 12464 75a0 4546495F 		.ascii "EFI_NORETURN __attribute__((noreturn))\0"
 12464      4E4F5245 
 12464      5455524E 
 12464      205F5F61 
 12464      74747269 
 12465 75c7 04       		.byte	0x4
 12466 75c8 03       		.byte	0x3
 12467 75c9 42       		.uleb128 0x42
 12468 75ca 05       		.uleb128 0x5
 12469 75cb 01       		.byte	0x1
 12470 75cc 02       		.uleb128 0x2
 12471 75cd 5F454649 		.ascii "_EFI_DEF_H \0"
 12471      5F444546 
 12471      5F482000 
 12472 75d9 01       		.byte	0x1
 12473 75da 22       		.uleb128 0x22
 12474 75db 434F4E53 		.ascii "CONST const\0"
 12474      5420636F 
 12474      6E737400 
 12475 75e7 01       		.byte	0x1
 12476 75e8 29       		.uleb128 0x29
 12477 75e9 54525545 		.ascii "TRUE ((BOOLEAN) 1)\0"
 12477      20282842 
 12477      4F4F4C45 
 12477      414E2920 
 12477      312900
 12478 75fc 01       		.byte	0x1
 12479 75fd 2A       		.uleb128 0x2a
 12480 75fe 46414C53 		.ascii "FALSE ((BOOLEAN) 0)\0"
 12480      45202828 
 12480      424F4F4C 
 12480      45414E29 
 12480      20302900 
 12481 7612 01       		.byte	0x1
 12482 7613 4B       		.uleb128 0x4b
 12483 7614 494E2000 		.ascii "IN \0"
 12484 7618 01       		.byte	0x1
 12485 7619 4C       		.uleb128 0x4c
 12486 761a 4F555420 		.ascii "OUT \0"
 12486      00
 12487 761f 01       		.byte	0x1
 12488 7620 4D       		.uleb128 0x4d
 12489 7621 4F505449 		.ascii "OPTIONAL \0"
 12489      4F4E414C 
 12489      2000
 12490 762b 01       		.byte	0x1
 12491 762c 70       		.uleb128 0x70
 12492 762d 4546495F 		.ascii "EFI_TIME_ADJUST_DAYLIGHT 0x01\0"
 12492      54494D45 
 12492      5F41444A 
 12492      5553545F 
 12492      4441594C 
 12493 764b 01       		.byte	0x1
 12494 764c 71       		.uleb128 0x71
 12495 764d 4546495F 		.ascii "EFI_TIME_IN_DAYLIGHT 0x02\0"
 12495      54494D45 
 12495      5F494E5F 
 12495      4441594C 
 12495      49474854 
 12496 7667 01       		.byte	0x1
 12497 7668 74       		.uleb128 0x74
 12498 7669 4546495F 		.ascii "EFI_UNSPECIFIED_TIMEZONE 0x07FF\0"
 12498      554E5350 
 12498      45434946 
 12498      4945445F 
 12498      54494D45 
 12499 7689 01       		.byte	0x1
 12500 768a C001     		.uleb128 0xc0
 12501 768c 4546495F 		.ascii "EFI_MEMORY_UC 0x0000000000000001\0"
 12501      4D454D4F 
 12501      52595F55 
 12501      43203078 
 12501      30303030 
 12502 76ad 01       		.byte	0x1
 12503 76ae C101     		.uleb128 0xc1
 12504 76b0 4546495F 		.ascii "EFI_MEMORY_WC 0x0000000000000002\0"
 12504      4D454D4F 
 12504      52595F57 
 12504      43203078 
 12504      30303030 
 12505 76d1 01       		.byte	0x1
 12506 76d2 C201     		.uleb128 0xc2
 12507 76d4 4546495F 		.ascii "EFI_MEMORY_WT 0x0000000000000004\0"
 12507      4D454D4F 
 12507      52595F57 
 12507      54203078 
 12507      30303030 
 12508 76f5 01       		.byte	0x1
 12509 76f6 C301     		.uleb128 0xc3
 12510 76f8 4546495F 		.ascii "EFI_MEMORY_WB 0x0000000000000008\0"
 12510      4D454D4F 
 12510      52595F57 
 12510      42203078 
 12510      30303030 
 12511 7719 01       		.byte	0x1
 12512 771a C401     		.uleb128 0xc4
 12513 771c 4546495F 		.ascii "EFI_MEMORY_UCE 0x0000000000000010\0"
 12513      4D454D4F 
 12513      52595F55 
 12513      43452030 
 12513      78303030 
 12514 773e 01       		.byte	0x1
 12515 773f C701     		.uleb128 0xc7
 12516 7741 4546495F 		.ascii "EFI_MEMORY_WP 0x0000000000001000\0"
 12516      4D454D4F 
 12516      52595F57 
 12516      50203078 
 12516      30303030 
 12517 7762 01       		.byte	0x1
 12518 7763 C801     		.uleb128 0xc8
 12519 7765 4546495F 		.ascii "EFI_MEMORY_RP 0x0000000000002000\0"
 12519      4D454D4F 
 12519      52595F52 
 12519      50203078 
 12519      30303030 
 12520 7786 01       		.byte	0x1
 12521 7787 C901     		.uleb128 0xc9
 12522 7789 4546495F 		.ascii "EFI_MEMORY_XP 0x0000000000004000\0"
 12522      4D454D4F 
 12522      52595F58 
 12522      50203078 
 12522      30303030 
 12523 77aa 01       		.byte	0x1
 12524 77ab CA01     		.uleb128 0xca
 12525 77ad 4546495F 		.ascii "EFI_MEMORY_RO 0x0000000000020000\0"
 12525      4D454D4F 
 12525      52595F52 
 12525      4F203078 
 12525      30303030 
 12526 77ce 01       		.byte	0x1
 12527 77cf CD01     		.uleb128 0xcd
 12528 77d1 4546495F 		.ascii "EFI_MEMORY_NV 0x0000000000008000\0"
 12528      4D454D4F 
 12528      52595F4E 
 12528      56203078 
 12528      30303030 
 12529 77f2 01       		.byte	0x1
 12530 77f3 CE01     		.uleb128 0xce
 12531 77f5 4546495F 		.ascii "EFI_MEMORY_RUNTIME 0x8000000000000000\0"
 12531      4D454D4F 
 12531      52595F52 
 12531      554E5449 
 12531      4D452030 
 12532 781b 01       		.byte	0x1
 12533 781c D101     		.uleb128 0xd1
 12534 781e 4546495F 		.ascii "EFI_MEMORY_MORE_RELIABLE 0x0000000000010000\0"
 12534      4D454D4F 
 12534      52595F4D 
 12534      4F52455F 
 12534      52454C49 
 12535 784a 01       		.byte	0x1
 12536 784b D201     		.uleb128 0xd2
 12537 784d 4546495F 		.ascii "EFI_MEMORY_SP 0x0000000000040000\0"
 12537      4D454D4F 
 12537      52595F53 
 12537      50203078 
 12537      30303030 
 12538 786e 01       		.byte	0x1
 12539 786f D301     		.uleb128 0xd3
 12540 7871 4546495F 		.ascii "EFI_MEMORY_CPU_CRYPTO 0x0000000000080000\0"
 12540      4D454D4F 
 12540      52595F43 
 12540      50555F43 
 12540      52595054 
 12541 789a 01       		.byte	0x1
 12542 789b D401     		.uleb128 0xd4
 12543 789d 4546495F 		.ascii "EFI_MEMORY_ISA_VALID 0x4000000000000000\0"
 12543      4D454D4F 
 12543      52595F49 
 12543      53415F56 
 12543      414C4944 
 12544 78c5 01       		.byte	0x1
 12545 78c6 D501     		.uleb128 0xd5
 12546 78c8 4546495F 		.ascii "EFI_MEMORY_ISA_MASK 0x0FFFF00000000000\0"
 12546      4D454D4F 
 12546      52595F49 
 12546      53415F4D 
 12546      41534B20 
 12547 78ef 01       		.byte	0x1
 12548 78f0 D801     		.uleb128 0xd8
 12549 78f2 4546495F 		.ascii "EFI_MEMORY_DESCRIPTOR_VERSION 1\0"
 12549      4D454D4F 
 12549      52595F44 
 12549      45534352 
 12549      4950544F 
 12550 7912 01       		.byte	0x1
 12551 7913 E701     		.uleb128 0xe7
 12552 7915 49534F5F 		.ascii "ISO_639_2_ENTRY_SIZE 3\0"
 12552      3633395F 
 12552      325F454E 
 12552      5452595F 
 12552      53495A45 
 12553 792c 01       		.byte	0x1
 12554 792d ED01     		.uleb128 0xed
 12555 792f 4546495F 		.ascii "EFI_PAGE_SIZE 4096\0"
 12555      50414745 
 12555      5F53495A 
 12555      45203430 
 12555      393600
 12556 7942 01       		.byte	0x1
 12557 7943 EE01     		.uleb128 0xee
 12558 7945 4546495F 		.ascii "EFI_PAGE_MASK 0xFFF\0"
 12558      50414745 
 12558      5F4D4153 
 12558      4B203078 
 12558      46464600 
 12559 7959 01       		.byte	0x1
 12560 795a EF01     		.uleb128 0xef
 12561 795c 4546495F 		.ascii "EFI_PAGE_SHIFT 12\0"
 12561      50414745 
 12561      5F534849 
 12561      46542031 
 12561      3200
 12562 796e 01       		.byte	0x1
 12563 796f F101     		.uleb128 0xf1
 12564 7971 4546495F 		.ascii "EFI_SIZE_TO_PAGES(a) ( ((a) >> EFI_PAGE_SHIFT) + ((a) & EFI_PAGE_MASK ? 1 : 0) )\0"
 12564      53495A45 
 12564      5F544F5F 
 12564      50414745 
 12564      53286129 
 12565 79c2 01       		.byte	0x1
 12566 79c3 F401     		.uleb128 0xf4
 12567 79c5 4546495F 		.ascii "EFI_OS_INDICATIONS_BOOT_TO_FW_UI 0x0000000000000001\0"
 12567      4F535F49 
 12567      4E444943 
 12567      4154494F 
 12567      4E535F42 
 12568 79f9 01       		.byte	0x1
 12569 79fa F501     		.uleb128 0xf5
 12570 79fc 4546495F 		.ascii "EFI_OS_INDICATIONS_TIMESTAMP_REVOCATION 0x0000000000000002\0"
 12570      4F535F49 
 12570      4E444943 
 12570      4154494F 
 12570      4E535F54 
 12571 7a37 01       		.byte	0x1
 12572 7a38 F601     		.uleb128 0xf6
 12573 7a3a 4546495F 		.ascii "EFI_OS_INDICATIONS_FILE_CAPSULE_DELIVERY_SUPPORTED 0x0000000000000004\0"
 12573      4F535F49 
 12573      4E444943 
 12573      4154494F 
 12573      4E535F46 
 12574 7a80 01       		.byte	0x1
 12575 7a81 F801     		.uleb128 0xf8
 12576 7a83 4546495F 		.ascii "EFI_OS_INDICATIONS_FMP_CAPSULE_SUPPORTED 0x0000000000000008\0"
 12576      4F535F49 
 12576      4E444943 
 12576      4154494F 
 12576      4E535F46 
 12577 7abf 01       		.byte	0x1
 12578 7ac0 FA01     		.uleb128 0xfa
 12579 7ac2 4546495F 		.ascii "EFI_OS_INDICATIONS_CAPSULE_RESULT_VAR_SUPPORTED 0x0000000000000010\0"
 12579      4F535F49 
 12579      4E444943 
 12579      4154494F 
 12579      4E535F43 
 12580 7b05 01       		.byte	0x1
 12581 7b06 FC01     		.uleb128 0xfc
 12582 7b08 4546495F 		.ascii "EFI_OS_INDICATIONS_START_OS_RECOVERY 0x0000000000000020\0"
 12582      4F535F49 
 12582      4E444943 
 12582      4154494F 
 12582      4E535F53 
 12583 7b40 01       		.byte	0x1
 12584 7b41 FD01     		.uleb128 0xfd
 12585 7b43 4546495F 		.ascii "EFI_OS_INDICATIONS_START_PLATFORM_RECOVERY 0x0000000000000040\0"
 12585      4F535F49 
 12585      4E444943 
 12585      4154494F 
 12585      4E535F53 
 12586 7b81 01       		.byte	0x1
 12587 7b82 FF01     		.uleb128 0xff
 12588 7b84 4546495F 		.ascii "EFI_OS_INDICATIONS_JSON_CONFIG_DATA_REFRESH 0x0000000000000080\0"
 12588      4F535F49 
 12588      4E444943 
 12588      4154494F 
 12588      4E535F4A 
 12589 7bc3 04       		.byte	0x4
 12590 7bc4 03       		.byte	0x3
 12591 7bc5 43       		.uleb128 0x43
 12592 7bc6 06       		.uleb128 0x6
 12593 7bc7 01       		.byte	0x1
 12594 7bc8 02       		.uleb128 0x2
 12595 7bc9 5F444556 		.ascii "_DEVPATH_H \0"
 12595      50415448 
 12595      5F482000 
 12596 7bd5 01       		.byte	0x1
 12597 7bd6 23       		.uleb128 0x23
 12598 7bd7 4546495F 		.ascii "EFI_DP_TYPE_MASK 0x7F\0"
 12598      44505F54 
 12598      5950455F 
 12598      4D41534B 
 12598      20307837 
 12599 7bed 01       		.byte	0x1
 12600 7bee 24       		.uleb128 0x24
 12601 7bef 4546495F 		.ascii "EFI_DP_TYPE_UNPACKED 0x80\0"
 12601      44505F54 
 12601      5950455F 
 12601      554E5041 
 12601      434B4544 
 12602 7c09 01       		.byte	0x1
 12603 7c0a 27       		.uleb128 0x27
 12604 7c0b 454E445F 		.ascii "END_DEVICE_PATH_TYPE 0x7f\0"
 12604      44455649 
 12604      43455F50 
 12604      4154485F 
 12604      54595045 
 12605 7c25 01       		.byte	0x1
 12606 7c26 2A       		.uleb128 0x2a
 12607 7c27 454E445F 		.ascii "END_ENTIRE_DEVICE_PATH_SUBTYPE 0xff\0"
 12607      454E5449 
 12607      52455F44 
 12607      45564943 
 12607      455F5041 
 12608 7c4b 01       		.byte	0x1
 12609 7c4c 2B       		.uleb128 0x2b
 12610 7c4d 454E445F 		.ascii "END_INSTANCE_DEVICE_PATH_SUBTYPE 0x01\0"
 12610      494E5354 
 12610      414E4345 
 12610      5F444556 
 12610      4943455F 
 12611 7c73 01       		.byte	0x1
 12612 7c74 2C       		.uleb128 0x2c
 12613 7c75 454E445F 		.ascii "END_DEVICE_PATH_LENGTH (sizeof(EFI_DEVICE_PATH_PROTOCOL))\0"
 12613      44455649 
 12613      43455F50 
 12613      4154485F 
 12613      4C454E47 
 12614 7caf 01       		.byte	0x1
 12615 7cb0 2F       		.uleb128 0x2f
 12616 7cb1 44505F49 		.ascii "DP_IS_END_TYPE(a) \0"
 12616      535F454E 
 12616      445F5459 
 12616      50452861 
 12616      292000
 12617 7cc4 01       		.byte	0x1
 12618 7cc5 30       		.uleb128 0x30
 12619 7cc6 44505F49 		.ascii "DP_IS_END_SUBTYPE(a) ( ((a)->SubType == END_ENTIRE_DEVICE_PATH_SUBTYPE )\0"
 12619      535F454E 
 12619      445F5355 
 12619      42545950 
 12619      45286129 
 12620 7d0f 01       		.byte	0x1
 12621 7d10 32       		.uleb128 0x32
 12622 7d11 44657669 		.ascii "DevicePathType(a) ( ((a)->Type) & EFI_DP_TYPE_MASK )\0"
 12622      63655061 
 12622      74685479 
 12622      70652861 
 12622      29202820 
 12623 7d46 01       		.byte	0x1
 12624 7d47 33       		.uleb128 0x33
 12625 7d48 44657669 		.ascii "DevicePathSubType(a) ( (a)->SubType )\0"
 12625      63655061 
 12625      74685375 
 12625      62547970 
 12625      65286129 
 12626 7d6e 01       		.byte	0x1
 12627 7d6f 34       		.uleb128 0x34
 12628 7d70 44657669 		.ascii "DevicePathNodeLength(a) ( ((a)->Length[0]) | ((a)->Length[1] << 8) )\0"
 12628      63655061 
 12628      74684E6F 
 12628      64654C65 
 12628      6E677468 
 12629 7db5 01       		.byte	0x1
 12630 7db6 35       		.uleb128 0x35
 12631 7db7 4E657874 		.ascii "NextDevicePathNode(a) ( (EFI_DEVICE_PATH_PROTOCOL *) ( ((UINT8 *) (a)) + DevicePathNodeLen
 12631      44657669 
 12631      63655061 
 12631      74684E6F 
 12631      64652861 
 12632 7e1a 01       		.byte	0x1
 12633 7e1b 37       		.uleb128 0x37
 12634 7e1c 49734465 		.ascii "IsDevicePathEndType(a) ( DevicePathType(a) == END_DEVICE_PATH_TYPE )\0"
 12634      76696365 
 12634      50617468 
 12634      456E6454 
 12634      79706528 
 12635 7e61 01       		.byte	0x1
 12636 7e62 38       		.uleb128 0x38
 12637 7e63 49734465 		.ascii "IsDevicePathEndSubType(a) ( (a)->SubType == END_ENTIRE_DEVICE_PATH_SUBTYPE )\0"
 12637      76696365 
 12637      50617468 
 12637      456E6453 
 12637      75625479 
 12638 7eb0 01       		.byte	0x1
 12639 7eb1 39       		.uleb128 0x39
 12640 7eb2 49734465 		.ascii "IsDevicePathEnd(a) ( IsDevicePathEndType(a) && IsDevicePathEndSubType(a) )\0"
 12640      76696365 
 12640      50617468 
 12640      456E6428 
 12640      61292028 
 12641 7efd 01       		.byte	0x1
 12642 7efe 3A       		.uleb128 0x3a
 12643 7eff 49734465 		.ascii "IsDevicePathUnpacked(a) ( (a)->Type & EFI_DP_TYPE_UNPACKED )\0"
 12643      76696365 
 12643      50617468 
 12643      556E7061 
 12643      636B6564 
 12644 7f3c 01       		.byte	0x1
 12645 7f3d 3D       		.uleb128 0x3d
 12646 7f3e 53657444 		.ascii "SetDevicePathNodeLength(a,l) { (a)->Length[0] = (UINT8) (l); (a)->Length[1] = (UINT8) ((l)
 12646      65766963 
 12646      65506174 
 12646      684E6F64 
 12646      654C656E 
 12647 7fa2 01       		.byte	0x1
 12648 7fa3 42       		.uleb128 0x42
 12649 7fa4 53657444 		.ascii "SetDevicePathEndNode(a) { (a)->Type = END_DEVICE_PATH_TYPE; (a)->SubType = END_ENTIRE_DEVI
 12649      65766963 
 12649      65506174 
 12649      68456E64 
 12649      4E6F6465 
 12650 8058 01       		.byte	0x1
 12651 8059 4E       		.uleb128 0x4e
 12652 805a 48415244 		.ascii "HARDWARE_DEVICE_PATH 0x01\0"
 12652      57415245 
 12652      5F444556 
 12652      4943455F 
 12652      50415448 
 12653 8074 01       		.byte	0x1
 12654 8075 50       		.uleb128 0x50
 12655 8076 48575F50 		.ascii "HW_PCI_DP 0x01\0"
 12655      43495F44 
 12655      50203078 
 12655      303100
 12656 8085 01       		.byte	0x1
 12657 8086 57       		.uleb128 0x57
 12658 8087 48575F50 		.ascii "HW_PCCARD_DP 0x02\0"
 12658      43434152 
 12658      445F4450 
 12658      20307830 
 12658      3200
 12659 8099 01       		.byte	0x1
 12660 809a 5D       		.uleb128 0x5d
 12661 809b 48575F4D 		.ascii "HW_MEMMAP_DP 0x03\0"
 12661      454D4D41 
 12661      505F4450 
 12661      20307830 
 12661      3300
 12662 80ad 01       		.byte	0x1
 12663 80ae 65       		.uleb128 0x65
 12664 80af 48575F56 		.ascii "HW_VENDOR_DP 0x04\0"
 12664      454E444F 
 12664      525F4450 
 12664      20307830 
 12664      3400
 12665 80c1 01       		.byte	0x1
 12666 80c2 6B       		.uleb128 0x6b
 12667 80c3 554E4B4E 		.ascii "UNKNOWN_DEVICE_GUID { 0xcf31fac5, 0xc24e, 0x11d2, {0x85, 0xf3, 0x0, 0xa0, 0xc9, 0x3e, 0xc9
 12667      4F574E5F 
 12667      44455649 
 12667      43455F47 
 12667      55494420 
 12668 8127 01       		.byte	0x1
 12669 8128 73       		.uleb128 0x73
 12670 8129 48575F43 		.ascii "HW_CONTROLLER_DP 0x05\0"
 12670      4F4E5452 
 12670      4F4C4C45 
 12670      525F4450 
 12670      20307830 
 12671 813f 01       		.byte	0x1
 12672 8140 7D       		.uleb128 0x7d
 12673 8141 41435049 		.ascii "ACPI_DEVICE_PATH 0x02\0"
 12673      5F444556 
 12673      4943455F 
 12673      50415448 
 12673      20307830 
 12674 8157 01       		.byte	0x1
 12675 8158 7F       		.uleb128 0x7f
 12676 8159 41435049 		.ascii "ACPI_DP 0x01\0"
 12676      5F445020 
 12676      30783031 
 12676      00
 12677 8166 01       		.byte	0x1
 12678 8167 8601     		.uleb128 0x86
 12679 8169 45585041 		.ascii "EXPANDED_ACPI_DP 0x02\0"
 12679      4E444544 
 12679      5F414350 
 12679      495F4450 
 12679      20307830 
 12680 817f 01       		.byte	0x1
 12681 8180 8F01     		.uleb128 0x8f
 12682 8182 41435049 		.ascii "ACPI_ADR_DP 3\0"
 12682      5F414452 
 12682      5F445020 
 12682      3300
 12683 8190 01       		.byte	0x1
 12684 8191 9C01     		.uleb128 0x9c
 12685 8193 504E505F 		.ascii "PNP_EISA_ID_CONST 0x41d0\0"
 12685      45495341 
 12685      5F49445F 
 12685      434F4E53 
 12685      54203078 
 12686 81ac 01       		.byte	0x1
 12687 81ad 9D01     		.uleb128 0x9d
 12688 81af 45495341 		.ascii "EISA_ID(_Name,_Num) ((UINT32) ((_Name) | (_Num) << 16))\0"
 12688      5F494428 
 12688      5F4E616D 
 12688      652C5F4E 
 12688      756D2920 
 12689 81e7 01       		.byte	0x1
 12690 81e8 9E01     		.uleb128 0x9e
 12691 81ea 45495341 		.ascii "EISA_PNP_ID(_PNPId) (EISA_ID(PNP_EISA_ID_CONST, (_PNPId)))\0"
 12691      5F504E50 
 12691      5F494428 
 12691      5F504E50 
 12691      49642920 
 12692 8225 01       		.byte	0x1
 12693 8226 A001     		.uleb128 0xa0
 12694 8228 504E505F 		.ascii "PNP_EISA_ID_MASK 0xffff\0"
 12694      45495341 
 12694      5F49445F 
 12694      4D41534B 
 12694      20307866 
 12695 8240 01       		.byte	0x1
 12696 8241 A101     		.uleb128 0xa1
 12697 8243 45495341 		.ascii "EISA_ID_TO_NUM(_Id) ((_Id) >> 16)\0"
 12697      5F49445F 
 12697      544F5F4E 
 12697      554D285F 
 12697      49642920 
 12698 8265 01       		.byte	0x1
 12699 8266 A701     		.uleb128 0xa7
 12700 8268 4D455353 		.ascii "MESSAGING_DEVICE_PATH 0x03\0"
 12700      4147494E 
 12700      475F4445 
 12700      56494345 
 12700      5F504154 
 12701 8283 01       		.byte	0x1
 12702 8284 A901     		.uleb128 0xa9
 12703 8286 4D53475F 		.ascii "MSG_ATAPI_DP 0x01\0"
 12703      41544150 
 12703      495F4450 
 12703      20307830 
 12703      3100
 12704 8298 01       		.byte	0x1
 12705 8299 B101     		.uleb128 0xb1
 12706 829b 4D53475F 		.ascii "MSG_SCSI_DP 0x02\0"
 12706      53435349 
 12706      5F445020 
 12706      30783032 
 12706      00
 12707 82ac 01       		.byte	0x1
 12708 82ad B801     		.uleb128 0xb8
 12709 82af 4D53475F 		.ascii "MSG_FIBRECHANNEL_DP 0x03\0"
 12709      46494252 
 12709      45434841 
 12709      4E4E454C 
 12709      5F445020 
 12710 82c8 01       		.byte	0x1
 12711 82c9 C401     		.uleb128 0xc4
 12712 82cb 4D53475F 		.ascii "MSG_FIBRECHANNELEX_DP 21\0"
 12712      46494252 
 12712      45434841 
 12712      4E4E454C 
 12712      45585F44 
 12713 82e4 01       		.byte	0x1
 12714 82e5 CC01     		.uleb128 0xcc
 12715 82e7 4D53475F 		.ascii "MSG_1394_DP 0x04\0"
 12715      31333934 
 12715      5F445020 
 12715      30783034 
 12715      00
 12716 82f8 01       		.byte	0x1
 12717 82f9 D301     		.uleb128 0xd3
 12718 82fb 4D53475F 		.ascii "MSG_USB_DP 0x05\0"
 12718      5553425F 
 12718      44502030 
 12718      78303500 
 12719 830b 01       		.byte	0x1
 12720 830c DE01     		.uleb128 0xde
 12721 830e 4D53475F 		.ascii "MSG_SATA_DP 18\0"
 12721      53415441 
 12721      5F445020 
 12721      313800
 12722 831d 01       		.byte	0x1
 12723 831e EA01     		.uleb128 0xea
 12724 8320 4D53475F 		.ascii "MSG_USB_WWID_DP 16\0"
 12724      5553425F 
 12724      57574944 
 12724      5F445020 
 12724      313600
 12725 8333 01       		.byte	0x1
 12726 8334 F701     		.uleb128 0xf7
 12727 8336 4D53475F 		.ascii "MSG_DEVICE_LOGICAL_UNIT_DP 17\0"
 12727      44455649 
 12727      43455F4C 
 12727      4F474943 
 12727      414C5F55 
 12728 8354 01       		.byte	0x1
 12729 8355 FD01     		.uleb128 0xfd
 12730 8357 4D53475F 		.ascii "MSG_USB_CLASS_DP 0x0F\0"
 12730      5553425F 
 12730      434C4153 
 12730      535F4450 
 12730      20307830 
 12731 836d 01       		.byte	0x1
 12732 836e 8702     		.uleb128 0x107
 12733 8370 4D53475F 		.ascii "MSG_I2O_DP 0x06\0"
 12733      49324F5F 
 12733      44502030 
 12733      78303600 
 12734 8380 01       		.byte	0x1
 12735 8381 8D02     		.uleb128 0x10d
 12736 8383 4D53475F 		.ascii "MSG_MAC_ADDR_DP 0x0b\0"
 12736      4D41435F 
 12736      41444452 
 12736      5F445020 
 12736      30783062 
 12737 8398 01       		.byte	0x1
 12738 8399 9402     		.uleb128 0x114
 12739 839b 4D53475F 		.ascii "MSG_IPv4_DP 0x0c\0"
 12739      49507634 
 12739      5F445020 
 12739      30783063 
 12739      00
 12740 83ac 01       		.byte	0x1
 12741 83ad A202     		.uleb128 0x122
 12742 83af 4D53475F 		.ascii "MSG_IPv6_DP 0x0d\0"
 12742      49507636 
 12742      5F445020 
 12742      30783064 
 12742      00
 12743 83c0 01       		.byte	0x1
 12744 83c1 B502     		.uleb128 0x135
 12745 83c3 4D53475F 		.ascii "MSG_URI_DP 24\0"
 12745      5552495F 
 12745      44502032 
 12745      3400
 12746 83d1 01       		.byte	0x1
 12747 83d2 BF02     		.uleb128 0x13f
 12748 83d4 4D53475F 		.ascii "MSG_VLAN_DP 20\0"
 12748      564C414E 
 12748      5F445020 
 12748      323000
 12749 83e3 01       		.byte	0x1
 12750 83e4 C502     		.uleb128 0x145
 12751 83e6 4D53475F 		.ascii "MSG_INFINIBAND_DP 0x09\0"
 12751      494E4649 
 12751      4E494241 
 12751      4E445F44 
 12751      50203078 
 12752 83fd 01       		.byte	0x1
 12753 83fe CF02     		.uleb128 0x14f
 12754 8400 4D53475F 		.ascii "MSG_UART_DP 0x0e\0"
 12754      55415254 
 12754      5F445020 
 12754      30783065 
 12754      00
 12755 8411 01       		.byte	0x1
 12756 8412 D902     		.uleb128 0x159
 12757 8414 4D53475F 		.ascii "MSG_VENDOR_DP 0x0A\0"
 12757      56454E44 
 12757      4F525F44 
 12757      50203078 
 12757      304100
 12758 8427 01       		.byte	0x1
 12759 8428 DC02     		.uleb128 0x15c
 12760 842a 4546495F 		.ascii "EFI_PC_ANSI_GUID { 0xe0c14753, 0xf9be, 0x11d2, {0x9a, 0x0c, 0x00, 0x90, 0x27, 0x3f, 0xc1, 
 12760      50435F41 
 12760      4E53495F 
 12760      47554944 
 12760      207B2030 
 12761 848c 01       		.byte	0x1
 12762 848d DE02     		.uleb128 0x15e
 12763 848f 44455649 		.ascii "DEVICE_PATH_MESSAGING_PC_ANSI EFI_PC_ANSI_GUID\0"
 12763      43455F50 
 12763      4154485F 
 12763      4D455353 
 12763      4147494E 
 12764 84be 01       		.byte	0x1
 12765 84bf E002     		.uleb128 0x160
 12766 84c1 4546495F 		.ascii "EFI_VT_100_GUID { 0xdfa66065, 0xb419, 0x11d3, {0x9a, 0x2d, 0x00, 0x90, 0x27, 0x3f, 0xc1, 0
 12766      56545F31 
 12766      30305F47 
 12766      55494420 
 12766      7B203078 
 12767 8522 01       		.byte	0x1
 12768 8523 E202     		.uleb128 0x162
 12769 8525 44455649 		.ascii "DEVICE_PATH_MESSAGING_VT_100 EFI_VT_100_GUID\0"
 12769      43455F50 
 12769      4154485F 
 12769      4D455353 
 12769      4147494E 
 12770 8552 01       		.byte	0x1
 12771 8553 E402     		.uleb128 0x164
 12772 8555 4546495F 		.ascii "EFI_VT_100_PLUS_GUID { 0x7baec70b, 0x57e0, 0x4c76, {0x8e, 0x87, 0x2f, 0x9e, 0x28, 0x08, 0x
 12772      56545F31 
 12772      30305F50 
 12772      4C55535F 
 12772      47554944 
 12773 85bb 01       		.byte	0x1
 12774 85bc E602     		.uleb128 0x166
 12775 85be 44455649 		.ascii "DEVICE_PATH_MESSAGING_VT_100_PLUS EFI_VT_100_PLUS_GUID\0"
 12775      43455F50 
 12775      4154485F 
 12775      4D455353 
 12775      4147494E 
 12776 85f5 01       		.byte	0x1
 12777 85f6 E802     		.uleb128 0x168
 12778 85f8 4546495F 		.ascii "EFI_VT_UTF8_GUID { 0xad15a0d6, 0x8bec, 0x4acf, {0xa0, 0x73, 0xd0, 0x1d, 0xe7, 0x7e, 0x2d, 
 12778      56545F55 
 12778      5446385F 
 12778      47554944 
 12778      207B2030 
 12779 865a 01       		.byte	0x1
 12780 865b EA02     		.uleb128 0x16a
 12781 865d 44455649 		.ascii "DEVICE_PATH_MESSAGING_VT_UTF8 EFI_VT_UTF8_GUID\0"
 12781      43455F50 
 12781      4154485F 
 12781      4D455353 
 12781      4147494E 
 12782 868c 01       		.byte	0x1
 12783 868d F002     		.uleb128 0x170
 12784 868f 4D454449 		.ascii "MEDIA_DEVICE_PATH 0x04\0"
 12784      415F4445 
 12784      56494345 
 12784      5F504154 
 12784      48203078 
 12785 86a6 01       		.byte	0x1
 12786 86a7 F202     		.uleb128 0x172
 12787 86a9 4D454449 		.ascii "MEDIA_HARDDRIVE_DP 0x01\0"
 12787      415F4841 
 12787      52444452 
 12787      4956455F 
 12787      44502030 
 12788 86c1 01       		.byte	0x1
 12789 86c2 FD02     		.uleb128 0x17d
 12790 86c4 4D42525F 		.ascii "MBR_TYPE_PCAT 0x01\0"
 12790      54595045 
 12790      5F504341 
 12790      54203078 
 12790      303100
 12791 86d7 01       		.byte	0x1
 12792 86d8 FE02     		.uleb128 0x17e
 12793 86da 4D42525F 		.ascii "MBR_TYPE_EFI_PARTITION_TABLE_HEADER 0x02\0"
 12793      54595045 
 12793      5F454649 
 12793      5F504152 
 12793      54495449 
 12794 8703 01       		.byte	0x1
 12795 8704 8003     		.uleb128 0x180
 12796 8706 5349474E 		.ascii "SIGNATURE_TYPE_MBR 0x01\0"
 12796      41545552 
 12796      455F5459 
 12796      50455F4D 
 12796      42522030 
 12797 871e 01       		.byte	0x1
 12798 871f 8103     		.uleb128 0x181
 12799 8721 5349474E 		.ascii "SIGNATURE_TYPE_GUID 0x02\0"
 12799      41545552 
 12799      455F5459 
 12799      50455F47 
 12799      55494420 
 12800 873a 01       		.byte	0x1
 12801 873b 8303     		.uleb128 0x183
 12802 873d 4D454449 		.ascii "MEDIA_CDROM_DP 0x02\0"
 12802      415F4344 
 12802      524F4D5F 
 12802      44502030 
 12802      78303200 
 12803 8751 01       		.byte	0x1
 12804 8752 8B03     		.uleb128 0x18b
 12805 8754 4D454449 		.ascii "MEDIA_VENDOR_DP 0x03\0"
 12805      415F5645 
 12805      4E444F52 
 12805      5F445020 
 12805      30783033 
 12806 8769 01       		.byte	0x1
 12807 876a 8E03     		.uleb128 0x18e
 12808 876c 4D454449 		.ascii "MEDIA_FILEPATH_DP 0x04\0"
 12808      415F4649 
 12808      4C455041 
 12808      54485F44 
 12808      50203078 
 12809 8783 01       		.byte	0x1
 12810 8784 9403     		.uleb128 0x194
 12811 8786 53495A45 		.ascii "SIZE_OF_FILEPATH_DEVICE_PATH EFI_FIELD_OFFSET(FILEPATH_DEVICE_PATH,PathName)\0"
 12811      5F4F465F 
 12811      46494C45 
 12811      50415448 
 12811      5F444556 
 12812 87d3 01       		.byte	0x1
 12813 87d4 9603     		.uleb128 0x196
 12814 87d6 4D454449 		.ascii "MEDIA_PROTOCOL_DP 0x05\0"
 12814      415F5052 
 12814      4F544F43 
 12814      4F4C5F44 
 12814      50203078 
 12815 87ed 01       		.byte	0x1
 12816 87ee A003     		.uleb128 0x1a0
 12817 87f0 4D454449 		.ascii "MEDIA_PIWG_FW_FILE_DP 6\0"
 12817      415F5049 
 12817      57475F46 
 12817      575F4649 
 12817      4C455F44 
 12818 8808 01       		.byte	0x1
 12819 8809 AA03     		.uleb128 0x1aa
 12820 880b 4D454449 		.ascii "MEDIA_PIWG_FW_VOL_DP 7\0"
 12820      415F5049 
 12820      57475F46 
 12820      575F564F 
 12820      4C5F4450 
 12821 8822 01       		.byte	0x1
 12822 8823 B403     		.uleb128 0x1b4
 12823 8825 4D454449 		.ascii "MEDIA_RELATIVE_OFFSET_RANGE_DP 8\0"
 12823      415F5245 
 12823      4C415449 
 12823      56455F4F 
 12823      46465345 
 12824 8846 01       		.byte	0x1
 12825 8847 C003     		.uleb128 0x1c0
 12826 8849 4242535F 		.ascii "BBS_DEVICE_PATH 0x05\0"
 12826      44455649 
 12826      43455F50 
 12826      41544820 
 12826      30783035 
 12827 885e 01       		.byte	0x1
 12828 885f C203     		.uleb128 0x1c2
 12829 8861 4242535F 		.ascii "BBS_BBS_DP 0x01\0"
 12829      4242535F 
 12829      44502030 
 12829      78303100 
 12830 8871 01       		.byte	0x1
 12831 8872 CB03     		.uleb128 0x1cb
 12832 8874 4242535F 		.ascii "BBS_TYPE_FLOPPY 0x01\0"
 12832      54595045 
 12832      5F464C4F 
 12832      50505920 
 12832      30783031 
 12833 8889 01       		.byte	0x1
 12834 888a CC03     		.uleb128 0x1cc
 12835 888c 4242535F 		.ascii "BBS_TYPE_HARDDRIVE 0x02\0"
 12835      54595045 
 12835      5F484152 
 12835      44445249 
 12835      56452030 
 12836 88a4 01       		.byte	0x1
 12837 88a5 CD03     		.uleb128 0x1cd
 12838 88a7 4242535F 		.ascii "BBS_TYPE_CDROM 0x03\0"
 12838      54595045 
 12838      5F434452 
 12838      4F4D2030 
 12838      78303300 
 12839 88bb 01       		.byte	0x1
 12840 88bc CE03     		.uleb128 0x1ce
 12841 88be 4242535F 		.ascii "BBS_TYPE_PCMCIA 0x04\0"
 12841      54595045 
 12841      5F50434D 
 12841      43494120 
 12841      30783034 
 12842 88d3 01       		.byte	0x1
 12843 88d4 CF03     		.uleb128 0x1cf
 12844 88d6 4242535F 		.ascii "BBS_TYPE_USB 0x05\0"
 12844      54595045 
 12844      5F555342 
 12844      20307830 
 12844      3500
 12845 88e8 01       		.byte	0x1
 12846 88e9 D003     		.uleb128 0x1d0
 12847 88eb 4242535F 		.ascii "BBS_TYPE_EMBEDDED_NETWORK 0x06\0"
 12847      54595045 
 12847      5F454D42 
 12847      45444445 
 12847      445F4E45 
 12848 890a 01       		.byte	0x1
 12849 890b D103     		.uleb128 0x1d1
 12850 890d 4242535F 		.ascii "BBS_TYPE_DEV 0x80\0"
 12850      54595045 
 12850      5F444556 
 12850      20307838 
 12850      3000
 12851 891f 01       		.byte	0x1
 12852 8920 D203     		.uleb128 0x1d2
 12853 8922 4242535F 		.ascii "BBS_TYPE_UNKNOWN 0xFF\0"
 12853      54595045 
 12853      5F554E4B 
 12853      4E4F574E 
 12853      20307846 
 12854 8938 01       		.byte	0x1
 12855 8939 9A04     		.uleb128 0x21a
 12856 893b 4546495F 		.ascii "EFI_DEVICE_PATH_TO_TEXT_PROTOCOL_GUID { 0x8b843e20, 0x8132, 0x4852, {0x90, 0xcc, 0x55, 0x1
 12856      44455649 
 12856      43455F50 
 12856      4154485F 
 12856      544F5F54 
 12857 89b2 01       		.byte	0x1
 12858 89b3 B204     		.uleb128 0x232
 12859 89b5 4546495F 		.ascii "EFI_DEVICE_PATH_FROM_TEXT_PROTOCOL_GUID { 0x5c99a21, 0xc70f, 0x4ad2, {0x8a, 0x5f, 0x35, 0x
 12859      44455649 
 12859      43455F50 
 12859      4154485F 
 12859      46524F4D 
 12860 8a2d 01       		.byte	0x1
 12861 8a2e C604     		.uleb128 0x246
 12862 8a30 4546495F 		.ascii "EFI_DEVICE_PATH_UTILITIES_PROTOCOL_GUID { 0x379be4e, 0xd706, 0x437d, {0xb0, 0x37, 0xed, 0x
 12862      44455649 
 12862      43455F50 
 12862      4154485F 
 12862      5554494C 
 12863 8aa8 04       		.byte	0x4
 12864              		.file 26 "gnu-efi-3.0.18/inc/efipciio.h"
 12865 8aa9 03       		.byte	0x3
 12866 8aaa 44       		.uleb128 0x44
 12867 8aab 1A       		.uleb128 0x1a
 12868 8aac 01       		.byte	0x1
 12869 8aad 02       		.uleb128 0x2
 12870 8aae 5F454649 		.ascii "_EFI_PCI_IO_H \0"
 12870      5F504349 
 12870      5F494F5F 
 12870      482000
 12871 8abd 01       		.byte	0x1
 12872 8abe 04       		.uleb128 0x4
 12873 8abf 4546495F 		.ascii "EFI_PCI_IO_PROTOCOL_GUID { 0x4cf5b200, 0x68b8, 0x4ca5, {0x9e, 0xec, 0xb2, 0x3e, 0x3f, 0x50
 12873      5043495F 
 12873      494F5F50 
 12873      524F544F 
 12873      434F4C5F 
 12874 8b29 01       		.byte	0x1
 12875 8b2a 07       		.uleb128 0x7
 12876 8b2b 4546495F 		.ascii "EFI_PCI_ROOT_BRIDGE_IO_PROTOCOL_GUID { 0x2f707ebb, 0x4a1a, 0x11d4, {0x9a, 0x38, 0x00, 0x90
 12876      5043495F 
 12876      524F4F54 
 12876      5F425249 
 12876      4447455F 
 12877 8ba1 01       		.byte	0x1
 12878 8ba2 1D       		.uleb128 0x1d
 12879 8ba3 4546495F 		.ascii "EFI_PCI_IO_PASS_THROUGH_BAR 0xff\0"
 12879      5043495F 
 12879      494F5F50 
 12879      4153535F 
 12879      5448524F 
 12880 8bc4 01       		.byte	0x1
 12881 8bc5 F401     		.uleb128 0xf4
 12882 8bc7 4546495F 		.ascii "EFI_PCI_ATTRIBUTE_ISA_MOTHERBOARD_IO 0x0001\0"
 12882      5043495F 
 12882      41545452 
 12882      49425554 
 12882      455F4953 
 12883 8bf3 01       		.byte	0x1
 12884 8bf4 F501     		.uleb128 0xf5
 12885 8bf6 4546495F 		.ascii "EFI_PCI_ATTRIBUTE_ISA_IO 0x0002\0"
 12885      5043495F 
 12885      41545452 
 12885      49425554 
 12885      455F4953 
 12886 8c16 01       		.byte	0x1
 12887 8c17 F601     		.uleb128 0xf6
 12888 8c19 4546495F 		.ascii "EFI_PCI_ATTRIBUTE_VGA_PALETTE_IO 0x0004\0"
 12888      5043495F 
 12888      41545452 
 12888      49425554 
 12888      455F5647 
 12889 8c41 01       		.byte	0x1
 12890 8c42 F701     		.uleb128 0xf7
 12891 8c44 4546495F 		.ascii "EFI_PCI_ATTRIBUTE_VGA_MEMORY 0x0008\0"
 12891      5043495F 
 12891      41545452 
 12891      49425554 
 12891      455F5647 
 12892 8c68 01       		.byte	0x1
 12893 8c69 F801     		.uleb128 0xf8
 12894 8c6b 4546495F 		.ascii "EFI_PCI_ATTRIBUTE_VGA_IO 0x0010\0"
 12894      5043495F 
 12894      41545452 
 12894      49425554 
 12894      455F5647 
 12895 8c8b 01       		.byte	0x1
 12896 8c8c F901     		.uleb128 0xf9
 12897 8c8e 4546495F 		.ascii "EFI_PCI_ATTRIBUTE_IDE_PRIMARY_IO 0x0020\0"
 12897      5043495F 
 12897      41545452 
 12897      49425554 
 12897      455F4944 
 12898 8cb6 01       		.byte	0x1
 12899 8cb7 FA01     		.uleb128 0xfa
 12900 8cb9 4546495F 		.ascii "EFI_PCI_ATTRIBUTE_IDE_SECONDARY_IO 0x0040\0"
 12900      5043495F 
 12900      41545452 
 12900      49425554 
 12900      455F4944 
 12901 8ce3 01       		.byte	0x1
 12902 8ce4 FB01     		.uleb128 0xfb
 12903 8ce6 4546495F 		.ascii "EFI_PCI_ATTRIBUTE_MEMORY_WRITE_COMBINE 0x0080\0"
 12903      5043495F 
 12903      41545452 
 12903      49425554 
 12903      455F4D45 
 12904 8d14 01       		.byte	0x1
 12905 8d15 FC01     		.uleb128 0xfc
 12906 8d17 4546495F 		.ascii "EFI_PCI_ATTRIBUTE_IO 0x0100\0"
 12906      5043495F 
 12906      41545452 
 12906      49425554 
 12906      455F494F 
 12907 8d33 01       		.byte	0x1
 12908 8d34 FD01     		.uleb128 0xfd
 12909 8d36 4546495F 		.ascii "EFI_PCI_ATTRIBUTE_MEMORY 0x0200\0"
 12909      5043495F 
 12909      41545452 
 12909      49425554 
 12909      455F4D45 
 12910 8d56 01       		.byte	0x1
 12911 8d57 FE01     		.uleb128 0xfe
 12912 8d59 4546495F 		.ascii "EFI_PCI_ATTRIBUTE_BUS_MASTER 0x0400\0"
 12912      5043495F 
 12912      41545452 
 12912      49425554 
 12912      455F4255 
 12913 8d7d 01       		.byte	0x1
 12914 8d7e FF01     		.uleb128 0xff
 12915 8d80 4546495F 		.ascii "EFI_PCI_ATTRIBUTE_MEMORY_CACHED 0x0800\0"
 12915      5043495F 
 12915      41545452 
 12915      49425554 
 12915      455F4D45 
 12916 8da7 01       		.byte	0x1
 12917 8da8 8002     		.uleb128 0x100
 12918 8daa 4546495F 		.ascii "EFI_PCI_ATTRIBUTE_MEMORY_DISABLE 0x1000\0"
 12918      5043495F 
 12918      41545452 
 12918      49425554 
 12918      455F4D45 
 12919 8dd2 01       		.byte	0x1
 12920 8dd3 8102     		.uleb128 0x101
 12921 8dd5 4546495F 		.ascii "EFI_PCI_ATTRIBUTE_EMBEDDED_DEVICE 0x2000\0"
 12921      5043495F 
 12921      41545452 
 12921      49425554 
 12921      455F454D 
 12922 8dfe 01       		.byte	0x1
 12923 8dff 8202     		.uleb128 0x102
 12924 8e01 4546495F 		.ascii "EFI_PCI_ATTRIBUTE_EMBEDDED_ROM 0x4000\0"
 12924      5043495F 
 12924      41545452 
 12924      49425554 
 12924      455F454D 
 12925 8e27 01       		.byte	0x1
 12926 8e28 8302     		.uleb128 0x103
 12927 8e2a 4546495F 		.ascii "EFI_PCI_ATTRIBUTE_DUAL_ADDRESS_CYCLE 0x8000\0"
 12927      5043495F 
 12927      41545452 
 12927      49425554 
 12927      455F4455 
 12928 8e56 01       		.byte	0x1
 12929 8e57 8402     		.uleb128 0x104
 12930 8e59 4546495F 		.ascii "EFI_PCI_ATTRIBUTE_ISA_IO_16 0x10000\0"
 12930      5043495F 
 12930      41545452 
 12930      49425554 
 12930      455F4953 
 12931 8e7d 01       		.byte	0x1
 12932 8e7e 8502     		.uleb128 0x105
 12933 8e80 4546495F 		.ascii "EFI_PCI_ATTRIBUTE_VGA_PALETTE_IO_16 0x20000\0"
 12933      5043495F 
 12933      41545452 
 12933      49425554 
 12933      455F5647 
 12934 8eac 01       		.byte	0x1
 12935 8ead 8602     		.uleb128 0x106
 12936 8eaf 4546495F 		.ascii "EFI_PCI_ATTRIBUTE_VGA_IO_16 0x40000\0"
 12936      5043495F 
 12936      41545452 
 12936      49425554 
 12936      455F5647 
 12937 8ed3 01       		.byte	0x1
 12938 8ed4 8802     		.uleb128 0x108
 12939 8ed6 4546495F 		.ascii "EFI_PCI_IO_ATTRIBUTE_ISA_MOTHERBOARD_IO EFI_PCI_ATTRIBUTE_ISA_MOTHERBOARD_IO\0"
 12939      5043495F 
 12939      494F5F41 
 12939      54545249 
 12939      42555445 
 12940 8f23 01       		.byte	0x1
 12941 8f24 8902     		.uleb128 0x109
 12942 8f26 4546495F 		.ascii "EFI_PCI_IO_ATTRIBUTE_ISA_IO EFI_PCI_ATTRIBUTE_ISA_IO\0"
 12942      5043495F 
 12942      494F5F41 
 12942      54545249 
 12942      42555445 
 12943 8f5b 01       		.byte	0x1
 12944 8f5c 8A02     		.uleb128 0x10a
 12945 8f5e 4546495F 		.ascii "EFI_PCI_IO_ATTRIBUTE_VGA_PALETTE_IO EFI_PCI_ATTRIBUTE_VGA_PALETTE_IO\0"
 12945      5043495F 
 12945      494F5F41 
 12945      54545249 
 12945      42555445 
 12946 8fa3 01       		.byte	0x1
 12947 8fa4 8B02     		.uleb128 0x10b
 12948 8fa6 4546495F 		.ascii "EFI_PCI_IO_ATTRIBUTE_VGA_MEMORY EFI_PCI_ATTRIBUTE_VGA_MEMORY\0"
 12948      5043495F 
 12948      494F5F41 
 12948      54545249 
 12948      42555445 
 12949 8fe3 01       		.byte	0x1
 12950 8fe4 8C02     		.uleb128 0x10c
 12951 8fe6 4546495F 		.ascii "EFI_PCI_IO_ATTRIBUTE_VGA_IO EFI_PCI_ATTRIBUTE_VGA_IO\0"
 12951      5043495F 
 12951      494F5F41 
 12951      54545249 
 12951      42555445 
 12952 901b 01       		.byte	0x1
 12953 901c 8D02     		.uleb128 0x10d
 12954 901e 4546495F 		.ascii "EFI_PCI_IO_ATTRIBUTE_IDE_PRIMARY_IO EFI_PCI_ATTRIBUTE_IDE_PRIMARY_IO\0"
 12954      5043495F 
 12954      494F5F41 
 12954      54545249 
 12954      42555445 
 12955 9063 01       		.byte	0x1
 12956 9064 8E02     		.uleb128 0x10e
 12957 9066 4546495F 		.ascii "EFI_PCI_IO_ATTRIBUTE_IDE_SECONDARY_IO EFI_PCI_ATTRIBUTE_IDE_SECONDARY_IO\0"
 12957      5043495F 
 12957      494F5F41 
 12957      54545249 
 12957      42555445 
 12958 90af 01       		.byte	0x1
 12959 90b0 8F02     		.uleb128 0x10f
 12960 90b2 4546495F 		.ascii "EFI_PCI_IO_ATTRIBUTE_MEMORY_WRITE_COMBINE EFI_PCI_ATTRIBUTE_MEMORY_WRITE_COMBINE\0"
 12960      5043495F 
 12960      494F5F41 
 12960      54545249 
 12960      42555445 
 12961 9103 01       		.byte	0x1
 12962 9104 9002     		.uleb128 0x110
 12963 9106 4546495F 		.ascii "EFI_PCI_IO_ATTRIBUTE_IO EFI_PCI_ATTRIBUTE_IO\0"
 12963      5043495F 
 12963      494F5F41 
 12963      54545249 
 12963      42555445 
 12964 9133 01       		.byte	0x1
 12965 9134 9102     		.uleb128 0x111
 12966 9136 4546495F 		.ascii "EFI_PCI_IO_ATTRIBUTE_MEMORY EFI_PCI_ATTRIBUTE_MEMORY\0"
 12966      5043495F 
 12966      494F5F41 
 12966      54545249 
 12966      42555445 
 12967 916b 01       		.byte	0x1
 12968 916c 9202     		.uleb128 0x112
 12969 916e 4546495F 		.ascii "EFI_PCI_IO_ATTRIBUTE_BUS_MASTER EFI_PCI_ATTRIBUTE_BUS_MASTER\0"
 12969      5043495F 
 12969      494F5F41 
 12969      54545249 
 12969      42555445 
 12970 91ab 01       		.byte	0x1
 12971 91ac 9302     		.uleb128 0x113
 12972 91ae 4546495F 		.ascii "EFI_PCI_IO_ATTRIBUTE_MEMORY_CACHED EFI_PCI_ATTRIBUTE_MEMORY_CACHED\0"
 12972      5043495F 
 12972      494F5F41 
 12972      54545249 
 12972      42555445 
 12973 91f1 01       		.byte	0x1
 12974 91f2 9402     		.uleb128 0x114
 12975 91f4 4546495F 		.ascii "EFI_PCI_IO_ATTRIBUTE_MEMORY_DISABLE EFI_PCI_ATTRIBUTE_MEMORY_DISABLE\0"
 12975      5043495F 
 12975      494F5F41 
 12975      54545249 
 12975      42555445 
 12976 9239 01       		.byte	0x1
 12977 923a 9502     		.uleb128 0x115
 12978 923c 4546495F 		.ascii "EFI_PCI_IO_ATTRIBUTE_EMBEDDED_DEVICE EFI_PCI_ATTRIBUTE_EMBEDDED_DEVICE\0"
 12978      5043495F 
 12978      494F5F41 
 12978      54545249 
 12978      42555445 
 12979 9283 01       		.byte	0x1
 12980 9284 9602     		.uleb128 0x116
 12981 9286 4546495F 		.ascii "EFI_PCI_IO_ATTRIBUTE_EMBEDDED_ROM EFI_PCI_ATTRIBUTE_EMBEDDED_ROM\0"
 12981      5043495F 
 12981      494F5F41 
 12981      54545249 
 12981      42555445 
 12982 92c7 01       		.byte	0x1
 12983 92c8 9702     		.uleb128 0x117
 12984 92ca 4546495F 		.ascii "EFI_PCI_IO_ATTRIBUTE_DUAL_ADDRESS_CYCLE EFI_PCI_ATTRIBUTE_DUAL_ADDRESS_CYCLE\0"
 12984      5043495F 
 12984      494F5F41 
 12984      54545249 
 12984      42555445 
 12985 9317 01       		.byte	0x1
 12986 9318 9802     		.uleb128 0x118
 12987 931a 4546495F 		.ascii "EFI_PCI_IO_ATTRIBUTE_ISA_IO_16 EFI_PCI_ATTRIBUTE_ISA_IO_16\0"
 12987      5043495F 
 12987      494F5F41 
 12987      54545249 
 12987      42555445 
 12988 9355 01       		.byte	0x1
 12989 9356 9902     		.uleb128 0x119
 12990 9358 4546495F 		.ascii "EFI_PCI_IO_ATTRIBUTE_VGA_PALETTE_IO_16 EFI_PCI_ATTRIBUTE_VGA_PALETTE_IO_16\0"
 12990      5043495F 
 12990      494F5F41 
 12990      54545249 
 12990      42555445 
 12991 93a3 01       		.byte	0x1
 12992 93a4 9A02     		.uleb128 0x11a
 12993 93a6 4546495F 		.ascii "EFI_PCI_IO_ATTRIBUTE_VGA_IO_16 EFI_PCI_ATTRIBUTE_VGA_IO_16\0"
 12993      5043495F 
 12993      494F5F41 
 12993      54545249 
 12993      42555445 
 12994 93e1 01       		.byte	0x1
 12995 93e2 9C02     		.uleb128 0x11c
 12996 93e4 4546495F 		.ascii "EFI_PCI_ATTRIBUTE_VALID_FOR_ALLOCATE_BUFFER (EFI_PCI_ATTRIBUTE_MEMORY_WRITE_COMBINE | EFI_
 12996      5043495F 
 12996      41545452 
 12996      49425554 
 12996      455F5641 
 12997 9482 01       		.byte	0x1
 12998 9483 9F02     		.uleb128 0x11f
 12999 9485 4546495F 		.ascii "EFI_PCI_ATTRIBUTE_INVALID_FOR_ALLOCATE_BUFFER (~EFI_PCI_ATTRIBUTE_VALID_FOR_ALLOCATE_BUFFE
 12999      5043495F 
 12999      41545452 
 12999      49425554 
 12999      455F494E 
 13000 94e2 04       		.byte	0x4
 13001 94e3 03       		.byte	0x3
 13002 94e4 45       		.uleb128 0x45
 13003 94e5 07       		.uleb128 0x7
 13004 94e6 01       		.byte	0x1
 13005 94e7 02       		.uleb128 0x2
 13006 94e8 5F454649 		.ascii "_EFI_PROT_H \0"
 13006      5F50524F 
 13006      545F4820 
 13006      00
 13007 94f5 01       		.byte	0x1
 13008 94f6 19       		.uleb128 0x19
 13009 94f7 4546495F 		.ascii "EFI_FPSWA_PROTOCOL_GUID { 0xc41b6531, 0x97b9, 0x11d3, {0x9a, 0x29, 0x0, 0x90, 0x27, 0x3f, 
 13009      46505357 
 13009      415F5052 
 13009      4F544F43 
 13009      4F4C5F47 
 13010 955f 01       		.byte	0x1
 13011 9560 1B       		.uleb128 0x1b
 13012 9561 46505357 		.ascii "FPSWA_PROTOCOL EFI_FPSWA_PROTOCOL_GUID\0"
 13012      415F5052 
 13012      4F544F43 
 13012      4F4C2045 
 13012      46495F46 
 13013 9588 01       		.byte	0x1
 13014 9589 21       		.uleb128 0x21
 13015 958a 4546495F 		.ascii "EFI_DEVICE_PATH_PROTOCOL_GUID { 0x9576e91, 0x6d3f, 0x11d2, {0x8e, 0x39, 0x0, 0xa0, 0xc9, 0
 13015      44455649 
 13015      43455F50 
 13015      4154485F 
 13015      50524F54 
 13016 95f7 01       		.byte	0x1
 13017 95f8 23       		.uleb128 0x23
 13018 95f9 44455649 		.ascii "DEVICE_PATH_PROTOCOL EFI_DEVICE_PATH_PROTOCOL_GUID\0"
 13018      43455F50 
 13018      4154485F 
 13018      50524F54 
 13018      4F434F4C 
 13019 962c 01       		.byte	0x1
 13020 962d 2A       		.uleb128 0x2a
 13021 962e 4546495F 		.ascii "EFI_BLOCK_IO_PROTOCOL_GUID { 0x964e5b21, 0x6459, 0x11d2, {0x8e, 0x39, 0x0, 0xa0, 0xc9, 0x6
 13021      424C4F43 
 13021      4B5F494F 
 13021      5F50524F 
 13021      544F434F 
 13022 9699 01       		.byte	0x1
 13023 969a 2C       		.uleb128 0x2c
 13024 969b 424C4F43 		.ascii "BLOCK_IO_PROTOCOL EFI_BLOCK_IO_PROTOCOL_GUID\0"
 13024      4B5F494F 
 13024      5F50524F 
 13024      544F434F 
 13024      4C204546 
 13025 96c8 01       		.byte	0x1
 13026 96c9 2E       		.uleb128 0x2e
 13027 96ca 4546495F 		.ascii "EFI_BLOCK_IO_PROTOCOL_REVISION 0x00010000\0"
 13027      424C4F43 
 13027      4B5F494F 
 13027      5F50524F 
 13027      544F434F 
 13028 96f4 01       		.byte	0x1
 13029 96f5 2F       		.uleb128 0x2f
 13030 96f6 4546495F 		.ascii "EFI_BLOCK_IO_PROTOCOL_REVISION2 0x00020001\0"
 13030      424C4F43 
 13030      4B5F494F 
 13030      5F50524F 
 13030      544F434F 
 13031 9721 01       		.byte	0x1
 13032 9722 30       		.uleb128 0x30
 13033 9723 4546495F 		.ascii "EFI_BLOCK_IO_PROTOCOL_REVISION3 ((2<<16) | 31)\0"
 13033      424C4F43 
 13033      4B5F494F 
 13033      5F50524F 
 13033      544F434F 
 13034 9752 01       		.byte	0x1
 13035 9753 31       		.uleb128 0x31
 13036 9754 4546495F 		.ascii "EFI_BLOCK_IO_INTERFACE_REVISION EFI_BLOCK_IO_PROTOCOL_REVISION\0"
 13036      424C4F43 
 13036      4B5F494F 
 13036      5F494E54 
 13036      45524641 
 13037 9793 01       		.byte	0x1
 13038 9794 32       		.uleb128 0x32
 13039 9795 4546495F 		.ascii "EFI_BLOCK_IO_INTERFACE_REVISION2 EFI_BLOCK_IO_PROTOCOL_REVISION2\0"
 13039      424C4F43 
 13039      4B5F494F 
 13039      5F494E54 
 13039      45524641 
 13040 97d6 01       		.byte	0x1
 13041 97d7 33       		.uleb128 0x33
 13042 97d8 4546495F 		.ascii "EFI_BLOCK_IO_INTERFACE_REVISION3 EFI_BLOCK_IO_PROTOCOL_REVISION3\0"
 13042      424C4F43 
 13042      4B5F494F 
 13042      5F494E54 
 13042      45524641 
 13043 9819 01       		.byte	0x1
 13044 981a 8001     		.uleb128 0x80
 13045 981c 4546495F 		.ascii "EFI_BLOCK_IO2_PROTOCOL_GUID { 0xa77b2472, 0xe282, 0x4e9f, {0xa2, 0x45, 0xc2, 0xc0, 0xe2, 0
 13045      424C4F43 
 13045      4B5F494F 
 13045      325F5052 
 13045      4F544F43 
 13046 9889 01       		.byte	0x1
 13047 988a BA01     		.uleb128 0xba
 13048 988c 4546495F 		.ascii "EFI_DISK_IO_PROTOCOL_GUID { 0xce345171, 0xba0b, 0x11d2, {0x8e, 0x4f, 0x0, 0xa0, 0xc9, 0x69
 13048      4449534B 
 13048      5F494F5F 
 13048      50524F54 
 13048      4F434F4C 
 13049 98f6 01       		.byte	0x1
 13050 98f7 BC01     		.uleb128 0xbc
 13051 98f9 4449534B 		.ascii "DISK_IO_PROTOCOL EFI_DISK_IO_PROTOCOL_GUID\0"
 13051      5F494F5F 
 13051      50524F54 
 13051      4F434F4C 
 13051      20454649 
 13052 9924 01       		.byte	0x1
 13053 9925 BE01     		.uleb128 0xbe
 13054 9927 4546495F 		.ascii "EFI_DISK_IO_PROTOCOL_REVISION 0x00010000\0"
 13054      4449534B 
 13054      5F494F5F 
 13054      50524F54 
 13054      4F434F4C 
 13055 9950 01       		.byte	0x1
 13056 9951 BF01     		.uleb128 0xbf
 13057 9953 4546495F 		.ascii "EFI_DISK_IO_INTERFACE_REVISION EFI_DISK_IO_PROTOCOL_REVISION\0"
 13057      4449534B 
 13057      5F494F5F 
 13057      494E5445 
 13057      52464143 
 13058 9990 01       		.byte	0x1
 13059 9991 E301     		.uleb128 0xe3
 13060 9993 4546495F 		.ascii "EFI_DISK_IO2_PROTOCOL_GUID { 0x151c8eae, 0x7f2c, 0x472c, {0x9e, 0x54, 0x98, 0x28, 0x19, 0x
 13060      4449534B 
 13060      5F494F32 
 13060      5F50524F 
 13060      544F434F 
 13061 99ff 01       		.byte	0x1
 13062 9a00 E601     		.uleb128 0xe6
 13063 9a02 4546495F 		.ascii "EFI_DISK_IO2_PROTOCOL_REVISION 0x00020000\0"
 13063      4449534B 
 13063      5F494F32 
 13063      5F50524F 
 13063      544F434F 
 13064 9a2c 01       		.byte	0x1
 13065 9a2d 9E02     		.uleb128 0x11e
 13066 9a2f 4546495F 		.ascii "EFI_SIMPLE_FILE_SYSTEM_PROTOCOL_GUID { 0x964e5b22, 0x6459, 0x11d2, {0x8e, 0x39, 0x0, 0xa0,
 13066      53494D50 
 13066      4C455F46 
 13066      494C455F 
 13066      53595354 
 13067 9aa4 01       		.byte	0x1
 13068 9aa5 A002     		.uleb128 0x120
 13069 9aa7 53494D50 		.ascii "SIMPLE_FILE_SYSTEM_PROTOCOL EFI_SIMPLE_FILE_SYSTEM_PROTOCOL_GUID\0"
 13069      4C455F46 
 13069      494C455F 
 13069      53595354 
 13069      454D5F50 
 13070 9ae8 01       		.byte	0x1
 13071 9ae9 AC02     		.uleb128 0x12c
 13072 9aeb 4546495F 		.ascii "EFI_SIMPLE_FILE_SYSTEM_PROTOCOL_REVISION 0x00010000\0"
 13072      53494D50 
 13072      4C455F46 
 13072      494C455F 
 13072      53595354 
 13073 9b1f 01       		.byte	0x1
 13074 9b20 AD02     		.uleb128 0x12d
 13075 9b22 4546495F 		.ascii "EFI_FILE_IO_INTERFACE_REVISION EFI_SIMPLE_FILE_SYSTEM_PROTOCOL_REVISION\0"
 13075      46494C45 
 13075      5F494F5F 
 13075      494E5445 
 13075      52464143 
 13076 9b6a 01       		.byte	0x1
 13077 9b6b C602     		.uleb128 0x146
 13078 9b6d 4546495F 		.ascii "EFI_FILE_MODE_READ 0x0000000000000001\0"
 13078      46494C45 
 13078      5F4D4F44 
 13078      455F5245 
 13078      41442030 
 13079 9b93 01       		.byte	0x1
 13080 9b94 C702     		.uleb128 0x147
 13081 9b96 4546495F 		.ascii "EFI_FILE_MODE_WRITE 0x0000000000000002\0"
 13081      46494C45 
 13081      5F4D4F44 
 13081      455F5752 
 13081      49544520 
 13082 9bbd 01       		.byte	0x1
 13083 9bbe C802     		.uleb128 0x148
 13084 9bc0 4546495F 		.ascii "EFI_FILE_MODE_CREATE 0x8000000000000000\0"
 13084      46494C45 
 13084      5F4D4F44 
 13084      455F4352 
 13084      45415445 
 13085 9be8 01       		.byte	0x1
 13086 9be9 CB02     		.uleb128 0x14b
 13087 9beb 4546495F 		.ascii "EFI_FILE_READ_ONLY 0x0000000000000001\0"
 13087      46494C45 
 13087      5F524541 
 13087      445F4F4E 
 13087      4C592030 
 13088 9c11 01       		.byte	0x1
 13089 9c12 CC02     		.uleb128 0x14c
 13090 9c14 4546495F 		.ascii "EFI_FILE_HIDDEN 0x0000000000000002\0"
 13090      46494C45 
 13090      5F484944 
 13090      44454E20 
 13090      30783030 
 13091 9c37 01       		.byte	0x1
 13092 9c38 CD02     		.uleb128 0x14d
 13093 9c3a 4546495F 		.ascii "EFI_FILE_SYSTEM 0x0000000000000004\0"
 13093      46494C45 
 13093      5F535953 
 13093      54454D20 
 13093      30783030 
 13094 9c5d 01       		.byte	0x1
 13095 9c5e CE02     		.uleb128 0x14e
 13096 9c60 4546495F 		.ascii "EFI_FILE_RESERVIED 0x0000000000000008\0"
 13096      46494C45 
 13096      5F524553 
 13096      45525649 
 13096      45442030 
 13097 9c86 01       		.byte	0x1
 13098 9c87 CF02     		.uleb128 0x14f
 13099 9c89 4546495F 		.ascii "EFI_FILE_DIRECTORY 0x0000000000000010\0"
 13099      46494C45 
 13099      5F444952 
 13099      4543544F 
 13099      52592030 
 13100 9caf 01       		.byte	0x1
 13101 9cb0 D002     		.uleb128 0x150
 13102 9cb2 4546495F 		.ascii "EFI_FILE_ARCHIVE 0x0000000000000020\0"
 13102      46494C45 
 13102      5F415243 
 13102      48495645 
 13102      20307830 
 13103 9cd6 01       		.byte	0x1
 13104 9cd7 D102     		.uleb128 0x151
 13105 9cd9 4546495F 		.ascii "EFI_FILE_VALID_ATTR 0x0000000000000037\0"
 13105      46494C45 
 13105      5F56414C 
 13105      49445F41 
 13105      54545220 
 13106 9d00 01       		.byte	0x1
 13107 9d01 BC03     		.uleb128 0x1bc
 13108 9d03 4546495F 		.ascii "EFI_FILE_PROTOCOL_REVISION 0x00010000\0"
 13108      46494C45 
 13108      5F50524F 
 13108      544F434F 
 13108      4C5F5245 
 13109 9d29 01       		.byte	0x1
 13110 9d2a BD03     		.uleb128 0x1bd
 13111 9d2c 4546495F 		.ascii "EFI_FILE_PROTOCOL_REVISION2 0x00020000\0"
 13111      46494C45 
 13111      5F50524F 
 13111      544F434F 
 13111      4C5F5245 
 13112 9d53 01       		.byte	0x1
 13113 9d54 BE03     		.uleb128 0x1be
 13114 9d56 4546495F 		.ascii "EFI_FILE_PROTOCOL_LATEST_REVISION EFI_FILE_PROTOCOL_REVISION2\0"
 13114      46494C45 
 13114      5F50524F 
 13114      544F434F 
 13114      4C5F4C41 
 13115 9d94 01       		.byte	0x1
 13116 9d95 BF03     		.uleb128 0x1bf
 13117 9d97 4546495F 		.ascii "EFI_FILE_HANDLE_REVISION EFI_FILE_PROTOCOL_REVISION\0"
 13117      46494C45 
 13117      5F48414E 
 13117      444C455F 
 13117      52455649 
 13118 9dcb 01       		.byte	0x1
 13119 9dcc DA03     		.uleb128 0x1da
 13120 9dce 4546495F 		.ascii "EFI_FILE_INFO_ID { 0x9576e92, 0x6d3f, 0x11d2, {0x8e, 0x39, 0x0, 0xa0, 0xc9, 0x69, 0x72, 0x
 13120      46494C45 
 13120      5F494E46 
 13120      4F5F4944 
 13120      207B2030 
 13121 9e2e 01       		.byte	0x1
 13122 9e2f F003     		.uleb128 0x1f0
 13123 9e31 53495A45 		.ascii "SIZE_OF_EFI_FILE_INFO EFI_FIELD_OFFSET(EFI_FILE_INFO,FileName)\0"
 13123      5F4F465F 
 13123      4546495F 
 13123      46494C45 
 13123      5F494E46 
 13124 9e70 01       		.byte	0x1
 13125 9e71 F203     		.uleb128 0x1f2
 13126 9e73 4546495F 		.ascii "EFI_FILE_SYSTEM_INFO_ID { 0x9576e93, 0x6d3f, 0x11d2, {0x8e, 0x39, 0x0, 0xa0, 0xc9, 0x69, 0
 13126      46494C45 
 13126      5F535953 
 13126      54454D5F 
 13126      494E464F 
 13127 9eda 01       		.byte	0x1
 13128 9edb 8604     		.uleb128 0x206
 13129 9edd 53495A45 		.ascii "SIZE_OF_EFI_FILE_SYSTEM_INFO EFI_FIELD_OFFSET(EFI_FILE_SYSTEM_INFO,VolumeLabel)\0"
 13129      5F4F465F 
 13129      4546495F 
 13129      46494C45 
 13129      5F535953 
 13130 9f2d 01       		.byte	0x1
 13131 9f2e 8804     		.uleb128 0x208
 13132 9f30 4546495F 		.ascii "EFI_FILE_SYSTEM_VOLUME_LABEL_ID { 0xDB47D7D3,0xFE81, 0x11d3, {0x9A, 0x35, 0x00, 0x90, 0x27
 13132      46494C45 
 13132      5F535953 
 13132      54454D5F 
 13132      564F4C55 
 13133 9fa0 01       		.byte	0x1
 13134 9fa1 8F04     		.uleb128 0x20f
 13135 9fa3 53495A45 		.ascii "SIZE_OF_EFI_FILE_SYSTEM_VOLUME_LABEL_INFO EFI_FIELD_OFFSET(EFI_FILE_SYSTEM_VOLUME_LABEL,Vo
 13135      5F4F465F 
 13135      4546495F 
 13135      46494C45 
 13135      5F535953 
 13136 a008 01       		.byte	0x1
 13137 a009 9404     		.uleb128 0x214
 13138 a00b 4546495F 		.ascii "EFI_FILE_SYSTEM_VOLUME_LABEL_INFO_ID EFI_FILE_SYSTEM_VOLUME_LABEL_ID\0"
 13138      46494C45 
 13138      5F535953 
 13138      54454D5F 
 13138      564F4C55 
 13139 a050 01       		.byte	0x1
 13140 a051 9504     		.uleb128 0x215
 13141 a053 4546495F 		.ascii "EFI_FILE_SYSTEM_VOLUME_LABEL_INFO EFI_FILE_SYSTEM_VOLUME_LABEL\0"
 13141      46494C45 
 13141      5F535953 
 13141      54454D5F 
 13141      564F4C55 
 13142 a092 01       		.byte	0x1
 13143 a093 9C04     		.uleb128 0x21c
 13144 a095 4546495F 		.ascii "EFI_LOAD_FILE_PROTOCOL_GUID { 0x56EC3091, 0x954C, 0x11d2, {0x8E, 0x3F, 0x00, 0xA0, 0xC9, 0
 13144      4C4F4144 
 13144      5F46494C 
 13144      455F5052 
 13144      4F544F43 
 13145 a102 01       		.byte	0x1
 13146 a103 9E04     		.uleb128 0x21e
 13147 a105 4C4F4144 		.ascii "LOAD_FILE_PROTOCOL EFI_LOAD_FILE_PROTOCOL_GUID\0"
 13147      5F46494C 
 13147      455F5052 
 13147      4F544F43 
 13147      4F4C2045 
 13148 a134 01       		.byte	0x1
 13149 a135 B704     		.uleb128 0x237
 13150 a137 4546495F 		.ascii "EFI_DEVICE_IO_PROTOCOL_GUID { 0xaf6ac311, 0x84c3, 0x11d2, {0x8e, 0x3c, 0x00, 0xa0, 0xc9, 0
 13150      44455649 
 13150      43455F49 
 13150      4F5F5052 
 13150      4F544F43 
 13151 a1a4 01       		.byte	0x1
 13152 a1a5 B904     		.uleb128 0x239
 13153 a1a7 44455649 		.ascii "DEVICE_IO_PROTOCOL EFI_DEVICE_IO_PROTOCOL_GUID\0"
 13153      43455F49 
 13153      4F5F5052 
 13153      4F544F43 
 13153      4F4C2045 
 13154 a1d6 01       		.byte	0x1
 13155 a1d7 CB04     		.uleb128 0x24b
 13156 a1d9 4546495F 		.ascii "EFI_PCI_ADDRESS(_bus,_dev,_func) ( (UINT64) ( (((UINTN)_bus) << 24) + (((UINTN)_dev) << 16
 13156      5043495F 
 13156      41444452 
 13156      45535328 
 13156      5F627573 
 13157 a251 01       		.byte	0x1
 13158 a252 A905     		.uleb128 0x2a9
 13159 a254 4546495F 		.ascii "EFI_UNICODE_COLLATION_PROTOCOL_GUID { 0x1d85cd7f, 0xf43d, 0x11d2, {0x9a, 0xc, 0x0, 0x90, 0
 13159      554E4943 
 13159      4F44455F 
 13159      434F4C4C 
 13159      4154494F 
 13160 a2c7 01       		.byte	0x1
 13161 a2c8 AB05     		.uleb128 0x2ab
 13162 a2ca 554E4943 		.ascii "UNICODE_COLLATION_PROTOCOL EFI_UNICODE_COLLATION_PROTOCOL_GUID\0"
 13162      4F44455F 
 13162      434F4C4C 
 13162      4154494F 
 13162      4E5F5052 
 13163 a309 01       		.byte	0x1
 13164 a30a AD05     		.uleb128 0x2ad
 13165 a30c 4546495F 		.ascii "EFI_UNICODE_BYTE_ORDER_MARK (CHAR16)(0xfeff)\0"
 13165      554E4943 
 13165      4F44455F 
 13165      42595445 
 13165      5F4F5244 
 13166 a339 01       		.byte	0x1
 13167 a33a AE05     		.uleb128 0x2ae
 13168 a33c 554E4943 		.ascii "UNICODE_BYTE_ORDER_MARK EFI_UNICODE_BYTE_ORDER_MARK\0"
 13168      4F44455F 
 13168      42595445 
 13168      5F4F5244 
 13168      45525F4D 
 13169 a370 01       		.byte	0x1
 13170 a371 E505     		.uleb128 0x2e5
 13171 a373 4546495F 		.ascii "EFI_HASH_PROTOCOL_GUID { 0xC5184932, 0xDBA5, 0x46DB, { 0xA5, 0xBA, 0xCC, 0x0B, 0xDA, 0x9C,
 13171      48415348 
 13171      5F50524F 
 13171      544F434F 
 13171      4C5F4755 
 13172 a3dd 01       		.byte	0x1
 13173 a3de E705     		.uleb128 0x2e7
 13174 a3e0 48415348 		.ascii "HASH_PROTOCOL EFI_HASH_PROTOCOL_GUID\0"
 13174      5F50524F 
 13174      544F434F 
 13174      4C204546 
 13174      495F4841 
 13175 a405 01       		.byte	0x1
 13176 a406 E905     		.uleb128 0x2e9
 13177 a408 4546495F 		.ascii "EFI_HASH_ALGORITHM_SHA1_GUID { 0x2AE9D80F, 0x3FB2, 0x4095, { 0xB7, 0xB1, 0xE9, 0x31, 0x57,
 13177      48415348 
 13177      5F414C47 
 13177      4F524954 
 13177      484D5F53 
 13178 a478 01       		.byte	0x1
 13179 a479 EB05     		.uleb128 0x2eb
 13180 a47b 4546495F 		.ascii "EFI_HASH_ALGORITHM_SHA1 EFI_HASH_ALGORITHM_SHA1_GUID\0"
 13180      48415348 
 13180      5F414C47 
 13180      4F524954 
 13180      484D5F53 
 13181 a4b0 01       		.byte	0x1
 13182 a4b1 ED05     		.uleb128 0x2ed
 13183 a4b3 4546495F 		.ascii "EFI_HASH_ALGORITHM_SHA224_GUID { 0x8DF01A06, 0x9BD5, 0x4BF7, { 0xB0, 0x21, 0xDB, 0x4F, 0xD
 13183      48415348 
 13183      5F414C47 
 13183      4F524954 
 13183      484D5F53 
 13184 a525 01       		.byte	0x1
 13185 a526 EF05     		.uleb128 0x2ef
 13186 a528 4546495F 		.ascii "EFI_HASH_ALGORITHM_SHA224 EFI_HASH_ALGORITHM_SHA224_GUID\0"
 13186      48415348 
 13186      5F414C47 
 13186      4F524954 
 13186      484D5F53 
 13187 a561 01       		.byte	0x1
 13188 a562 F105     		.uleb128 0x2f1
 13189 a564 4546495F 		.ascii "EFI_HASH_ALGORITHM_SHA256_GUID { 0x51AA59DE, 0xFDF2, 0x4EA3, { 0xBC, 0x63, 0x87, 0x5F, 0xB
 13189      48415348 
 13189      5F414C47 
 13189      4F524954 
 13189      484D5F53 
 13190 a5d6 01       		.byte	0x1
 13191 a5d7 F305     		.uleb128 0x2f3
 13192 a5d9 4546495F 		.ascii "EFI_HASH_ALGORITHM_SHA256 EFI_HASH_ALGORITHM_SHA256_GUID\0"
 13192      48415348 
 13192      5F414C47 
 13192      4F524954 
 13192      484D5F53 
 13193 a612 01       		.byte	0x1
 13194 a613 F505     		.uleb128 0x2f5
 13195 a615 4546495F 		.ascii "EFI_HASH_ALGORITHM_SHA384_GUID { 0xEFA96432, 0xDE33, 0x4DD2, { 0xAE, 0xE6, 0x32, 0x8C, 0x3
 13195      48415348 
 13195      5F414C47 
 13195      4F524954 
 13195      484D5F53 
 13196 a687 01       		.byte	0x1
 13197 a688 F705     		.uleb128 0x2f7
 13198 a68a 4546495F 		.ascii "EFI_HASH_ALGORITHM_SHA384 EFI_HASH_ALGORITHM_SHA384_GUID\0"
 13198      48415348 
 13198      5F414C47 
 13198      4F524954 
 13198      484D5F53 
 13199 a6c3 01       		.byte	0x1
 13200 a6c4 F905     		.uleb128 0x2f9
 13201 a6c6 4546495F 		.ascii "EFI_HASH_ALGORITHM_SHA512_GUID { 0xCAA4381E, 0x750C, 0x4770, { 0xB8, 0x70, 0x7A, 0x23, 0xB
 13201      48415348 
 13201      5F414C47 
 13201      4F524954 
 13201      484D5F53 
 13202 a738 01       		.byte	0x1
 13203 a739 FB05     		.uleb128 0x2fb
 13204 a73b 4546495F 		.ascii "EFI_HASH_ALGORITHM_SHA512 EFI_HASH_ALGORITHM_SHA512_GUID\0"
 13204      48415348 
 13204      5F414C47 
 13204      4F524954 
 13204      484D5F53 
 13205 a774 01       		.byte	0x1
 13206 a775 FD05     		.uleb128 0x2fd
 13207 a777 4546495F 		.ascii "EFI_HASH_ALGORITHM_MD5_GUID { 0x0AF7C79C, 0x65B5, 0x4319, { 0xB0, 0xAE, 0x44, 0xEC, 0x48, 
 13207      48415348 
 13207      5F414C47 
 13207      4F524954 
 13207      484D5F4D 
 13208 a7e6 01       		.byte	0x1
 13209 a7e7 FF05     		.uleb128 0x2ff
 13210 a7e9 4546495F 		.ascii "EFI_HASH_ALGORITHM_MD5 EFI_HASH_ALGORITHM_MD5_GUID\0"
 13210      48415348 
 13210      5F414C47 
 13210      4F524954 
 13210      484D5F4D 
 13211 a81c 01       		.byte	0x1
 13212 a81d 8106     		.uleb128 0x301
 13213 a81f 4546495F 		.ascii "EFI_HASH_ALGORITHM_SHA1_NOPAD_GUID { 0x24C5DC2F, 0x53E2, 0x40CA, { 0x9E, 0xD6, 0xA5, 0xD9,
 13213      48415348 
 13213      5F414C47 
 13213      4F524954 
 13213      484D5F53 
 13214 a895 01       		.byte	0x1
 13215 a896 8306     		.uleb128 0x303
 13216 a898 4546495F 		.ascii "EFI_HASH_ALGORITHM_SHA1_NOPAD EFI_HASH_ALGORITHM_SHA1_NOPAD_GUID\0"
 13216      48415348 
 13216      5F414C47 
 13216      4F524954 
 13216      484D5F53 
 13217 a8d9 01       		.byte	0x1
 13218 a8da 8506     		.uleb128 0x305
 13219 a8dc 4546495F 		.ascii "EFI_HASH_ALGORITHM_SHA256_NOPAD_GUID { 0x8628752A, 0x6CB7, 0x4814, { 0x96, 0xFC, 0x24, 0xA
 13219      48415348 
 13219      5F414C47 
 13219      4F524954 
 13219      484D5F53 
 13220 a954 01       		.byte	0x1
 13221 a955 8706     		.uleb128 0x307
 13222 a957 4546495F 		.ascii "EFI_HASH_ALGORITHM_SHA256_NOPAD EFI_HASH_ALGORITHM_SHA256_NOPAD_GUID\0"
 13222      48415348 
 13222      5F414C47 
 13222      4F524954 
 13222      484D5F53 
 13223 a99c 01       		.byte	0x1
 13224 a99d C706     		.uleb128 0x347
 13225 a99f 4546495F 		.ascii "EFI_GRAPHICS_OUTPUT_PROTOCOL_GUID { 0x9042a9de, 0x23dc, 0x4a38, {0x96, 0xfb, 0x7a, 0xde, 0
 13225      47524150 
 13225      48494353 
 13225      5F4F5554 
 13225      5055545F 
 13226 aa13 01       		.byte	0x1
 13227 aa14 F307     		.uleb128 0x3f3
 13228 aa16 4546495F 		.ascii "EFI_EDID_DISCOVERED_PROTOCOL_GUID { 0x1C0C34F6, 0xD380, 0x41FA, { 0xA0, 0x49, 0x8a, 0xD0, 
 13228      45444944 
 13228      5F444953 
 13228      434F5645 
 13228      5245445F 
 13229 aa8a 01       		.byte	0x1
 13230 aa8b 8108     		.uleb128 0x401
 13231 aa8d 4546495F 		.ascii "EFI_EDID_ACTIVE_PROTOCOL_GUID { 0xBD8C1056, 0x9F36, 0x44EC, { 0x92, 0xA8, 0xA6, 0x33, 0x7F
 13231      45444944 
 13231      5F414354 
 13231      4956455F 
 13231      50524F54 
 13232 aafd 01       		.byte	0x1
 13233 aafe 8F08     		.uleb128 0x40f
 13234 ab00 4546495F 		.ascii "EFI_EDID_OVERRIDE_PROTOCOL_GUID { 0x48ECB431, 0xFB72, 0x45C0, { 0xA9, 0x22, 0xF4, 0x58, 0x
 13234      45444944 
 13234      5F4F5645 
 13234      52524944 
 13234      455F5052 
 13235 ab72 01       		.byte	0x1
 13236 ab73 BE08     		.uleb128 0x43e
 13237 ab75 4546495F 		.ascii "EFI_DRIVER_BINDING_PROTOCOL_GUID { 0x18A031AB, 0xB443, 0x4D1A, { 0xA5, 0xC0, 0x0C, 0x09, 0
 13237      44524956 
 13237      45525F42 
 13237      494E4449 
 13237      4E475F50 
 13238 abe8 01       		.byte	0x1
 13239 abe9 C008     		.uleb128 0x440
 13240 abeb 44524956 		.ascii "DRIVER_BINDING_PROTOCOL EFI_DRIVER_BINDING_PROTOCOL_GUID\0"
 13240      45525F42 
 13240      494E4449 
 13240      4E475F50 
 13240      524F544F 
 13241 ac24 01       		.byte	0x1
 13242 ac25 EA08     		.uleb128 0x46a
 13243 ac27 4546495F 		.ascii "EFI_DRIVER_SUPPORTED EFI_DRIVER_BINDING_PROTOCOL_SUPPORTED\0"
 13243      44524956 
 13243      45525F53 
 13243      5550504F 
 13243      52544544 
 13244 ac62 01       		.byte	0x1
 13245 ac63 EB08     		.uleb128 0x46b
 13246 ac65 4546495F 		.ascii "EFI_DRIVER_START EFI_DRIVER_BINDING_PROTOCOL_START\0"
 13246      44524956 
 13246      45525F53 
 13246      54415254 
 13246      20454649 
 13247 ac98 01       		.byte	0x1
 13248 ac99 EC08     		.uleb128 0x46c
 13249 ac9b 4546495F 		.ascii "EFI_DRIVER_STOP EFI_DRIVER_BINDING_PROTOCOL_STOP\0"
 13249      44524956 
 13249      45525F53 
 13249      544F5020 
 13249      4546495F 
 13250 accc 01       		.byte	0x1
 13251 accd F408     		.uleb128 0x474
 13252 accf 4546495F 		.ascii "EFI_COMPONENT_NAME_PROTOCOL_GUID {0x107A772C, 0xD5E1, 0x11D4, { 0x9A, 0x46, 0x00, 0x90, 0x
 13252      434F4D50 
 13252      4F4E454E 
 13252      545F4E41 
 13252      4D455F50 
 13253 ad41 01       		.byte	0x1
 13254 ad42 F608     		.uleb128 0x476
 13255 ad44 434F4D50 		.ascii "COMPONENT_NAME_PROTOCOL EFI_COMPONENT_NAME_PROTOCOL_GUID\0"
 13255      4F4E454E 
 13255      545F4E41 
 13255      4D455F50 
 13255      524F544F 
 13256 ad7d 01       		.byte	0x1
 13257 ad7e 9809     		.uleb128 0x498
 13258 ad80 4546495F 		.ascii "EFI_COMPONENT_NAME2_PROTOCOL_GUID {0x6A7A5CFF, 0xE8D9, 0x4F70, { 0xBA, 0xDA, 0x75, 0xAB, 0
 13258      434F4D50 
 13258      4F4E454E 
 13258      545F4E41 
 13258      4D45325F 
 13259 adf3 01       		.byte	0x1
 13260 adf4 9A09     		.uleb128 0x49a
 13261 adf6 434F4D50 		.ascii "COMPONENT_NAME2_PROTOCOL EFI_COMPONENT_NAME2_PROTOCOL_GUID\0"
 13261      4F4E454E 
 13261      545F4E41 
 13261      4D45325F 
 13261      50524F54 
 13262 ae31 01       		.byte	0x1
 13263 ae32 BD09     		.uleb128 0x4bd
 13264 ae34 4546495F 		.ascii "EFI_LOADED_IMAGE_PROTOCOL_GUID { 0x5B1B31A1, 0x9562, 0x11d2, {0x8E, 0x3F, 0x00, 0xA0, 0xC9
 13264      4C4F4144 
 13264      45445F49 
 13264      4D414745 
 13264      5F50524F 
 13265 aea4 01       		.byte	0x1
 13266 aea5 BF09     		.uleb128 0x4bf
 13267 aea7 4C4F4144 		.ascii "LOADED_IMAGE_PROTOCOL EFI_LOADED_IMAGE_PROTOCOL_GUID\0"
 13267      45445F49 
 13267      4D414745 
 13267      5F50524F 
 13267      544F434F 
 13268 aedc 01       		.byte	0x1
 13269 aedd C109     		.uleb128 0x4c1
 13270 aedf 4546495F 		.ascii "EFI_LOADED_IMAGE_PROTOCOL_REVISION 0x1000\0"
 13270      4C4F4144 
 13270      45445F49 
 13270      4D414745 
 13270      5F50524F 
 13271 af09 01       		.byte	0x1
 13272 af0a C209     		.uleb128 0x4c2
 13273 af0c 4546495F 		.ascii "EFI_IMAGE_INFORMATION_REVISION EFI_LOADED_IMAGE_PROTOCOL_REVISION\0"
 13273      494D4147 
 13273      455F494E 
 13273      464F524D 
 13273      4154494F 
 13274 af4e 01       		.byte	0x1
 13275 af4f E409     		.uleb128 0x4e4
 13276 af51 4546495F 		.ascii "EFI_LOADED_IMAGE_DEVICE_PATH_PROTOCOL_GUID {0xbc62157e, 0x3e33, 0x4fec, {0x99, 0x20, 0x2d,
 13276      4C4F4144 
 13276      45445F49 
 13276      4D414745 
 13276      5F444556 
 13277 afcc 01       		.byte	0x1
 13278 afcd EB09     		.uleb128 0x4eb
 13279 afcf 4546495F 		.ascii "EFI_RNG_PROTOCOL_GUID { 0x3152bca5, 0xeade, 0x433d, {0x86, 0x2e, 0xc0, 0x1c, 0xdc, 0x29, 0
 13279      524E475F 
 13279      50524F54 
 13279      4F434F4C 
 13279      5F475549 
 13280 b036 01       		.byte	0x1
 13281 b037 F009     		.uleb128 0x4f0
 13282 b039 4546495F 		.ascii "EFI_RNG_ALGORITHM_SP800_90_HASH_256_GUID {0xa7af67cb, 0x603b, 0x4d42, {0xba, 0x21, 0x70, 0
 13282      524E475F 
 13282      414C474F 
 13282      52495448 
 13282      4D5F5350 
 13283 b0b2 01       		.byte	0x1
 13284 b0b3 F309     		.uleb128 0x4f3
 13285 b0b5 4546495F 		.ascii "EFI_RNG_ALGORITHM_SP800_90_HMAC_256_GUID {0xc5149b43, 0xae85, 0x4f53, {0x99, 0x82, 0xb9, 0
 13285      524E475F 
 13285      414C474F 
 13285      52495448 
 13285      4D5F5350 
 13286 b12e 01       		.byte	0x1
 13287 b12f F609     		.uleb128 0x4f6
 13288 b131 4546495F 		.ascii "EFI_RNG_ALGORITHM_SP800_90_CTR_256_GUID {0x44f0de6e, 0x4d8c, 0x4045, {0xa8, 0xc7, 0x4d, 0x
 13288      524E475F 
 13288      414C474F 
 13288      52495448 
 13288      4D5F5350 
 13289 b1a9 01       		.byte	0x1
 13290 b1aa F909     		.uleb128 0x4f9
 13291 b1ac 4546495F 		.ascii "EFI_RNG_ALGORITHM_X9_31_3DES_GUID {0x63c4785a, 0xca34, 0x4012, {0xa3, 0xc8, 0x0b, 0x6a, 0x
 13291      524E475F 
 13291      414C474F 
 13291      52495448 
 13291      4D5F5839 
 13292 b21e 01       		.byte	0x1
 13293 b21f FC09     		.uleb128 0x4fc
 13294 b221 4546495F 		.ascii "EFI_RNG_ALGORITHM_X9_31_AES_GUID {0xacd03321, 0x777e, 0x4d3d, {0xb1, 0xc8, 0x20, 0xcf, 0xd
 13294      524E475F 
 13294      414C474F 
 13294      52495448 
 13294      4D5F5839 
 13295 b292 01       		.byte	0x1
 13296 b293 FF09     		.uleb128 0x4ff
 13297 b295 4546495F 		.ascii "EFI_RNG_ALGORITHM_RAW {0xe43176d7, 0xb6e8, 0x4827, {0xb7, 0x84, 0x7f, 0xfd, 0xc4, 0xb6, 0x
 13297      524E475F 
 13297      414C474F 
 13297      52495448 
 13297      4D5F5241 
 13298 b2fb 01       		.byte	0x1
 13299 b2fc 9F0A     		.uleb128 0x51f
 13300 b2fe 4546495F 		.ascii "EFI_PLATFORM_DRIVER_OVERRIDE_PROTOCOL_GUID { 0x6b30c738, 0xa391, 0x11d4, {0x9a, 0x3b, 0x00
 13300      504C4154 
 13300      464F524D 
 13300      5F445249 
 13300      5645525F 
 13301 b37a 01       		.byte	0x1
 13302 b37b C40A     		.uleb128 0x544
 13303 b37d 4546495F 		.ascii "EFI_BUS_SPECIFIC_DRIVER_OVERRIDE_PROTOCOL_GUID { 0x3bc1b285, 0x8a15, 0x4a82, {0xaa, 0xbf, 
 13303      4255535F 
 13303      53504543 
 13303      49464943 
 13303      5F445249 
 13304 b3fd 01       		.byte	0x1
 13305 b3fe D70A     		.uleb128 0x557
 13306 b400 4546495F 		.ascii "EFI_DRIVER_FAMILY_OVERRIDE_PROTOCOL_GUID { 0xb1ee129e, 0xda36, 0x4181, {0x91, 0xf8, 0x04, 
 13306      44524956 
 13306      45525F46 
 13306      414D494C 
 13306      595F4F56 
 13307 b47a 01       		.byte	0x1
 13308 b47b E90A     		.uleb128 0x569
 13309 b47d 4546495F 		.ascii "EFI_EBC_INTERPRETER_PROTOCOL_GUID {0x13ac6dd1, 0x73d0, 0x11d4, {0xb0, 0x6b, 0x00, 0xaa, 0x
 13309      4542435F 
 13309      494E5445 
 13309      52505245 
 13309      5445525F 
 13310 b4ef 01       		.byte	0x1
 13311 b4f0 EC0A     		.uleb128 0x56c
 13312 b4f2 4546495F 		.ascii "EFI_EBC_PROTOCOL_GUID EFI_EBC_INTERPRETER_PROTOCOL_GUID\0"
 13312      4542435F 
 13312      50524F54 
 13312      4F434F4C 
 13312      5F475549 
 13313 b52a 04       		.byte	0x4
 13314 b52b 03       		.byte	0x3
 13315 b52c 46       		.uleb128 0x46
 13316 b52d 09       		.uleb128 0x9
 13317 b52e 01       		.byte	0x1
 13318 b52f 02       		.uleb128 0x2
 13319 b530 5F454649 		.ascii "_EFI_CON_H \0"
 13319      5F434F4E 
 13319      5F482000 
 13320 b53c 01       		.byte	0x1
 13321 b53d 1A       		.uleb128 0x1a
 13322 b53e 4546495F 		.ascii "EFI_SIMPLE_TEXT_OUTPUT_PROTOCOL_GUID { 0x387477c2, 0x69c7, 0x11d2, {0x8e, 0x39, 0x0, 0xa0,
 13322      53494D50 
 13322      4C455F54 
 13322      4558545F 
 13322      4F555450 
 13323 b5b3 01       		.byte	0x1
 13324 b5b4 1C       		.uleb128 0x1c
 13325 b5b5 53494D50 		.ascii "SIMPLE_TEXT_OUTPUT_PROTOCOL EFI_SIMPLE_TEXT_OUTPUT_PROTOCOL_GUID\0"
 13325      4C455F54 
 13325      4558545F 
 13325      4F555450 
 13325      55545F50 
 13326 b5f6 01       		.byte	0x1
 13327 b5f7 4C       		.uleb128 0x4c
 13328 b5f8 4546495F 		.ascii "EFI_BLACK 0x00\0"
 13328      424C4143 
 13328      4B203078 
 13328      303000
 13329 b607 01       		.byte	0x1
 13330 b608 4D       		.uleb128 0x4d
 13331 b609 4546495F 		.ascii "EFI_BLUE 0x01\0"
 13331      424C5545 
 13331      20307830 
 13331      3100
 13332 b617 01       		.byte	0x1
 13333 b618 4E       		.uleb128 0x4e
 13334 b619 4546495F 		.ascii "EFI_GREEN 0x02\0"
 13334      47524545 
 13334      4E203078 
 13334      303200
 13335 b628 01       		.byte	0x1
 13336 b629 4F       		.uleb128 0x4f
 13337 b62a 4546495F 		.ascii "EFI_CYAN (EFI_BLUE | EFI_GREEN)\0"
 13337      4359414E 
 13337      20284546 
 13337      495F424C 
 13337      5545207C 
 13338 b64a 01       		.byte	0x1
 13339 b64b 50       		.uleb128 0x50
 13340 b64c 4546495F 		.ascii "EFI_RED 0x04\0"
 13340      52454420 
 13340      30783034 
 13340      00
 13341 b659 01       		.byte	0x1
 13342 b65a 51       		.uleb128 0x51
 13343 b65b 4546495F 		.ascii "EFI_MAGENTA (EFI_BLUE | EFI_RED)\0"
 13343      4D414745 
 13343      4E544120 
 13343      28454649 
 13343      5F424C55 
 13344 b67c 01       		.byte	0x1
 13345 b67d 52       		.uleb128 0x52
 13346 b67e 4546495F 		.ascii "EFI_BROWN (EFI_GREEN | EFI_RED)\0"
 13346      42524F57 
 13346      4E202845 
 13346      46495F47 
 13346      5245454E 
 13347 b69e 01       		.byte	0x1
 13348 b69f 53       		.uleb128 0x53
 13349 b6a0 4546495F 		.ascii "EFI_LIGHTGRAY (EFI_BLUE | EFI_GREEN | EFI_RED)\0"
 13349      4C494748 
 13349      54475241 
 13349      59202845 
 13349      46495F42 
 13350 b6cf 01       		.byte	0x1
 13351 b6d0 54       		.uleb128 0x54
 13352 b6d1 4546495F 		.ascii "EFI_BRIGHT 0x08\0"
 13352      42524947 
 13352      48542030 
 13352      78303800 
 13353 b6e1 01       		.byte	0x1
 13354 b6e2 55       		.uleb128 0x55
 13355 b6e3 4546495F 		.ascii "EFI_DARKGRAY (EFI_BRIGHT)\0"
 13355      4441524B 
 13355      47524159 
 13355      20284546 
 13355      495F4252 
 13356 b6fd 01       		.byte	0x1
 13357 b6fe 56       		.uleb128 0x56
 13358 b6ff 4546495F 		.ascii "EFI_LIGHTBLUE (EFI_BLUE | EFI_BRIGHT)\0"
 13358      4C494748 
 13358      54424C55 
 13358      45202845 
 13358      46495F42 
 13359 b725 01       		.byte	0x1
 13360 b726 57       		.uleb128 0x57
 13361 b727 4546495F 		.ascii "EFI_LIGHTGREEN (EFI_GREEN | EFI_BRIGHT)\0"
 13361      4C494748 
 13361      54475245 
 13361      454E2028 
 13361      4546495F 
 13362 b74f 01       		.byte	0x1
 13363 b750 58       		.uleb128 0x58
 13364 b751 4546495F 		.ascii "EFI_LIGHTCYAN (EFI_CYAN | EFI_BRIGHT)\0"
 13364      4C494748 
 13364      54435941 
 13364      4E202845 
 13364      46495F43 
 13365 b777 01       		.byte	0x1
 13366 b778 59       		.uleb128 0x59
 13367 b779 4546495F 		.ascii "EFI_LIGHTRED (EFI_RED | EFI_BRIGHT)\0"
 13367      4C494748 
 13367      54524544 
 13367      20284546 
 13367      495F5245 
 13368 b79d 01       		.byte	0x1
 13369 b79e 5A       		.uleb128 0x5a
 13370 b79f 4546495F 		.ascii "EFI_LIGHTMAGENTA (EFI_MAGENTA | EFI_BRIGHT)\0"
 13370      4C494748 
 13370      544D4147 
 13370      454E5441 
 13370      20284546 
 13371 b7cb 01       		.byte	0x1
 13372 b7cc 5B       		.uleb128 0x5b
 13373 b7cd 4546495F 		.ascii "EFI_YELLOW (EFI_BROWN | EFI_BRIGHT)\0"
 13373      59454C4C 
 13373      4F572028 
 13373      4546495F 
 13373      42524F57 
 13374 b7f1 01       		.byte	0x1
 13375 b7f2 5C       		.uleb128 0x5c
 13376 b7f3 4546495F 		.ascii "EFI_WHITE (EFI_BLUE | EFI_GREEN | EFI_RED | EFI_BRIGHT)\0"
 13376      57484954 
 13376      45202845 
 13376      46495F42 
 13376      4C554520 
 13377 b82b 01       		.byte	0x1
 13378 b82c 5E       		.uleb128 0x5e
 13379 b82d 4546495F 		.ascii "EFI_TEXT_ATTR(f,b) ((f) | ((b) << 4))\0"
 13379      54455854 
 13379      5F415454 
 13379      5228662C 
 13379      62292028 
 13380 b853 01       		.byte	0x1
 13381 b854 60       		.uleb128 0x60
 13382 b855 4546495F 		.ascii "EFI_BACKGROUND_BLACK 0x00\0"
 13382      4241434B 
 13382      47524F55 
 13382      4E445F42 
 13382      4C41434B 
 13383 b86f 01       		.byte	0x1
 13384 b870 61       		.uleb128 0x61
 13385 b871 4546495F 		.ascii "EFI_BACKGROUND_BLUE 0x10\0"
 13385      4241434B 
 13385      47524F55 
 13385      4E445F42 
 13385      4C554520 
 13386 b88a 01       		.byte	0x1
 13387 b88b 62       		.uleb128 0x62
 13388 b88c 4546495F 		.ascii "EFI_BACKGROUND_GREEN 0x20\0"
 13388      4241434B 
 13388      47524F55 
 13388      4E445F47 
 13388      5245454E 
 13389 b8a6 01       		.byte	0x1
 13390 b8a7 63       		.uleb128 0x63
 13391 b8a8 4546495F 		.ascii "EFI_BACKGROUND_CYAN (EFI_BACKGROUND_BLUE | EFI_BACKGROUND_GREEN)\0"
 13391      4241434B 
 13391      47524F55 
 13391      4E445F43 
 13391      59414E20 
 13392 b8e9 01       		.byte	0x1
 13393 b8ea 64       		.uleb128 0x64
 13394 b8eb 4546495F 		.ascii "EFI_BACKGROUND_RED 0x40\0"
 13394      4241434B 
 13394      47524F55 
 13394      4E445F52 
 13394      45442030 
 13395 b903 01       		.byte	0x1
 13396 b904 65       		.uleb128 0x65
 13397 b905 4546495F 		.ascii "EFI_BACKGROUND_MAGENTA (EFI_BACKGROUND_BLUE | EFI_BACKGROUND_RED)\0"
 13397      4241434B 
 13397      47524F55 
 13397      4E445F4D 
 13397      4147454E 
 13398 b947 01       		.byte	0x1
 13399 b948 66       		.uleb128 0x66
 13400 b949 4546495F 		.ascii "EFI_BACKGROUND_BROWN (EFI_BACKGROUND_GREEN | EFI_BACKGROUND_RED)\0"
 13400      4241434B 
 13400      47524F55 
 13400      4E445F42 
 13400      524F574E 
 13401 b98a 01       		.byte	0x1
 13402 b98b 67       		.uleb128 0x67
 13403 b98c 4546495F 		.ascii "EFI_BACKGROUND_LIGHTGRAY (EFI_BACKGROUND_BLUE | EFI_BACKGROUND_GREEN | EFI_BACKGROUND_RED)
 13403      4241434B 
 13403      47524F55 
 13403      4E445F4C 
 13403      49474854 
 13404 b9e7 01       		.byte	0x1
 13405 b9e8 9F01     		.uleb128 0x9f
 13406 b9ea 424F5844 		.ascii "BOXDRAW_HORIZONTAL 0x2500\0"
 13406      5241575F 
 13406      484F5249 
 13406      5A4F4E54 
 13406      414C2030 
 13407 ba04 01       		.byte	0x1
 13408 ba05 A001     		.uleb128 0xa0
 13409 ba07 424F5844 		.ascii "BOXDRAW_VERTICAL 0x2502\0"
 13409      5241575F 
 13409      56455254 
 13409      4943414C 
 13409      20307832 
 13410 ba1f 01       		.byte	0x1
 13411 ba20 A101     		.uleb128 0xa1
 13412 ba22 424F5844 		.ascii "BOXDRAW_DOWN_RIGHT 0x250c\0"
 13412      5241575F 
 13412      444F574E 
 13412      5F524947 
 13412      48542030 
 13413 ba3c 01       		.byte	0x1
 13414 ba3d A201     		.uleb128 0xa2
 13415 ba3f 424F5844 		.ascii "BOXDRAW_DOWN_LEFT 0x2510\0"
 13415      5241575F 
 13415      444F574E 
 13415      5F4C4546 
 13415      54203078 
 13416 ba58 01       		.byte	0x1
 13417 ba59 A301     		.uleb128 0xa3
 13418 ba5b 424F5844 		.ascii "BOXDRAW_UP_RIGHT 0x2514\0"
 13418      5241575F 
 13418      55505F52 
 13418      49474854 
 13418      20307832 
 13419 ba73 01       		.byte	0x1
 13420 ba74 A401     		.uleb128 0xa4
 13421 ba76 424F5844 		.ascii "BOXDRAW_UP_LEFT 0x2518\0"
 13421      5241575F 
 13421      55505F4C 
 13421      45465420 
 13421      30783235 
 13422 ba8d 01       		.byte	0x1
 13423 ba8e A501     		.uleb128 0xa5
 13424 ba90 424F5844 		.ascii "BOXDRAW_VERTICAL_RIGHT 0x251c\0"
 13424      5241575F 
 13424      56455254 
 13424      4943414C 
 13424      5F524947 
 13425 baae 01       		.byte	0x1
 13426 baaf A601     		.uleb128 0xa6
 13427 bab1 424F5844 		.ascii "BOXDRAW_VERTICAL_LEFT 0x2524\0"
 13427      5241575F 
 13427      56455254 
 13427      4943414C 
 13427      5F4C4546 
 13428 bace 01       		.byte	0x1
 13429 bacf A701     		.uleb128 0xa7
 13430 bad1 424F5844 		.ascii "BOXDRAW_DOWN_HORIZONTAL 0x252c\0"
 13430      5241575F 
 13430      444F574E 
 13430      5F484F52 
 13430      495A4F4E 
 13431 baf0 01       		.byte	0x1
 13432 baf1 A801     		.uleb128 0xa8
 13433 baf3 424F5844 		.ascii "BOXDRAW_UP_HORIZONTAL 0x2534\0"
 13433      5241575F 
 13433      55505F48 
 13433      4F52495A 
 13433      4F4E5441 
 13434 bb10 01       		.byte	0x1
 13435 bb11 A901     		.uleb128 0xa9
 13436 bb13 424F5844 		.ascii "BOXDRAW_VERTICAL_HORIZONTAL 0x253c\0"
 13436      5241575F 
 13436      56455254 
 13436      4943414C 
 13436      5F484F52 
 13437 bb36 01       		.byte	0x1
 13438 bb37 AB01     		.uleb128 0xab
 13439 bb39 424F5844 		.ascii "BOXDRAW_DOUBLE_HORIZONTAL 0x2550\0"
 13439      5241575F 
 13439      444F5542 
 13439      4C455F48 
 13439      4F52495A 
 13440 bb5a 01       		.byte	0x1
 13441 bb5b AC01     		.uleb128 0xac
 13442 bb5d 424F5844 		.ascii "BOXDRAW_DOUBLE_VERTICAL 0x2551\0"
 13442      5241575F 
 13442      444F5542 
 13442      4C455F56 
 13442      45525449 
 13443 bb7c 01       		.byte	0x1
 13444 bb7d AD01     		.uleb128 0xad
 13445 bb7f 424F5844 		.ascii "BOXDRAW_DOWN_RIGHT_DOUBLE 0x2552\0"
 13445      5241575F 
 13445      444F574E 
 13445      5F524947 
 13445      48545F44 
 13446 bba0 01       		.byte	0x1
 13447 bba1 AE01     		.uleb128 0xae
 13448 bba3 424F5844 		.ascii "BOXDRAW_DOWN_DOUBLE_RIGHT 0x2553\0"
 13448      5241575F 
 13448      444F574E 
 13448      5F444F55 
 13448      424C455F 
 13449 bbc4 01       		.byte	0x1
 13450 bbc5 AF01     		.uleb128 0xaf
 13451 bbc7 424F5844 		.ascii "BOXDRAW_DOUBLE_DOWN_RIGHT 0x2554\0"
 13451      5241575F 
 13451      444F5542 
 13451      4C455F44 
 13451      4F574E5F 
 13452 bbe8 01       		.byte	0x1
 13453 bbe9 B101     		.uleb128 0xb1
 13454 bbeb 424F5844 		.ascii "BOXDRAW_DOWN_LEFT_DOUBLE 0x2555\0"
 13454      5241575F 
 13454      444F574E 
 13454      5F4C4546 
 13454      545F444F 
 13455 bc0b 01       		.byte	0x1
 13456 bc0c B201     		.uleb128 0xb2
 13457 bc0e 424F5844 		.ascii "BOXDRAW_DOWN_DOUBLE_LEFT 0x2556\0"
 13457      5241575F 
 13457      444F574E 
 13457      5F444F55 
 13457      424C455F 
 13458 bc2e 01       		.byte	0x1
 13459 bc2f B301     		.uleb128 0xb3
 13460 bc31 424F5844 		.ascii "BOXDRAW_DOUBLE_DOWN_LEFT 0x2557\0"
 13460      5241575F 
 13460      444F5542 
 13460      4C455F44 
 13460      4F574E5F 
 13461 bc51 01       		.byte	0x1
 13462 bc52 B501     		.uleb128 0xb5
 13463 bc54 424F5844 		.ascii "BOXDRAW_UP_RIGHT_DOUBLE 0x2558\0"
 13463      5241575F 
 13463      55505F52 
 13463      49474854 
 13463      5F444F55 
 13464 bc73 01       		.byte	0x1
 13465 bc74 B601     		.uleb128 0xb6
 13466 bc76 424F5844 		.ascii "BOXDRAW_UP_DOUBLE_RIGHT 0x2559\0"
 13466      5241575F 
 13466      55505F44 
 13466      4F55424C 
 13466      455F5249 
 13467 bc95 01       		.byte	0x1
 13468 bc96 B701     		.uleb128 0xb7
 13469 bc98 424F5844 		.ascii "BOXDRAW_DOUBLE_UP_RIGHT 0x255a\0"
 13469      5241575F 
 13469      444F5542 
 13469      4C455F55 
 13469      505F5249 
 13470 bcb7 01       		.byte	0x1
 13471 bcb8 B901     		.uleb128 0xb9
 13472 bcba 424F5844 		.ascii "BOXDRAW_UP_LEFT_DOUBLE 0x255b\0"
 13472      5241575F 
 13472      55505F4C 
 13472      4546545F 
 13472      444F5542 
 13473 bcd8 01       		.byte	0x1
 13474 bcd9 BA01     		.uleb128 0xba
 13475 bcdb 424F5844 		.ascii "BOXDRAW_UP_DOUBLE_LEFT 0x255c\0"
 13475      5241575F 
 13475      55505F44 
 13475      4F55424C 
 13475      455F4C45 
 13476 bcf9 01       		.byte	0x1
 13477 bcfa BB01     		.uleb128 0xbb
 13478 bcfc 424F5844 		.ascii "BOXDRAW_DOUBLE_UP_LEFT 0x255d\0"
 13478      5241575F 
 13478      444F5542 
 13478      4C455F55 
 13478      505F4C45 
 13479 bd1a 01       		.byte	0x1
 13480 bd1b BD01     		.uleb128 0xbd
 13481 bd1d 424F5844 		.ascii "BOXDRAW_VERTICAL_RIGHT_DOUBLE 0x255e\0"
 13481      5241575F 
 13481      56455254 
 13481      4943414C 
 13481      5F524947 
 13482 bd42 01       		.byte	0x1
 13483 bd43 BE01     		.uleb128 0xbe
 13484 bd45 424F5844 		.ascii "BOXDRAW_VERTICAL_DOUBLE_RIGHT 0x255f\0"
 13484      5241575F 
 13484      56455254 
 13484      4943414C 
 13484      5F444F55 
 13485 bd6a 01       		.byte	0x1
 13486 bd6b BF01     		.uleb128 0xbf
 13487 bd6d 424F5844 		.ascii "BOXDRAW_DOUBLE_VERTICAL_RIGHT 0x2560\0"
 13487      5241575F 
 13487      444F5542 
 13487      4C455F56 
 13487      45525449 
 13488 bd92 01       		.byte	0x1
 13489 bd93 C101     		.uleb128 0xc1
 13490 bd95 424F5844 		.ascii "BOXDRAW_VERTICAL_LEFT_DOUBLE 0x2561\0"
 13490      5241575F 
 13490      56455254 
 13490      4943414C 
 13490      5F4C4546 
 13491 bdb9 01       		.byte	0x1
 13492 bdba C201     		.uleb128 0xc2
 13493 bdbc 424F5844 		.ascii "BOXDRAW_VERTICAL_DOUBLE_LEFT 0x2562\0"
 13493      5241575F 
 13493      56455254 
 13493      4943414C 
 13493      5F444F55 
 13494 bde0 01       		.byte	0x1
 13495 bde1 C301     		.uleb128 0xc3
 13496 bde3 424F5844 		.ascii "BOXDRAW_DOUBLE_VERTICAL_LEFT 0x2563\0"
 13496      5241575F 
 13496      444F5542 
 13496      4C455F56 
 13496      45525449 
 13497 be07 01       		.byte	0x1
 13498 be08 C501     		.uleb128 0xc5
 13499 be0a 424F5844 		.ascii "BOXDRAW_DOWN_HORIZONTAL_DOUBLE 0x2564\0"
 13499      5241575F 
 13499      444F574E 
 13499      5F484F52 
 13499      495A4F4E 
 13500 be30 01       		.byte	0x1
 13501 be31 C601     		.uleb128 0xc6
 13502 be33 424F5844 		.ascii "BOXDRAW_DOWN_DOUBLE_HORIZONTAL 0x2565\0"
 13502      5241575F 
 13502      444F574E 
 13502      5F444F55 
 13502      424C455F 
 13503 be59 01       		.byte	0x1
 13504 be5a C701     		.uleb128 0xc7
 13505 be5c 424F5844 		.ascii "BOXDRAW_DOUBLE_DOWN_HORIZONTAL 0x2566\0"
 13505      5241575F 
 13505      444F5542 
 13505      4C455F44 
 13505      4F574E5F 
 13506 be82 01       		.byte	0x1
 13507 be83 C901     		.uleb128 0xc9
 13508 be85 424F5844 		.ascii "BOXDRAW_UP_HORIZONTAL_DOUBLE 0x2567\0"
 13508      5241575F 
 13508      55505F48 
 13508      4F52495A 
 13508      4F4E5441 
 13509 bea9 01       		.byte	0x1
 13510 beaa CA01     		.uleb128 0xca
 13511 beac 424F5844 		.ascii "BOXDRAW_UP_DOUBLE_HORIZONTAL 0x2568\0"
 13511      5241575F 
 13511      55505F44 
 13511      4F55424C 
 13511      455F484F 
 13512 bed0 01       		.byte	0x1
 13513 bed1 CB01     		.uleb128 0xcb
 13514 bed3 424F5844 		.ascii "BOXDRAW_DOUBLE_UP_HORIZONTAL 0x2569\0"
 13514      5241575F 
 13514      444F5542 
 13514      4C455F55 
 13514      505F484F 
 13515 bef7 01       		.byte	0x1
 13516 bef8 CD01     		.uleb128 0xcd
 13517 befa 424F5844 		.ascii "BOXDRAW_VERTICAL_HORIZONTAL_DOUBLE 0x256a\0"
 13517      5241575F 
 13517      56455254 
 13517      4943414C 
 13517      5F484F52 
 13518 bf24 01       		.byte	0x1
 13519 bf25 CE01     		.uleb128 0xce
 13520 bf27 424F5844 		.ascii "BOXDRAW_VERTICAL_DOUBLE_HORIZONTAL 0x256b\0"
 13520      5241575F 
 13520      56455254 
 13520      4943414C 
 13520      5F444F55 
 13521 bf51 01       		.byte	0x1
 13522 bf52 CF01     		.uleb128 0xcf
 13523 bf54 424F5844 		.ascii "BOXDRAW_DOUBLE_VERTICAL_HORIZONTAL 0x256c\0"
 13523      5241575F 
 13523      444F5542 
 13523      4C455F56 
 13523      45525449 
 13524 bf7e 01       		.byte	0x1
 13525 bf7f D501     		.uleb128 0xd5
 13526 bf81 424C4F43 		.ascii "BLOCKELEMENT_FULL_BLOCK 0x2588\0"
 13526      4B454C45 
 13526      4D454E54 
 13526      5F46554C 
 13526      4C5F424C 
 13527 bfa0 01       		.byte	0x1
 13528 bfa1 D601     		.uleb128 0xd6
 13529 bfa3 424C4F43 		.ascii "BLOCKELEMENT_LIGHT_SHADE 0x2591\0"
 13529      4B454C45 
 13529      4D454E54 
 13529      5F4C4947 
 13529      48545F53 
 13530 bfc3 01       		.byte	0x1
 13531 bfc4 DB01     		.uleb128 0xdb
 13532 bfc6 47454F4D 		.ascii "GEOMETRICSHAPE_UP_TRIANGLE 0x25b2\0"
 13532      45545249 
 13532      43534841 
 13532      50455F55 
 13532      505F5452 
 13533 bfe8 01       		.byte	0x1
 13534 bfe9 DC01     		.uleb128 0xdc
 13535 bfeb 47454F4D 		.ascii "GEOMETRICSHAPE_RIGHT_TRIANGLE 0x25ba\0"
 13535      45545249 
 13535      43534841 
 13535      50455F52 
 13535      49474854 
 13536 c010 01       		.byte	0x1
 13537 c011 DD01     		.uleb128 0xdd
 13538 c013 47454F4D 		.ascii "GEOMETRICSHAPE_DOWN_TRIANGLE 0x25bc\0"
 13538      45545249 
 13538      43534841 
 13538      50455F44 
 13538      4F574E5F 
 13539 c037 01       		.byte	0x1
 13540 c038 DE01     		.uleb128 0xde
 13541 c03a 47454F4D 		.ascii "GEOMETRICSHAPE_LEFT_TRIANGLE 0x25c4\0"
 13541      45545249 
 13541      43534841 
 13541      50455F4C 
 13541      4546545F 
 13542 c05e 01       		.byte	0x1
 13543 c05f E401     		.uleb128 0xe4
 13544 c061 4152524F 		.ascii "ARROW_UP 0x2191\0"
 13544      575F5550 
 13544      20307832 
 13544      31393100 
 13545 c071 01       		.byte	0x1
 13546 c072 E501     		.uleb128 0xe5
 13547 c074 4152524F 		.ascii "ARROW_DOWN 0x2193\0"
 13547      575F444F 
 13547      574E2030 
 13547      78323139 
 13547      3300
 13548 c086 01       		.byte	0x1
 13549 c087 EB01     		.uleb128 0xeb
 13550 c089 4546495F 		.ascii "EFI_SIMPLE_TEXT_INPUT_PROTOCOL_GUID { 0x387477c1, 0x69c7, 0x11d2, {0x8e, 0x39, 0x0, 0xa0, 
 13550      53494D50 
 13550      4C455F54 
 13550      4558545F 
 13550      494E5055 
 13551 c0fd 01       		.byte	0x1
 13552 c0fe ED01     		.uleb128 0xed
 13553 c100 53494D50 		.ascii "SIMPLE_TEXT_INPUT_PROTOCOL EFI_SIMPLE_TEXT_INPUT_PROTOCOL_GUID\0"
 13553      4C455F54 
 13553      4558545F 
 13553      494E5055 
 13553      545F5052 
 13554 c13f 01       		.byte	0x1
 13555 c140 FA01     		.uleb128 0xfa
 13556 c142 43484152 		.ascii "CHAR_NULL 0x0000\0"
 13556      5F4E554C 
 13556      4C203078 
 13556      30303030 
 13556      00
 13557 c153 01       		.byte	0x1
 13558 c154 FB01     		.uleb128 0xfb
 13559 c156 43484152 		.ascii "CHAR_BACKSPACE 0x0008\0"
 13559      5F424143 
 13559      4B535041 
 13559      43452030 
 13559      78303030 
 13560 c16c 01       		.byte	0x1
 13561 c16d FC01     		.uleb128 0xfc
 13562 c16f 43484152 		.ascii "CHAR_TAB 0x0009\0"
 13562      5F544142 
 13562      20307830 
 13562      30303900 
 13563 c17f 01       		.byte	0x1
 13564 c180 FD01     		.uleb128 0xfd
 13565 c182 43484152 		.ascii "CHAR_LINEFEED 0x000A\0"
 13565      5F4C494E 
 13565      45464545 
 13565      44203078 
 13565      30303041 
 13566 c197 01       		.byte	0x1
 13567 c198 FE01     		.uleb128 0xfe
 13568 c19a 43484152 		.ascii "CHAR_CARRIAGE_RETURN 0x000D\0"
 13568      5F434152 
 13568      52494147 
 13568      455F5245 
 13568      5455524E 
 13569 c1b6 01       		.byte	0x1
 13570 c1b7 8402     		.uleb128 0x104
 13571 c1b9 5343414E 		.ascii "SCAN_NULL 0x0000\0"
 13571      5F4E554C 
 13571      4C203078 
 13571      30303030 
 13571      00
 13572 c1ca 01       		.byte	0x1
 13573 c1cb 8502     		.uleb128 0x105
 13574 c1cd 5343414E 		.ascii "SCAN_UP 0x0001\0"
 13574      5F555020 
 13574      30783030 
 13574      303100
 13575 c1dc 01       		.byte	0x1
 13576 c1dd 8602     		.uleb128 0x106
 13577 c1df 5343414E 		.ascii "SCAN_DOWN 0x0002\0"
 13577      5F444F57 
 13577      4E203078 
 13577      30303032 
 13577      00
 13578 c1f0 01       		.byte	0x1
 13579 c1f1 8702     		.uleb128 0x107
 13580 c1f3 5343414E 		.ascii "SCAN_RIGHT 0x0003\0"
 13580      5F524947 
 13580      48542030 
 13580      78303030 
 13580      3300
 13581 c205 01       		.byte	0x1
 13582 c206 8802     		.uleb128 0x108
 13583 c208 5343414E 		.ascii "SCAN_LEFT 0x0004\0"
 13583      5F4C4546 
 13583      54203078 
 13583      30303034 
 13583      00
 13584 c219 01       		.byte	0x1
 13585 c21a 8902     		.uleb128 0x109
 13586 c21c 5343414E 		.ascii "SCAN_HOME 0x0005\0"
 13586      5F484F4D 
 13586      45203078 
 13586      30303035 
 13586      00
 13587 c22d 01       		.byte	0x1
 13588 c22e 8A02     		.uleb128 0x10a
 13589 c230 5343414E 		.ascii "SCAN_END 0x0006\0"
 13589      5F454E44 
 13589      20307830 
 13589      30303600 
 13590 c240 01       		.byte	0x1
 13591 c241 8B02     		.uleb128 0x10b
 13592 c243 5343414E 		.ascii "SCAN_INSERT 0x0007\0"
 13592      5F494E53 
 13592      45525420 
 13592      30783030 
 13592      303700
 13593 c256 01       		.byte	0x1
 13594 c257 8C02     		.uleb128 0x10c
 13595 c259 5343414E 		.ascii "SCAN_DELETE 0x0008\0"
 13595      5F44454C 
 13595      45544520 
 13595      30783030 
 13595      303800
 13596 c26c 01       		.byte	0x1
 13597 c26d 8D02     		.uleb128 0x10d
 13598 c26f 5343414E 		.ascii "SCAN_PAGE_UP 0x0009\0"
 13598      5F504147 
 13598      455F5550 
 13598      20307830 
 13598      30303900 
 13599 c283 01       		.byte	0x1
 13600 c284 8E02     		.uleb128 0x10e
 13601 c286 5343414E 		.ascii "SCAN_PAGE_DOWN 0x000A\0"
 13601      5F504147 
 13601      455F444F 
 13601      574E2030 
 13601      78303030 
 13602 c29c 01       		.byte	0x1
 13603 c29d 8F02     		.uleb128 0x10f
 13604 c29f 5343414E 		.ascii "SCAN_F1 0x000B\0"
 13604      5F463120 
 13604      30783030 
 13604      304200
 13605 c2ae 01       		.byte	0x1
 13606 c2af 9002     		.uleb128 0x110
 13607 c2b1 5343414E 		.ascii "SCAN_F2 0x000C\0"
 13607      5F463220 
 13607      30783030 
 13607      304300
 13608 c2c0 01       		.byte	0x1
 13609 c2c1 9102     		.uleb128 0x111
 13610 c2c3 5343414E 		.ascii "SCAN_F3 0x000D\0"
 13610      5F463320 
 13610      30783030 
 13610      304400
 13611 c2d2 01       		.byte	0x1
 13612 c2d3 9202     		.uleb128 0x112
 13613 c2d5 5343414E 		.ascii "SCAN_F4 0x000E\0"
 13613      5F463420 
 13613      30783030 
 13613      304500
 13614 c2e4 01       		.byte	0x1
 13615 c2e5 9302     		.uleb128 0x113
 13616 c2e7 5343414E 		.ascii "SCAN_F5 0x000F\0"
 13616      5F463520 
 13616      30783030 
 13616      304600
 13617 c2f6 01       		.byte	0x1
 13618 c2f7 9402     		.uleb128 0x114
 13619 c2f9 5343414E 		.ascii "SCAN_F6 0x0010\0"
 13619      5F463620 
 13619      30783030 
 13619      313000
 13620 c308 01       		.byte	0x1
 13621 c309 9502     		.uleb128 0x115
 13622 c30b 5343414E 		.ascii "SCAN_F7 0x0011\0"
 13622      5F463720 
 13622      30783030 
 13622      313100
 13623 c31a 01       		.byte	0x1
 13624 c31b 9602     		.uleb128 0x116
 13625 c31d 5343414E 		.ascii "SCAN_F8 0x0012\0"
 13625      5F463820 
 13625      30783030 
 13625      313200
 13626 c32c 01       		.byte	0x1
 13627 c32d 9702     		.uleb128 0x117
 13628 c32f 5343414E 		.ascii "SCAN_F9 0x0013\0"
 13628      5F463920 
 13628      30783030 
 13628      313300
 13629 c33e 01       		.byte	0x1
 13630 c33f 9802     		.uleb128 0x118
 13631 c341 5343414E 		.ascii "SCAN_F10 0x0014\0"
 13631      5F463130 
 13631      20307830 
 13631      30313400 
 13632 c351 01       		.byte	0x1
 13633 c352 9902     		.uleb128 0x119
 13634 c354 5343414E 		.ascii "SCAN_F11 0x0015\0"
 13634      5F463131 
 13634      20307830 
 13634      30313500 
 13635 c364 01       		.byte	0x1
 13636 c365 9A02     		.uleb128 0x11a
 13637 c367 5343414E 		.ascii "SCAN_F12 0x0016\0"
 13637      5F463132 
 13637      20307830 
 13637      30313600 
 13638 c377 01       		.byte	0x1
 13639 c378 9B02     		.uleb128 0x11b
 13640 c37a 5343414E 		.ascii "SCAN_ESC 0x0017\0"
 13640      5F455343 
 13640      20307830 
 13640      30313700 
 13641 c38a 04       		.byte	0x4
 13642              		.file 27 "gnu-efi-3.0.18/inc/eficonex.h"
 13643 c38b 03       		.byte	0x3
 13644 c38c 47       		.uleb128 0x47
 13645 c38d 1B       		.uleb128 0x1b
 13646 c38e 01       		.byte	0x1
 13647 c38f 02       		.uleb128 0x2
 13648 c390 5F454649 		.ascii "_EFI_CONEX_H \0"
 13648      5F434F4E 
 13648      45585F48 
 13648      2000
 13649 c39e 01       		.byte	0x1
 13650 c39f 16       		.uleb128 0x16
 13651 c3a0 4546495F 		.ascii "EFI_SIMPLE_TEXT_INPUT_EX_PROTOCOL_GUID { 0xdd9e7534, 0x7762, 0x4698, {0x8c, 0x14, 0xf5, 0x
 13651      53494D50 
 13651      4C455F54 
 13651      4558545F 
 13651      494E5055 
 13652 c418 01       		.byte	0x1
 13653 c419 28       		.uleb128 0x28
 13654 c41a 4546495F 		.ascii "EFI_SHIFT_STATE_VALID 0x80000000\0"
 13654      53484946 
 13654      545F5354 
 13654      4154455F 
 13654      56414C49 
 13655 c43b 01       		.byte	0x1
 13656 c43c 29       		.uleb128 0x29
 13657 c43d 4546495F 		.ascii "EFI_RIGHT_SHIFT_PRESSED 0x00000001\0"
 13657      52494748 
 13657      545F5348 
 13657      4946545F 
 13657      50524553 
 13658 c460 01       		.byte	0x1
 13659 c461 2A       		.uleb128 0x2a
 13660 c462 4546495F 		.ascii "EFI_LEFT_SHIFT_PRESSED 0x00000002\0"
 13660      4C454654 
 13660      5F534849 
 13660      46545F50 
 13660      52455353 
 13661 c484 01       		.byte	0x1
 13662 c485 2B       		.uleb128 0x2b
 13663 c486 4546495F 		.ascii "EFI_RIGHT_CONTROL_PRESSED 0x00000004\0"
 13663      52494748 
 13663      545F434F 
 13663      4E54524F 
 13663      4C5F5052 
 13664 c4ab 01       		.byte	0x1
 13665 c4ac 2C       		.uleb128 0x2c
 13666 c4ad 4546495F 		.ascii "EFI_LEFT_CONTROL_PRESSED 0x00000008\0"
 13666      4C454654 
 13666      5F434F4E 
 13666      54524F4C 
 13666      5F505245 
 13667 c4d1 01       		.byte	0x1
 13668 c4d2 2D       		.uleb128 0x2d
 13669 c4d3 4546495F 		.ascii "EFI_RIGHT_ALT_PRESSED 0x00000010\0"
 13669      52494748 
 13669      545F414C 
 13669      545F5052 
 13669      45535345 
 13670 c4f4 01       		.byte	0x1
 13671 c4f5 2E       		.uleb128 0x2e
 13672 c4f6 4546495F 		.ascii "EFI_LEFT_ALT_PRESSED 0x00000020\0"
 13672      4C454654 
 13672      5F414C54 
 13672      5F505245 
 13672      53534544 
 13673 c516 01       		.byte	0x1
 13674 c517 2F       		.uleb128 0x2f
 13675 c518 4546495F 		.ascii "EFI_RIGHT_LOGO_PRESSED 0x00000040\0"
 13675      52494748 
 13675      545F4C4F 
 13675      474F5F50 
 13675      52455353 
 13676 c53a 01       		.byte	0x1
 13677 c53b 30       		.uleb128 0x30
 13678 c53c 4546495F 		.ascii "EFI_LEFT_LOGO_PRESSED 0x00000080\0"
 13678      4C454654 
 13678      5F4C4F47 
 13678      4F5F5052 
 13678      45535345 
 13679 c55d 01       		.byte	0x1
 13680 c55e 31       		.uleb128 0x31
 13681 c55f 4546495F 		.ascii "EFI_MENU_KEY_PRESSED 0x00000100\0"
 13681      4D454E55 
 13681      5F4B4559 
 13681      5F505245 
 13681      53534544 
 13682 c57f 01       		.byte	0x1
 13683 c580 32       		.uleb128 0x32
 13684 c581 4546495F 		.ascii "EFI_SYS_REQ_PRESSED 0x00000200\0"
 13684      5359535F 
 13684      5245515F 
 13684      50524553 
 13684      53454420 
 13685 c5a0 01       		.byte	0x1
 13686 c5a1 35       		.uleb128 0x35
 13687 c5a2 4546495F 		.ascii "EFI_TOGGLE_STATE_VALID 0x80\0"
 13687      544F4747 
 13687      4C455F53 
 13687      54415445 
 13687      5F56414C 
 13688 c5be 01       		.byte	0x1
 13689 c5bf 36       		.uleb128 0x36
 13690 c5c0 4546495F 		.ascii "EFI_KEY_STATE_EXPOSED 0x40\0"
 13690      4B45595F 
 13690      53544154 
 13690      455F4558 
 13690      504F5345 
 13691 c5db 01       		.byte	0x1
 13692 c5dc 37       		.uleb128 0x37
 13693 c5dd 4546495F 		.ascii "EFI_SCROLL_LOCK_ACTIVE 0x01\0"
 13693      5343524F 
 13693      4C4C5F4C 
 13693      4F434B5F 
 13693      41435449 
 13694 c5f9 01       		.byte	0x1
 13695 c5fa 38       		.uleb128 0x38
 13696 c5fb 4546495F 		.ascii "EFI_NUM_LOCK_ACTIVE 0x02\0"
 13696      4E554D5F 
 13696      4C4F434B 
 13696      5F414354 
 13696      49564520 
 13697 c614 01       		.byte	0x1
 13698 c615 39       		.uleb128 0x39
 13699 c616 4546495F 		.ascii "EFI_CAPS_LOCK_ACTIVE 0x04\0"
 13699      43415053 
 13699      5F4C4F43 
 13699      4B5F4143 
 13699      54495645 
 13700 c630 04       		.byte	0x4
 13701              		.file 28 "gnu-efi-3.0.18/inc/efiser.h"
 13702 c631 03       		.byte	0x3
 13703 c632 48       		.uleb128 0x48
 13704 c633 1C       		.uleb128 0x1c
 13705 c634 01       		.byte	0x1
 13706 c635 02       		.uleb128 0x2
 13707 c636 5F454649 		.ascii "_EFI_SER_H \0"
 13707      5F534552 
 13707      5F482000 
 13708 c642 01       		.byte	0x1
 13709 c643 18       		.uleb128 0x18
 13710 c644 4546495F 		.ascii "EFI_SERIAL_IO_PROTOCOL_GUID { 0xBB25CF6F, 0xF1D4, 0x11D2, {0x9A, 0x0C, 0x00, 0x90, 0x27, 0
 13710      53455249 
 13710      414C5F49 
 13710      4F5F5052 
 13710      4F544F43 
 13711 c6b1 01       		.byte	0x1
 13712 c6b2 1A       		.uleb128 0x1a
 13713 c6b3 53455249 		.ascii "SERIAL_IO_PROTOCOL EFI_SERIAL_IO_PROTOCOL_GUID\0"
 13713      414C5F49 
 13713      4F5F5052 
 13713      4F544F43 
 13713      4F4C2045 
 13714 c6e2 01       		.byte	0x1
 13715 c6e3 2E       		.uleb128 0x2e
 13716 c6e4 4546495F 		.ascii "EFI_SERIAL_CLEAR_TO_SEND 0x0010\0"
 13716      53455249 
 13716      414C5F43 
 13716      4C454152 
 13716      5F544F5F 
 13717 c704 01       		.byte	0x1
 13718 c705 2F       		.uleb128 0x2f
 13719 c706 4546495F 		.ascii "EFI_SERIAL_DATA_SET_READY 0x0020\0"
 13719      53455249 
 13719      414C5F44 
 13719      4154415F 
 13719      5345545F 
 13720 c727 01       		.byte	0x1
 13721 c728 30       		.uleb128 0x30
 13722 c729 4546495F 		.ascii "EFI_SERIAL_RING_INDICATE 0x0040\0"
 13722      53455249 
 13722      414C5F52 
 13722      494E475F 
 13722      494E4449 
 13723 c749 01       		.byte	0x1
 13724 c74a 31       		.uleb128 0x31
 13725 c74b 4546495F 		.ascii "EFI_SERIAL_CARRIER_DETECT 0x0080\0"
 13725      53455249 
 13725      414C5F43 
 13725      41525249 
 13725      45525F44 
 13726 c76c 01       		.byte	0x1
 13727 c76d 32       		.uleb128 0x32
 13728 c76e 4546495F 		.ascii "EFI_SERIAL_REQUEST_TO_SEND 0x0002\0"
 13728      53455249 
 13728      414C5F52 
 13728      45515545 
 13728      53545F54 
 13729 c790 01       		.byte	0x1
 13730 c791 33       		.uleb128 0x33
 13731 c792 4546495F 		.ascii "EFI_SERIAL_DATA_TERMINAL_READY 0x0001\0"
 13731      53455249 
 13731      414C5F44 
 13731      4154415F 
 13731      5445524D 
 13732 c7b8 01       		.byte	0x1
 13733 c7b9 34       		.uleb128 0x34
 13734 c7ba 4546495F 		.ascii "EFI_SERIAL_INPUT_BUFFER_EMPTY 0x0100\0"
 13734      53455249 
 13734      414C5F49 
 13734      4E505554 
 13734      5F425546 
 13735 c7df 01       		.byte	0x1
 13736 c7e0 35       		.uleb128 0x35
 13737 c7e1 4546495F 		.ascii "EFI_SERIAL_OUTPUT_BUFFER_EMPTY 0x0200\0"
 13737      53455249 
 13737      414C5F4F 
 13737      55545055 
 13737      545F4255 
 13738 c807 01       		.byte	0x1
 13739 c808 36       		.uleb128 0x36
 13740 c809 4546495F 		.ascii "EFI_SERIAL_HARDWARE_LOOPBACK_ENABLE 0x1000\0"
 13740      53455249 
 13740      414C5F48 
 13740      41524457 
 13740      4152455F 
 13741 c834 01       		.byte	0x1
 13742 c835 37       		.uleb128 0x37
 13743 c836 4546495F 		.ascii "EFI_SERIAL_SOFTWARE_LOOPBACK_ENABLE 0x2000\0"
 13743      53455249 
 13743      414C5F53 
 13743      4F465457 
 13743      4152455F 
 13744 c861 01       		.byte	0x1
 13745 c862 38       		.uleb128 0x38
 13746 c863 4546495F 		.ascii "EFI_SERIAL_HARDWARE_FLOW_CONTROL_ENABLE 0x4000\0"
 13746      53455249 
 13746      414C5F48 
 13746      41524457 
 13746      4152455F 
 13747 c892 01       		.byte	0x1
 13748 c893 76       		.uleb128 0x76
 13749 c894 53455249 		.ascii "SERIAL_IO_INTERFACE_REVISION 0x00010000\0"
 13749      414C5F49 
 13749      4F5F494E 
 13749      54455246 
 13749      4143455F 
 13750 c8bc 04       		.byte	0x4
 13751              		.file 29 "gnu-efi-3.0.18/inc/efi_nii.h"
 13752 c8bd 03       		.byte	0x3
 13753 c8be 49       		.uleb128 0x49
 13754 c8bf 1D       		.uleb128 0x1d
 13755 c8c0 01       		.byte	0x1
 13756 c8c1 02       		.uleb128 0x2
 13757 c8c2 5F454649 		.ascii "_EFI_NII_H \0"
 13757      5F4E4949 
 13757      5F482000 
 13758 c8ce 01       		.byte	0x1
 13759 c8cf 14       		.uleb128 0x14
 13760 c8d0 4546495F 		.ascii "EFI_NETWORK_INTERFACE_IDENTIFIER_PROTOCOL_GUID { 0xE18541CD, 0xF755, 0x4f73, {0x92, 0x8D, 
 13760      4E455457 
 13760      4F524B5F 
 13760      494E5445 
 13760      52464143 
 13761 c950 01       		.byte	0x1
 13762 c951 17       		.uleb128 0x17
 13763 c952 4546495F 		.ascii "EFI_NETWORK_INTERFACE_IDENTIFIER_PROTOCOL_REVISION 0x00010000\0"
 13763      4E455457 
 13763      4F524B5F 
 13763      494E5445 
 13763      52464143 
 13764 c990 01       		.byte	0x1
 13765 c991 18       		.uleb128 0x18
 13766 c992 4546495F 		.ascii "EFI_NETWORK_INTERFACE_IDENTIFIER_INTERFACE_REVISION EFI_NETWORK_INTERFACE_IDENTIFIER_PROTO
 13766      4E455457 
 13766      4F524B5F 
 13766      494E5445 
 13766      52464143 
 13767 c9f9 04       		.byte	0x4
 13768              		.file 30 "gnu-efi-3.0.18/inc/efipxebc.h"
 13769 c9fa 03       		.byte	0x3
 13770 c9fb 4A       		.uleb128 0x4a
 13771 c9fc 1E       		.uleb128 0x1e
 13772 c9fd 01       		.byte	0x1
 13773 c9fe 02       		.uleb128 0x2
 13774 c9ff 5F454649 		.ascii "_EFIPXEBC_H \0"
 13774      50584542 
 13774      435F4820 
 13774      00
 13775 ca0c 01       		.byte	0x1
 13776 ca0d 1A       		.uleb128 0x1a
 13777 ca0e 4546495F 		.ascii "EFI_PXE_BASE_CODE_PROTOCOL_GUID { 0x03c4e603, 0xac28, 0x11d3, {0x9a, 0x2d, 0x00, 0x90, 0x2
 13777      5058455F 
 13777      42415345 
 13777      5F434F44 
 13777      455F5052 
 13778 ca7f 01       		.byte	0x1
 13779 ca80 1F       		.uleb128 0x1f
 13780 ca81 44454641 		.ascii "DEFAULT_TTL 4\0"
 13780      554C545F 
 13780      54544C20 
 13780      3400
 13781 ca8f 01       		.byte	0x1
 13782 ca90 20       		.uleb128 0x20
 13783 ca91 44454641 		.ascii "DEFAULT_ToS 0\0"
 13783      554C545F 
 13783      546F5320 
 13783      3000
 13784 ca9f 01       		.byte	0x1
 13785 caa0 68       		.uleb128 0x68
 13786 caa1 4546495F 		.ascii "EFI_PXE_BASE_CODE_MAX_IPCNT 8\0"
 13786      5058455F 
 13786      42415345 
 13786      5F434F44 
 13786      455F4D41 
 13787 cabf 01       		.byte	0x1
 13788 cac0 70       		.uleb128 0x70
 13789 cac1 4546495F 		.ascii "EFI_PXE_BASE_CODE_IP_FILTER_STATION_IP 0x0001\0"
 13789      5058455F 
 13789      42415345 
 13789      5F434F44 
 13789      455F4950 
 13790 caef 01       		.byte	0x1
 13791 caf0 71       		.uleb128 0x71
 13792 caf1 4546495F 		.ascii "EFI_PXE_BASE_CODE_IP_FILTER_BROADCAST 0x0002\0"
 13792      5058455F 
 13792      42415345 
 13792      5F434F44 
 13792      455F4950 
 13793 cb1e 01       		.byte	0x1
 13794 cb1f 72       		.uleb128 0x72
 13795 cb20 4546495F 		.ascii "EFI_PXE_BASE_CODE_IP_FILTER_PROMISCUOUS 0x0004\0"
 13795      5058455F 
 13795      42415345 
 13795      5F434F44 
 13795      455F4950 
 13796 cb4f 01       		.byte	0x1
 13797 cb50 73       		.uleb128 0x73
 13798 cb51 4546495F 		.ascii "EFI_PXE_BASE_CODE_IP_FILTER_PROMISCUOUS_MULTICAST 0x0008\0"
 13798      5058455F 
 13798      42415345 
 13798      5F434F44 
 13798      455F4950 
 13799 cb8a 01       		.byte	0x1
 13800 cb8b 8801     		.uleb128 0x88
 13801 cb8d 4546495F 		.ascii "EFI_PXE_BASE_CODE_UDP_OPFLAGS_ANY_SRC_IP 0x0001\0"
 13801      5058455F 
 13801      42415345 
 13801      5F434F44 
 13801      455F5544 
 13802 cbbd 01       		.byte	0x1
 13803 cbbe 8901     		.uleb128 0x89
 13804 cbc0 4546495F 		.ascii "EFI_PXE_BASE_CODE_UDP_OPFLAGS_ANY_SRC_PORT 0x0002\0"
 13804      5058455F 
 13804      42415345 
 13804      5F434F44 
 13804      455F5544 
 13805 cbf2 01       		.byte	0x1
 13806 cbf3 8A01     		.uleb128 0x8a
 13807 cbf5 4546495F 		.ascii "EFI_PXE_BASE_CODE_UDP_OPFLAGS_ANY_DEST_IP 0x0004\0"
 13807      5058455F 
 13807      42415345 
 13807      5F434F44 
 13807      455F5544 
 13808 cc26 01       		.byte	0x1
 13809 cc27 8B01     		.uleb128 0x8b
 13810 cc29 4546495F 		.ascii "EFI_PXE_BASE_CODE_UDP_OPFLAGS_ANY_DEST_PORT 0x0008\0"
 13810      5058455F 
 13810      42415345 
 13810      5F434F44 
 13810      455F5544 
 13811 cc5c 01       		.byte	0x1
 13812 cc5d 8C01     		.uleb128 0x8c
 13813 cc5f 4546495F 		.ascii "EFI_PXE_BASE_CODE_UDP_OPFLAGS_USE_FILTER 0x0010\0"
 13813      5058455F 
 13813      42415345 
 13813      5F434F44 
 13813      455F5544 
 13814 cc8f 01       		.byte	0x1
 13815 cc90 8D01     		.uleb128 0x8d
 13816 cc92 4546495F 		.ascii "EFI_PXE_BASE_CODE_UDP_OPFLAGS_MAY_FRAGMENT 0x0020\0"
 13816      5058455F 
 13816      42415345 
 13816      5F434F44 
 13816      455F5544 
 13817 ccc4 01       		.byte	0x1
 13818 ccc5 9301     		.uleb128 0x93
 13819 ccc7 4546495F 		.ascii "EFI_PXE_BASE_CODE_BOOT_TYPE_BOOTSTRAP 0\0"
 13819      5058455F 
 13819      42415345 
 13819      5F434F44 
 13819      455F424F 
 13820 ccef 01       		.byte	0x1
 13821 ccf0 9401     		.uleb128 0x94
 13822 ccf2 4546495F 		.ascii "EFI_PXE_BASE_CODE_BOOT_TYPE_MS_WINNT_RIS 1\0"
 13822      5058455F 
 13822      42415345 
 13822      5F434F44 
 13822      455F424F 
 13823 cd1d 01       		.byte	0x1
 13824 cd1e 9501     		.uleb128 0x95
 13825 cd20 4546495F 		.ascii "EFI_PXE_BASE_CODE_BOOT_TYPE_INTEL_LCM 2\0"
 13825      5058455F 
 13825      42415345 
 13825      5F434F44 
 13825      455F424F 
 13826 cd48 01       		.byte	0x1
 13827 cd49 9601     		.uleb128 0x96
 13828 cd4b 4546495F 		.ascii "EFI_PXE_BASE_CODE_BOOT_TYPE_DOSUNDI 3\0"
 13828      5058455F 
 13828      42415345 
 13828      5F434F44 
 13828      455F424F 
 13829 cd71 01       		.byte	0x1
 13830 cd72 9701     		.uleb128 0x97
 13831 cd74 4546495F 		.ascii "EFI_PXE_BASE_CODE_BOOT_TYPE_NEC_ESMPRO 4\0"
 13831      5058455F 
 13831      42415345 
 13831      5F434F44 
 13831      455F424F 
 13832 cd9d 01       		.byte	0x1
 13833 cd9e 9801     		.uleb128 0x98
 13834 cda0 4546495F 		.ascii "EFI_PXE_BASE_CODE_BOOT_TYPE_IBM_WSoD 5\0"
 13834      5058455F 
 13834      42415345 
 13834      5F434F44 
 13834      455F424F 
 13835 cdc7 01       		.byte	0x1
 13836 cdc8 9901     		.uleb128 0x99
 13837 cdca 4546495F 		.ascii "EFI_PXE_BASE_CODE_BOOT_TYPE_IBM_LCCM 6\0"
 13837      5058455F 
 13837      42415345 
 13837      5F434F44 
 13837      455F424F 
 13838 cdf1 01       		.byte	0x1
 13839 cdf2 9A01     		.uleb128 0x9a
 13840 cdf4 4546495F 		.ascii "EFI_PXE_BASE_CODE_BOOT_TYPE_CA_UNICENTER_TNG 7\0"
 13840      5058455F 
 13840      42415345 
 13840      5F434F44 
 13840      455F424F 
 13841 ce23 01       		.byte	0x1
 13842 ce24 9B01     		.uleb128 0x9b
 13843 ce26 4546495F 		.ascii "EFI_PXE_BASE_CODE_BOOT_TYPE_HP_OPENVIEW 8\0"
 13843      5058455F 
 13843      42415345 
 13843      5F434F44 
 13843      455F424F 
 13844 ce50 01       		.byte	0x1
 13845 ce51 9C01     		.uleb128 0x9c
 13846 ce53 4546495F 		.ascii "EFI_PXE_BASE_CODE_BOOT_TYPE_ALTIRIS_9 9\0"
 13846      5058455F 
 13846      42415345 
 13846      5F434F44 
 13846      455F424F 
 13847 ce7b 01       		.byte	0x1
 13848 ce7c 9D01     		.uleb128 0x9d
 13849 ce7e 4546495F 		.ascii "EFI_PXE_BASE_CODE_BOOT_TYPE_ALTIRIS_10 10\0"
 13849      5058455F 
 13849      42415345 
 13849      5F434F44 
 13849      455F424F 
 13850 cea8 01       		.byte	0x1
 13851 cea9 9E01     		.uleb128 0x9e
 13852 ceab 4546495F 		.ascii "EFI_PXE_BASE_CODE_BOOT_TYPE_ALTIRIS_11 11\0"
 13852      5058455F 
 13852      42415345 
 13852      5F434F44 
 13852      455F424F 
 13853 ced5 01       		.byte	0x1
 13854 ced6 9F01     		.uleb128 0x9f
 13855 ced8 4546495F 		.ascii "EFI_PXE_BASE_CODE_BOOT_TYPE_NOT_USED_12 12\0"
 13855      5058455F 
 13855      42415345 
 13855      5F434F44 
 13855      455F424F 
 13856 cf03 01       		.byte	0x1
 13857 cf04 A001     		.uleb128 0xa0
 13858 cf06 4546495F 		.ascii "EFI_PXE_BASE_CODE_BOOT_TYPE_REDHAT_INSTALL 13\0"
 13858      5058455F 
 13858      42415345 
 13858      5F434F44 
 13858      455F424F 
 13859 cf34 01       		.byte	0x1
 13860 cf35 A101     		.uleb128 0xa1
 13861 cf37 4546495F 		.ascii "EFI_PXE_BASE_CODE_BOOT_TYPE_REDHAT_BOOT 14\0"
 13861      5058455F 
 13861      42415345 
 13861      5F434F44 
 13861      455F424F 
 13862 cf62 01       		.byte	0x1
 13863 cf63 A201     		.uleb128 0xa2
 13864 cf65 4546495F 		.ascii "EFI_PXE_BASE_CODE_BOOT_TYPE_REMBO 15\0"
 13864      5058455F 
 13864      42415345 
 13864      5F434F44 
 13864      455F424F 
 13865 cf8a 01       		.byte	0x1
 13866 cf8b A301     		.uleb128 0xa3
 13867 cf8d 4546495F 		.ascii "EFI_PXE_BASE_CODE_BOOT_TYPE_BEOBOOT 16\0"
 13867      5058455F 
 13867      42415345 
 13867      5F434F44 
 13867      455F424F 
 13868 cfb4 01       		.byte	0x1
 13869 cfb5 A901     		.uleb128 0xa9
 13870 cfb7 4546495F 		.ascii "EFI_PXE_BASE_CODE_BOOT_TYPE_PXETEST 65535\0"
 13870      5058455F 
 13870      42415345 
 13870      5F434F44 
 13870      455F424F 
 13871 cfe1 01       		.byte	0x1
 13872 cfe2 AB01     		.uleb128 0xab
 13873 cfe4 4546495F 		.ascii "EFI_PXE_BASE_CODE_BOOT_LAYER_MASK 0x7FFF\0"
 13873      5058455F 
 13873      42415345 
 13873      5F434F44 
 13873      455F424F 
 13874 d00d 01       		.byte	0x1
 13875 d00e AC01     		.uleb128 0xac
 13876 d010 4546495F 		.ascii "EFI_PXE_BASE_CODE_BOOT_LAYER_INITIAL 0x0000\0"
 13876      5058455F 
 13876      42415345 
 13876      5F434F44 
 13876      455F424F 
 13877 d03c 01       		.byte	0x1
 13878 d03d DC01     		.uleb128 0xdc
 13879 d03f 4546495F 		.ascii "EFI_PXE_BASE_CODE_MAX_ARP_ENTRIES 8\0"
 13879      5058455F 
 13879      42415345 
 13879      5F434F44 
 13879      455F4D41 
 13880 d063 01       		.byte	0x1
 13881 d064 DD01     		.uleb128 0xdd
 13882 d066 4546495F 		.ascii "EFI_PXE_BASE_CODE_MAX_ROUTE_ENTRIES 8\0"
 13882      5058455F 
 13882      42415345 
 13882      5F434F44 
 13882      455F4D41 
 13883 d08c 01       		.byte	0x1
 13884 d08d 8C03     		.uleb128 0x18c
 13885 d08f 4546495F 		.ascii "EFI_PXE_BASE_CODE_PROTOCOL_REVISION 0x00010000\0"
 13885      5058455F 
 13885      42415345 
 13885      5F434F44 
 13885      455F5052 
 13886 d0be 01       		.byte	0x1
 13887 d0bf 8D03     		.uleb128 0x18d
 13888 d0c1 4546495F 		.ascii "EFI_PXE_BASE_CODE_INTERFACE_REVISION EFI_PXE_BASE_CODE_PROTOCOL_REVISION\0"
 13888      5058455F 
 13888      42415345 
 13888      5F434F44 
 13888      455F494E 
 13889 d10a 01       		.byte	0x1
 13890 d10b AC03     		.uleb128 0x1ac
 13891 d10d 4546495F 		.ascii "EFI_PXE_BASE_CODE_CALLBACK_PROTOCOL_GUID { 0x245dca21, 0xfb7b, 0x11d3, {0x8f, 0x01, 0x00, 
 13891      5058455F 
 13891      42415345 
 13891      5F434F44 
 13891      455F4341 
 13892 d187 01       		.byte	0x1
 13893 d188 B303     		.uleb128 0x1b3
 13894 d18a 4546495F 		.ascii "EFI_PXE_BASE_CODE_CALLBACK_PROTOCOL_REVISION 0x00010000\0"
 13894      5058455F 
 13894      42415345 
 13894      5F434F44 
 13894      455F4341 
 13895 d1c2 01       		.byte	0x1
 13896 d1c3 B403     		.uleb128 0x1b4
 13897 d1c5 4546495F 		.ascii "EFI_PXE_BASE_CODE_CALLBACK_INTERFACE_REVISION EFI_PXE_BASE_CODE_CALLBACK_PROTOCOL_REVISION
 13897      5058455F 
 13897      42415345 
 13897      5F434F44 
 13897      455F4341 
 13898 d220 04       		.byte	0x4
 13899              		.file 31 "gnu-efi-3.0.18/inc/efinet.h"
 13900 d221 03       		.byte	0x3
 13901 d222 4B       		.uleb128 0x4b
 13902 d223 1F       		.uleb128 0x1f
 13903 d224 01       		.byte	0x1
 13904 d225 02       		.uleb128 0x2
 13905 d226 5F454649 		.ascii "_EFINET_H \0"
 13905      4E45545F 
 13905      482000
 13906 d231 01       		.byte	0x1
 13907 d232 17       		.uleb128 0x17
 13908 d233 4546495F 		.ascii "EFI_SIMPLE_NETWORK_PROTOCOL_GUID { 0xA19832B9, 0xAC25, 0x11D3, {0x9A, 0x2D, 0x00, 0x90, 0x
 13908      53494D50 
 13908      4C455F4E 
 13908      4554574F 
 13908      524B5F50 
 13909 d2a5 01       		.byte	0x1
 13910 d2a6 7D       		.uleb128 0x7d
 13911 d2a7 4546495F 		.ascii "EFI_SIMPLE_NETWORK_RECEIVE_UNICAST 0x01\0"
 13911      53494D50 
 13911      4C455F4E 
 13911      4554574F 
 13911      524B5F52 
 13912 d2cf 01       		.byte	0x1
 13913 d2d0 7E       		.uleb128 0x7e
 13914 d2d1 4546495F 		.ascii "EFI_SIMPLE_NETWORK_RECEIVE_MULTICAST 0x02\0"
 13914      53494D50 
 13914      4C455F4E 
 13914      4554574F 
 13914      524B5F52 
 13915 d2fb 01       		.byte	0x1
 13916 d2fc 7F       		.uleb128 0x7f
 13917 d2fd 4546495F 		.ascii "EFI_SIMPLE_NETWORK_RECEIVE_BROADCAST 0x04\0"
 13917      53494D50 
 13917      4C455F4E 
 13917      4554574F 
 13917      524B5F52 
 13918 d327 01       		.byte	0x1
 13919 d328 8001     		.uleb128 0x80
 13920 d32a 4546495F 		.ascii "EFI_SIMPLE_NETWORK_RECEIVE_PROMISCUOUS 0x08\0"
 13920      53494D50 
 13920      4C455F4E 
 13920      4554574F 
 13920      524B5F52 
 13921 d356 01       		.byte	0x1
 13922 d357 8101     		.uleb128 0x81
 13923 d359 4546495F 		.ascii "EFI_SIMPLE_NETWORK_RECEIVE_PROMISCUOUS_MULTICAST 0x10\0"
 13923      53494D50 
 13923      4C455F4E 
 13923      4554574F 
 13923      524B5F52 
 13924 d38f 01       		.byte	0x1
 13925 d390 8601     		.uleb128 0x86
 13926 d392 4546495F 		.ascii "EFI_SIMPLE_NETWORK_RECEIVE_INTERRUPT 0x01\0"
 13926      53494D50 
 13926      4C455F4E 
 13926      4554574F 
 13926      524B5F52 
 13927 d3bc 01       		.byte	0x1
 13928 d3bd 8701     		.uleb128 0x87
 13929 d3bf 4546495F 		.ascii "EFI_SIMPLE_NETWORK_TRANSMIT_INTERRUPT 0x02\0"
 13929      53494D50 
 13929      4C455F4E 
 13929      4554574F 
 13929      524B5F54 
 13930 d3ea 01       		.byte	0x1
 13931 d3eb 8801     		.uleb128 0x88
 13932 d3ed 4546495F 		.ascii "EFI_SIMPLE_NETWORK_COMMAND_INTERRUPT 0x04\0"
 13932      53494D50 
 13932      4C455F4E 
 13932      4554574F 
 13932      524B5F43 
 13933 d417 01       		.byte	0x1
 13934 d418 8901     		.uleb128 0x89
 13935 d41a 4546495F 		.ascii "EFI_SIMPLE_NETWORK_SOFTWARE_INTERRUPT 0x08\0"
 13935      53494D50 
 13935      4C455F4E 
 13935      4554574F 
 13935      524B5F53 
 13936 d445 01       		.byte	0x1
 13937 d446 8D01     		.uleb128 0x8d
 13938 d448 4D41585F 		.ascii "MAX_MCAST_FILTER_CNT 16\0"
 13938      4D434153 
 13938      545F4649 
 13938      4C544552 
 13938      5F434E54 
 13939 d460 01       		.byte	0x1
 13940 d461 BE02     		.uleb128 0x13e
 13941 d463 4546495F 		.ascii "EFI_SIMPLE_NETWORK_PROTOCOL_REVISION 0x00010000\0"
 13941      53494D50 
 13941      4C455F4E 
 13941      4554574F 
 13941      524B5F50 
 13942 d493 01       		.byte	0x1
 13943 d494 BF02     		.uleb128 0x13f
 13944 d496 4546495F 		.ascii "EFI_SIMPLE_NETWORK_INTERFACE_REVISION EFI_SIMPLE_NETWORK_PROTOCOL_REVISION\0"
 13944      53494D50 
 13944      4C455F4E 
 13944      4554574F 
 13944      524B5F49 
 13945 d4e1 04       		.byte	0x4
 13946 d4e2 03       		.byte	0x3
 13947 d4e3 4C       		.uleb128 0x4c
 13948 d4e4 08       		.uleb128 0x8
 13949 d4e5 01       		.byte	0x1
 13950 d4e6 02       		.uleb128 0x2
 13951 d4e7 5F454649 		.ascii "_EFI_API_H \0"
 13951      5F415049 
 13951      5F482000 
 13952 d4f3 01       		.byte	0x1
 13953 d4f4 1B       		.uleb128 0x1b
 13954 d4f5 4546495F 		.ascii "EFI_SPECIFICATION_REVISION_MAJORMINOR(major,minor) ((major<<16) | (minor))\0"
 13954      53504543 
 13954      49464943 
 13954      4154494F 
 13954      4E5F5245 
 13955 d540 01       		.byte	0x1
 13956 d541 1C       		.uleb128 0x1c
 13957 d542 4546495F 		.ascii "EFI_SPECIFICATION_MAJOR_REVISION 1\0"
 13957      53504543 
 13957      49464943 
 13957      4154494F 
 13957      4E5F4D41 
 13958 d565 01       		.byte	0x1
 13959 d566 1D       		.uleb128 0x1d
 13960 d567 4546495F 		.ascii "EFI_SPECIFICATION_MINOR_REVISION 02\0"
 13960      53504543 
 13960      49464943 
 13960      4154494F 
 13960      4E5F4D49 
 13961 d58b 01       		.byte	0x1
 13962 d58c 1E       		.uleb128 0x1e
 13963 d58d 4546495F 		.ascii "EFI_SPECIFICATION_VERSION EFI_SPECIFICATION_REVISION_MAJORMINOR(EFI_SPECIFICATION_MAJOR_RE
 13963      53504543 
 13963      49464943 
 13963      4154494F 
 13963      4E5F5645 
 13964 d611 01       		.byte	0x1
 13965 d612 44       		.uleb128 0x44
 13966 d613 4E657874 		.ascii "NextMemoryDescriptor(Ptr,Size) ((EFI_MEMORY_DESCRIPTOR *) (((UINT8 *) Ptr) + Size))\0"
 13966      4D656D6F 
 13966      72794465 
 13966      73637269 
 13966      70746F72 
 13967 d667 01       		.byte	0x1
 13968 d668 5F       		.uleb128 0x5f
 13969 d669 4546495F 		.ascii "EFI_OPTIONAL_PTR 0x00000001\0"
 13969      4F505449 
 13969      4F4E414C 
 13969      5F505452 
 13969      20307830 
 13970 d685 01       		.byte	0x1
 13971 d686 60       		.uleb128 0x60
 13972 d687 4546495F 		.ascii "EFI_INTERNAL_FNC 0x00000002\0"
 13972      494E5445 
 13972      524E414C 
 13972      5F464E43 
 13972      20307830 
 13973 d6a3 01       		.byte	0x1
 13974 d6a4 61       		.uleb128 0x61
 13975 d6a5 4546495F 		.ascii "EFI_INTERNAL_PTR 0x00000004\0"
 13975      494E5445 
 13975      524E414C 
 13975      5F505452 
 13975      20307830 
 13976 d6c1 01       		.byte	0x1
 13977 d6c2 70       		.uleb128 0x70
 13978 d6c3 4556545F 		.ascii "EVT_TIMER 0x80000000\0"
 13978      54494D45 
 13978      52203078 
 13978      38303030 
 13978      30303030 
 13979 d6d8 01       		.byte	0x1
 13980 d6d9 71       		.uleb128 0x71
 13981 d6da 4556545F 		.ascii "EVT_RUNTIME 0x40000000\0"
 13981      52554E54 
 13981      494D4520 
 13981      30783430 
 13981      30303030 
 13982 d6f1 01       		.byte	0x1
 13983 d6f2 72       		.uleb128 0x72
 13984 d6f3 4556545F 		.ascii "EVT_RUNTIME_CONTEXT 0x20000000\0"
 13984      52554E54 
 13984      494D455F 
 13984      434F4E54 
 13984      45585420 
 13985 d712 01       		.byte	0x1
 13986 d713 74       		.uleb128 0x74
 13987 d714 4556545F 		.ascii "EVT_NOTIFY_WAIT 0x00000100\0"
 13987      4E4F5449 
 13987      46595F57 
 13987      41495420 
 13987      30783030 
 13988 d72f 01       		.byte	0x1
 13989 d730 75       		.uleb128 0x75
 13990 d731 4556545F 		.ascii "EVT_NOTIFY_SIGNAL 0x00000200\0"
 13990      4E4F5449 
 13990      46595F53 
 13990      49474E41 
 13990      4C203078 
 13991 d74e 01       		.byte	0x1
 13992 d74f 77       		.uleb128 0x77
 13993 d750 4556545F 		.ascii "EVT_SIGNAL_EXIT_BOOT_SERVICES 0x00000201\0"
 13993      5349474E 
 13993      414C5F45 
 13993      5849545F 
 13993      424F4F54 
 13994 d779 01       		.byte	0x1
 13995 d77a 78       		.uleb128 0x78
 13996 d77b 4556545F 		.ascii "EVT_SIGNAL_VIRTUAL_ADDRESS_CHANGE 0x60000202\0"
 13996      5349474E 
 13996      414C5F56 
 13996      49525455 
 13996      414C5F41 
 13997 d7a8 01       		.byte	0x1
 13998 d7a9 7A       		.uleb128 0x7a
 13999 d7aa 4556545F 		.ascii "EVT_EFI_SIGNAL_MASK 0x000000FF\0"
 13999      4546495F 
 13999      5349474E 
 13999      414C5F4D 
 13999      41534B20 
 14000 d7c9 01       		.byte	0x1
 14001 d7ca 7B       		.uleb128 0x7b
 14002 d7cb 4556545F 		.ascii "EVT_EFI_SIGNAL_MAX 4\0"
 14002      4546495F 
 14002      5349474E 
 14002      414C5F4D 
 14002      41582034 
 14003 d7e0 01       		.byte	0x1
 14004 d7e1 7D       		.uleb128 0x7d
 14005 d7e2 4546495F 		.ascii "EFI_EVENT_TIMER EVT_TIMER\0"
 14005      4556454E 
 14005      545F5449 
 14005      4D455220 
 14005      4556545F 
 14006 d7fc 01       		.byte	0x1
 14007 d7fd 7E       		.uleb128 0x7e
 14008 d7fe 4546495F 		.ascii "EFI_EVENT_RUNTIME EVT_RUNTIME\0"
 14008      4556454E 
 14008      545F5255 
 14008      4E54494D 
 14008      45204556 
 14009 d81c 01       		.byte	0x1
 14010 d81d 7F       		.uleb128 0x7f
 14011 d81e 4546495F 		.ascii "EFI_EVENT_RUNTIME_CONTEXT EVT_RUNTIME_CONTEXT\0"
 14011      4556454E 
 14011      545F5255 
 14011      4E54494D 
 14011      455F434F 
 14012 d84c 01       		.byte	0x1
 14013 d84d 8001     		.uleb128 0x80
 14014 d84f 4546495F 		.ascii "EFI_EVENT_NOTIFY_WAIT EVT_NOTIFY_WAIT\0"
 14014      4556454E 
 14014      545F4E4F 
 14014      54494659 
 14014      5F574149 
 14015 d875 01       		.byte	0x1
 14016 d876 8101     		.uleb128 0x81
 14017 d878 4546495F 		.ascii "EFI_EVENT_NOTIFY_SIGNAL EVT_NOTIFY_SIGNAL\0"
 14017      4556454E 
 14017      545F4E4F 
 14017      54494659 
 14017      5F534947 
 14018 d8a2 01       		.byte	0x1
 14019 d8a3 8201     		.uleb128 0x82
 14020 d8a5 4546495F 		.ascii "EFI_EVENT_SIGNAL_EXIT_BOOT_SERVICES EVT_SIGNAL_EXIT_BOOT_SERVICES\0"
 14020      4556454E 
 14020      545F5349 
 14020      474E414C 
 14020      5F455849 
 14021 d8e7 01       		.byte	0x1
 14022 d8e8 8301     		.uleb128 0x83
 14023 d8ea 4546495F 		.ascii "EFI_EVENT_SIGNAL_VIRTUAL_ADDRESS_CHANGE EVT_SIGNAL_VIRTUAL_ADDRESS_CHANGE\0"
 14023      4556454E 
 14023      545F5349 
 14023      474E414C 
 14023      5F564952 
 14024 d934 01       		.byte	0x1
 14025 d935 8401     		.uleb128 0x84
 14026 d937 4546495F 		.ascii "EFI_EVENT_EFI_SIGNAL_MASK EVT_EFI_SIGNAL_MASK\0"
 14026      4556454E 
 14026      545F4546 
 14026      495F5349 
 14026      474E414C 
 14027 d965 01       		.byte	0x1
 14028 d966 8501     		.uleb128 0x85
 14029 d968 4546495F 		.ascii "EFI_EVENT_EFI_SIGNAL_MAX EVT_EFI_SIGNAL_MAX\0"
 14029      4556454E 
 14029      545F4546 
 14029      495F5349 
 14029      474E414C 
 14030 d994 01       		.byte	0x1
 14031 d995 C601     		.uleb128 0xc6
 14032 d997 54504C5F 		.ascii "TPL_APPLICATION 4\0"
 14032      4150504C 
 14032      49434154 
 14032      494F4E20 
 14032      3400
 14033 d9a9 01       		.byte	0x1
 14034 d9aa C701     		.uleb128 0xc7
 14035 d9ac 54504C5F 		.ascii "TPL_CALLBACK 8\0"
 14035      43414C4C 
 14035      4241434B 
 14035      203800
 14036 d9bb 01       		.byte	0x1
 14037 d9bc C801     		.uleb128 0xc8
 14038 d9be 54504C5F 		.ascii "TPL_NOTIFY 16\0"
 14038      4E4F5449 
 14038      46592031 
 14038      3600
 14039 d9cc 01       		.byte	0x1
 14040 d9cd C901     		.uleb128 0xc9
 14041 d9cf 54504C5F 		.ascii "TPL_HIGH_LEVEL 31\0"
 14041      48494748 
 14041      5F4C4556 
 14041      454C2033 
 14041      3100
 14042 d9e1 01       		.byte	0x1
 14043 d9e2 CA01     		.uleb128 0xca
 14044 d9e4 4546495F 		.ascii "EFI_TPL_APPLICATION TPL_APPLICATION\0"
 14044      54504C5F 
 14044      4150504C 
 14044      49434154 
 14044      494F4E20 
 14045 da08 01       		.byte	0x1
 14046 da09 CB01     		.uleb128 0xcb
 14047 da0b 4546495F 		.ascii "EFI_TPL_CALLBACK TPL_CALLBACK\0"
 14047      54504C5F 
 14047      43414C4C 
 14047      4241434B 
 14047      2054504C 
 14048 da29 01       		.byte	0x1
 14049 da2a CC01     		.uleb128 0xcc
 14050 da2c 4546495F 		.ascii "EFI_TPL_NOTIFY TPL_NOTIFY\0"
 14050      54504C5F 
 14050      4E4F5449 
 14050      46592054 
 14050      504C5F4E 
 14051 da46 01       		.byte	0x1
 14052 da47 CD01     		.uleb128 0xcd
 14053 da49 4546495F 		.ascii "EFI_TPL_HIGH_LEVEL TPL_HIGH_LEVEL\0"
 14053      54504C5F 
 14053      48494748 
 14053      5F4C4556 
 14053      454C2054 
 14054 da6b 01       		.byte	0x1
 14055 da6c DF01     		.uleb128 0xdf
 14056 da6e 4546495F 		.ascii "EFI_GLOBAL_VARIABLE { 0x8BE4DF61, 0x93CA, 0x11d2, {0xAA, 0x0D, 0x00, 0xE0, 0x98, 0x03, 0x2
 14056      474C4F42 
 14056      414C5F56 
 14056      41524941 
 14056      424C4520 
 14057 dad3 01       		.byte	0x1
 14058 dad4 E301     		.uleb128 0xe3
 14059 dad6 4546495F 		.ascii "EFI_VARIABLE_NON_VOLATILE 0x00000001\0"
 14059      56415249 
 14059      41424C45 
 14059      5F4E4F4E 
 14059      5F564F4C 
 14060 dafb 01       		.byte	0x1
 14061 dafc E401     		.uleb128 0xe4
 14062 dafe 4546495F 		.ascii "EFI_VARIABLE_BOOTSERVICE_ACCESS 0x00000002\0"
 14062      56415249 
 14062      41424C45 
 14062      5F424F4F 
 14062      54534552 
 14063 db29 01       		.byte	0x1
 14064 db2a E501     		.uleb128 0xe5
 14065 db2c 4546495F 		.ascii "EFI_VARIABLE_RUNTIME_ACCESS 0x00000004\0"
 14065      56415249 
 14065      41424C45 
 14065      5F52554E 
 14065      54494D45 
 14066 db53 01       		.byte	0x1
 14067 db54 E601     		.uleb128 0xe6
 14068 db56 4546495F 		.ascii "EFI_VARIABLE_HARDWARE_ERROR_RECORD 0x00000008\0"
 14068      56415249 
 14068      41424C45 
 14068      5F484152 
 14068      44574152 
 14069 db84 01       		.byte	0x1
 14070 db85 E701     		.uleb128 0xe7
 14071 db87 4546495F 		.ascii "EFI_VARIABLE_AUTHENTICATED_WRITE_ACCESS 0x00000010\0"
 14071      56415249 
 14071      41424C45 
 14071      5F415554 
 14071      48454E54 
 14072 dbba 01       		.byte	0x1
 14073 dbbb E801     		.uleb128 0xe8
 14074 dbbd 4546495F 		.ascii "EFI_VARIABLE_TIME_BASED_AUTHENTICATED_WRITE_ACCESS 0x00000020\0"
 14074      56415249 
 14074      41424C45 
 14074      5F54494D 
 14074      455F4241 
 14075 dbfb 01       		.byte	0x1
 14076 dbfc E901     		.uleb128 0xe9
 14077 dbfe 4546495F 		.ascii "EFI_VARIABLE_APPEND_WRITE 0x00000040\0"
 14077      56415249 
 14077      41424C45 
 14077      5F415050 
 14077      454E445F 
 14078 dc23 01       		.byte	0x1
 14079 dc24 EA01     		.uleb128 0xea
 14080 dc26 4546495F 		.ascii "EFI_VARIABLE_ENHANCED_AUTHENTICATED_ACCESS 0x00000080\0"
 14080      56415249 
 14080      41424C45 
 14080      5F454E48 
 14080      414E4345 
 14081 dc5c 01       		.byte	0x1
 14082 dc5d ED01     		.uleb128 0xed
 14083 dc5f 4546495F 		.ascii "EFI_MAXIMUM_VARIABLE_SIZE 1024\0"
 14083      4D415849 
 14083      4D554D5F 
 14083      56415249 
 14083      41424C45 
 14084 dc7e 01       		.byte	0x1
 14085 dc7f BD02     		.uleb128 0x13d
 14086 dc81 494D4147 		.ascii "IMAGE_SUBSYSTEM_EFI_APPLICATION 10\0"
 14086      455F5355 
 14086      42535953 
 14086      54454D5F 
 14086      4546495F 
 14087 dca4 01       		.byte	0x1
 14088 dca5 BE02     		.uleb128 0x13e
 14089 dca7 494D4147 		.ascii "IMAGE_SUBSYSTEM_EFI_BOOT_SERVICE_DRIVER 11\0"
 14089      455F5355 
 14089      42535953 
 14089      54454D5F 
 14089      4546495F 
 14090 dcd2 01       		.byte	0x1
 14091 dcd3 BF02     		.uleb128 0x13f
 14092 dcd5 494D4147 		.ascii "IMAGE_SUBSYSTEM_EFI_RUNTIME_DRIVER 12\0"
 14092      455F5355 
 14092      42535953 
 14092      54454D5F 
 14092      4546495F 
 14093 dcfb 01       		.byte	0x1
 14094 dcfc C502     		.uleb128 0x145
 14095 dcfe 4546495F 		.ascii "EFI_IMAGE_MACHINE_IA32 0x014c\0"
 14095      494D4147 
 14095      455F4D41 
 14095      4348494E 
 14095      455F4941 
 14096 dd1c 01       		.byte	0x1
 14097 dd1d C902     		.uleb128 0x149
 14098 dd1f 4546495F 		.ascii "EFI_IMAGE_MACHINE_IA64 0x0200\0"
 14098      494D4147 
 14098      455F4D41 
 14098      4348494E 
 14098      455F4941 
 14099 dd3d 01       		.byte	0x1
 14100 dd3e CD02     		.uleb128 0x14d
 14101 dd40 4546495F 		.ascii "EFI_IMAGE_MACHINE_EBC 0x0EBC\0"
 14101      494D4147 
 14101      455F4D41 
 14101      4348494E 
 14101      455F4542 
 14102 dd5d 01       		.byte	0x1
 14103 dd5e D102     		.uleb128 0x151
 14104 dd60 4546495F 		.ascii "EFI_IMAGE_MACHINE_X64 0x8664\0"
 14104      494D4147 
 14104      455F4D41 
 14104      4348494E 
 14104      455F5836 
 14105 dd7d 01       		.byte	0x1
 14106 dd7e D502     		.uleb128 0x155
 14107 dd80 4546495F 		.ascii "EFI_IMAGE_MACHINE_ARMTHUMB_MIXED 0x01C2\0"
 14107      494D4147 
 14107      455F4D41 
 14107      4348494E 
 14107      455F4152 
 14108 dda8 01       		.byte	0x1
 14109 dda9 D902     		.uleb128 0x159
 14110 ddab 4546495F 		.ascii "EFI_IMAGE_MACHINE_AARCH64 0xAA64\0"
 14110      494D4147 
 14110      455F4D41 
 14110      4348494E 
 14110      455F4141 
 14111 ddcc 01       		.byte	0x1
 14112 ddcd DD02     		.uleb128 0x15d
 14113 ddcf 4546495F 		.ascii "EFI_IMAGE_MACHINE_RISCV32 0x5032\0"
 14113      494D4147 
 14113      455F4D41 
 14113      4348494E 
 14113      455F5249 
 14114 ddf0 01       		.byte	0x1
 14115 ddf1 E102     		.uleb128 0x161
 14116 ddf3 4546495F 		.ascii "EFI_IMAGE_MACHINE_RISCV64 0x5064\0"
 14116      494D4147 
 14116      455F4D41 
 14116      4348494E 
 14116      455F5249 
 14117 de14 01       		.byte	0x1
 14118 de15 E502     		.uleb128 0x165
 14119 de17 4546495F 		.ascii "EFI_IMAGE_MACHINE_RISCV128 0x5128\0"
 14119      494D4147 
 14119      455F4D41 
 14119      4348494E 
 14119      455F5249 
 14120 de39 01       		.byte	0x1
 14121 de3a E902     		.uleb128 0x169
 14122 de3c 4546495F 		.ascii "EFI_IMAGE_MACHINE_LOONGARCH32 0x6232\0"
 14122      494D4147 
 14122      455F4D41 
 14122      4348494E 
 14122      455F4C4F 
 14123 de61 01       		.byte	0x1
 14124 de62 ED02     		.uleb128 0x16d
 14125 de64 4546495F 		.ascii "EFI_IMAGE_MACHINE_LOONGARCH64 0x6264\0"
 14125      494D4147 
 14125      455F4D41 
 14125      4348494E 
 14125      455F4C4F 
 14126 de89 01       		.byte	0x1
 14127 de8a E103     		.uleb128 0x1e1
 14128 de8c 4546495F 		.ascii "EFI_OPEN_PROTOCOL_BY_HANDLE_PROTOCOL 0x00000001\0"
 14128      4F50454E 
 14128      5F50524F 
 14128      544F434F 
 14128      4C5F4259 
 14129 debc 01       		.byte	0x1
 14130 debd E203     		.uleb128 0x1e2
 14131 debf 4546495F 		.ascii "EFI_OPEN_PROTOCOL_GET_PROTOCOL 0x00000002\0"
 14131      4F50454E 
 14131      5F50524F 
 14131      544F434F 
 14131      4C5F4745 
 14132 dee9 01       		.byte	0x1
 14133 deea E303     		.uleb128 0x1e3
 14134 deec 4546495F 		.ascii "EFI_OPEN_PROTOCOL_TEST_PROTOCOL 0x00000004\0"
 14134      4F50454E 
 14134      5F50524F 
 14134      544F434F 
 14134      4C5F5445 
 14135 df17 01       		.byte	0x1
 14136 df18 E403     		.uleb128 0x1e4
 14137 df1a 4546495F 		.ascii "EFI_OPEN_PROTOCOL_BY_CHILD_CONTROLLER 0x00000008\0"
 14137      4F50454E 
 14137      5F50524F 
 14137      544F434F 
 14137      4C5F4259 
 14138 df4b 01       		.byte	0x1
 14139 df4c E503     		.uleb128 0x1e5
 14140 df4e 4546495F 		.ascii "EFI_OPEN_PROTOCOL_BY_DRIVER 0x00000010\0"
 14140      4F50454E 
 14140      5F50524F 
 14140      544F434F 
 14140      4C5F4259 
 14141 df75 01       		.byte	0x1
 14142 df76 E603     		.uleb128 0x1e6
 14143 df78 4546495F 		.ascii "EFI_OPEN_PROTOCOL_EXCLUSIVE 0x00000020\0"
 14143      4F50454E 
 14143      5F50524F 
 14143      544F434F 
 14143      4C5F4558 
 14144 df9f 01       		.byte	0x1
 14145 dfa0 8805     		.uleb128 0x288
 14146 dfa2 43415053 		.ascii "CAPSULE_FLAGS_PERSIST_ACROSS_RESET 0x00010000\0"
 14146      554C455F 
 14146      464C4147 
 14146      535F5045 
 14146      52534953 
 14147 dfd0 01       		.byte	0x1
 14148 dfd1 8905     		.uleb128 0x289
 14149 dfd3 43415053 		.ascii "CAPSULE_FLAGS_POPULATE_SYSTEM_TABLE 0x00020000\0"
 14149      554C455F 
 14149      464C4147 
 14149      535F504F 
 14149      50554C41 
 14150 e002 01       		.byte	0x1
 14151 e003 8A05     		.uleb128 0x28a
 14152 e005 43415053 		.ascii "CAPSULE_FLAGS_INITIATE_RESET 0x00040000\0"
 14152      554C455F 
 14152      464C4147 
 14152      535F494E 
 14152      49544941 
 14153 e02d 01       		.byte	0x1
 14154 e02e 8806     		.uleb128 0x308
 14155 e030 4546495F 		.ascii "EFI_RUNTIME_SERVICES_SIGNATURE 0x56524553544e5552\0"
 14155      52554E54 
 14155      494D455F 
 14155      53455256 
 14155      49434553 
 14156 e062 01       		.byte	0x1
 14157 e063 8906     		.uleb128 0x309
 14158 e065 4546495F 		.ascii "EFI_1_02_RUNTIME_SERVICES_REVISION EFI_SPECIFICATION_REVISION_MAJORMINOR(1, 02)\0"
 14158      315F3032 
 14158      5F52554E 
 14158      54494D45 
 14158      5F534552 
 14159 e0b5 01       		.byte	0x1
 14160 e0b6 8A06     		.uleb128 0x30a
 14161 e0b8 4546495F 		.ascii "EFI_1_10_RUNTIME_SERVICES_REVISION EFI_SPECIFICATION_REVISION_MAJORMINOR(1, 10)\0"
 14161      315F3130 
 14161      5F52554E 
 14161      54494D45 
 14161      5F534552 
 14162 e108 01       		.byte	0x1
 14163 e109 8B06     		.uleb128 0x30b
 14164 e10b 4546495F 		.ascii "EFI_2_00_RUNTIME_SERVICES_REVISION EFI_SPECIFICATION_REVISION_MAJORMINOR(2, 00)\0"
 14164      325F3030 
 14164      5F52554E 
 14164      54494D45 
 14164      5F534552 
 14165 e15b 01       		.byte	0x1
 14166 e15c 8C06     		.uleb128 0x30c
 14167 e15e 4546495F 		.ascii "EFI_2_10_RUNTIME_SERVICES_REVISION EFI_SPECIFICATION_REVISION_MAJORMINOR(2, 10)\0"
 14167      325F3130 
 14167      5F52554E 
 14167      54494D45 
 14167      5F534552 
 14168 e1ae 01       		.byte	0x1
 14169 e1af 8D06     		.uleb128 0x30d
 14170 e1b1 4546495F 		.ascii "EFI_2_20_RUNTIME_SERVICES_REVISION EFI_SPECIFICATION_REVISION_MAJORMINOR(2, 20)\0"
 14170      325F3230 
 14170      5F52554E 
 14170      54494D45 
 14170      5F534552 
 14171 e201 01       		.byte	0x1
 14172 e202 8E06     		.uleb128 0x30e
 14173 e204 4546495F 		.ascii "EFI_2_30_RUNTIME_SERVICES_REVISION EFI_SPECIFICATION_REVISION_MAJORMINOR(2, 30)\0"
 14173      325F3330 
 14173      5F52554E 
 14173      54494D45 
 14173      5F534552 
 14174 e254 01       		.byte	0x1
 14175 e255 8F06     		.uleb128 0x30f
 14176 e257 4546495F 		.ascii "EFI_2_31_RUNTIME_SERVICES_REVISION EFI_SPECIFICATION_REVISION_MAJORMINOR(2, 31)\0"
 14176      325F3331 
 14176      5F52554E 
 14176      54494D45 
 14176      5F534552 
 14177 e2a7 01       		.byte	0x1
 14178 e2a8 9006     		.uleb128 0x310
 14179 e2aa 4546495F 		.ascii "EFI_2_40_RUNTIME_SERVICES_REVISION EFI_SPECIFICATION_REVISION_MAJORMINOR(2, 40)\0"
 14179      325F3430 
 14179      5F52554E 
 14179      54494D45 
 14179      5F534552 
 14180 e2fa 01       		.byte	0x1
 14181 e2fb 9106     		.uleb128 0x311
 14182 e2fd 4546495F 		.ascii "EFI_2_50_RUNTIME_SERVICES_REVISION EFI_SPECIFICATION_REVISION_MAJORMINOR(2, 50)\0"
 14182      325F3530 
 14182      5F52554E 
 14182      54494D45 
 14182      5F534552 
 14183 e34d 01       		.byte	0x1
 14184 e34e 9206     		.uleb128 0x312
 14185 e350 4546495F 		.ascii "EFI_2_60_RUNTIME_SERVICES_REVISION EFI_SPECIFICATION_REVISION_MAJORMINOR(2, 60)\0"
 14185      325F3630 
 14185      5F52554E 
 14185      54494D45 
 14185      5F534552 
 14186 e3a0 01       		.byte	0x1
 14187 e3a1 9306     		.uleb128 0x313
 14188 e3a3 4546495F 		.ascii "EFI_2_70_RUNTIME_SERVICES_REVISION EFI_SPECIFICATION_REVISION_MAJORMINOR(2, 70)\0"
 14188      325F3730 
 14188      5F52554E 
 14188      54494D45 
 14188      5F534552 
 14189 e3f3 01       		.byte	0x1
 14190 e3f4 9406     		.uleb128 0x314
 14191 e3f6 4546495F 		.ascii "EFI_2_80_RUNTIME_SERVICES_REVISION EFI_SPECIFICATION_REVISION_MAJORMINOR(2, 80)\0"
 14191      325F3830 
 14191      5F52554E 
 14191      54494D45 
 14191      5F534552 
 14192 e446 01       		.byte	0x1
 14193 e447 9506     		.uleb128 0x315
 14194 e449 4546495F 		.ascii "EFI_2_90_RUNTIME_SERVICES_REVISION EFI_SPECIFICATION_REVISION_MAJORMINOR(2, 90)\0"
 14194      325F3930 
 14194      5F52554E 
 14194      54494D45 
 14194      5F534552 
 14195 e499 01       		.byte	0x1
 14196 e49a 9606     		.uleb128 0x316
 14197 e49c 4546495F 		.ascii "EFI_2_100_RUNTIME_SERVICES_REVISION EFI_SPECIFICATION_REVISION_MAJORMINOR(2, 100)\0"
 14197      325F3130 
 14197      305F5255 
 14197      4E54494D 
 14197      455F5345 
 14198 e4ee 01       		.byte	0x1
 14199 e4ef 9706     		.uleb128 0x317
 14200 e4f1 4546495F 		.ascii "EFI_RUNTIME_SERVICES_REVISION EFI_SPECIFICATION_VERSION\0"
 14200      52554E54 
 14200      494D455F 
 14200      53455256 
 14200      49434553 
 14201 e529 01       		.byte	0x1
 14202 e52a C506     		.uleb128 0x345
 14203 e52c 4546495F 		.ascii "EFI_BOOT_SERVICES_SIGNATURE 0x56524553544f4f42\0"
 14203      424F4F54 
 14203      5F534552 
 14203      56494345 
 14203      535F5349 
 14204 e55b 01       		.byte	0x1
 14205 e55c C606     		.uleb128 0x346
 14206 e55e 4546495F 		.ascii "EFI_1_02_BOOT_SERVICES_REVISION EFI_SPECIFICATION_REVISION_MAJORMINOR(1, 02)\0"
 14206      315F3032 
 14206      5F424F4F 
 14206      545F5345 
 14206      52564943 
 14207 e5ab 01       		.byte	0x1
 14208 e5ac C706     		.uleb128 0x347
 14209 e5ae 4546495F 		.ascii "EFI_1_10_BOOT_SERVICES_REVISION EFI_SPECIFICATION_REVISION_MAJORMINOR(1, 10)\0"
 14209      315F3130 
 14209      5F424F4F 
 14209      545F5345 
 14209      52564943 
 14210 e5fb 01       		.byte	0x1
 14211 e5fc C806     		.uleb128 0x348
 14212 e5fe 4546495F 		.ascii "EFI_2_00_BOOT_SERVICES_REVISION EFI_SPECIFICATION_REVISION_MAJORMINOR(2, 00)\0"
 14212      325F3030 
 14212      5F424F4F 
 14212      545F5345 
 14212      52564943 
 14213 e64b 01       		.byte	0x1
 14214 e64c C906     		.uleb128 0x349
 14215 e64e 4546495F 		.ascii "EFI_2_10_BOOT_SERVICES_REVISION EFI_SPECIFICATION_REVISION_MAJORMINOR(2, 10)\0"
 14215      325F3130 
 14215      5F424F4F 
 14215      545F5345 
 14215      52564943 
 14216 e69b 01       		.byte	0x1
 14217 e69c CA06     		.uleb128 0x34a
 14218 e69e 4546495F 		.ascii "EFI_2_20_BOOT_SERVICES_REVISION EFI_SPECIFICATION_REVISION_MAJORMINOR(2, 20)\0"
 14218      325F3230 
 14218      5F424F4F 
 14218      545F5345 
 14218      52564943 
 14219 e6eb 01       		.byte	0x1
 14220 e6ec CB06     		.uleb128 0x34b
 14221 e6ee 4546495F 		.ascii "EFI_2_30_BOOT_SERVICES_REVISION EFI_SPECIFICATION_REVISION_MAJORMINOR(2, 30)\0"
 14221      325F3330 
 14221      5F424F4F 
 14221      545F5345 
 14221      52564943 
 14222 e73b 01       		.byte	0x1
 14223 e73c CC06     		.uleb128 0x34c
 14224 e73e 4546495F 		.ascii "EFI_2_31_BOOT_SERVICES_REVISION EFI_SPECIFICATION_REVISION_MAJORMINOR(2, 31)\0"
 14224      325F3331 
 14224      5F424F4F 
 14224      545F5345 
 14224      52564943 
 14225 e78b 01       		.byte	0x1
 14226 e78c CD06     		.uleb128 0x34d
 14227 e78e 4546495F 		.ascii "EFI_2_40_BOOT_SERVICES_REVISION EFI_SPECIFICATION_REVISION_MAJORMINOR(2, 40)\0"
 14227      325F3430 
 14227      5F424F4F 
 14227      545F5345 
 14227      52564943 
 14228 e7db 01       		.byte	0x1
 14229 e7dc CE06     		.uleb128 0x34e
 14230 e7de 4546495F 		.ascii "EFI_2_50_BOOT_SERVICES_REVISION EFI_SPECIFICATION_REVISION_MAJORMINOR(2, 50)\0"
 14230      325F3530 
 14230      5F424F4F 
 14230      545F5345 
 14230      52564943 
 14231 e82b 01       		.byte	0x1
 14232 e82c CF06     		.uleb128 0x34f
 14233 e82e 4546495F 		.ascii "EFI_2_60_BOOT_SERVICES_REVISION EFI_SPECIFICATION_REVISION_MAJORMINOR(2, 60)\0"
 14233      325F3630 
 14233      5F424F4F 
 14233      545F5345 
 14233      52564943 
 14234 e87b 01       		.byte	0x1
 14235 e87c D006     		.uleb128 0x350
 14236 e87e 4546495F 		.ascii "EFI_2_70_BOOT_SERVICES_REVISION EFI_SPECIFICATION_REVISION_MAJORMINOR(2, 70)\0"
 14236      325F3730 
 14236      5F424F4F 
 14236      545F5345 
 14236      52564943 
 14237 e8cb 01       		.byte	0x1
 14238 e8cc D106     		.uleb128 0x351
 14239 e8ce 4546495F 		.ascii "EFI_2_80_BOOT_SERVICES_REVISION EFI_SPECIFICATION_REVISION_MAJORMINOR(2, 80)\0"
 14239      325F3830 
 14239      5F424F4F 
 14239      545F5345 
 14239      52564943 
 14240 e91b 01       		.byte	0x1
 14241 e91c D206     		.uleb128 0x352
 14242 e91e 4546495F 		.ascii "EFI_2_90_BOOT_SERVICES_REVISION EFI_SPECIFICATION_REVISION_MAJORMINOR(2, 90)\0"
 14242      325F3930 
 14242      5F424F4F 
 14242      545F5345 
 14242      52564943 
 14243 e96b 01       		.byte	0x1
 14244 e96c D306     		.uleb128 0x353
 14245 e96e 4546495F 		.ascii "EFI_2_100_BOOT_SERVICES_REVISION EFI_SPECIFICATION_REVISION_MAJORMINOR(2, 100)\0"
 14245      325F3130 
 14245      305F424F 
 14245      4F545F53 
 14245      45525649 
 14246 e9bd 01       		.byte	0x1
 14247 e9be D406     		.uleb128 0x354
 14248 e9c0 4546495F 		.ascii "EFI_BOOT_SERVICES_REVISION EFI_SPECIFICATION_VERSION\0"
 14248      424F4F54 
 14248      5F534552 
 14248      56494345 
 14248      535F5245 
 14249 e9f5 01       		.byte	0x1
 14250 e9f6 BF07     		.uleb128 0x3bf
 14251 e9f8 4D50535F 		.ascii "MPS_TABLE_GUID { 0xeb9d2d2f, 0x2d88, 0x11d3, {0x9a, 0x16, 0x0, 0x90, 0x27, 0x3f, 0xc1, 0x4
 14251      5441424C 
 14251      455F4755 
 14251      4944207B 
 14251      20307865 
 14252 ea57 01       		.byte	0x1
 14253 ea58 C207     		.uleb128 0x3c2
 14254 ea5a 41435049 		.ascii "ACPI_TABLE_GUID { 0xeb9d2d30, 0x2d88, 0x11d3, {0x9a, 0x16, 0x0, 0x90, 0x27, 0x3f, 0xc1, 0x
 14254      5F544142 
 14254      4C455F47 
 14254      55494420 
 14254      7B203078 
 14255 eaba 01       		.byte	0x1
 14256 eabb C507     		.uleb128 0x3c5
 14257 eabd 41435049 		.ascii "ACPI_20_TABLE_GUID { 0x8868e871, 0xe4f1, 0x11d3, {0xbc, 0x22, 0x0, 0x80, 0xc7, 0x3c, 0x88,
 14257      5F32305F 
 14257      5441424C 
 14257      455F4755 
 14257      4944207B 
 14258 eb20 01       		.byte	0x1
 14259 eb21 C807     		.uleb128 0x3c8
 14260 eb23 534D4249 		.ascii "SMBIOS_TABLE_GUID { 0xeb9d2d31, 0x2d88, 0x11d3, {0x9a, 0x16, 0x0, 0x90, 0x27, 0x3f, 0xc1, 
 14260      4F535F54 
 14260      41424C45 
 14260      5F475549 
 14260      44207B20 
 14261 eb85 01       		.byte	0x1
 14262 eb86 CB07     		.uleb128 0x3cb
 14263 eb88 534D4249 		.ascii "SMBIOS3_TABLE_GUID { 0xf2fd1544, 0x9794, 0x4a2c, {0x99, 0x2e, 0xe5, 0xbb, 0xcf, 0x20, 0xe3
 14263      4F53335F 
 14263      5441424C 
 14263      455F4755 
 14263      4944207B 
 14264 ebec 01       		.byte	0x1
 14265 ebed CE07     		.uleb128 0x3ce
 14266 ebef 53414C5F 		.ascii "SAL_SYSTEM_TABLE_GUID { 0xeb9d2d32, 0x2d88, 0x11d3, {0x9a, 0x16, 0x0, 0x90, 0x27, 0x3f, 0x
 14266      53595354 
 14266      454D5F54 
 14266      41424C45 
 14266      5F475549 
 14267 ec55 01       		.byte	0x1
 14268 ec56 D107     		.uleb128 0x3d1
 14269 ec58 4546495F 		.ascii "EFI_DTB_TABLE_GUID { 0xb1b621d5, 0xf19c, 0x41a5, {0x83, 0x0b, 0xd9, 0x15, 0x2c, 0x69, 0xaa
 14269      4454425F 
 14269      5441424C 
 14269      455F4755 
 14269      4944207B 
 14270 ecbc 01       		.byte	0x1
 14271 ecbd E107     		.uleb128 0x3e1
 14272 ecbf 4546495F 		.ascii "EFI_SYSTEM_TABLE_SIGNATURE 0x5453595320494249\0"
 14272      53595354 
 14272      454D5F54 
 14272      41424C45 
 14272      5F534947 
 14273 eced 01       		.byte	0x1
 14274 ecee E207     		.uleb128 0x3e2
 14275 ecf0 4546495F 		.ascii "EFI_1_02_SYSTEM_TABLE_REVISION EFI_SPECIFICATION_REVISION_MAJORMINOR(1, 02)\0"
 14275      315F3032 
 14275      5F535953 
 14275      54454D5F 
 14275      5441424C 
 14276 ed3c 01       		.byte	0x1
 14277 ed3d E307     		.uleb128 0x3e3
 14278 ed3f 4546495F 		.ascii "EFI_1_10_SYSTEM_TABLE_REVISION EFI_SPECIFICATION_REVISION_MAJORMINOR(1, 10)\0"
 14278      315F3130 
 14278      5F535953 
 14278      54454D5F 
 14278      5441424C 
 14279 ed8b 01       		.byte	0x1
 14280 ed8c E407     		.uleb128 0x3e4
 14281 ed8e 4546495F 		.ascii "EFI_2_00_SYSTEM_TABLE_REVISION EFI_SPECIFICATION_REVISION_MAJORMINOR(2, 00)\0"
 14281      325F3030 
 14281      5F535953 
 14281      54454D5F 
 14281      5441424C 
 14282 edda 01       		.byte	0x1
 14283 eddb E507     		.uleb128 0x3e5
 14284 eddd 4546495F 		.ascii "EFI_2_10_SYSTEM_TABLE_REVISION EFI_SPECIFICATION_REVISION_MAJORMINOR(2, 10)\0"
 14284      325F3130 
 14284      5F535953 
 14284      54454D5F 
 14284      5441424C 
 14285 ee29 01       		.byte	0x1
 14286 ee2a E607     		.uleb128 0x3e6
 14287 ee2c 4546495F 		.ascii "EFI_2_20_SYSTEM_TABLE_REVISION EFI_SPECIFICATION_REVISION_MAJORMINOR(2, 20)\0"
 14287      325F3230 
 14287      5F535953 
 14287      54454D5F 
 14287      5441424C 
 14288 ee78 01       		.byte	0x1
 14289 ee79 E707     		.uleb128 0x3e7
 14290 ee7b 4546495F 		.ascii "EFI_2_30_SYSTEM_TABLE_REVISION EFI_SPECIFICATION_REVISION_MAJORMINOR(2, 30)\0"
 14290      325F3330 
 14290      5F535953 
 14290      54454D5F 
 14290      5441424C 
 14291 eec7 01       		.byte	0x1
 14292 eec8 E807     		.uleb128 0x3e8
 14293 eeca 4546495F 		.ascii "EFI_2_31_SYSTEM_TABLE_REVISION EFI_SPECIFICATION_REVISION_MAJORMINOR(2, 31)\0"
 14293      325F3331 
 14293      5F535953 
 14293      54454D5F 
 14293      5441424C 
 14294 ef16 01       		.byte	0x1
 14295 ef17 E907     		.uleb128 0x3e9
 14296 ef19 4546495F 		.ascii "EFI_2_40_SYSTEM_TABLE_REVISION EFI_SPECIFICATION_REVISION_MAJORMINOR(2, 40)\0"
 14296      325F3430 
 14296      5F535953 
 14296      54454D5F 
 14296      5441424C 
 14297 ef65 01       		.byte	0x1
 14298 ef66 EA07     		.uleb128 0x3ea
 14299 ef68 4546495F 		.ascii "EFI_2_50_SYSTEM_TABLE_REVISION EFI_SPECIFICATION_REVISION_MAJORMINOR(2, 50)\0"
 14299      325F3530 
 14299      5F535953 
 14299      54454D5F 
 14299      5441424C 
 14300 efb4 01       		.byte	0x1
 14301 efb5 EB07     		.uleb128 0x3eb
 14302 efb7 4546495F 		.ascii "EFI_2_60_SYSTEM_TABLE_REVISION EFI_SPECIFICATION_REVISION_MAJORMINOR(2, 60)\0"
 14302      325F3630 
 14302      5F535953 
 14302      54454D5F 
 14302      5441424C 
 14303 f003 01       		.byte	0x1
 14304 f004 EC07     		.uleb128 0x3ec
 14305 f006 4546495F 		.ascii "EFI_2_70_SYSTEM_TABLE_REVISION EFI_SPECIFICATION_REVISION_MAJORMINOR(2, 70)\0"
 14305      325F3730 
 14305      5F535953 
 14305      54454D5F 
 14305      5441424C 
 14306 f052 01       		.byte	0x1
 14307 f053 ED07     		.uleb128 0x3ed
 14308 f055 4546495F 		.ascii "EFI_2_80_SYSTEM_TABLE_REVISION EFI_SPECIFICATION_REVISION_MAJORMINOR(2, 80)\0"
 14308      325F3830 
 14308      5F535953 
 14308      54454D5F 
 14308      5441424C 
 14309 f0a1 01       		.byte	0x1
 14310 f0a2 EE07     		.uleb128 0x3ee
 14311 f0a4 4546495F 		.ascii "EFI_2_90_SYSTEM_TABLE_REVISION EFI_SPECIFICATION_REVISION_MAJORMINOR(2, 90)\0"
 14311      325F3930 
 14311      5F535953 
 14311      54454D5F 
 14311      5441424C 
 14312 f0f0 01       		.byte	0x1
 14313 f0f1 EF07     		.uleb128 0x3ef
 14314 f0f3 4546495F 		.ascii "EFI_2_100_SYSTEM_TABLE_REVISION EFI_SPECIFICATION_REVISION_MAJORMINOR(2, 100)\0"
 14314      325F3130 
 14314      305F5359 
 14314      5354454D 
 14314      5F544142 
 14315 f141 01       		.byte	0x1
 14316 f142 F007     		.uleb128 0x3f0
 14317 f144 4546495F 		.ascii "EFI_SYSTEM_TABLE_REVISION EFI_SPECIFICATION_VERSION\0"
 14317      53595354 
 14317      454D5F54 
 14317      41424C45 
 14317      5F524556 
 14318 f178 04       		.byte	0x4
 14319              		.file 32 "gnu-efi-3.0.18/inc/efifs.h"
 14320 f179 03       		.byte	0x3
 14321 f17a 4D       		.uleb128 0x4d
 14322 f17b 20       		.uleb128 0x20
 14323 f17c 01       		.byte	0x1
 14324 f17d 02       		.uleb128 0x2
 14325 f17e 5F454649 		.ascii "_EFI_FS_H \0"
 14325      5F46535F 
 14325      482000
 14326 f189 01       		.byte	0x1
 14327 f18a 1B       		.uleb128 0x1b
 14328 f18b 4546495F 		.ascii "EFI_PARTITION_SIGNATURE 0x5053595320494249\0"
 14328      50415254 
 14328      4954494F 
 14328      4E5F5349 
 14328      474E4154 
 14329 f1b6 01       		.byte	0x1
 14330 f1b7 1C       		.uleb128 0x1c
 14331 f1b8 4546495F 		.ascii "EFI_PARTITION_REVISION 0x00010001\0"
 14331      50415254 
 14331      4954494F 
 14331      4E5F5245 
 14331      56495349 
 14332 f1da 01       		.byte	0x1
 14333 f1db 1D       		.uleb128 0x1d
 14334 f1dc 4D494E5F 		.ascii "MIN_EFI_PARTITION_BLOCK_SIZE 512\0"
 14334      4546495F 
 14334      50415254 
 14334      4954494F 
 14334      4E5F424C 
 14335 f1fd 01       		.byte	0x1
 14336 f1fe 1E       		.uleb128 0x1e
 14337 f1ff 4546495F 		.ascii "EFI_PARTITION_LBA 1\0"
 14337      50415254 
 14337      4954494F 
 14337      4E5F4C42 
 14337      41203100 
 14338 f213 01       		.byte	0x1
 14339 f214 31       		.uleb128 0x31
 14340 f215 4546495F 		.ascii "EFI_FILE_HEADER_SIGNATURE 0x454c494620494249\0"
 14340      46494C45 
 14340      5F484541 
 14340      4445525F 
 14340      5349474E 
 14341 f242 01       		.byte	0x1
 14342 f243 32       		.uleb128 0x32
 14343 f244 4546495F 		.ascii "EFI_FILE_HEADER_REVISION 0x00010000\0"
 14343      46494C45 
 14343      5F484541 
 14343      4445525F 
 14343      52455649 
 14344 f268 01       		.byte	0x1
 14345 f269 33       		.uleb128 0x33
 14346 f26a 4546495F 		.ascii "EFI_FILE_STRING_SIZE 260\0"
 14346      46494C45 
 14346      5F535452 
 14346      494E475F 
 14346      53495A45 
 14347 f283 01       		.byte	0x1
 14348 f284 48       		.uleb128 0x48
 14349 f285 4546495F 		.ascii "EFI_FILE_LBAL(a) ((EFI_LBAL *) (((CHAR8 *) (a)) + (a)->LBALOffset))\0"
 14349      46494C45 
 14349      5F4C4241 
 14349      4C286129 
 14349      20282845 
 14350 f2c9 01       		.byte	0x1
 14351 f2ca 4A       		.uleb128 0x4a
 14352 f2cb 4546495F 		.ascii "EFI_FILE_CLASS_FREE_SPACE 1\0"
 14352      46494C45 
 14352      5F434C41 
 14352      53535F46 
 14352      5245455F 
 14353 f2e7 01       		.byte	0x1
 14354 f2e8 4B       		.uleb128 0x4b
 14355 f2e9 4546495F 		.ascii "EFI_FILE_CLASS_EMPTY 2\0"
 14355      46494C45 
 14355      5F434C41 
 14355      53535F45 
 14355      4D505459 
 14356 f300 01       		.byte	0x1
 14357 f301 4C       		.uleb128 0x4c
 14358 f302 4546495F 		.ascii "EFI_FILE_CLASS_NORMAL 3\0"
 14358      46494C45 
 14358      5F434C41 
 14358      53535F4E 
 14358      4F524D41 
 14359 f31a 01       		.byte	0x1
 14360 f31b 54       		.uleb128 0x54
 14361 f31c 4546495F 		.ascii "EFI_LBAL_SIGNATURE 0x4c41424c20494249\0"
 14361      4C42414C 
 14361      5F534947 
 14361      4E415455 
 14361      52452030 
 14362 f342 01       		.byte	0x1
 14363 f343 55       		.uleb128 0x55
 14364 f344 4546495F 		.ascii "EFI_LBAL_REVISION 0x00010000\0"
 14364      4C42414C 
 14364      5F524556 
 14364      4953494F 
 14364      4E203078 
 14365 f361 01       		.byte	0x1
 14366 f362 61       		.uleb128 0x61
 14367 f363 4546495F 		.ascii "EFI_LBAL_ARRAY_SIZE(lbal,offs,blks) (((blks) - (offs) - (lbal)->Hdr.HeaderSize) / sizeof(E
 14367      4C42414C 
 14367      5F415252 
 14367      41595F53 
 14367      495A4528 
 14368 f3c5 01       		.byte	0x1
 14369 f3c6 71       		.uleb128 0x71
 14370 f3c7 4546495F 		.ascii "EFI_LBAL_RL(a) ((EFI_RL*) (((CHAR8 *) (a)) + (a)->Hdr.HeaderSize))\0"
 14370      4C42414C 
 14370      5F524C28 
 14370      61292028 
 14370      28454649 
 14371 f40a 04       		.byte	0x4
 14372              		.file 33 "gnu-efi-3.0.18/inc/efierr.h"
 14373 f40b 03       		.byte	0x3
 14374 f40c 4E       		.uleb128 0x4e
 14375 f40d 21       		.uleb128 0x21
 14376 f40e 01       		.byte	0x1
 14377 f40f 02       		.uleb128 0x2
 14378 f410 5F454649 		.ascii "_EFI_ERR_H \0"
 14378      5F455252 
 14378      5F482000 
 14379 f41c 01       		.byte	0x1
 14380 f41d 18       		.uleb128 0x18
 14381 f41e 45464957 		.ascii "EFIWARN(a) (a)\0"
 14381      41524E28 
 14381      61292028 
 14381      612900
 14382 f42d 01       		.byte	0x1
 14383 f42e 19       		.uleb128 0x19
 14384 f42f 4546495F 		.ascii "EFI_ERROR(a) (((INTN) a) < 0)\0"
 14384      4552524F 
 14384      52286129 
 14384      20282828 
 14384      494E544E 
 14385 f44d 01       		.byte	0x1
 14386 f44e 1C       		.uleb128 0x1c
 14387 f44f 4546495F 		.ascii "EFI_SUCCESS 0\0"
 14387      53554343 
 14387      45535320 
 14387      3000
 14388 f45d 01       		.byte	0x1
 14389 f45e 1D       		.uleb128 0x1d
 14390 f45f 4546495F 		.ascii "EFI_LOAD_ERROR EFIERR(1)\0"
 14390      4C4F4144 
 14390      5F455252 
 14390      4F522045 
 14390      46494552 
 14391 f478 01       		.byte	0x1
 14392 f479 1E       		.uleb128 0x1e
 14393 f47a 4546495F 		.ascii "EFI_INVALID_PARAMETER EFIERR(2)\0"
 14393      494E5641 
 14393      4C49445F 
 14393      50415241 
 14393      4D455445 
 14394 f49a 01       		.byte	0x1
 14395 f49b 1F       		.uleb128 0x1f
 14396 f49c 4546495F 		.ascii "EFI_UNSUPPORTED EFIERR(3)\0"
 14396      554E5355 
 14396      50504F52 
 14396      54454420 
 14396      45464945 
 14397 f4b6 01       		.byte	0x1
 14398 f4b7 20       		.uleb128 0x20
 14399 f4b8 4546495F 		.ascii "EFI_BAD_BUFFER_SIZE EFIERR(4)\0"
 14399      4241445F 
 14399      42554646 
 14399      45525F53 
 14399      495A4520 
 14400 f4d6 01       		.byte	0x1
 14401 f4d7 21       		.uleb128 0x21
 14402 f4d8 4546495F 		.ascii "EFI_BUFFER_TOO_SMALL EFIERR(5)\0"
 14402      42554646 
 14402      45525F54 
 14402      4F4F5F53 
 14402      4D414C4C 
 14403 f4f7 01       		.byte	0x1
 14404 f4f8 22       		.uleb128 0x22
 14405 f4f9 4546495F 		.ascii "EFI_NOT_READY EFIERR(6)\0"
 14405      4E4F545F 
 14405      52454144 
 14405      59204546 
 14405      49455252 
 14406 f511 01       		.byte	0x1
 14407 f512 23       		.uleb128 0x23
 14408 f513 4546495F 		.ascii "EFI_DEVICE_ERROR EFIERR(7)\0"
 14408      44455649 
 14408      43455F45 
 14408      52524F52 
 14408      20454649 
 14409 f52e 01       		.byte	0x1
 14410 f52f 24       		.uleb128 0x24
 14411 f530 4546495F 		.ascii "EFI_WRITE_PROTECTED EFIERR(8)\0"
 14411      57524954 
 14411      455F5052 
 14411      4F544543 
 14411      54454420 
 14412 f54e 01       		.byte	0x1
 14413 f54f 25       		.uleb128 0x25
 14414 f550 4546495F 		.ascii "EFI_OUT_OF_RESOURCES EFIERR(9)\0"
 14414      4F55545F 
 14414      4F465F52 
 14414      45534F55 
 14414      52434553 
 14415 f56f 01       		.byte	0x1
 14416 f570 26       		.uleb128 0x26
 14417 f571 4546495F 		.ascii "EFI_VOLUME_CORRUPTED EFIERR(10)\0"
 14417      564F4C55 
 14417      4D455F43 
 14417      4F525255 
 14417      50544544 
 14418 f591 01       		.byte	0x1
 14419 f592 27       		.uleb128 0x27
 14420 f593 4546495F 		.ascii "EFI_VOLUME_FULL EFIERR(11)\0"
 14420      564F4C55 
 14420      4D455F46 
 14420      554C4C20 
 14420      45464945 
 14421 f5ae 01       		.byte	0x1
 14422 f5af 28       		.uleb128 0x28
 14423 f5b0 4546495F 		.ascii "EFI_NO_MEDIA EFIERR(12)\0"
 14423      4E4F5F4D 
 14423      45444941 
 14423      20454649 
 14423      45525228 
 14424 f5c8 01       		.byte	0x1
 14425 f5c9 29       		.uleb128 0x29
 14426 f5ca 4546495F 		.ascii "EFI_MEDIA_CHANGED EFIERR(13)\0"
 14426      4D454449 
 14426      415F4348 
 14426      414E4745 
 14426      44204546 
 14427 f5e7 01       		.byte	0x1
 14428 f5e8 2A       		.uleb128 0x2a
 14429 f5e9 4546495F 		.ascii "EFI_NOT_FOUND EFIERR(14)\0"
 14429      4E4F545F 
 14429      464F554E 
 14429      44204546 
 14429      49455252 
 14430 f602 01       		.byte	0x1
 14431 f603 2B       		.uleb128 0x2b
 14432 f604 4546495F 		.ascii "EFI_ACCESS_DENIED EFIERR(15)\0"
 14432      41434345 
 14432      53535F44 
 14432      454E4945 
 14432      44204546 
 14433 f621 01       		.byte	0x1
 14434 f622 2C       		.uleb128 0x2c
 14435 f623 4546495F 		.ascii "EFI_NO_RESPONSE EFIERR(16)\0"
 14435      4E4F5F52 
 14435      4553504F 
 14435      4E534520 
 14435      45464945 
 14436 f63e 01       		.byte	0x1
 14437 f63f 2D       		.uleb128 0x2d
 14438 f640 4546495F 		.ascii "EFI_NO_MAPPING EFIERR(17)\0"
 14438      4E4F5F4D 
 14438      41505049 
 14438      4E472045 
 14438      46494552 
 14439 f65a 01       		.byte	0x1
 14440 f65b 2E       		.uleb128 0x2e
 14441 f65c 4546495F 		.ascii "EFI_TIMEOUT EFIERR(18)\0"
 14441      54494D45 
 14441      4F555420 
 14441      45464945 
 14441      52522831 
 14442 f673 01       		.byte	0x1
 14443 f674 2F       		.uleb128 0x2f
 14444 f675 4546495F 		.ascii "EFI_NOT_STARTED EFIERR(19)\0"
 14444      4E4F545F 
 14444      53544152 
 14444      54454420 
 14444      45464945 
 14445 f690 01       		.byte	0x1
 14446 f691 30       		.uleb128 0x30
 14447 f692 4546495F 		.ascii "EFI_ALREADY_STARTED EFIERR(20)\0"
 14447      414C5245 
 14447      4144595F 
 14447      53544152 
 14447      54454420 
 14448 f6b1 01       		.byte	0x1
 14449 f6b2 31       		.uleb128 0x31
 14450 f6b3 4546495F 		.ascii "EFI_ABORTED EFIERR(21)\0"
 14450      41424F52 
 14450      54454420 
 14450      45464945 
 14450      52522832 
 14451 f6ca 01       		.byte	0x1
 14452 f6cb 32       		.uleb128 0x32
 14453 f6cc 4546495F 		.ascii "EFI_ICMP_ERROR EFIERR(22)\0"
 14453      49434D50 
 14453      5F455252 
 14453      4F522045 
 14453      46494552 
 14454 f6e6 01       		.byte	0x1
 14455 f6e7 33       		.uleb128 0x33
 14456 f6e8 4546495F 		.ascii "EFI_TFTP_ERROR EFIERR(23)\0"
 14456      54465450 
 14456      5F455252 
 14456      4F522045 
 14456      46494552 
 14457 f702 01       		.byte	0x1
 14458 f703 34       		.uleb128 0x34
 14459 f704 4546495F 		.ascii "EFI_PROTOCOL_ERROR EFIERR(24)\0"
 14459      50524F54 
 14459      4F434F4C 
 14459      5F455252 
 14459      4F522045 
 14460 f722 01       		.byte	0x1
 14461 f723 35       		.uleb128 0x35
 14462 f724 4546495F 		.ascii "EFI_INCOMPATIBLE_VERSION EFIERR(25)\0"
 14462      494E434F 
 14462      4D504154 
 14462      49424C45 
 14462      5F564552 
 14463 f748 01       		.byte	0x1
 14464 f749 36       		.uleb128 0x36
 14465 f74a 4546495F 		.ascii "EFI_SECURITY_VIOLATION EFIERR(26)\0"
 14465      53454355 
 14465      52495459 
 14465      5F56494F 
 14465      4C415449 
 14466 f76c 01       		.byte	0x1
 14467 f76d 37       		.uleb128 0x37
 14468 f76e 4546495F 		.ascii "EFI_CRC_ERROR EFIERR(27)\0"
 14468      4352435F 
 14468      4552524F 
 14468      52204546 
 14468      49455252 
 14469 f787 01       		.byte	0x1
 14470 f788 38       		.uleb128 0x38
 14471 f789 4546495F 		.ascii "EFI_END_OF_MEDIA EFIERR(28)\0"
 14471      454E445F 
 14471      4F465F4D 
 14471      45444941 
 14471      20454649 
 14472 f7a5 01       		.byte	0x1
 14473 f7a6 39       		.uleb128 0x39
 14474 f7a7 4546495F 		.ascii "EFI_END_OF_FILE EFIERR(31)\0"
 14474      454E445F 
 14474      4F465F46 
 14474      494C4520 
 14474      45464945 
 14475 f7c2 01       		.byte	0x1
 14476 f7c3 3A       		.uleb128 0x3a
 14477 f7c4 4546495F 		.ascii "EFI_INVALID_LANGUAGE EFIERR(32)\0"
 14477      494E5641 
 14477      4C49445F 
 14477      4C414E47 
 14477      55414745 
 14478 f7e4 01       		.byte	0x1
 14479 f7e5 3B       		.uleb128 0x3b
 14480 f7e6 4546495F 		.ascii "EFI_COMPROMISED_DATA EFIERR(33)\0"
 14480      434F4D50 
 14480      524F4D49 
 14480      5345445F 
 14480      44415441 
 14481 f806 01       		.byte	0x1
 14482 f807 3C       		.uleb128 0x3c
 14483 f808 4546495F 		.ascii "EFI_IP_ADDRESS_CONFLICT EFIERR(34)\0"
 14483      49505F41 
 14483      44445245 
 14483      53535F43 
 14483      4F4E464C 
 14484 f82b 01       		.byte	0x1
 14485 f82c 3D       		.uleb128 0x3d
 14486 f82d 4546495F 		.ascii "EFI_HTTP_ERROR EFIERR(35)\0"
 14486      48545450 
 14486      5F455252 
 14486      4F522045 
 14486      46494552 
 14487 f847 01       		.byte	0x1
 14488 f848 3F       		.uleb128 0x3f
 14489 f849 4546495F 		.ascii "EFI_WARN_UNKOWN_GLYPH EFIWARN(1)\0"
 14489      5741524E 
 14489      5F554E4B 
 14489      4F574E5F 
 14489      474C5950 
 14490 f86a 01       		.byte	0x1
 14491 f86b 40       		.uleb128 0x40
 14492 f86c 4546495F 		.ascii "EFI_WARN_UNKNOWN_GLYPH EFIWARN(1)\0"
 14492      5741524E 
 14492      5F554E4B 
 14492      4E4F574E 
 14492      5F474C59 
 14493 f88e 01       		.byte	0x1
 14494 f88f 41       		.uleb128 0x41
 14495 f890 4546495F 		.ascii "EFI_WARN_DELETE_FAILURE EFIWARN(2)\0"
 14495      5741524E 
 14495      5F44454C 
 14495      4554455F 
 14495      4641494C 
 14496 f8b3 01       		.byte	0x1
 14497 f8b4 42       		.uleb128 0x42
 14498 f8b5 4546495F 		.ascii "EFI_WARN_WRITE_FAILURE EFIWARN(3)\0"
 14498      5741524E 
 14498      5F575249 
 14498      54455F46 
 14498      41494C55 
 14499 f8d7 01       		.byte	0x1
 14500 f8d8 43       		.uleb128 0x43
 14501 f8d9 4546495F 		.ascii "EFI_WARN_BUFFER_TOO_SMALL EFIWARN(4)\0"
 14501      5741524E 
 14501      5F425546 
 14501      4645525F 
 14501      544F4F5F 
 14502 f8fe 01       		.byte	0x1
 14503 f8ff 44       		.uleb128 0x44
 14504 f900 4546495F 		.ascii "EFI_WARN_STALE_DATA EFIWARN(5)\0"
 14504      5741524E 
 14504      5F535441 
 14504      4C455F44 
 14504      41544120 
 14505 f91f 01       		.byte	0x1
 14506 f920 45       		.uleb128 0x45
 14507 f921 4546495F 		.ascii "EFI_WARN_FILE_SYSTEM EFIWARN(6)\0"
 14507      5741524E 
 14507      5F46494C 
 14507      455F5359 
 14507      5354454D 
 14508 f941 01       		.byte	0x1
 14509 f942 46       		.uleb128 0x46
 14510 f943 4546495F 		.ascii "EFI_WARN_RESET_REQUIRED EFIWARN(7)\0"
 14510      5741524E 
 14510      5F524553 
 14510      45545F52 
 14510      45515549 
 14511 f966 04       		.byte	0x4
 14512 f967 03       		.byte	0x3
 14513 f968 4F       		.uleb128 0x4f
 14514 f969 0A       		.uleb128 0xa
 14515 f96a 01       		.byte	0x1
 14516 f96b 02       		.uleb128 0x2
 14517 f96c 5F454649 		.ascii "_EFI_UI_H \0"
 14517      5F55495F 
 14517      482000
 14518 f977 01       		.byte	0x1
 14519 f978 1F       		.uleb128 0x1f
 14520 f979 4546495F 		.ascii "EFI_UI_INTERFACE_PROTOCOL_GUID { 0x32dd7981, 0x2d27, 0x11d4, {0xbc, 0x8b, 0x0, 0x80, 0xc7,
 14520      55495F49 
 14520      4E544552 
 14520      46414345 
 14520      5F50524F 
 14521 f9e8 01       		.byte	0x1
 14522 f9e9 21       		.uleb128 0x21
 14523 f9ea 4546495F 		.ascii "EFI_UI_PROTOCOL EFI_UI_INTERFACE_PROTOCOL_GUID\0"
 14523      55495F50 
 14523      524F544F 
 14523      434F4C20 
 14523      4546495F 
 14524 fa19 01       		.byte	0x1
 14525 fa1a 2F       		.uleb128 0x2f
 14526 fa1b 4546495F 		.ascii "EFI_UI_INTERFACE_PROTOCOL_VERSION 0x00010000\0"
 14526      55495F49 
 14526      4E544552 
 14526      46414345 
 14526      5F50524F 
 14527 fa48 01       		.byte	0x1
 14528 fa49 30       		.uleb128 0x30
 14529 fa4a 4546495F 		.ascii "EFI_UI_VERSION EFI_UI_INTERFACE_PROTOCOL_VERSION\0"
 14529      55495F56 
 14529      45525349 
 14529      4F4E2045 
 14529      46495F55 
 14530 fa7b 04       		.byte	0x4
 14531              		.file 34 "gnu-efi-3.0.18/inc/efiip.h"
 14532 fa7c 03       		.byte	0x3
 14533 fa7d 50       		.uleb128 0x50
 14534 fa7e 22       		.uleb128 0x22
 14535 fa7f 01       		.byte	0x1
 14536 fa80 02       		.uleb128 0x2
 14537 fa81 5F454649 		.ascii "_EFI_IP_H \0"
 14537      5F49505F 
 14537      482000
 14538 fa8c 01       		.byte	0x1
 14539 fa8d 09       		.uleb128 0x9
 14540 fa8e 4546495F 		.ascii "EFI_IP4_SERVICE_BINDING_PROTOCOL {0xc51711e7,0xb4bf,0x404a,{0xbf,0xb8,0x0a,0x04, 0x8e,0xf1
 14540      4950345F 
 14540      53455256 
 14540      4943455F 
 14540      42494E44 
 14541 faf5 01       		.byte	0x1
 14542 faf6 0C       		.uleb128 0xc
 14543 faf7 4546495F 		.ascii "EFI_IP4_PROTOCOL {0x41d94cd2,0x35b6,0x455a,{0x82,0x58,0xd4,0xe5,0x13,0x34,0xaa,0xdd}}\0"
 14543      4950345F 
 14543      50524F54 
 14543      4F434F4C 
 14543      207B3078 
 14544 fb4d 01       		.byte	0x1
 14545 fb4e 0F       		.uleb128 0xf
 14546 fb4f 4546495F 		.ascii "EFI_IP6_SERVICE_BINDING_PROTOCOL {0xec835dd3,0xfe0f,0x617b,{0xa6,0x21,0xb3,0x50,0xc3,0xe1,
 14546      4950365F 
 14546      53455256 
 14546      4943455F 
 14546      42494E44 
 14547 fbb5 01       		.byte	0x1
 14548 fbb6 12       		.uleb128 0x12
 14549 fbb7 4546495F 		.ascii "EFI_IP6_PROTOCOL {0x2c8759d5,0x5c2d,0x66ef,{0x92,0x5f,0xb6,0x6c,0x10,0x19,0x57,0xe2}}\0"
 14549      4950365F 
 14549      50524F54 
 14549      4F434F4C 
 14549      207B3078 
 14550 fc0d 01       		.byte	0x1
 14551 fc0e 8102     		.uleb128 0x101
 14552 fc10 49434D50 		.ascii "ICMP_V6_DEST_UNREACHABLE 0x1\0"
 14552      5F56365F 
 14552      44455354 
 14552      5F554E52 
 14552      45414348 
 14553 fc2d 01       		.byte	0x1
 14554 fc2e 8202     		.uleb128 0x102
 14555 fc30 49434D50 		.ascii "ICMP_V6_PACKET_TOO_BIG 0x2\0"
 14555      5F56365F 
 14555      5041434B 
 14555      45545F54 
 14555      4F4F5F42 
 14556 fc4b 01       		.byte	0x1
 14557 fc4c 8302     		.uleb128 0x103
 14558 fc4e 49434D50 		.ascii "ICMP_V6_TIME_EXCEEDED 0x3\0"
 14558      5F56365F 
 14558      54494D45 
 14558      5F455843 
 14558      45454445 
 14559 fc68 01       		.byte	0x1
 14560 fc69 8402     		.uleb128 0x104
 14561 fc6b 49434D50 		.ascii "ICMP_V6_PARAMETER_PROBLEM 0x4\0"
 14561      5F56365F 
 14561      50415241 
 14561      4D455445 
 14561      525F5052 
 14562 fc89 01       		.byte	0x1
 14563 fc8a 8902     		.uleb128 0x109
 14564 fc8c 49434D50 		.ascii "ICMP_V6_ECHO_REQUEST 0x80\0"
 14564      5F56365F 
 14564      4543484F 
 14564      5F524551 
 14564      55455354 
 14565 fca6 01       		.byte	0x1
 14566 fca7 8A02     		.uleb128 0x10a
 14567 fca9 49434D50 		.ascii "ICMP_V6_ECHO_REPLY 0x81\0"
 14567      5F56365F 
 14567      4543484F 
 14567      5F524550 
 14567      4C592030 
 14568 fcc1 01       		.byte	0x1
 14569 fcc2 8B02     		.uleb128 0x10b
 14570 fcc4 49434D50 		.ascii "ICMP_V6_LISTENER_QUERY 0x82\0"
 14570      5F56365F 
 14570      4C495354 
 14570      454E4552 
 14570      5F515545 
 14571 fce0 01       		.byte	0x1
 14572 fce1 8C02     		.uleb128 0x10c
 14573 fce3 49434D50 		.ascii "ICMP_V6_LISTENER_REPORT 0x83\0"
 14573      5F56365F 
 14573      4C495354 
 14573      454E4552 
 14573      5F524550 
 14574 fd00 01       		.byte	0x1
 14575 fd01 8D02     		.uleb128 0x10d
 14576 fd03 49434D50 		.ascii "ICMP_V6_LISTENER_DONE 0x84\0"
 14576      5F56365F 
 14576      4C495354 
 14576      454E4552 
 14576      5F444F4E 
 14577 fd1e 01       		.byte	0x1
 14578 fd1f 8E02     		.uleb128 0x10e
 14579 fd21 49434D50 		.ascii "ICMP_V6_ROUTER_SOLICIT 0x85\0"
 14579      5F56365F 
 14579      524F5554 
 14579      45525F53 
 14579      4F4C4943 
 14580 fd3d 01       		.byte	0x1
 14581 fd3e 8F02     		.uleb128 0x10f
 14582 fd40 49434D50 		.ascii "ICMP_V6_ROUTER_ADVERTISE 0x86\0"
 14582      5F56365F 
 14582      524F5554 
 14582      45525F41 
 14582      44564552 
 14583 fd5e 01       		.byte	0x1
 14584 fd5f 9002     		.uleb128 0x110
 14585 fd61 49434D50 		.ascii "ICMP_V6_NEIGHBOR_SOLICIT 0x87\0"
 14585      5F56365F 
 14585      4E454947 
 14585      48424F52 
 14585      5F534F4C 
 14586 fd7f 01       		.byte	0x1
 14587 fd80 9102     		.uleb128 0x111
 14588 fd82 49434D50 		.ascii "ICMP_V6_NEIGHBOR_ADVERTISE 0x88\0"
 14588      5F56365F 
 14588      4E454947 
 14588      48424F52 
 14588      5F414456 
 14589 fda2 01       		.byte	0x1
 14590 fda3 9202     		.uleb128 0x112
 14591 fda5 49434D50 		.ascii "ICMP_V6_REDIRECT 0x89\0"
 14591      5F56365F 
 14591      52454449 
 14591      52454354 
 14591      20307838 
 14592 fdbb 01       		.byte	0x1
 14593 fdbc 9302     		.uleb128 0x113
 14594 fdbe 49434D50 		.ascii "ICMP_V6_LISTENER_REPORT_2 0x8F\0"
 14594      5F56365F 
 14594      4C495354 
 14594      454E4552 
 14594      5F524550 
 14595 fddd 01       		.byte	0x1
 14596 fdde 9802     		.uleb128 0x118
 14597 fde0 49434D50 		.ascii "ICMP_V6_NO_ROUTE_TO_DEST 0x0\0"
 14597      5F56365F 
 14597      4E4F5F52 
 14597      4F555445 
 14597      5F544F5F 
 14598 fdfd 01       		.byte	0x1
 14599 fdfe 9902     		.uleb128 0x119
 14600 fe00 49434D50 		.ascii "ICMP_V6_COMM_PROHIBITED 0x1\0"
 14600      5F56365F 
 14600      434F4D4D 
 14600      5F50524F 
 14600      48494249 
 14601 fe1c 01       		.byte	0x1
 14602 fe1d 9A02     		.uleb128 0x11a
 14603 fe1f 49434D50 		.ascii "ICMP_V6_BEYOND_SCOPE 0x2\0"
 14603      5F56365F 
 14603      4245594F 
 14603      4E445F53 
 14603      434F5045 
 14604 fe38 01       		.byte	0x1
 14605 fe39 9B02     		.uleb128 0x11b
 14606 fe3b 49434D50 		.ascii "ICMP_V6_ADDR_UNREACHABLE 0x3\0"
 14606      5F56365F 
 14606      41444452 
 14606      5F554E52 
 14606      45414348 
 14607 fe58 01       		.byte	0x1
 14608 fe59 9C02     		.uleb128 0x11c
 14609 fe5b 49434D50 		.ascii "ICMP_V6_PORT_UNREACHABLE 0x4\0"
 14609      5F56365F 
 14609      504F5254 
 14609      5F554E52 
 14609      45414348 
 14610 fe78 01       		.byte	0x1
 14611 fe79 9D02     		.uleb128 0x11d
 14612 fe7b 49434D50 		.ascii "ICMP_V6_SOURCE_ADDR_FAILED 0x5\0"
 14612      5F56365F 
 14612      534F5552 
 14612      43455F41 
 14612      4444525F 
 14613 fe9a 01       		.byte	0x1
 14614 fe9b 9E02     		.uleb128 0x11e
 14615 fe9d 49434D50 		.ascii "ICMP_V6_ROUTE_REJECTED 0x6\0"
 14615      5F56365F 
 14615      524F5554 
 14615      455F5245 
 14615      4A454354 
 14616 feb8 01       		.byte	0x1
 14617 feb9 A302     		.uleb128 0x123
 14618 febb 49434D50 		.ascii "ICMP_V6_TIMEOUT_HOP_LIMIT 0x0\0"
 14618      5F56365F 
 14618      54494D45 
 14618      4F55545F 
 14618      484F505F 
 14619 fed9 01       		.byte	0x1
 14620 feda A402     		.uleb128 0x124
 14621 fedc 49434D50 		.ascii "ICMP_V6_TIMEOUT_REASSEMBLE 0x1\0"
 14621      5F56365F 
 14621      54494D45 
 14621      4F55545F 
 14621      52454153 
 14622 fefb 01       		.byte	0x1
 14623 fefc A902     		.uleb128 0x129
 14624 fefe 49434D50 		.ascii "ICMP_V6_ERRONEOUS_HEADER 0x0\0"
 14624      5F56365F 
 14624      4552524F 
 14624      4E454F55 
 14624      535F4845 
 14625 ff1b 01       		.byte	0x1
 14626 ff1c AA02     		.uleb128 0x12a
 14627 ff1e 49434D50 		.ascii "ICMP_V6_UNRECOGNIZE_NEXT_HDR 0x1\0"
 14627      5F56365F 
 14627      554E5245 
 14627      434F474E 
 14627      495A455F 
 14628 ff3f 01       		.byte	0x1
 14629 ff40 AB02     		.uleb128 0x12b
 14630 ff42 49434D50 		.ascii "ICMP_V6_UNRECOGNIZE_OPTION 0x2\0"
 14630      5F56365F 
 14630      554E5245 
 14630      434F474E 
 14630      495A455F 
 14631 ff61 04       		.byte	0x4
 14632              		.file 35 "gnu-efi-3.0.18/inc/efiudp.h"
 14633 ff62 03       		.byte	0x3
 14634 ff63 51       		.uleb128 0x51
 14635 ff64 23       		.uleb128 0x23
 14636 ff65 01       		.byte	0x1
 14637 ff66 02       		.uleb128 0x2
 14638 ff67 5F454649 		.ascii "_EFI_UDP_H \0"
 14638      5F554450 
 14638      5F482000 
 14639 ff73 01       		.byte	0x1
 14640 ff74 0A       		.uleb128 0xa
 14641 ff75 4546495F 		.ascii "EFI_UDP4_SERVICE_BINDING_PROTOCOL { 0x83f01464, 0x99bd, 0x45e5, {0xb3, 0x83, 0xaf, 0x63, 0
 14641      55445034 
 14641      5F534552 
 14641      56494345 
 14641      5F42494E 
 14642 ffe8 01       		.byte	0x1
 14643 ffe9 0D       		.uleb128 0xd
 14644 ffea 4546495F 		.ascii "EFI_UDP4_PROTOCOL { 0x3ad9df29, 0x4501, 0x478d, {0xb1, 0xf8, 0x7f, 0x7f, 0xe7, 0x0e, 0x50,
 14644      55445034 
 14644      5F50524F 
 14644      544F434F 
 14644      4C207B20 
 14645 1004d 01       		.byte	0x1
 14646 1004e 10       		.uleb128 0x10
 14647 1004f 4546495F 		.ascii "EFI_UDP6_SERVICE_BINDING_PROTOCOL { 0x66ed4721, 0x3c98, 0x4d3e, {0x81, 0xe3, 0xd0, 0x3d, 0
 14647      55445036 
 14647      5F534552 
 14647      56494345 
 14647      5F42494E 
 14648 100c2 01       		.byte	0x1
 14649 100c3 13       		.uleb128 0x13
 14650 100c4 4546495F 		.ascii "EFI_UDP6_PROTOCOL { 0x4f948815, 0xb4b9, 0x43cb, {0x8a, 0x33, 0x90, 0xe0, 0x60, 0xb3,0x49, 
 14650      55445036 
 14650      5F50524F 
 14650      544F434F 
 14650      4C207B20 
 14651 10126 01       		.byte	0x1
 14652 10127 4E       		.uleb128 0x4e
 14653 10128 4546495F 		.ascii "EFI_NETWORK_UNREACHABLE EFIERR(100)\0"
 14653      4E455457 
 14653      4F524B5F 
 14653      554E5245 
 14653      41434841 
 14654 1014c 01       		.byte	0x1
 14655 1014d 4F       		.uleb128 0x4f
 14656 1014e 4546495F 		.ascii "EFI_HOST_UNREACHABLE EFIERR(101)\0"
 14656      484F5354 
 14656      5F554E52 
 14656      45414348 
 14656      41424C45 
 14657 1016f 01       		.byte	0x1
 14658 10170 50       		.uleb128 0x50
 14659 10171 4546495F 		.ascii "EFI_PROTOCOL_UNREACHABLE EFIERR(102)\0"
 14659      50524F54 
 14659      4F434F4C 
 14659      5F554E52 
 14659      45414348 
 14660 10196 01       		.byte	0x1
 14661 10197 51       		.uleb128 0x51
 14662 10198 4546495F 		.ascii "EFI_PORT_UNREACHABLE EFIERR(103)\0"
 14662      504F5254 
 14662      5F554E52 
 14662      45414348 
 14662      41424C45 
 14663 101b9 04       		.byte	0x4
 14664              		.file 36 "gnu-efi-3.0.18/inc/efitcp.h"
 14665 101ba 03       		.byte	0x3
 14666 101bb 52       		.uleb128 0x52
 14667 101bc 24       		.uleb128 0x24
 14668 101bd 01       		.byte	0x1
 14669 101be 02       		.uleb128 0x2
 14670 101bf 5F454649 		.ascii "_EFI_TCP_H \0"
 14670      5F544350 
 14670      5F482000 
 14671 101cb 01       		.byte	0x1
 14672 101cc 09       		.uleb128 0x9
 14673 101cd 4546495F 		.ascii "EFI_TCP4_SERVICE_BINDING_PROTOCOL { 0x00720665, 0x67eb, 0x4a99, {0xba, 0xf7, 0xd3, 0xc3, 0
 14673      54435034 
 14673      5F534552 
 14673      56494345 
 14673      5F42494E 
 14674 1023e 01       		.byte	0x1
 14675 1023f 0C       		.uleb128 0xc
 14676 10240 4546495F 		.ascii "EFI_TCP4_PROTOCOL { 0x65530bc7, 0xa359, 0x410f, {0xb0, 0x10, 0x5a, 0xad, 0xc7, 0xec, 0x2b,
 14676      54435034 
 14676      5F50524F 
 14676      544F434F 
 14676      4C207B20 
 14677 102a2 01       		.byte	0x1
 14678 102a3 0F       		.uleb128 0xf
 14679 102a4 4546495F 		.ascii "EFI_TCP6_SERVICE_BINDING_PROTOCOL { 0xec20eb79, 0x6c1a, 0x4664, {0x9a, 0xd, 0xd2, 0xe4, 0x
 14679      54435036 
 14679      5F534552 
 14679      56494345 
 14679      5F42494E 
 14680 10315 01       		.byte	0x1
 14681 10316 12       		.uleb128 0x12
 14682 10317 4546495F 		.ascii "EFI_TCP6_PROTOCOL { 0x46e44855, 0xbd60, 0x4ab7, {0xab, 0xd, 0xa6, 0x79, 0xb9, 0x44, 0x7d, 
 14682      54435036 
 14682      5F50524F 
 14682      544F434F 
 14682      4C207B20 
 14683 10378 01       		.byte	0x1
 14684 10379 8701     		.uleb128 0x87
 14685 1037b 4546495F 		.ascii "EFI_CONNECTION_FIN EFIERR(104)\0"
 14685      434F4E4E 
 14685      45435449 
 14685      4F4E5F46 
 14685      494E2045 
 14686 1039a 01       		.byte	0x1
 14687 1039b 8801     		.uleb128 0x88
 14688 1039d 4546495F 		.ascii "EFI_CONNECTION_RESET EFIERR(105)\0"
 14688      434F4E4E 
 14688      45435449 
 14688      4F4E5F52 
 14688      45534554 
 14689 103be 01       		.byte	0x1
 14690 103bf 8901     		.uleb128 0x89
 14691 103c1 4546495F 		.ascii "EFI_CONNECTION_REFUSED EFIERR(106)\0"
 14691      434F4E4E 
 14691      45435449 
 14691      4F4E5F52 
 14691      45465553 
 14692 103e4 04       		.byte	0x4
 14693              		.file 37 "gnu-efi-3.0.18/inc/efipoint.h"
 14694 103e5 03       		.byte	0x3
 14695 103e6 53       		.uleb128 0x53
 14696 103e7 25       		.uleb128 0x25
 14697 103e8 01       		.byte	0x1
 14698 103e9 17       		.uleb128 0x17
 14699 103ea 5F454649 		.ascii "_EFI_POINT_H \0"
 14699      5F504F49 
 14699      4E545F48 
 14699      2000
 14700 103f8 01       		.byte	0x1
 14701 103f9 19       		.uleb128 0x19
 14702 103fa 4546495F 		.ascii "EFI_SIMPLE_POINTER_PROTOCOL_GUID { 0x31878c87, 0xb75, 0x11d5, { 0x9a, 0x4f, 0x0, 0x90, 0x2
 14702      53494D50 
 14702      4C455F50 
 14702      4F494E54 
 14702      45525F50 
 14703 1046c 01       		.byte	0x1
 14704 1046d 43       		.uleb128 0x43
 14705 1046e 4546495F 		.ascii "EFI_ABSOLUTE_POINTER_PROTOCOL_GUID { 0x8D59D32B, 0xC655, 0x4AE9, { 0x9B, 0x15, 0xF2, 0x59,
 14705      4142534F 
 14705      4C555445 
 14705      5F504F49 
 14705      4E544552 
 14706 104e4 01       		.byte	0x1
 14707 104e5 59       		.uleb128 0x59
 14708 104e6 4546495F 		.ascii "EFI_ABSP_SupportsAltActive 0x00000001\0"
 14708      41425350 
 14708      5F537570 
 14708      706F7274 
 14708      73416C74 
 14709 1050c 01       		.byte	0x1
 14710 1050d 5A       		.uleb128 0x5a
 14711 1050e 4546495F 		.ascii "EFI_ABSP_SupportsPressureAsZ 0x00000002\0"
 14711      41425350 
 14711      5F537570 
 14711      706F7274 
 14711      73507265 
 14712 10536 01       		.byte	0x1
 14713 10537 5B       		.uleb128 0x5b
 14714 10538 4546495F 		.ascii "EFI_ABSP_TouchActive 0x00000001\0"
 14714      41425350 
 14714      5F546F75 
 14714      63684163 
 14714      74697665 
 14715 10558 01       		.byte	0x1
 14716 10559 5C       		.uleb128 0x5c
 14717 1055a 4546495F 		.ascii "EFI_ABS_AltActive 0x00000002\0"
 14717      4142535F 
 14717      416C7441 
 14717      63746976 
 14717      65203078 
 14718 10577 04       		.byte	0x4
 14719              		.file 38 "gnu-efi-3.0.18/inc/efishell.h"
 14720 10578 03       		.byte	0x3
 14721 10579 54       		.uleb128 0x54
 14722 1057a 26       		.uleb128 0x26
 14723 1057b 01       		.byte	0x1
 14724 1057c 0D       		.uleb128 0xd
 14725 1057d 5F454649 		.ascii "_EFI_SHELL_H \0"
 14725      5F534845 
 14725      4C4C5F48 
 14725      2000
 14726              		.file 39 "gnu-efi-3.0.18/inc/efilink.h"
 14727 1058b 03       		.byte	0x3
 14728 1058c 0F       		.uleb128 0xf
 14729 1058d 27       		.uleb128 0x27
 14730 1058e 01       		.byte	0x1
 14731 1058f 02       		.uleb128 0x2
 14732 10590 5F454649 		.ascii "_EFI_LINK_H \0"
 14732      5F4C494E 
 14732      4B5F4820 
 14732      00
 14733 1059d 01       		.byte	0x1
 14734 1059e 2B       		.uleb128 0x2b
 14735 1059f 496E6974 		.ascii "InitializeListHead(ListHead) (ListHead)->Flink = ListHead; (ListHead)->Blink = ListHead;\0
 14735      69616C69 
 14735      7A654C69 
 14735      73744865 
 14735      6164284C 
 14736 105f8 01       		.byte	0x1
 14737 105f9 36       		.uleb128 0x36
 14738 105fa 49734C69 		.ascii "IsListEmpty(ListHead) ((ListHead)->Flink == (ListHead))\0"
 14738      7374456D 
 14738      70747928 
 14738      4C697374 
 14738      48656164 
 14739 10632 01       		.byte	0x1
 14740 10633 40       		.uleb128 0x40
 14741 10634 5F52656D 		.ascii "_RemoveEntryList(Entry) { LIST_ENTRY *_Blink, *_Flink; _Flink = (Entry)->Flink; _Blink = (
 14741      6F766545 
 14741      6E747279 
 14741      4C697374 
 14741      28456E74 
 14742 106cf 01       		.byte	0x1
 14743 106d0 4E       		.uleb128 0x4e
 14744 106d1 52656D6F 		.ascii "RemoveEntryList(Entry) _RemoveEntryList(Entry);\0"
 14744      7665456E 
 14744      7472794C 
 14744      69737428 
 14744      456E7472 
 14745 10701 01       		.byte	0x1
 14746 10702 5A       		.uleb128 0x5a
 14747 10703 496E7365 		.ascii "InsertTailList(ListHead,Entry) { LIST_ENTRY *_ListHead, *_Blink; _ListHead = (ListHead); _
 14747      72745461 
 14747      696C4C69 
 14747      7374284C 
 14747      69737448 
 14748 107e3 01       		.byte	0x1
 14749 107e4 6C       		.uleb128 0x6c
 14750 107e5 496E7365 		.ascii "InsertHeadList(ListHead,Entry) { LIST_ENTRY *_ListHead, *_Flink; _ListHead = (ListHead); _
 14750      72744865 
 14750      61644C69 
 14750      7374284C 
 14750      69737448 
 14751 108c5 01       		.byte	0x1
 14752 108c6 7E       		.uleb128 0x7e
 14753 108c7 53776170 		.ascii "SwapListEntries(Entry1,Entry2) { LIST_ENTRY *Entry1Flink, *Entry1Blink; LIST_ENTRY *Entry2
 14753      4C697374 
 14753      456E7472 
 14753      69657328 
 14753      456E7472 
 14754 10a6c 01       		.byte	0x1
 14755 10a6d 9101     		.uleb128 0x91
 14756 10a6f 4546495F 		.ascii "EFI_FIELD_OFFSET(TYPE,Field) ((UINTN)(intptr_t)(&(((TYPE *) 0)->Field)))\0"
 14756      4649454C 
 14756      445F4F46 
 14756      46534554 
 14756      28545950 
 14757 10ab8 01       		.byte	0x1
 14758 10ab9 9801     		.uleb128 0x98
 14759 10abb 5F435228 		.ascii "_CR(Record,TYPE,Field) ((TYPE *) ( (CHAR8 *)(Record) - (CHAR8 *) &(((TYPE *) 0)->Field)))\
 14759      5265636F 
 14759      72642C54 
 14759      5950452C 
 14759      4669656C 
 14760 10b15 01       		.byte	0x1
 14761 10b16 9E01     		.uleb128 0x9e
 14762 10b18 42415345 		.ascii "BASE_CR _CR\0"
 14762      5F435220 
 14762      5F435200 
 14763 10b24 01       		.byte	0x1
 14764 10b25 A601     		.uleb128 0xa6
 14765 10b27 43522852 		.ascii "CR(Record,TYPE,Field,Signature) _CR(Record, TYPE, Field)\0"
 14765      65636F72 
 14765      642C5459 
 14765      50452C46 
 14765      69656C64 
 14766 10b60 04       		.byte	0x4
 14767 10b61 01       		.byte	0x1
 14768 10b62 11       		.uleb128 0x11
 14769 10b63 4546495F 		.ascii "EFI_SHELL_PROTOCOL_GUID { 0x6302d008, 0x7f9b, 0x4f30, { 0x87, 0xac, 0x60, 0xc9, 0xfe, 0xf5
 14769      5348454C 
 14769      4C5F5052 
 14769      4F544F43 
 14769      4F4C5F47 
 14770 10bce 01       		.byte	0x1
 14771 10bcf 9801     		.uleb128 0x98
 14772 10bd1 4546495F 		.ascii "EFI_DEVICE_NAME_USE_COMPONENT_NAME 0x00000001\0"
 14772      44455649 
 14772      43455F4E 
 14772      414D455F 
 14772      5553455F 
 14773 10bff 01       		.byte	0x1
 14774 10c00 9901     		.uleb128 0x99
 14775 10c02 4546495F 		.ascii "EFI_DEVICE_NAME_USE_DEVICE_PATH 0x00000002\0"
 14775      44455649 
 14775      43455F4E 
 14775      414D455F 
 14775      5553455F 
 14776 10c2d 01       		.byte	0x1
 14777 10c2e 9903     		.uleb128 0x199
 14778 10c30 4546495F 		.ascii "EFI_SHELL_PARAMETERS_PROTOCOL_GUID { 0x752f3136, 0x4e16, 0x4fdc, { 0xa2, 0x2a, 0xe5, 0xf4,
 14778      5348454C 
 14778      4C5F5041 
 14778      52414D45 
 14778      54455253 
 14779 10ca6 01       		.byte	0x1
 14780 10ca7 A603     		.uleb128 0x1a6
 14781 10ca9 4546495F 		.ascii "EFI_SHELL_DYNAMIC_COMMAND_PROTOCOL_GUID { 0x3c7200e9, 0x005f, 0x4ea4, { 0x87, 0xde, 0xa3, 
 14781      5348454C 
 14781      4C5F4459 
 14781      4E414D49 
 14781      435F434F 
 14782 10d24 04       		.byte	0x4
 14783 10d25 04       		.byte	0x4
 14784 10d26 03       		.byte	0x3
 14785 10d27 18       		.uleb128 0x18
 14786 10d28 0C       		.uleb128 0xc
 14787 10d29 01       		.byte	0x1
 14788 10d2a 02       		.uleb128 0x2
 14789 10d2b 5F454649 		.ascii "_EFILIB_INCLUDE_ \0"
 14789      4C49425F 
 14789      494E434C 
 14789      5544455F 
 14789      2000
 14790              		.file 40 "gnu-efi-3.0.18/inc/efidebug.h"
 14791 10d3d 03       		.byte	0x3
 14792 10d3e 1A       		.uleb128 0x1a
 14793 10d3f 28       		.uleb128 0x28
 14794 10d40 01       		.byte	0x1
 14795 10d41 02       		.uleb128 0x2
 14796 10d42 5F454649 		.ascii "_EFI_DEBUG_H \0"
 14796      5F444542 
 14796      55475F48 
 14796      2000
 14797 10d50 01       		.byte	0x1
 14798 10d51 1F       		.uleb128 0x1f
 14799 10d52 44424741 		.ascii "DBGASSERT(a) \0"
 14799      53534552 
 14799      54286129 
 14799      2000
 14800 10d60 01       		.byte	0x1
 14801 10d61 20       		.uleb128 0x20
 14802 10d62 44454255 		.ascii "DEBUG(a) \0"
 14802      47286129 
 14802      2000
 14803 10d6c 01       		.byte	0x1
 14804 10d6d 2A       		.uleb128 0x2a
 14805 10d6e 44424753 		.ascii "DBGSETMEM(a,l) \0"
 14805      45544D45 
 14805      4D28612C 
 14805      6C292000 
 14806 10d7e 01       		.byte	0x1
 14807 10d7f 2E       		.uleb128 0x2e
 14808 10d80 445F494E 		.ascii "D_INIT 0x00000001\0"
 14808      49542030 
 14808      78303030 
 14808      30303030 
 14808      3100
 14809 10d92 01       		.byte	0x1
 14810 10d93 2F       		.uleb128 0x2f
 14811 10d94 445F5741 		.ascii "D_WARN 0x00000002\0"
 14811      524E2030 
 14811      78303030 
 14811      30303030 
 14811      3200
 14812 10da6 01       		.byte	0x1
 14813 10da7 30       		.uleb128 0x30
 14814 10da8 445F4C4F 		.ascii "D_LOAD 0x00000004\0"
 14814      41442030 
 14814      78303030 
 14814      30303030 
 14814      3400
 14815 10dba 01       		.byte	0x1
 14816 10dbb 31       		.uleb128 0x31
 14817 10dbc 445F4653 		.ascii "D_FS 0x00000008\0"
 14817      20307830 
 14817      30303030 
 14817      30303800 
 14818 10dcc 01       		.byte	0x1
 14819 10dcd 32       		.uleb128 0x32
 14820 10dce 445F504F 		.ascii "D_POOL 0x00000010\0"
 14820      4F4C2030 
 14820      78303030 
 14820      30303031 
 14820      3000
 14821 10de0 01       		.byte	0x1
 14822 10de1 33       		.uleb128 0x33
 14823 10de2 445F5041 		.ascii "D_PAGE 0x00000020\0"
 14823      47452030 
 14823      78303030 
 14823      30303032 
 14823      3000
 14824 10df4 01       		.byte	0x1
 14825 10df5 34       		.uleb128 0x34
 14826 10df6 445F494E 		.ascii "D_INFO 0x00000040\0"
 14826      464F2030 
 14826      78303030 
 14826      30303034 
 14826      3000
 14827 10e08 01       		.byte	0x1
 14828 10e09 35       		.uleb128 0x35
 14829 10e0a 445F5641 		.ascii "D_VAR 0x00000100\0"
 14829      52203078 
 14829      30303030 
 14829      30313030 
 14829      00
 14830 10e1b 01       		.byte	0x1
 14831 10e1c 36       		.uleb128 0x36
 14832 10e1d 445F5041 		.ascii "D_PARSE 0x00000200\0"
 14832      52534520 
 14832      30783030 
 14832      30303032 
 14832      303000
 14833 10e30 01       		.byte	0x1
 14834 10e31 37       		.uleb128 0x37
 14835 10e32 445F424D 		.ascii "D_BM 0x00000400\0"
 14835      20307830 
 14835      30303030 
 14835      34303000 
 14836 10e42 01       		.byte	0x1
 14837 10e43 38       		.uleb128 0x38
 14838 10e44 445F424C 		.ascii "D_BLKIO 0x00001000\0"
 14838      4B494F20 
 14838      30783030 
 14838      30303130 
 14838      303000
 14839 10e57 01       		.byte	0x1
 14840 10e58 39       		.uleb128 0x39
 14841 10e59 445F424C 		.ascii "D_BLKIO_ULTRA 0x00002000\0"
 14841      4B494F5F 
 14841      554C5452 
 14841      41203078 
 14841      30303030 
 14842 10e72 01       		.byte	0x1
 14843 10e73 3A       		.uleb128 0x3a
 14844 10e74 445F4E45 		.ascii "D_NET 0x00004000\0"
 14844      54203078 
 14844      30303030 
 14844      34303030 
 14844      00
 14845 10e85 01       		.byte	0x1
 14846 10e86 3B       		.uleb128 0x3b
 14847 10e87 445F4E45 		.ascii "D_NET_ULTRA 0x00008000\0"
 14847      545F554C 
 14847      54524120 
 14847      30783030 
 14847      30303830 
 14848 10e9e 01       		.byte	0x1
 14849 10e9f 3C       		.uleb128 0x3c
 14850 10ea0 445F5458 		.ascii "D_TXTIN 0x00010000\0"
 14850      54494E20 
 14850      30783030 
 14850      30313030 
 14850      303000
 14851 10eb3 01       		.byte	0x1
 14852 10eb4 3D       		.uleb128 0x3d
 14853 10eb5 445F5458 		.ascii "D_TXTOUT 0x00020000\0"
 14853      544F5554 
 14853      20307830 
 14853      30303230 
 14853      30303000 
 14854 10ec9 01       		.byte	0x1
 14855 10eca 3E       		.uleb128 0x3e
 14856 10ecb 445F4552 		.ascii "D_ERROR_ATA 0x00040000\0"
 14856      524F525F 
 14856      41544120 
 14856      30783030 
 14856      30343030 
 14857 10ee2 01       		.byte	0x1
 14858 10ee3 3F       		.uleb128 0x3f
 14859 10ee4 445F4552 		.ascii "D_ERROR 0x80000000\0"
 14859      524F5220 
 14859      30783830 
 14859      30303030 
 14859      303000
 14860 10ef7 01       		.byte	0x1
 14861 10ef8 41       		.uleb128 0x41
 14862 10ef9 445F5245 		.ascii "D_RESERVED 0x7fffC880\0"
 14862      53455256 
 14862      45442030 
 14862      78376666 
 14862      66433838 
 14863 10f0f 01       		.byte	0x1
 14864 10f10 47       		.uleb128 0x47
 14865 10f11 4546495F 		.ascii "EFI_DBUG_MASK (D_ERROR)\0"
 14865      44425547 
 14865      5F4D4153 
 14865      4B202844 
 14865      5F455252 
 14866 10f29 01       		.byte	0x1
 14867 10f2a 55       		.uleb128 0x55
 14868 10f2b 41535345 		.ascii "ASSERT(a) \0"
 14868      52542861 
 14868      292000
 14869 10f36 01       		.byte	0x1
 14870 10f37 56       		.uleb128 0x56
 14871 10f38 41535345 		.ascii "ASSERT_LOCKED(l) \0"
 14871      52545F4C 
 14871      4F434B45 
 14871      44286C29 
 14871      2000
 14872 10f4a 01       		.byte	0x1
 14873 10f4b 57       		.uleb128 0x57
 14874 10f4c 41535345 		.ascii "ASSERT_STRUCT(p,t) \0"
 14874      52545F53 
 14874      54525543 
 14874      5428702C 
 14874      74292000 
 14875 10f60 01       		.byte	0x1
 14876 10f61 74       		.uleb128 0x74
 14877 10f62 45584345 		.ascii "EXCEPT_IA32_DIVIDE_ERROR 0\0"
 14877      50545F49 
 14877      4133325F 
 14877      44495649 
 14877      44455F45 
 14878 10f7d 01       		.byte	0x1
 14879 10f7e 75       		.uleb128 0x75
 14880 10f7f 45584345 		.ascii "EXCEPT_IA32_DEBUG 1\0"
 14880      50545F49 
 14880      4133325F 
 14880      44454255 
 14880      47203100 
 14881 10f93 01       		.byte	0x1
 14882 10f94 76       		.uleb128 0x76
 14883 10f95 45584345 		.ascii "EXCEPT_IA32_NMI 2\0"
 14883      50545F49 
 14883      4133325F 
 14883      4E4D4920 
 14883      3200
 14884 10fa7 01       		.byte	0x1
 14885 10fa8 77       		.uleb128 0x77
 14886 10fa9 45584345 		.ascii "EXCEPT_IA32_BREAKPOINT 3\0"
 14886      50545F49 
 14886      4133325F 
 14886      42524541 
 14886      4B504F49 
 14887 10fc2 01       		.byte	0x1
 14888 10fc3 78       		.uleb128 0x78
 14889 10fc4 45584345 		.ascii "EXCEPT_IA32_OVERFLOW 4\0"
 14889      50545F49 
 14889      4133325F 
 14889      4F564552 
 14889      464C4F57 
 14890 10fdb 01       		.byte	0x1
 14891 10fdc 79       		.uleb128 0x79
 14892 10fdd 45584345 		.ascii "EXCEPT_IA32_BOUND 5\0"
 14892      50545F49 
 14892      4133325F 
 14892      424F554E 
 14892      44203500 
 14893 10ff1 01       		.byte	0x1
 14894 10ff2 7A       		.uleb128 0x7a
 14895 10ff3 45584345 		.ascii "EXCEPT_IA32_INVALID_OPCODE 6\0"
 14895      50545F49 
 14895      4133325F 
 14895      494E5641 
 14895      4C49445F 
 14896 11010 01       		.byte	0x1
 14897 11011 7B       		.uleb128 0x7b
 14898 11012 45584345 		.ascii "EXCEPT_IA32_DOUBLE_FAULT 8\0"
 14898      50545F49 
 14898      4133325F 
 14898      444F5542 
 14898      4C455F46 
 14899 1102d 01       		.byte	0x1
 14900 1102e 7C       		.uleb128 0x7c
 14901 1102f 45584345 		.ascii "EXCEPT_IA32_INVALID_TSS 10\0"
 14901      50545F49 
 14901      4133325F 
 14901      494E5641 
 14901      4C49445F 
 14902 1104a 01       		.byte	0x1
 14903 1104b 7D       		.uleb128 0x7d
 14904 1104c 45584345 		.ascii "EXCEPT_IA32_SEG_NOT_PRESENT 11\0"
 14904      50545F49 
 14904      4133325F 
 14904      5345475F 
 14904      4E4F545F 
 14905 1106b 01       		.byte	0x1
 14906 1106c 7E       		.uleb128 0x7e
 14907 1106d 45584345 		.ascii "EXCEPT_IA32_STACK_FAULT 12\0"
 14907      50545F49 
 14907      4133325F 
 14907      53544143 
 14907      4B5F4641 
 14908 11088 01       		.byte	0x1
 14909 11089 7F       		.uleb128 0x7f
 14910 1108a 45584345 		.ascii "EXCEPT_IA32_GP_FAULT 13\0"
 14910      50545F49 
 14910      4133325F 
 14910      47505F46 
 14910      41554C54 
 14911 110a2 01       		.byte	0x1
 14912 110a3 8001     		.uleb128 0x80
 14913 110a5 45584345 		.ascii "EXCEPT_IA32_PAGE_FAULT 14\0"
 14913      50545F49 
 14913      4133325F 
 14913      50414745 
 14913      5F464155 
 14914 110bf 01       		.byte	0x1
 14915 110c0 8101     		.uleb128 0x81
 14916 110c2 45584345 		.ascii "EXCEPT_IA32_FP_ERROR 16\0"
 14916      50545F49 
 14916      4133325F 
 14916      46505F45 
 14916      52524F52 
 14917 110da 01       		.byte	0x1
 14918 110db 8201     		.uleb128 0x82
 14919 110dd 45584345 		.ascii "EXCEPT_IA32_ALIGNMENT_CHECK 17\0"
 14919      50545F49 
 14919      4133325F 
 14919      414C4947 
 14919      4E4D454E 
 14920 110fc 01       		.byte	0x1
 14921 110fd 8301     		.uleb128 0x83
 14922 110ff 45584345 		.ascii "EXCEPT_IA32_MACHINE_CHECK 18\0"
 14922      50545F49 
 14922      4133325F 
 14922      4D414348 
 14922      494E455F 
 14923 1111c 01       		.byte	0x1
 14924 1111d 8401     		.uleb128 0x84
 14925 1111f 45584345 		.ascii "EXCEPT_IA32_SIMD 19\0"
 14925      50545F49 
 14925      4133325F 
 14925      53494D44 
 14925      20313900 
 14926 11133 01       		.byte	0x1
 14927 11134 C901     		.uleb128 0xc9
 14928 11136 45584345 		.ascii "EXCEPT_X64_DIVIDE_ERROR 0\0"
 14928      50545F58 
 14928      36345F44 
 14928      49564944 
 14928      455F4552 
 14929 11150 01       		.byte	0x1
 14930 11151 CA01     		.uleb128 0xca
 14931 11153 45584345 		.ascii "EXCEPT_X64_DEBUG 1\0"
 14931      50545F58 
 14931      36345F44 
 14931      45425547 
 14931      203100
 14932 11166 01       		.byte	0x1
 14933 11167 CB01     		.uleb128 0xcb
 14934 11169 45584345 		.ascii "EXCEPT_X64_NMI 2\0"
 14934      50545F58 
 14934      36345F4E 
 14934      4D492032 
 14934      00
 14935 1117a 01       		.byte	0x1
 14936 1117b CC01     		.uleb128 0xcc
 14937 1117d 45584345 		.ascii "EXCEPT_X64_BREAKPOINT 3\0"
 14937      50545F58 
 14937      36345F42 
 14937      5245414B 
 14937      504F494E 
 14938 11195 01       		.byte	0x1
 14939 11196 CD01     		.uleb128 0xcd
 14940 11198 45584345 		.ascii "EXCEPT_X64_OVERFLOW 4\0"
 14940      50545F58 
 14940      36345F4F 
 14940      56455246 
 14940      4C4F5720 
 14941 111ae 01       		.byte	0x1
 14942 111af CE01     		.uleb128 0xce
 14943 111b1 45584345 		.ascii "EXCEPT_X64_BOUND 5\0"
 14943      50545F58 
 14943      36345F42 
 14943      4F554E44 
 14943      203500
 14944 111c4 01       		.byte	0x1
 14945 111c5 CF01     		.uleb128 0xcf
 14946 111c7 45584345 		.ascii "EXCEPT_X64_INVALID_OPCODE 6\0"
 14946      50545F58 
 14946      36345F49 
 14946      4E56414C 
 14946      49445F4F 
 14947 111e3 01       		.byte	0x1
 14948 111e4 D001     		.uleb128 0xd0
 14949 111e6 45584345 		.ascii "EXCEPT_X64_DOUBLE_FAULT 8\0"
 14949      50545F58 
 14949      36345F44 
 14949      4F55424C 
 14949      455F4641 
 14950 11200 01       		.byte	0x1
 14951 11201 D101     		.uleb128 0xd1
 14952 11203 45584345 		.ascii "EXCEPT_X64_INVALID_TSS 10\0"
 14952      50545F58 
 14952      36345F49 
 14952      4E56414C 
 14952      49445F54 
 14953 1121d 01       		.byte	0x1
 14954 1121e D201     		.uleb128 0xd2
 14955 11220 45584345 		.ascii "EXCEPT_X64_SEG_NOT_PRESENT 11\0"
 14955      50545F58 
 14955      36345F53 
 14955      45475F4E 
 14955      4F545F50 
 14956 1123e 01       		.byte	0x1
 14957 1123f D301     		.uleb128 0xd3
 14958 11241 45584345 		.ascii "EXCEPT_X64_STACK_FAULT 12\0"
 14958      50545F58 
 14958      36345F53 
 14958      5441434B 
 14958      5F464155 
 14959 1125b 01       		.byte	0x1
 14960 1125c D401     		.uleb128 0xd4
 14961 1125e 45584345 		.ascii "EXCEPT_X64_GP_FAULT 13\0"
 14961      50545F58 
 14961      36345F47 
 14961      505F4641 
 14961      554C5420 
 14962 11275 01       		.byte	0x1
 14963 11276 D501     		.uleb128 0xd5
 14964 11278 45584345 		.ascii "EXCEPT_X64_PAGE_FAULT 14\0"
 14964      50545F58 
 14964      36345F50 
 14964      4147455F 
 14964      4641554C 
 14965 11291 01       		.byte	0x1
 14966 11292 D601     		.uleb128 0xd6
 14967 11294 45584345 		.ascii "EXCEPT_X64_FP_ERROR 16\0"
 14967      50545F58 
 14967      36345F46 
 14967      505F4552 
 14967      524F5220 
 14968 112ab 01       		.byte	0x1
 14969 112ac D701     		.uleb128 0xd7
 14970 112ae 45584345 		.ascii "EXCEPT_X64_ALIGNMENT_CHECK 17\0"
 14970      50545F58 
 14970      36345F41 
 14970      4C49474E 
 14970      4D454E54 
 14971 112cc 01       		.byte	0x1
 14972 112cd D801     		.uleb128 0xd8
 14973 112cf 45584345 		.ascii "EXCEPT_X64_MACHINE_CHECK 18\0"
 14973      50545F58 
 14973      36345F4D 
 14973      41434849 
 14973      4E455F43 
 14974 112eb 01       		.byte	0x1
 14975 112ec D901     		.uleb128 0xd9
 14976 112ee 45584345 		.ascii "EXCEPT_X64_SIMD 19\0"
 14976      50545F58 
 14976      36345F53 
 14976      494D4420 
 14976      313900
 14977 11301 01       		.byte	0x1
 14978 11302 A402     		.uleb128 0x124
 14979 11304 45584345 		.ascii "EXCEPT_IPF_VHTP_TRANSLATION 0\0"
 14979      50545F49 
 14979      50465F56 
 14979      4854505F 
 14979      5452414E 
 14980 11322 01       		.byte	0x1
 14981 11323 A502     		.uleb128 0x125
 14982 11325 45584345 		.ascii "EXCEPT_IPF_INSTRUCTION_TLB 1\0"
 14982      50545F49 
 14982      50465F49 
 14982      4E535452 
 14982      55435449 
 14983 11342 01       		.byte	0x1
 14984 11343 A602     		.uleb128 0x126
 14985 11345 45584345 		.ascii "EXCEPT_IPF_DATA_TLB 2\0"
 14985      50545F49 
 14985      50465F44 
 14985      4154415F 
 14985      544C4220 
 14986 1135b 01       		.byte	0x1
 14987 1135c A702     		.uleb128 0x127
 14988 1135e 45584345 		.ascii "EXCEPT_IPF_ALT_INSTRUCTION_TLB 3\0"
 14988      50545F49 
 14988      50465F41 
 14988      4C545F49 
 14988      4E535452 
 14989 1137f 01       		.byte	0x1
 14990 11380 A802     		.uleb128 0x128
 14991 11382 45584345 		.ascii "EXCEPT_IPF_ALT_DATA_TLB 4\0"
 14991      50545F49 
 14991      50465F41 
 14991      4C545F44 
 14991      4154415F 
 14992 1139c 01       		.byte	0x1
 14993 1139d A902     		.uleb128 0x129
 14994 1139f 45584345 		.ascii "EXCEPT_IPF_DATA_NESTED_TLB 5\0"
 14994      50545F49 
 14994      50465F44 
 14994      4154415F 
 14994      4E455354 
 14995 113bc 01       		.byte	0x1
 14996 113bd AA02     		.uleb128 0x12a
 14997 113bf 45584345 		.ascii "EXCEPT_IPF_INSTRUCTION_KEY_MISSED 6\0"
 14997      50545F49 
 14997      50465F49 
 14997      4E535452 
 14997      55435449 
 14998 113e3 01       		.byte	0x1
 14999 113e4 AB02     		.uleb128 0x12b
 15000 113e6 45584345 		.ascii "EXCEPT_IPF_DATA_KEY_MISSED 7\0"
 15000      50545F49 
 15000      50465F44 
 15000      4154415F 
 15000      4B45595F 
 15001 11403 01       		.byte	0x1
 15002 11404 AC02     		.uleb128 0x12c
 15003 11406 45584345 		.ascii "EXCEPT_IPF_DIRTY_BIT 8\0"
 15003      50545F49 
 15003      50465F44 
 15003      49525459 
 15003      5F424954 
 15004 1141d 01       		.byte	0x1
 15005 1141e AD02     		.uleb128 0x12d
 15006 11420 45584345 		.ascii "EXCEPT_IPF_INSTRUCTION_ACCESS_BIT 9\0"
 15006      50545F49 
 15006      50465F49 
 15006      4E535452 
 15006      55435449 
 15007 11444 01       		.byte	0x1
 15008 11445 AE02     		.uleb128 0x12e
 15009 11447 45584345 		.ascii "EXCEPT_IPF_DATA_ACCESS_BIT 10\0"
 15009      50545F49 
 15009      50465F44 
 15009      4154415F 
 15009      41434345 
 15010 11465 01       		.byte	0x1
 15011 11466 AF02     		.uleb128 0x12f
 15012 11468 45584345 		.ascii "EXCEPT_IPF_BREAKPOINT 11\0"
 15012      50545F49 
 15012      50465F42 
 15012      5245414B 
 15012      504F494E 
 15013 11481 01       		.byte	0x1
 15014 11482 B002     		.uleb128 0x130
 15015 11484 45584345 		.ascii "EXCEPT_IPF_EXTERNAL_INTERRUPT 12\0"
 15015      50545F49 
 15015      50465F45 
 15015      58544552 
 15015      4E414C5F 
 15016 114a5 01       		.byte	0x1
 15017 114a6 B102     		.uleb128 0x131
 15018 114a8 45584345 		.ascii "EXCEPT_IPF_PAGE_NOT_PRESENT 20\0"
 15018      50545F49 
 15018      50465F50 
 15018      4147455F 
 15018      4E4F545F 
 15019 114c7 01       		.byte	0x1
 15020 114c8 B202     		.uleb128 0x132
 15021 114ca 45584345 		.ascii "EXCEPT_IPF_KEY_PERMISSION 21\0"
 15021      50545F49 
 15021      50465F4B 
 15021      45595F50 
 15021      45524D49 
 15022 114e7 01       		.byte	0x1
 15023 114e8 B302     		.uleb128 0x133
 15024 114ea 45584345 		.ascii "EXCEPT_IPF_INSTRUCTION_ACCESS_RIGHTS 22\0"
 15024      50545F49 
 15024      50465F49 
 15024      4E535452 
 15024      55435449 
 15025 11512 01       		.byte	0x1
 15026 11513 B402     		.uleb128 0x134
 15027 11515 45584345 		.ascii "EXCEPT_IPF_DATA_ACCESS_RIGHTS 23\0"
 15027      50545F49 
 15027      50465F44 
 15027      4154415F 
 15027      41434345 
 15028 11536 01       		.byte	0x1
 15029 11537 B502     		.uleb128 0x135
 15030 11539 45584345 		.ascii "EXCEPT_IPF_GENERAL_EXCEPTION 24\0"
 15030      50545F49 
 15030      50465F47 
 15030      454E4552 
 15030      414C5F45 
 15031 11559 01       		.byte	0x1
 15032 1155a B602     		.uleb128 0x136
 15033 1155c 45584345 		.ascii "EXCEPT_IPF_DISABLED_FP_REGISTER 25\0"
 15033      50545F49 
 15033      50465F44 
 15033      49534142 
 15033      4C45445F 
 15034 1157f 01       		.byte	0x1
 15035 11580 B702     		.uleb128 0x137
 15036 11582 45584345 		.ascii "EXCEPT_IPF_NAT_CONSUMPTION 26\0"
 15036      50545F49 
 15036      50465F4E 
 15036      41545F43 
 15036      4F4E5355 
 15037 115a0 01       		.byte	0x1
 15038 115a1 B802     		.uleb128 0x138
 15039 115a3 45584345 		.ascii "EXCEPT_IPF_SPECULATION 27\0"
 15039      50545F49 
 15039      50465F53 
 15039      50454355 
 15039      4C415449 
 15040 115bd 01       		.byte	0x1
 15041 115be B902     		.uleb128 0x139
 15042 115c0 45584345 		.ascii "EXCEPT_IPF_DEBUG 29\0"
 15042      50545F49 
 15042      50465F44 
 15042      45425547 
 15042      20323900 
 15043 115d4 01       		.byte	0x1
 15044 115d5 BA02     		.uleb128 0x13a
 15045 115d7 45584345 		.ascii "EXCEPT_IPF_UNALIGNED_REFERENCE 30\0"
 15045      50545F49 
 15045      50465F55 
 15045      4E414C49 
 15045      474E4544 
 15046 115f9 01       		.byte	0x1
 15047 115fa BB02     		.uleb128 0x13b
 15048 115fc 45584345 		.ascii "EXCEPT_IPF_UNSUPPORTED_DATA_REFERENCE 31\0"
 15048      50545F49 
 15048      50465F55 
 15048      4E535550 
 15048      504F5254 
 15049 11625 01       		.byte	0x1
 15050 11626 BC02     		.uleb128 0x13c
 15051 11628 45584345 		.ascii "EXCEPT_IPF_FP_FAULT 32\0"
 15051      50545F49 
 15051      50465F46 
 15051      505F4641 
 15051      554C5420 
 15052 1163f 01       		.byte	0x1
 15053 11640 BD02     		.uleb128 0x13d
 15054 11642 45584345 		.ascii "EXCEPT_IPF_FP_TRAP 33\0"
 15054      50545F49 
 15054      50465F46 
 15054      505F5452 
 15054      41502033 
 15055 11658 01       		.byte	0x1
 15056 11659 BE02     		.uleb128 0x13e
 15057 1165b 45584345 		.ascii "EXCEPT_IPF_LOWER_PRIVILEGE_TRANSFER_TRAP 34\0"
 15057      50545F49 
 15057      50465F4C 
 15057      4F574552 
 15057      5F505249 
 15058 11687 01       		.byte	0x1
 15059 11688 BF02     		.uleb128 0x13f
 15060 1168a 45584345 		.ascii "EXCEPT_IPF_TAKEN_BRANCH 35\0"
 15060      50545F49 
 15060      50465F54 
 15060      414B454E 
 15060      5F425241 
 15061 116a5 01       		.byte	0x1
 15062 116a6 C002     		.uleb128 0x140
 15063 116a8 45584345 		.ascii "EXCEPT_IPF_SINGLE_STEP 36\0"
 15063      50545F49 
 15063      50465F53 
 15063      494E474C 
 15063      455F5354 
 15064 116c2 01       		.byte	0x1
 15065 116c3 C102     		.uleb128 0x141
 15066 116c5 45584345 		.ascii "EXCEPT_IPF_IA32_EXCEPTION 45\0"
 15066      50545F49 
 15066      50465F49 
 15066      4133325F 
 15066      45584345 
 15067 116e2 01       		.byte	0x1
 15068 116e3 C202     		.uleb128 0x142
 15069 116e5 45584345 		.ascii "EXCEPT_IPF_IA32_INTERCEPT 46\0"
 15069      50545F49 
 15069      50465F49 
 15069      4133325F 
 15069      494E5445 
 15070 11702 01       		.byte	0x1
 15071 11703 C302     		.uleb128 0x143
 15072 11705 45584345 		.ascii "EXCEPT_IPF_IA32_INTERRUPT 47\0"
 15072      50545F49 
 15072      50465F49 
 15072      4133325F 
 15072      494E5445 
 15073 11722 01       		.byte	0x1
 15074 11723 C003     		.uleb128 0x1c0
 15075 11725 45584345 		.ascii "EXCEPT_EBC_UNDEFINED 0\0"
 15075      50545F45 
 15075      42435F55 
 15075      4E444546 
 15075      494E4544 
 15076 1173c 01       		.byte	0x1
 15077 1173d C103     		.uleb128 0x1c1
 15078 1173f 45584345 		.ascii "EXCEPT_EBC_DIVIDE_ERROR 1\0"
 15078      50545F45 
 15078      42435F44 
 15078      49564944 
 15078      455F4552 
 15079 11759 01       		.byte	0x1
 15080 1175a C203     		.uleb128 0x1c2
 15081 1175c 45584345 		.ascii "EXCEPT_EBC_DEBUG 2\0"
 15081      50545F45 
 15081      42435F44 
 15081      45425547 
 15081      203200
 15082 1176f 01       		.byte	0x1
 15083 11770 C303     		.uleb128 0x1c3
 15084 11772 45584345 		.ascii "EXCEPT_EBC_BREAKPOINT 3\0"
 15084      50545F45 
 15084      42435F42 
 15084      5245414B 
 15084      504F494E 
 15085 1178a 01       		.byte	0x1
 15086 1178b C403     		.uleb128 0x1c4
 15087 1178d 45584345 		.ascii "EXCEPT_EBC_OVERFLOW 4\0"
 15087      50545F45 
 15087      42435F4F 
 15087      56455246 
 15087      4C4F5720 
 15088 117a3 01       		.byte	0x1
 15089 117a4 C503     		.uleb128 0x1c5
 15090 117a6 45584345 		.ascii "EXCEPT_EBC_INVALID_OPCODE 5\0"
 15090      50545F45 
 15090      42435F49 
 15090      4E56414C 
 15090      49445F4F 
 15091 117c2 01       		.byte	0x1
 15092 117c3 C603     		.uleb128 0x1c6
 15093 117c5 45584345 		.ascii "EXCEPT_EBC_STACK_FAULT 6\0"
 15093      50545F45 
 15093      42435F53 
 15093      5441434B 
 15093      5F464155 
 15094 117de 01       		.byte	0x1
 15095 117df C703     		.uleb128 0x1c7
 15096 117e1 45584345 		.ascii "EXCEPT_EBC_ALIGNMENT_CHECK 7\0"
 15096      50545F45 
 15096      42435F41 
 15096      4C49474E 
 15096      4D454E54 
 15097 117fe 01       		.byte	0x1
 15098 117ff C803     		.uleb128 0x1c8
 15099 11801 45584345 		.ascii "EXCEPT_EBC_INSTRUCTION_ENCODING 8\0"
 15099      50545F45 
 15099      42435F49 
 15099      4E535452 
 15099      55435449 
 15100 11823 01       		.byte	0x1
 15101 11824 C903     		.uleb128 0x1c9
 15102 11826 45584345 		.ascii "EXCEPT_EBC_BAD_BREAK 9\0"
 15102      50545F45 
 15102      42435F42 
 15102      41445F42 
 15102      5245414B 
 15103 1183d 01       		.byte	0x1
 15104 1183e CA03     		.uleb128 0x1ca
 15105 11840 45584345 		.ascii "EXCEPT_EBC_STEP 10\0"
 15105      50545F45 
 15105      42435F53 
 15105      54455020 
 15105      313000
 15106 11853 01       		.byte	0x1
 15107 11854 CB03     		.uleb128 0x1cb
 15108 11856 4D41585F 		.ascii "MAX_EBC_EXCEPTION EXCEPT_EBC_STEP\0"
 15108      4542435F 
 15108      45584345 
 15108      5054494F 
 15108      4E204558 
 15109 11878 01       		.byte	0x1
 15110 11879 DC03     		.uleb128 0x1dc
 15111 1187b 45584345 		.ascii "EXCEPT_ARM_RESET 0\0"
 15111      50545F41 
 15111      524D5F52 
 15111      45534554 
 15111      203000
 15112 1188e 01       		.byte	0x1
 15113 1188f DD03     		.uleb128 0x1dd
 15114 11891 45584345 		.ascii "EXCEPT_ARM_UNDEFINED_INSTRUCTION 1\0"
 15114      50545F41 
 15114      524D5F55 
 15114      4E444546 
 15114      494E4544 
 15115 118b4 01       		.byte	0x1
 15116 118b5 DE03     		.uleb128 0x1de
 15117 118b7 45584345 		.ascii "EXCEPT_ARM_SOFTWARE_INTERRUPT 2\0"
 15117      50545F41 
 15117      524D5F53 
 15117      4F465457 
 15117      4152455F 
 15118 118d7 01       		.byte	0x1
 15119 118d8 DF03     		.uleb128 0x1df
 15120 118da 45584345 		.ascii "EXCEPT_ARM_PREFETCH_ABORT 3\0"
 15120      50545F41 
 15120      524D5F50 
 15120      52454645 
 15120      5443485F 
 15121 118f6 01       		.byte	0x1
 15122 118f7 E003     		.uleb128 0x1e0
 15123 118f9 45584345 		.ascii "EXCEPT_ARM_DATA_ABORT 4\0"
 15123      50545F41 
 15123      524D5F44 
 15123      4154415F 
 15123      41424F52 
 15124 11911 01       		.byte	0x1
 15125 11912 E103     		.uleb128 0x1e1
 15126 11914 45584345 		.ascii "EXCEPT_ARM_RESERVED 5\0"
 15126      50545F41 
 15126      524D5F52 
 15126      45534552 
 15126      56454420 
 15127 1192a 01       		.byte	0x1
 15128 1192b E203     		.uleb128 0x1e2
 15129 1192d 45584345 		.ascii "EXCEPT_ARM_IRQ 6\0"
 15129      50545F41 
 15129      524D5F49 
 15129      52512036 
 15129      00
 15130 1193e 01       		.byte	0x1
 15131 1193f E303     		.uleb128 0x1e3
 15132 11941 45584345 		.ascii "EXCEPT_ARM_FIQ 7\0"
 15132      50545F41 
 15132      524D5F46 
 15132      49512037 
 15132      00
 15133 11952 01       		.byte	0x1
 15134 11953 E403     		.uleb128 0x1e4
 15135 11955 4D41585F 		.ascii "MAX_ARM_EXCEPTION EXCEPT_ARM_FIQ\0"
 15135      41524D5F 
 15135      45584345 
 15135      5054494F 
 15135      4E204558 
 15136 11976 01       		.byte	0x1
 15137 11977 9F04     		.uleb128 0x21f
 15138 11979 4546495F 		.ascii "EFI_DEBUG_IMAGE_INFO_TABLE_GUID { 0x49152e77, 0x1ada, 0x4764, {0xb7, 0xa2, 0x7a, 0xfe, 0xf
 15138      44454255 
 15138      475F494D 
 15138      4147455F 
 15138      494E464F 
 15139 119ea 01       		.byte	0x1
 15140 119eb A204     		.uleb128 0x222
 15141 119ed 4546495F 		.ascii "EFI_DEBUG_IMAGE_INFO_UPDATE_IN_PROGRESS 0x01\0"
 15141      44454255 
 15141      475F494D 
 15141      4147455F 
 15141      494E464F 
 15142 11a1a 01       		.byte	0x1
 15143 11a1b A304     		.uleb128 0x223
 15144 11a1d 4546495F 		.ascii "EFI_DEBUG_IMAGE_INFO_TABLE_MODIFIED 0x02\0"
 15144      44454255 
 15144      475F494D 
 15144      4147455F 
 15144      494E464F 
 15145 11a46 01       		.byte	0x1
 15146 11a47 A404     		.uleb128 0x224
 15147 11a49 4546495F 		.ascii "EFI_DEBUG_IMAGE_INFO_INITIAL_SIZE (EFI_PAGE_SIZE / sizeof (UINTN))\0"
 15147      44454255 
 15147      475F494D 
 15147      4147455F 
 15147      494E464F 
 15148 11a8c 01       		.byte	0x1
 15149 11a8d A504     		.uleb128 0x225
 15150 11a8f 4546495F 		.ascii "EFI_DEBUG_IMAGE_INFO_TYPE_NORMAL 0x01\0"
 15150      44454255 
 15150      475F494D 
 15150      4147455F 
 15150      494E464F 
 15151 11ab5 01       		.byte	0x1
 15152 11ab6 C204     		.uleb128 0x242
 15153 11ab8 4546495F 		.ascii "EFI_DEBUG_SUPPORT_PROTOCOL_GUID { 0x2755590c, 0x6f3c, 0x42fa, {0x9e, 0xa4, 0xa3, 0xba, 0x5
 15153      44454255 
 15153      475F5355 
 15153      50504F52 
 15153      545F5052 
 15154 11b29 04       		.byte	0x4
 15155 11b2a 03       		.byte	0x3
 15156 11b2b 1B       		.uleb128 0x1b
 15157 11b2c 0B       		.uleb128 0xb
 15158 11b2d 01       		.byte	0x1
 15159 11b2e 02       		.uleb128 0x2
 15160 11b2f 5F454649 		.ascii "_EFI_PART_H \0"
 15160      5F504152 
 15160      545F4820 
 15160      00
 15161 11b3c 01       		.byte	0x1
 15162 11b3d 1A       		.uleb128 0x1a
 15163 11b3e 4546495F 		.ascii "EFI_PARTITION 0xef\0"
 15163      50415254 
 15163      4954494F 
 15163      4E203078 
 15163      656600
 15164 11b51 01       		.byte	0x1
 15165 11b52 1B       		.uleb128 0x1b
 15166 11b53 4D42525F 		.ascii "MBR_SIZE 512\0"
 15166      53495A45 
 15166      20353132 
 15166      00
 15167 11b60 01       		.byte	0x1
 15168 11b61 2C       		.uleb128 0x2c
 15169 11b62 45585452 		.ascii "EXTRACT_UINT32(D) (UINT32)(D[0] | (D[1] << 8) | (D[2] << 16) | (D[3] << 24))\0"
 15169      4143545F 
 15169      55494E54 
 15169      33322844 
 15169      29202855 
 15170 11baf 01       		.byte	0x1
 15171 11bb0 2E       		.uleb128 0x2e
 15172 11bb1 4D42525F 		.ascii "MBR_SIGNATURE 0xaa55\0"
 15172      5349474E 
 15172      41545552 
 15172      45203078 
 15172      61613535 
 15173 11bc6 01       		.byte	0x1
 15174 11bc7 2F       		.uleb128 0x2f
 15175 11bc8 4D494E5F 		.ascii "MIN_MBR_DEVICE_SIZE 0x80000\0"
 15175      4D42525F 
 15175      44455649 
 15175      43455F53 
 15175      495A4520 
 15176 11be4 01       		.byte	0x1
 15177 11be5 30       		.uleb128 0x30
 15178 11be6 4D42525F 		.ascii "MBR_ERRATA_PAD 0x40000\0"
 15178      45525241 
 15178      54415F50 
 15178      41442030 
 15178      78343030 
 15179 11bfd 01       		.byte	0x1
 15180 11bfe 32       		.uleb128 0x32
 15181 11bff 4D41585F 		.ascii "MAX_MBR_PARTITIONS 4\0"
 15181      4D42525F 
 15181      50415254 
 15181      4954494F 
 15181      4E532034 
 15182 11c14 04       		.byte	0x4
 15183              		.file 41 "gnu-efi-3.0.18/inc/x86_64/efilibplat.h"
 15184 11c15 03       		.byte	0x3
 15185 11c16 1D       		.uleb128 0x1d
 15186 11c17 29       		.uleb128 0x29
 15187 11c18 04       		.byte	0x4
 15188 11c19 03       		.byte	0x3
 15189 11c1a 2E       		.uleb128 0x2e
 15190 11c1b 0D       		.uleb128 0xd
 15191 11c1c 01       		.byte	0x1
 15192 11c1d 02       		.uleb128 0x2
 15193 11c1e 5F454649 		.ascii "_EFI_RT_LIB_INCLUDE_ \0"
 15193      5F52545F 
 15193      4C49425F 
 15193      494E434C 
 15193      5544455F 
 15194 11c34 03       		.byte	0x3
 15195 11c35 18       		.uleb128 0x18
 15196 11c36 29       		.uleb128 0x29
 15197 11c37 04       		.byte	0x4
 15198 11c38 04       		.byte	0x4
 15199              		.file 42 "gnu-efi-3.0.18/inc/efistdarg.h"
 15200 11c39 03       		.byte	0x3
 15201 11c3a 2F       		.uleb128 0x2f
 15202 11c3b 2A       		.uleb128 0x2a
 15203 11c3c 01       		.byte	0x1
 15204 11c3d 02       		.uleb128 0x2
 15205 11c3e 5F454649 		.ascii "_EFISTDARG_H_ \0"
 15205      53544441 
 15205      52475F48 
 15205      5F2000
 15206 11c4d 01       		.byte	0x1
 15207 11c4e 19       		.uleb128 0x19
 15208 11c4f 76615F73 		.ascii "va_start(v,l) __builtin_va_start(v,l)\0"
 15208      74617274 
 15208      28762C6C 
 15208      29205F5F 
 15208      6275696C 
 15209 11c75 01       		.byte	0x1
 15210 11c76 1A       		.uleb128 0x1a
 15211 11c77 76615F65 		.ascii "va_end(v) __builtin_va_end(v)\0"
 15211      6E642876 
 15211      29205F5F 
 15211      6275696C 
 15211      74696E5F 
 15212 11c95 01       		.byte	0x1
 15213 11c96 1B       		.uleb128 0x1b
 15214 11c97 76615F61 		.ascii "va_arg(v,l) __builtin_va_arg(v,l)\0"
 15214      72672876 
 15214      2C6C2920 
 15214      5F5F6275 
 15214      696C7469 
 15215 11cb9 01       		.byte	0x1
 15216 11cba 1C       		.uleb128 0x1c
 15217 11cbb 76615F63 		.ascii "va_copy(d,s) __builtin_va_copy(d,s)\0"
 15217      6F707928 
 15217      642C7329 
 15217      205F5F62 
 15217      75696C74 
 15218 11cdf 04       		.byte	0x4
 15219              		.file 43 "gnu-efi-3.0.18/inc/pci22.h"
 15220 11ce0 03       		.byte	0x3
 15221 11ce1 30       		.uleb128 0x30
 15222 11ce2 2B       		.uleb128 0x2b
 15223 11ce3 01       		.byte	0x1
 15224 11ce4 02       		.uleb128 0x2
 15225 11ce5 5F504349 		.ascii "_PCI22_H \0"
 15225      32325F48 
 15225      2000
 15226 11cef 01       		.byte	0x1
 15227 11cf0 19       		.uleb128 0x19
 15228 11cf1 5043495F 		.ascii "PCI_MAX_BUS 255\0"
 15228      4D41585F 
 15228      42555320 
 15228      32353500 
 15229 11d01 01       		.byte	0x1
 15230 11d02 1C       		.uleb128 0x1c
 15231 11d03 5043495F 		.ascii "PCI_MAX_DEVICE 31\0"
 15231      4D41585F 
 15231      44455649 
 15231      43452033 
 15231      3100
 15232 11d15 01       		.byte	0x1
 15233 11d16 1D       		.uleb128 0x1d
 15234 11d17 5043495F 		.ascii "PCI_MAX_FUNC 7\0"
 15234      4D41585F 
 15234      46554E43 
 15234      203700
 15235 11d26 01       		.byte	0x1
 15236 11d27 22       		.uleb128 0x22
 15237 11d28 5043495F 		.ascii "PCI_VGA_PALETTE_SNOOP_DISABLED 0x20\0"
 15237      5647415F 
 15237      50414C45 
 15237      5454455F 
 15237      534E4F4F 
 15238 11d4c 01       		.byte	0x1
 15239 11d4d 5C       		.uleb128 0x5c
 15240 11d4e 5043495F 		.ascii "PCI_CLASS_DISPLAY_CTRL 0x03\0"
 15240      434C4153 
 15240      535F4449 
 15240      53504C41 
 15240      595F4354 
 15241 11d6a 01       		.byte	0x1
 15242 11d6b 5D       		.uleb128 0x5d
 15243 11d6c 5043495F 		.ascii "PCI_CLASS_VGA 0x00\0"
 15243      434C4153 
 15243      535F5647 
 15243      41203078 
 15243      303000
 15244 11d7f 01       		.byte	0x1
 15245 11d80 5F       		.uleb128 0x5f
 15246 11d81 5043495F 		.ascii "PCI_CLASS_BRIDGE 0x06\0"
 15246      434C4153 
 15246      535F4252 
 15246      49444745 
 15246      20307830 
 15247 11d97 01       		.byte	0x1
 15248 11d98 60       		.uleb128 0x60
 15249 11d99 5043495F 		.ascii "PCI_CLASS_ISA 0x01\0"
 15249      434C4153 
 15249      535F4953 
 15249      41203078 
 15249      303100
 15250 11dac 01       		.byte	0x1
 15251 11dad 61       		.uleb128 0x61
 15252 11dae 5043495F 		.ascii "PCI_CLASS_ISA_POSITIVE_DECODE 0x80\0"
 15252      434C4153 
 15252      535F4953 
 15252      415F504F 
 15252      53495449 
 15253 11dd1 01       		.byte	0x1
 15254 11dd2 63       		.uleb128 0x63
 15255 11dd3 5043495F 		.ascii "PCI_CLASS_NETWORK 0x02\0"
 15255      434C4153 
 15255      535F4E45 
 15255      54574F52 
 15255      4B203078 
 15256 11dea 01       		.byte	0x1
 15257 11deb 64       		.uleb128 0x64
 15258 11dec 5043495F 		.ascii "PCI_CLASS_ETHERNET 0x00\0"
 15258      434C4153 
 15258      535F4554 
 15258      4845524E 
 15258      45542030 
 15259 11e04 01       		.byte	0x1
 15260 11e05 66       		.uleb128 0x66
 15261 11e06 48454144 		.ascii "HEADER_TYPE_DEVICE 0x00\0"
 15261      45525F54 
 15261      5950455F 
 15261      44455649 
 15261      43452030 
 15262 11e1e 01       		.byte	0x1
 15263 11e1f 67       		.uleb128 0x67
 15264 11e20 48454144 		.ascii "HEADER_TYPE_PCI_TO_PCI_BRIDGE 0x01\0"
 15264      45525F54 
 15264      5950455F 
 15264      5043495F 
 15264      544F5F50 
 15265 11e43 01       		.byte	0x1
 15266 11e44 68       		.uleb128 0x68
 15267 11e45 48454144 		.ascii "HEADER_TYPE_MULTI_FUNCTION 0x80\0"
 15267      45525F54 
 15267      5950455F 
 15267      4D554C54 
 15267      495F4655 
 15268 11e65 01       		.byte	0x1
 15269 11e66 69       		.uleb128 0x69
 15270 11e67 48454144 		.ascii "HEADER_LAYOUT_CODE 0x7f\0"
 15270      45525F4C 
 15270      41594F55 
 15270      545F434F 
 15270      44452030 
 15271 11e7f 01       		.byte	0x1
 15272 11e80 6B       		.uleb128 0x6b
 15273 11e81 49535F50 		.ascii "IS_PCI_BRIDGE(_p) ((((_p)->Hdr.HeaderType) & HEADER_LAYOUT_CODE) == HEADER_TYPE_PCI_TO_PCI
 15273      43495F42 
 15273      52494447 
 15273      45285F70 
 15273      29202828 
 15274 11ee4 01       		.byte	0x1
 15275 11ee5 6C       		.uleb128 0x6c
 15276 11ee6 49535F50 		.ascii "IS_PCI_MULTI_FUNC(_p) (((_p)->Hdr.HeaderType) & HEADER_TYPE_MULTI_FUNCTION)\0"
 15276      43495F4D 
 15276      554C5449 
 15276      5F46554E 
 15276      43285F70 
 15277 11f32 01       		.byte	0x1
 15278 11f33 8601     		.uleb128 0x86
 15279 11f35 4546495F 		.ascii "EFI_ROOT_BRIDGE_LIST 'eprb'\0"
 15279      524F4F54 
 15279      5F425249 
 15279      4447455F 
 15279      4C495354 
 15280 11f51 01       		.byte	0x1
 15281 11f52 9401     		.uleb128 0x94
 15282 11f54 5043495F 		.ascii "PCI_EXPANSION_ROM_HEADER_SIGNATURE 0xaa55\0"
 15282      45585041 
 15282      4E53494F 
 15282      4E5F524F 
 15282      4D5F4845 
 15283 11f7e 01       		.byte	0x1
 15284 11f7f 9501     		.uleb128 0x95
 15285 11f81 4546495F 		.ascii "EFI_PCI_EXPANSION_ROM_HEADER_EFISIGNATURE 0x0EF1\0"
 15285      5043495F 
 15285      45585041 
 15285      4E53494F 
 15285      4E5F524F 
 15286 11fb2 01       		.byte	0x1
 15287 11fb3 9601     		.uleb128 0x96
 15288 11fb5 5043495F 		.ascii "PCI_DATA_STRUCTURE_SIGNATURE EFI_SIGNATURE_32('P','C','I','R')\0"
 15288      44415441 
 15288      5F535452 
 15288      55435455 
 15288      52455F53 
 15289 11ff4 04       		.byte	0x4
 15290              		.file 44 "gnu-efi-3.0.18/inc/libsmbios.h"
 15291 11ff5 03       		.byte	0x3
 15292 11ff6 31       		.uleb128 0x31
 15293 11ff7 2C       		.uleb128 0x2c
 15294 11ff8 01       		.byte	0x1
 15295 11ff9 02       		.uleb128 0x2
 15296 11ffa 5F4C4942 		.ascii "_LIB_SMBIOS_H \0"
 15296      5F534D42 
 15296      494F535F 
 15296      482000
 15297 12009 04       		.byte	0x4
 15298 1200a 01       		.byte	0x1
 15299 1200b 38       		.uleb128 0x38
 15300 1200c 67535420 		.ascii "gST ST\0"
 15300      535400
 15301 12013 01       		.byte	0x1
 15302 12014 3A       		.uleb128 0x3a
 15303 12015 67425320 		.ascii "gBS BS\0"
 15303      425300
 15304 1201c 01       		.byte	0x1
 15305 1201d 3C       		.uleb128 0x3c
 15306 1201e 67525420 		.ascii "gRT RT\0"
 15306      525400
 15307 12025 01       		.byte	0x1
 15308 12026 3F       		.uleb128 0x3f
 15309 12027 44657669 		.ascii "DevicePathProtocol gEfiDevicePathProtocolGuid\0"
 15309      63655061 
 15309      74685072 
 15309      6F746F63 
 15309      6F6C2067 
 15310 12055 01       		.byte	0x1
 15311 12056 41       		.uleb128 0x41
 15312 12057 44657669 		.ascii "DevicePathToTextProtocol gEfiDevicePathToTextProtocolGuid\0"
 15312      63655061 
 15312      7468546F 
 15312      54657874 
 15312      50726F74 
 15313 12091 01       		.byte	0x1
 15314 12092 43       		.uleb128 0x43
 15315 12093 44657669 		.ascii "DevicePathFromTextProtocol gEfiDevicePathFromTextProtocolGuid\0"
 15315      63655061 
 15315      74684672 
 15315      6F6D5465 
 15315      78745072 
 15316 120d1 01       		.byte	0x1
 15317 120d2 45       		.uleb128 0x45
 15318 120d3 44657669 		.ascii "DevicePathUtilitiesProtocol gEfiDevicePathUtilitiesProtocolGuid\0"
 15318      63655061 
 15318      74685574 
 15318      696C6974 
 15318      69657350 
 15319 12113 01       		.byte	0x1
 15320 12114 47       		.uleb128 0x47
 15321 12115 4C6F6164 		.ascii "LoadedImageProtocol gEfiLoadedImageProtocolGuid\0"
 15321      6564496D 
 15321      61676550 
 15321      726F746F 
 15321      636F6C20 
 15322 12145 01       		.byte	0x1
 15323 12146 49       		.uleb128 0x49
 15324 12147 54657874 		.ascii "TextInProtocol gEfiSimpleTextInProtocolGuid\0"
 15324      496E5072 
 15324      6F746F63 
 15324      6F6C2067 
 15324      45666953 
 15325 12173 01       		.byte	0x1
 15326 12174 4B       		.uleb128 0x4b
 15327 12175 54657874 		.ascii "TextOutProtocol gEfiSimpleTextOutProtocolGuid\0"
 15327      4F757450 
 15327      726F746F 
 15327      636F6C20 
 15327      67456669 
 15328 121a3 01       		.byte	0x1
 15329 121a4 4D       		.uleb128 0x4d
 15330 121a5 47726170 		.ascii "GraphicsOutputProtocol gEfiGraphicsOutputProtocolGuid\0"
 15330      68696373 
 15330      4F757470 
 15330      75745072 
 15330      6F746F63 
 15331 121db 01       		.byte	0x1
 15332 121dc 4F       		.uleb128 0x4f
 15333 121dd 45646964 		.ascii "EdidDiscoveredProtocol gEfiEdidDiscoveredProtocolGuid\0"
 15333      44697363 
 15333      6F766572 
 15333      65645072 
 15333      6F746F63 
 15334 12213 01       		.byte	0x1
 15335 12214 51       		.uleb128 0x51
 15336 12215 45646964 		.ascii "EdidActiveProtocol gEfiEdidActiveProtocolGuid\0"
 15336      41637469 
 15336      76655072 
 15336      6F746F63 
 15336      6F6C2067 
 15337 12243 01       		.byte	0x1
 15338 12244 53       		.uleb128 0x53
 15339 12245 45646964 		.ascii "EdidOverrideProtocol gEfiEdidOverrideProtocolGuid\0"
 15339      4F766572 
 15339      72696465 
 15339      50726F74 
 15339      6F636F6C 
 15340 12277 01       		.byte	0x1
 15341 12278 55       		.uleb128 0x55
 15342 12279 426C6F63 		.ascii "BlockIoProtocol gEfiBlockIoProtocolGuid\0"
 15342      6B496F50 
 15342      726F746F 
 15342      636F6C20 
 15342      67456669 
 15343 122a1 01       		.byte	0x1
 15344 122a2 57       		.uleb128 0x57
 15345 122a3 426C6F63 		.ascii "BlockIo2Protocol gEfiBlockIo2ProtocolGuid\0"
 15345      6B496F32 
 15345      50726F74 
 15345      6F636F6C 
 15345      20674566 
 15346 122cd 01       		.byte	0x1
 15347 122ce 59       		.uleb128 0x59
 15348 122cf 4469736B 		.ascii "DiskIoProtocol gEfiDiskIoProtocolGuid\0"
 15348      496F5072 
 15348      6F746F63 
 15348      6F6C2067 
 15348      45666944 
 15349 122f5 01       		.byte	0x1
 15350 122f6 5B       		.uleb128 0x5b
 15351 122f7 4469736B 		.ascii "DiskIo2Protocol gEfiDiskIo2ProtocolGuid\0"
 15351      496F3250 
 15351      726F746F 
 15351      636F6C20 
 15351      67456669 
 15352 1231f 01       		.byte	0x1
 15353 12320 5D       		.uleb128 0x5d
 15354 12321 46696C65 		.ascii "FileSystemProtocol gEfiSimpleFileSystemProtocolGuid\0"
 15354      53797374 
 15354      656D5072 
 15354      6F746F63 
 15354      6F6C2067 
 15355 12355 01       		.byte	0x1
 15356 12356 5F       		.uleb128 0x5f
 15357 12357 4C6F6164 		.ascii "LoadFileProtocol gEfiLoadFileProtocolGuid\0"
 15357      46696C65 
 15357      50726F74 
 15357      6F636F6C 
 15357      20674566 
 15358 12381 01       		.byte	0x1
 15359 12382 61       		.uleb128 0x61
 15360 12383 44657669 		.ascii "DeviceIoProtocol gEfiDeviceIoProtocolGuid\0"
 15360      6365496F 
 15360      50726F74 
 15360      6F636F6C 
 15360      20674566 
 15361 123ad 01       		.byte	0x1
 15362 123ae 65       		.uleb128 0x65
 15363 123af 556E6963 		.ascii "UnicodeCollationProtocol gEfiUnicodeCollationProtocolGuid\0"
 15363      6F646543 
 15363      6F6C6C61 
 15363      74696F6E 
 15363      50726F74 
 15364 123e9 01       		.byte	0x1
 15365 123ea 67       		.uleb128 0x67
 15366 123eb 53657269 		.ascii "SerialIoProtocol gEfiSerialIoProtocolGuid\0"
 15366      616C496F 
 15366      50726F74 
 15366      6F636F6C 
 15366      20674566 
 15367 12415 01       		.byte	0x1
 15368 12416 6D       		.uleb128 0x6d
 15369 12417 53696D70 		.ascii "SimpleNetworkProtocol gEfiSimpleNetworkProtocolGuid\0"
 15369      6C654E65 
 15369      74776F72 
 15369      6B50726F 
 15369      746F636F 
 15370 1244b 01       		.byte	0x1
 15371 1244c 6F       		.uleb128 0x6f
 15372 1244d 50786542 		.ascii "PxeBaseCodeProtocol gEfiPxeBaseCodeProtocolGuid\0"
 15372      61736543 
 15372      6F646550 
 15372      726F746F 
 15372      636F6C20 
 15373 1247d 01       		.byte	0x1
 15374 1247e 71       		.uleb128 0x71
 15375 1247f 50786543 		.ascii "PxeCallbackProtocol gEfiPxeBaseCodeCallbackProtocolGuid\0"
 15375      616C6C62 
 15375      61636B50 
 15375      726F746F 
 15375      636F6C20 
 15376 124b7 01       		.byte	0x1
 15377 124b8 73       		.uleb128 0x73
 15378 124b9 4E657477 		.ascii "NetworkInterfaceIdentifierProtocol gEfiNetworkInterfaceIdentifierProtocolGuid\0"
 15378      6F726B49 
 15378      6E746572 
 15378      66616365 
 15378      4964656E 
 15379 12507 01       		.byte	0x1
 15380 12508 75       		.uleb128 0x75
 15381 12509 55695072 		.ascii "UiProtocol gEFiUiInterfaceProtocolGuid\0"
 15381      6F746F63 
 15381      6F6C2067 
 15381      45466955 
 15381      69496E74 
 15382 12530 01       		.byte	0x1
 15383 12531 78       		.uleb128 0x78
 15384 12532 50636949 		.ascii "PciIoProtocol gEfiPciIoProtocolGuid\0"
 15384      6F50726F 
 15384      746F636F 
 15384      6C206745 
 15384      66695063 
 15385 12556 01       		.byte	0x1
 15386 12557 7B       		.uleb128 0x7b
 15387 12558 44726976 		.ascii "DriverBindingProtocol gEfiDriverBindingProtocolGuid\0"
 15387      65724269 
 15387      6E64696E 
 15387      6750726F 
 15387      746F636F 
 15388 1258c 01       		.byte	0x1
 15389 1258d 7D       		.uleb128 0x7d
 15390 1258e 436F6D70 		.ascii "ComponentNameProtocol gEfiComponentNameProtocolGuid\0"
 15390      6F6E656E 
 15390      744E616D 
 15390      6550726F 
 15390      746F636F 
 15391 125c2 01       		.byte	0x1
 15392 125c3 7F       		.uleb128 0x7f
 15393 125c4 436F6D70 		.ascii "ComponentName2Protocol gEfiComponentName2ProtocolGuid\0"
 15393      6F6E656E 
 15393      744E616D 
 15393      65325072 
 15393      6F746F63 
 15394 125fa 01       		.byte	0x1
 15395 125fb 8101     		.uleb128 0x81
 15396 125fd 48617368 		.ascii "HashProtocol gEfiHashProtocolGuid\0"
 15396      50726F74 
 15396      6F636F6C 
 15396      20674566 
 15396      69486173 
 15397 1261f 01       		.byte	0x1
 15398 12620 8301     		.uleb128 0x83
 15399 12622 506C6174 		.ascii "PlatformDriverOverrideProtocol gEfiPlatformDriverOverrideProtocolGuid\0"
 15399      666F726D 
 15399      44726976 
 15399      65724F76 
 15399      65727269 
 15400 12668 01       		.byte	0x1
 15401 12669 8501     		.uleb128 0x85
 15402 1266b 42757353 		.ascii "BusSpecificDriverOverrideProtocol gEfiBusSpecificDriverOverrideProtocolGuid\0"
 15402      70656369 
 15402      66696344 
 15402      72697665 
 15402      724F7665 
 15403 126b7 01       		.byte	0x1
 15404 126b8 8701     		.uleb128 0x87
 15405 126ba 44726976 		.ascii "DriverFamilyOverrideProtocol gEfiDriverFamilyOverrideProtocolGuid\0"
 15405      65724661 
 15405      6D696C79 
 15405      4F766572 
 15405      72696465 
 15406 126fc 01       		.byte	0x1
 15407 126fd 8B01     		.uleb128 0x8b
 15408 126ff 45666947 		.ascii "EfiGlobalVariable gEfiGlobalVariableGuid\0"
 15408      6C6F6261 
 15408      6C566172 
 15408      6961626C 
 15408      65206745 
 15409 12728 01       		.byte	0x1
 15410 12729 8D01     		.uleb128 0x8d
 15411 1272b 47656E65 		.ascii "GenericFileInfo gEfiFileInfoGuid\0"
 15411      72696346 
 15411      696C6549 
 15411      6E666F20 
 15411      67456669 
 15412 1274c 01       		.byte	0x1
 15413 1274d 8F01     		.uleb128 0x8f
 15414 1274f 46696C65 		.ascii "FileSystemInfo gEfiFileSystemInfoGuid\0"
 15414      53797374 
 15414      656D496E 
 15414      666F2067 
 15414      45666946 
 15415 12775 01       		.byte	0x1
 15416 12776 9101     		.uleb128 0x91
 15417 12778 46696C65 		.ascii "FileSystemVolumeLabelInfo gEfiFileSystemVolumeLabelInfoIdGuid\0"
 15417      53797374 
 15417      656D566F 
 15417      6C756D65 
 15417      4C616265 
 15418 127b6 01       		.byte	0x1
 15419 127b7 9301     		.uleb128 0x93
 15420 127b9 5063416E 		.ascii "PcAnsiProtocol gEfiPcAnsiGuid\0"
 15420      73695072 
 15420      6F746F63 
 15420      6F6C2067 
 15420      45666950 
 15421 127d7 01       		.byte	0x1
 15422 127d8 9501     		.uleb128 0x95
 15423 127da 56743130 		.ascii "Vt100Protocol gEfiVT100Guid\0"
 15423      3050726F 
 15423      746F636F 
 15423      6C206745 
 15423      66695654 
 15424 127f6 01       		.byte	0x1
 15425 127f7 B501     		.uleb128 0xb5
 15426 127f9 4C4F4144 		.ascii "LOAD_OPTION_ACTIVE 0x00000001\0"
 15426      5F4F5054 
 15426      494F4E5F 
 15426      41435449 
 15426      56452030 
 15427 12817 01       		.byte	0x1
 15428 12818 B701     		.uleb128 0xb7
 15429 1281a 5661724C 		.ascii "VarLanguageCodes L\"LangCodes\"\0"
 15429      616E6775 
 15429      61676543 
 15429      6F646573 
 15429      204C224C 
 15430 12838 01       		.byte	0x1
 15431 12839 B801     		.uleb128 0xb8
 15432 1283b 5661724C 		.ascii "VarLanguage L\"Lang\"\0"
 15432      616E6775 
 15432      61676520 
 15432      4C224C61 
 15432      6E672200 
 15433 1284f 01       		.byte	0x1
 15434 12850 B901     		.uleb128 0xb9
 15435 12852 56617254 		.ascii "VarTimeout L\"Timeout\"\0"
 15435      696D656F 
 15435      7574204C 
 15435      2254696D 
 15435      656F7574 
 15436 12868 01       		.byte	0x1
 15437 12869 BA01     		.uleb128 0xba
 15438 1286b 56617243 		.ascii "VarConsoleInp L\"ConIn\"\0"
 15438      6F6E736F 
 15438      6C65496E 
 15438      70204C22 
 15438      436F6E49 
 15439 12882 01       		.byte	0x1
 15440 12883 BB01     		.uleb128 0xbb
 15441 12885 56617243 		.ascii "VarConsoleOut L\"ConOut\"\0"
 15441      6F6E736F 
 15441      6C654F75 
 15441      74204C22 
 15441      436F6E4F 
 15442 1289d 01       		.byte	0x1
 15443 1289e BC01     		.uleb128 0xbc
 15444 128a0 56617245 		.ascii "VarErrorOut L\"ErrOut\"\0"
 15444      72726F72 
 15444      4F757420 
 15444      4C224572 
 15444      724F7574 
 15445 128b6 01       		.byte	0x1
 15446 128b7 BD01     		.uleb128 0xbd
 15447 128b9 56617242 		.ascii "VarBootOption L\"Boot%04x\"\0"
 15447      6F6F744F 
 15447      7074696F 
 15447      6E204C22 
 15447      426F6F74 
 15448 128d3 01       		.byte	0x1
 15449 128d4 BE01     		.uleb128 0xbe
 15450 128d6 56617242 		.ascii "VarBootOrder L\"BootOrder\"\0"
 15450      6F6F744F 
 15450      72646572 
 15450      204C2242 
 15450      6F6F744F 
 15451 128f0 01       		.byte	0x1
 15452 128f1 BF01     		.uleb128 0xbf
 15453 128f3 56617242 		.ascii "VarBootNext L\"BootNext\"\0"
 15453      6F6F744E 
 15453      65787420 
 15453      4C22426F 
 15453      6F744E65 
 15454 1290b 01       		.byte	0x1
 15455 1290c C001     		.uleb128 0xc0
 15456 1290e 56617242 		.ascii "VarBootCurrent L\"BootCurrent\"\0"
 15456      6F6F7443 
 15456      75727265 
 15456      6E74204C 
 15456      22426F6F 
 15457 1292c 01       		.byte	0x1
 15458 1292d C101     		.uleb128 0xc1
 15459 1292f 56617244 		.ascii "VarDriverOption L\"Driver%04x\"\0"
 15459      72697665 
 15459      724F7074 
 15459      696F6E20 
 15459      4C224472 
 15460 1294d 01       		.byte	0x1
 15461 1294e C201     		.uleb128 0xc2
 15462 12950 56617244 		.ascii "VarDriverOrder L\"DriverOrder\"\0"
 15462      72697665 
 15462      724F7264 
 15462      6572204C 
 15462      22447269 
 15463 1296e 01       		.byte	0x1
 15464 1296f C301     		.uleb128 0xc3
 15465 12971 56617243 		.ascii "VarConsoleInpDev L\"ConInDev\"\0"
 15465      6F6E736F 
 15465      6C65496E 
 15465      70446576 
 15465      204C2243 
 15466 1298e 01       		.byte	0x1
 15467 1298f C401     		.uleb128 0xc4
 15468 12991 56617243 		.ascii "VarConsoleOutDev L\"ConOutDev\"\0"
 15468      6F6E736F 
 15468      6C654F75 
 15468      74446576 
 15468      204C2243 
 15469 129af 01       		.byte	0x1
 15470 129b0 C501     		.uleb128 0xc5
 15471 129b2 56617245 		.ascii "VarErrorOutDev L\"ErrOutDev\"\0"
 15471      72726F72 
 15471      4F757444 
 15471      6576204C 
 15471      22457272 
 15472 129ce 01       		.byte	0x1
 15473 129cf C701     		.uleb128 0xc7
 15474 129d1 4C616E67 		.ascii "LanguageCodeEnglish \"eng\"\0"
 15474      75616765 
 15474      436F6465 
 15474      456E676C 
 15474      69736820 
 15475 129eb 01       		.byte	0x1
 15476 129ec D901     		.uleb128 0xd9
 15477 129ee 53544154 		.ascii "STATIC \0"
 15477      49432000 
 15478 129f6 01       		.byte	0x1
 15479 129f7 DA01     		.uleb128 0xda
 15480 129f9 494E5445 		.ascii "INTERNAL \0"
 15480      524E414C 
 15480      2000
 15481 12a03 01       		.byte	0x1
 15482 12a04 DB01     		.uleb128 0xdb
 15483 12a06 424F4F54 		.ascii "BOOTSERVICE \0"
 15483      53455256 
 15483      49434520 
 15483      00
 15484 12a13 01       		.byte	0x1
 15485 12a14 F204     		.uleb128 0x272
 15486 12a16 53507269 		.ascii "SPrint UnicodeSPrint\0"
 15486      6E742055 
 15486      6E69636F 
 15486      64655350 
 15486      72696E74 
 15487 12a2b 01       		.byte	0x1
 15488 12a2c F304     		.uleb128 0x273
 15489 12a2e 56535072 		.ascii "VSPrint UnicodeVSPrint\0"
 15489      696E7420 
 15489      556E6963 
 15489      6F646556 
 15489      53507269 
 15490 12a45 01       		.byte	0x1
 15491 12a46 F404     		.uleb128 0x274
 15492 12a48 41507269 		.ascii "APrint AsciiPrint\0"
 15492      6E742041 
 15492      73636969 
 15492      5072696E 
 15492      7400
 15493 12a5a 01       		.byte	0x1
 15494 12a5b AD08     		.uleb128 0x42d
 15495 12a5d 6F757470 		.ascii "outp(_Port,_DataByte) (UINT8)WritePort(GlobalIoFncs, IO_UINT8, (UINTN)_Port, (UINTN)_DataB
 15495      285F506F 
 15495      72742C5F 
 15495      44617461 
 15495      42797465 
 15496 12abc 01       		.byte	0x1
 15497 12abd AE08     		.uleb128 0x42e
 15498 12abf 696E7028 		.ascii "inp(_Port) (UINT8)ReadPort(GlobalIoFncs, IO_UINT8, (UINTN)_Port)\0"
 15498      5F506F72 
 15498      74292028 
 15498      55494E54 
 15498      38295265 
 15499 12b00 01       		.byte	0x1
 15500 12b01 AF08     		.uleb128 0x42f
 15501 12b03 6F757470 		.ascii "outpw(_Port,_DataByte) (UINT16)WritePort(GlobalIoFncs, IO_UINT16, (UINTN)_Port, (UINTN)_Da
 15501      77285F50 
 15501      6F72742C 
 15501      5F446174 
 15501      61427974 
 15502 12b65 01       		.byte	0x1
 15503 12b66 B008     		.uleb128 0x430
 15504 12b68 696E7077 		.ascii "inpw(_Port) (UINT16)ReadPort(GlobalIoFncs, IO_UINT16, (UINTN)_Port)\0"
 15504      285F506F 
 15504      72742920 
 15504      2855494E 
 15504      54313629 
 15505 12bac 01       		.byte	0x1
 15506 12bad B108     		.uleb128 0x431
 15507 12baf 6F757470 		.ascii "outpd(_Port,_DataByte) (UINT32)WritePort(GlobalIoFncs, IO_UINT32, (UINTN)_Port, (UINTN)_Da
 15507      64285F50 
 15507      6F72742C 
 15507      5F446174 
 15507      61427974 
 15508 12c11 01       		.byte	0x1
 15509 12c12 B208     		.uleb128 0x432
 15510 12c14 696E7064 		.ascii "inpd(_Port) (UINT32)ReadPort(GlobalIoFncs, IO_UINT32, (UINTN)_Port)\0"
 15510      285F506F 
 15510      72742920 
 15510      2855494E 
 15510      54333229 
 15511 12c58 01       		.byte	0x1
 15512 12c59 B408     		.uleb128 0x434
 15513 12c5b 77726974 		.ascii "writepci8(_Addr,_DataByte) (UINT8)WritePciConfig(GlobalIoFncs, IO_UINT8, (UINTN)_Addr, (UI
 15513      65706369 
 15513      38285F41 
 15513      6464722C 
 15513      5F446174 
 15514 12cc4 01       		.byte	0x1
 15515 12cc5 B508     		.uleb128 0x435
 15516 12cc7 72656164 		.ascii "readpci8(_Addr) (UINT8)ReadPciConfig(GlobalIoFncs, IO_UINT8, (UINTN)_Addr)\0"
 15516      70636938 
 15516      285F4164 
 15516      64722920 
 15516      2855494E 
 15517 12d12 01       		.byte	0x1
 15518 12d13 B608     		.uleb128 0x436
 15519 12d15 77726974 		.ascii "writepci16(_Addr,_DataByte) (UINT16)WritePciConfig(GlobalIoFncs, IO_UINT16, (UINTN)_Addr, 
 15519      65706369 
 15519      3136285F 
 15519      41646472 
 15519      2C5F4461 
 15520 12d81 01       		.byte	0x1
 15521 12d82 B708     		.uleb128 0x437
 15522 12d84 72656164 		.ascii "readpci16(_Addr) (UINT16)ReadPciConfig(GlobalIoFncs, IO_UINT16, (UINTN)_Addr)\0"
 15522      70636931 
 15522      36285F41 
 15522      64647229 
 15522      20285549 
 15523 12dd2 01       		.byte	0x1
 15524 12dd3 B808     		.uleb128 0x438
 15525 12dd5 77726974 		.ascii "writepci32(_Addr,_DataByte) (UINT32)WritePciConfig(GlobalIoFncs, IO_UINT32, (UINTN)_Addr, 
 15525      65706369 
 15525      3332285F 
 15525      41646472 
 15525      2C5F4461 
 15526 12e41 01       		.byte	0x1
 15527 12e42 B908     		.uleb128 0x439
 15528 12e44 72656164 		.ascii "readpci32(_Addr) (UINT32)ReadPciConfig(GlobalIoFncs, IO_UINT32, (UINTN)_Addr)\0"
 15528      70636933 
 15528      32285F41 
 15528      64647229 
 15528      20285549 
 15529 12e92 01       		.byte	0x1
 15530 12e93 BB08     		.uleb128 0x43b
 15531 12e95 506F7274 		.ascii "Port80(_PostCode) GlobalIoFncs->Io.Write (GlobalIoFncs, IO_UINT16, (UINT64)0x80, 1, &(_Pos
 15531      3830285F 
 15531      506F7374 
 15531      436F6465 
 15531      2920476C 
 15532 12ef7 04       		.byte	0x4
 15533              		.file 45 "gnu-efi-3.0.18/inc/protocol/efivar.h"
 15534 12ef8 03       		.byte	0x3
 15535 12ef9 1E       		.uleb128 0x1e
 15536 12efa 2D       		.uleb128 0x2d
 15537 12efb 01       		.byte	0x1
 15538 12efc 1C       		.uleb128 0x1c
 15539 12efd 56415249 		.ascii "VARIABLE_STORE_PROTOCOL { 0xf088cd91, 0xa046, 0x11d2, {0x8e, 0x42, 0x0, 0xa0, 0xc9, 0x69, 
 15539      41424C45 
 15539      5F53544F 
 15539      52455F50 
 15539      524F544F 
 15540 12f65 04       		.byte	0x4
 15541              		.file 46 "gnu-efi-3.0.18/inc/protocol/legacyboot.h"
 15542 12f66 03       		.byte	0x3
 15543 12f67 1F       		.uleb128 0x1f
 15544 12f68 2E       		.uleb128 0x2e
 15545 12f69 01       		.byte	0x1
 15546 12f6a 14       		.uleb128 0x14
 15547 12f6b 5F4C4547 		.ascii "_LEGACY_BOOT_INCLUDE_ \0"
 15547      4143595F 
 15547      424F4F54 
 15547      5F494E43 
 15547      4C554445 
 15548 12f82 01       		.byte	0x1
 15549 12f83 16       		.uleb128 0x16
 15550 12f84 4C454741 		.ascii "LEGACY_BOOT_PROTOCOL { 0x376e5eb2, 0x30e4, 0x11d3, { 0xba, 0xe5, 0x0, 0x80, 0xc7, 0x3c, 0x
 15550      43595F42 
 15550      4F4F545F 
 15550      50524F54 
 15550      4F434F4C 
 15551 12feb 04       		.byte	0x4
 15552              		.file 47 "gnu-efi-3.0.18/inc/protocol/intload.h"
 15553 12fec 03       		.byte	0x3
 15554 12fed 20       		.uleb128 0x20
 15555 12fee 2F       		.uleb128 0x2f
 15556 12fef 01       		.byte	0x1
 15557 12ff0 14       		.uleb128 0x14
 15558 12ff1 5F494E54 		.ascii "_INTERNAL_LOAD_INCLUDE_ \0"
 15558      45524E41 
 15558      4C5F4C4F 
 15558      41445F49 
 15558      4E434C55 
 15559 1300a 01       		.byte	0x1
 15560 1300b 17       		.uleb128 0x17
 15561 1300c 494E5445 		.ascii "INTERNAL_SHELL_GUID { 0xd65a6b8c, 0x71e5, 0x4df0, {0xa9, 0x09, 0xf0, 0xd2, 0x99, 0x2b, 0x5
 15561      524E414C 
 15561      5F534845 
 15561      4C4C5F47 
 15561      55494420 
 15562 13071 04       		.byte	0x4
 15563              		.file 48 "gnu-efi-3.0.18/inc/protocol/vgaclass.h"
 15564 13072 03       		.byte	0x3
 15565 13073 21       		.uleb128 0x21
 15566 13074 30       		.uleb128 0x30
 15567 13075 01       		.byte	0x1
 15568 13076 02       		.uleb128 0x2
 15569 13077 5F564741 		.ascii "_VGA_CLASS_H \0"
 15569      5F434C41 
 15569      53535F48 
 15569      2000
 15570 13085 01       		.byte	0x1
 15571 13086 1B       		.uleb128 0x1b
 15572 13087 5647415F 		.ascii "VGA_CLASS_DRIVER_PROTOCOL { 0xe3d6310, 0x6fe4, 0x11d3, {0xbb, 0x81, 0x0, 0x80, 0xc7, 0x3c,
 15572      434C4153 
 15572      535F4452 
 15572      49564552 
 15572      5F50524F 
 15573 130f0 01       		.byte	0x1
 15574 130f1 2A       		.uleb128 0x2a
 15575 130f2 5647415F 		.ascii "VGA_CON_OUT_DEV_SIGNATURE EFI_SIGNATURE_32('c','v','g','a')\0"
 15575      434F4E5F 
 15575      4F55545F 
 15575      4445565F 
 15575      5349474E 
 15576 1312e 01       		.byte	0x1
 15577 1312f 4C       		.uleb128 0x4c
 15578 13130 5647415F 		.ascii "VGA_CON_OUT_DEV_FROM_THIS(a) CR(a, VGA_CON_OUT_DEV, ConOut, VGA_CON_OUT_DEV_SIGNATURE)\0"
 15578      434F4E5F 
 15578      4F55545F 
 15578      4445565F 
 15578      46524F4D 
 15579 13187 04       		.byte	0x4
 15580              		.file 49 "gnu-efi-3.0.18/inc/protocol/eficonsplit.h"
 15581 13188 03       		.byte	0x3
 15582 13189 22       		.uleb128 0x22
 15583 1318a 31       		.uleb128 0x31
 15584 1318b 01       		.byte	0x1
 15585 1318c 02       		.uleb128 0x2
 15586 1318d 5F454649 		.ascii "_EFI_CONFORK_H \0"
 15586      5F434F4E 
 15586      464F524B 
 15586      5F482000 
 15587 1319d 01       		.byte	0x1
 15588 1319e 17       		.uleb128 0x17
 15589 1319f 54455854 		.ascii "TEXT_OUT_SPLITER_PROTOCOL { 0x56d830a0, 0x7e7a, 0x11d3, {0xbb, 0xa0, 0x0, 0xa0, 0xc9, 0x69
 15589      5F4F5554 
 15589      5F53504C 
 15589      49544552 
 15589      5F50524F 
 15590 13209 01       		.byte	0x1
 15591 1320a 1A       		.uleb128 0x1a
 15592 1320b 4552524F 		.ascii "ERROR_OUT_SPLITER_PROTOCOL { 0xf0ba9039, 0x68f1, 0x425e, {0xaa, 0x7f, 0xd9, 0xaa, 0xf9, 0x
 15592      525F4F55 
 15592      545F5350 
 15592      4C495445 
 15592      525F5052 
 15593 13276 01       		.byte	0x1
 15594 13277 1D       		.uleb128 0x1d
 15595 13278 54455854 		.ascii "TEXT_IN_SPLITER_PROTOCOL { 0xf9a3c550, 0x7fb5, 0x11d3, {0xbb, 0xa0, 0x0, 0xa0, 0xc9, 0x69,
 15595      5F494E5F 
 15595      53504C49 
 15595      5445525F 
 15595      50524F54 
 15596 132e1 04       		.byte	0x4
 15597              		.file 50 "gnu-efi-3.0.18/inc/protocol/adapterdebug.h"
 15598 132e2 03       		.byte	0x3
 15599 132e3 23       		.uleb128 0x23
 15600 132e4 32       		.uleb128 0x32
 15601 132e5 01       		.byte	0x1
 15602 132e6 02       		.uleb128 0x2
 15603 132e7 5F414441 		.ascii "_ADAPTER_DEBUG_H \0"
 15603      50544552 
 15603      5F444542 
 15603      55475F48 
 15603      2000
 15604 132f9 01       		.byte	0x1
 15605 132fa 17       		.uleb128 0x17
 15606 132fb 41444150 		.ascii "ADAPTER_DEBUG_PROTOCOL { 0x82f86881, 0x282b, 0x11d4, {0xbc, 0x7d, 0x0, 0x80, 0xc7, 0x3c, 0
 15606      5445525F 
 15606      44454255 
 15606      475F5052 
 15606      4F544F43 
 15607 13362 04       		.byte	0x4
 15608              		.file 51 "gnu-efi-3.0.18/inc/efigpt.h"
 15609 13363 03       		.byte	0x3
 15610 13364 26       		.uleb128 0x26
 15611 13365 33       		.uleb128 0x33
 15612 13366 01       		.byte	0x1
 15613 13367 02       		.uleb128 0x2
 15614 13368 5F454649 		.ascii "_EFI_GPT_H \0"
 15614      5F475054 
 15614      5F482000 
 15615 13374 01       		.byte	0x1
 15616 13375 14       		.uleb128 0x14
 15617 13376 5052494D 		.ascii "PRIMARY_PART_HEADER_LBA 1\0"
 15617      4152595F 
 15617      50415254 
 15617      5F484541 
 15617      4445525F 
 15618 13390 01       		.byte	0x1
 15619 13391 23       		.uleb128 0x23
 15620 13392 4546495F 		.ascii "EFI_PTAB_HEADER_ID \"EFI PART\"\0"
 15620      50544142 
 15620      5F484541 
 15620      4445525F 
 15620      49442022 
 15621 133b0 01       		.byte	0x1
 15622 133b1 31       		.uleb128 0x31
 15623 133b2 4546495F 		.ascii "EFI_PART_USED_BY_EFI 0x0000000000000001\0"
 15623      50415254 
 15623      5F555345 
 15623      445F4259 
 15623      5F454649 
 15624 133da 01       		.byte	0x1
 15625 133db 32       		.uleb128 0x32
 15626 133dc 4546495F 		.ascii "EFI_PART_REQUIRED_TO_FUNCTION 0x0000000000000002\0"
 15626      50415254 
 15626      5F524551 
 15626      55495245 
 15626      445F544F 
 15627 1340d 01       		.byte	0x1
 15628 1340e 33       		.uleb128 0x33
 15629 1340f 4546495F 		.ascii "EFI_PART_USED_BY_OS 0x0000000000000004\0"
 15629      50415254 
 15629      5F555345 
 15629      445F4259 
 15629      5F4F5320 
 15630 13436 01       		.byte	0x1
 15631 13437 34       		.uleb128 0x34
 15632 13438 4546495F 		.ascii "EFI_PART_REQUIRED_BY_OS 0x0000000000000008\0"
 15632      50415254 
 15632      5F524551 
 15632      55495245 
 15632      445F4259 
 15633 13463 01       		.byte	0x1
 15634 13464 35       		.uleb128 0x35
 15635 13465 4546495F 		.ascii "EFI_PART_BACKUP_REQUIRED 0x0000000000000010\0"
 15635      50415254 
 15635      5F424143 
 15635      4B55505F 
 15635      52455155 
 15636 13491 01       		.byte	0x1
 15637 13492 36       		.uleb128 0x36
 15638 13493 4546495F 		.ascii "EFI_PART_USER_DATA 0x0000000000000020\0"
 15638      50415254 
 15638      5F555345 
 15638      525F4441 
 15638      54412030 
 15639 134b9 01       		.byte	0x1
 15640 134ba 37       		.uleb128 0x37
 15641 134bb 4546495F 		.ascii "EFI_PART_CRITICAL_USER_DATA 0x0000000000000040\0"
 15641      50415254 
 15641      5F435249 
 15641      54494341 
 15641      4C5F5553 
 15642 134ea 01       		.byte	0x1
 15643 134eb 38       		.uleb128 0x38
 15644 134ec 4546495F 		.ascii "EFI_PART_REDUNDANT_PARTITION 0x0000000000000080\0"
 15644      50415254 
 15644      5F524544 
 15644      554E4441 
 15644      4E545F50 
 15645 1351c 01       		.byte	0x1
 15646 1351d 3A       		.uleb128 0x3a
 15647 1351e 4546495F 		.ascii "EFI_PART_TYPE_UNUSED_GUID { 0x00000000, 0x0000, 0x0000, {0x00, 0x00, 0x00, 0x00, 0x00, 0x0
 15647      50415254 
 15647      5F545950 
 15647      455F554E 
 15647      55534544 
 15648 13589 01       		.byte	0x1
 15649 1358a 3D       		.uleb128 0x3d
 15650 1358b 4546495F 		.ascii "EFI_PART_TYPE_EFI_SYSTEM_PART_GUID { 0xc12a7328, 0xf81f, 0x11d2, {0xba, 0x4b, 0x00, 0xa0, 
 15650      50415254 
 15650      5F545950 
 15650      455F4546 
 15650      495F5359 
 15651 135ff 01       		.byte	0x1
 15652 13600 40       		.uleb128 0x40
 15653 13601 4546495F 		.ascii "EFI_PART_TYPE_LEGACY_MBR_GUID { 0x024dee41, 0x33e7, 0x11d3, {0x9d, 0x69, 0x00, 0x08, 0xc7,
 15653      50415254 
 15653      5F545950 
 15653      455F4C45 
 15653      47414359 
 15654 13670 04       		.byte	0x4
 15655 13671 04       		.byte	0x4
 15656 13672 04       		.byte	0x4
 15657 13673 00       		.byte	0
 15658              		.section	.debug_line,"dr"
 15659              	.Ldebug_line0:
 15660 0000 E7070000 		.section	.debug_str,"dr"
 15660      05000800 
 15660      40010000 
 15660      010101FB 
 15660      0E0D0001 
 15661              	.LASF13:
 15662 0000 5661724E 		.ascii "VarName\0"
 15662      616D6500 
 15663              	.LASF16:
 15664 0008 42756666 		.ascii "Buffer\0"
 15664      657200
 15665              	.LASF10:
 15666 000f 53746172 		.ascii "StartingLBA\0"
 15666      74696E67 
 15666      4C424100 
 15667              	.LASF5:
 15668 001b 5369676E 		.ascii "Signature\0"
 15668      61747572 
 15668      6500
 15669              	.LASF2:
 15670 0025 41747472 		.ascii "Attribute\0"
 15670      69627574 
 15670      6500
 15671              	.LASF8:
 15672 002f 56656E64 		.ascii "VendorGuid\0"
 15672      6F724775 
 15672      696400
 15673              	.LASF17:
 15674 003a 42756666 		.ascii "BufferSize\0"
 15674      65725369 
 15674      7A6500
 15675              	.LASF11:
 15676 0045 53746174 		.ascii "Status\0"
 15676      757300
 15677              	.LASF6:
 15678 004c 416C6C6F 		.ascii "AllocatePool\0"
 15678      63617465 
 15678      506F6F6C 
 15678      00
 15679              	.LASF15:
 15680 0059 44617461 		.ascii "DataSize\0"
 15680      53697A65 
 15680      00
 15681              	.LASF7:
 15682 0062 46726565 		.ascii "FreePool\0"
 15682      506F6F6C 
 15682      00
 15683              	.LASF14:
 15684 006b 56617247 		.ascii "VarGuid\0"
 15684      75696400 
 15685              	.LASF12:
 15686 0073 56617253 		.ascii "VarSize\0"
 15686      697A6500 
 15687              	.LASF3:
 15688 007b 52657669 		.ascii "Revision\0"
 15688      73696F6E 
 15688      00
 15689              	.LASF9:
 15690 0084 4C616E67 		.ascii "LangCode\0"
 15690      436F6465 
 15690      00
 15691              	.LASF4:
 15692 008d 48656164 		.ascii "HeaderSize\0"
 15692      65725369 
 15692      7A6500
 15693              		.section	.debug_line_str,"dr"
 15694              	.LASF1:
 15695 0000 433A5C55 		.ascii "C:\\Users\\victim\\Desktop\\dangerous\\yuziakicin\\UEFI\\UEFI\\Backend\0"
 15695      73657273 
 15695      5C766963 
 15695      74696D5C 
 15695      4465736B 
 15696              	.LASF0:
 15697 003f 433A5C55 		.ascii "C:\\Users\\victim\\Desktop\\dangerous\\yuziakicin\\UEFI\\UEFI\\Backend\\gnu-efi-3.0.18\\li
 15697      73657273 
 15697      5C766963 
 15697      74696D5C 
 15697      4465736B 
 15698              		.ident	"GCC: (Rev3, Built by MSYS2 project) 13.2.0"
 15709 0098 433A2F55 		.section	.rdata$.refptr.gEFiUiInterfaceProtocolGuid, "dr"
 15709      73657273 
 15709      2F766963 
 15709      74696D2F 
 15709      4465736B 
 15710              		.globl	.refptr.gEFiUiInterfaceProtocolGuid
 15711              		.linkonce	discard
 15712              	.refptr.gEFiUiInterfaceProtocolGuid:
 15713 0000 00000000 		.quad	gEFiUiInterfaceProtocolGuid
 15713      00000000 
 15714 0008 00000000 		.section	.rdata$.refptr.ST, "dr"
 15714      00000000 
 15715              		.globl	.refptr.ST
 15716              		.linkonce	discard
 15717              	.refptr.ST:
 15718 0000 00000000 		.quad	ST
 15718      00000000 
 15719 0008 00000000 		.section	.rdata$.refptr.gEfiGlobalVariableGuid, "dr"
 15719      00000000 
 15720              		.globl	.refptr.gEfiGlobalVariableGuid
 15721              		.linkonce	discard
 15722              	.refptr.gEfiGlobalVariableGuid:
 15723 0000 00000000 		.quad	gEfiGlobalVariableGuid
 15723      00000000 
 15724 0008 00000000 		.section	.rdata$.refptr.RT, "dr"
 15724      00000000 
 15725              		.globl	.refptr.RT
 15726              		.linkonce	discard
 15727              	.refptr.RT:
 15728 0000 00000000 		.quad	RT
 15728      00000000 
 15729 0008 00000000 		.section	.rdata$.refptr.PoolAllocationType, "dr"
 15729      00000000 
 15730              		.globl	.refptr.PoolAllocationType
 15731              		.linkonce	discard
 15732              	.refptr.PoolAllocationType:
 15733 0000 00000000 		.quad	PoolAllocationType
 15733      00000000 
 15734 0008 00000000 		.section	.rdata$.refptr.BS, "dr"
 15734      00000000 
 15735              		.globl	.refptr.BS
 15736              		.linkonce	discard
 15737              	.refptr.BS:
 15738 0000 00000000 		.quad	BS
 15738      00000000 
 15738      00000000 
 15738      00000000 
